Archive member included to satisfy reference by file (symbol)

../../../netapps/mqtt/gcc/lib/client_server/Debug/libmqtt.a(sl_mqtt_client.o)
                              obj/Debug/main.o (sl_ExtLib_MqttClientCtxCreate)
../../../netapps/mqtt/gcc/lib/client_server/Debug/libmqtt.a(sl_mqtt_server.o)
                              obj/Debug/main.o (sl_ExtLib_MqttServerSend)
../../../netapps/mqtt/gcc/lib/client_server/Debug/libmqtt.a(cc32xx_sl_net.o)
                              ../../../netapps/mqtt/gcc/lib/client_server/Debug/libmqtt.a(sl_mqtt_client.o) (comm_open)
../../../netapps/mqtt/gcc/lib/client_server/Debug/libmqtt.a(cc32xx_platform.o)
                              ../../../netapps/mqtt/gcc/lib/client_server/Debug/libmqtt.a(cc32xx_sl_net.o) (platform_timer_init)
../../../netapps/mqtt/gcc/lib/client_server/Debug/libmqtt.a(mqtt_client.o)
                              ../../../netapps/mqtt/gcc/lib/client_server/Debug/libmqtt.a(cc32xx_sl_net.o) (debug_printf)
../../../netapps/mqtt/gcc/lib/client_server/Debug/libmqtt.a(mqtt_common.o)
                              ../../../netapps/mqtt/gcc/lib/client_server/Debug/libmqtt.a(mqtt_client.o) (mqp_free)
../../../netapps/mqtt/gcc/lib/client_server/Debug/libmqtt.a(server_core.o)
                              ../../../netapps/mqtt/gcc/lib/client_server/Debug/libmqtt.a(sl_mqtt_server.o) (mqtt_server_init)
../../../netapps/mqtt/gcc/lib/client_server/Debug/libmqtt.a(server_pkts.o)
                              ../../../netapps/mqtt/gcc/lib/client_server/Debug/libmqtt.a(sl_mqtt_server.o) (mqtt_server_pause_locked)
../../../netapps/mqtt/gcc/lib/client_server/Debug/libmqtt.a(server_plug.o)
                              ../../../netapps/mqtt/gcc/lib/client_server/Debug/libmqtt.a(server_core.o) (plugin_connect)
../../../netapps/mqtt/gcc/lib/client_server/Debug/libmqtt.a(server_util.o)
                              ../../../netapps/mqtt/gcc/lib/client_server/Debug/libmqtt.a(server_core.o) (mqp_new_id_server)
../../../netapps/mqtt/gcc/lib/client_server/Debug/libmqtt.a(client_mgmt.o)
                              ../../../netapps/mqtt/gcc/lib/client_server/Debug/libmqtt.a(server_core.o) (cl_sub_count_add)
../../../simplelink/gcc/lib/os/Debug/libsimplelink.a(device.o)
                              obj/Debug/network_if.o (sl_Start)
../../../simplelink/gcc/lib/os/Debug/libsimplelink.a(driver.o)
                              ../../../simplelink/gcc/lib/os/Debug/libsimplelink.a(device.o) (g_SlDeviceStatus)
../../../simplelink/gcc/lib/os/Debug/libsimplelink.a(netapp.o)
                              obj/Debug/network_if.o (sl_NetAppMDNSUnRegisterService)
../../../simplelink/gcc/lib/os/Debug/libsimplelink.a(netcfg.o)
                              obj/Debug/network_if.o (sl_NetCfgSet)
../../../simplelink/gcc/lib/os/Debug/libsimplelink.a(socket.o)
                              ../../../netapps/mqtt/gcc/lib/client_server/Debug/libmqtt.a(cc32xx_sl_net.o) (sl_Socket)
../../../simplelink/gcc/lib/os/Debug/libsimplelink.a(wlan.o)
                              obj/Debug/network_if.o (sl_WlanConnect)
../../../simplelink/gcc/lib/os/Debug/libsimplelink.a(cc_pal.o)
                              ../../../simplelink/gcc/lib/os/Debug/libsimplelink.a(device.o) (spi_Open)
../../../oslib/gcc/free_rtos/Debug/free_rtos.a(osi_freertos.o)
                              obj/Debug/gpio_if.o (osi_InterruptRegister)
../../../oslib/gcc/free_rtos/Debug/free_rtos.a(queue.o)
                              ../../../oslib/gcc/free_rtos/Debug/free_rtos.a(osi_freertos.o) (xQueueGenericCreate)
../../../oslib/gcc/free_rtos/Debug/free_rtos.a(tasks.o)
                              ../../../oslib/gcc/free_rtos/Debug/free_rtos.a(osi_freertos.o) (xTaskGenericCreate)
../../../oslib/gcc/free_rtos/Debug/free_rtos.a(port.o)
                              ../../../oslib/gcc/free_rtos/Debug/free_rtos.a(tasks.o) (pxPortInitialiseStack)
../../../oslib/gcc/free_rtos/Debug/free_rtos.a(timers.o)
                              ../../../oslib/gcc/free_rtos/Debug/free_rtos.a(tasks.o) (xTimerCreateTimerTask)
../../../oslib/gcc/free_rtos/Debug/free_rtos.a(heap_3.o)
                              ../../../oslib/gcc/free_rtos/Debug/free_rtos.a(osi_freertos.o) (pvPortMalloc)
../../../oslib/gcc/free_rtos/Debug/free_rtos.a(list.o)
                              ../../../oslib/gcc/free_rtos/Debug/free_rtos.a(queue.o) (vListInitialise)
../../../driverlib/gcc/lib/Debug/libdriver.a(gpio.o)
                              obj/Debug/pinmux.o (GPIODirModeSet)
../../../driverlib/gcc/lib/Debug/libdriver.a(interrupt.o)
                              obj/Debug/main.o (IntMasterEnable)
../../../driverlib/gcc/lib/Debug/libdriver.a(pin.o)
                              obj/Debug/pinmux.o (PinTypeUART)
../../../driverlib/gcc/lib/Debug/libdriver.a(prcm.o)
                              obj/Debug/pinmux.o (PRCMPeripheralClkEnable)
../../../driverlib/gcc/lib/Debug/libdriver.a(spi.o)
                              ../../../simplelink/gcc/lib/os/Debug/libsimplelink.a(cc_pal.o) (SPIEnable)
../../../driverlib/gcc/lib/Debug/libdriver.a(timer.o)
                              obj/Debug/timer_if.o (TimerEnable)
../../../driverlib/gcc/lib/Debug/libdriver.a(uart.o)
                              obj/Debug/uart_if.o (UARTConfigSetExpClk)
../../../driverlib/gcc/lib/Debug/libdriver.a(udma.o)
                              ../../../simplelink/gcc/lib/os/Debug/libsimplelink.a(cc_pal.o) (uDMAChannelEnable)
../../../driverlib/gcc/lib/Debug/libdriver.a(utils.o)
                              obj/Debug/main.o (UtilsDelay)
../../../driverlib/gcc/lib/Debug/libdriver.a(cpu.o)
                              ../../../driverlib/gcc/lib/Debug/libdriver.a(interrupt.o) (CPUcpsid)
../../../driverlib/gcc/lib/Debug/libdriver.a(flash.o)
                              ../../../driverlib/gcc/lib/Debug/libdriver.a(prcm.o) (FlashDisable)
/usr/lib/gcc/arm-none-eabi/5.2.0/../../../../arm-none-eabi/lib/armv7e-m/libc_nano.a(lib_a-atoi.o)
                              ../../../netapps/mqtt/gcc/lib/client_server/Debug/libmqtt.a(cc32xx_sl_net.o) (atoi)
/usr/lib/gcc/arm-none-eabi/5.2.0/../../../../arm-none-eabi/lib/armv7e-m/libc_nano.a(lib_a-malloc.o)
                              obj/Debug/server_client_cbs.o (malloc)
/usr/lib/gcc/arm-none-eabi/5.2.0/../../../../arm-none-eabi/lib/armv7e-m/libc_nano.a(lib_a-memcmp.o)
                              ../../../oslib/gcc/free_rtos/Debug/free_rtos.a(tasks.o) (memcmp)
/usr/lib/gcc/arm-none-eabi/5.2.0/../../../../arm-none-eabi/lib/armv7e-m/libc_nano.a(lib_a-memcpy.o)
                              obj/Debug/main.o (memcpy)
/usr/lib/gcc/arm-none-eabi/5.2.0/../../../../arm-none-eabi/lib/armv7e-m/libc_nano.a(lib_a-memmove.o)
                              obj/Debug/uart_if.o (memmove)
/usr/lib/gcc/arm-none-eabi/5.2.0/../../../../arm-none-eabi/lib/armv7e-m/libc_nano.a(lib_a-memset.o)
                              obj/Debug/server_client_cbs.o (memset)
/usr/lib/gcc/arm-none-eabi/5.2.0/../../../../arm-none-eabi/lib/armv7e-m/libc_nano.a(lib_a-nano-freer.o)
                              /usr/lib/gcc/arm-none-eabi/5.2.0/../../../../arm-none-eabi/lib/armv7e-m/libc_nano.a(lib_a-malloc.o) (_free_r)
/usr/lib/gcc/arm-none-eabi/5.2.0/../../../../arm-none-eabi/lib/armv7e-m/libc_nano.a(lib_a-nano-mallocr.o)
                              /usr/lib/gcc/arm-none-eabi/5.2.0/../../../../arm-none-eabi/lib/armv7e-m/libc_nano.a(lib_a-malloc.o) (_malloc_r)
/usr/lib/gcc/arm-none-eabi/5.2.0/../../../../arm-none-eabi/lib/armv7e-m/libc_nano.a(lib_a-realloc.o)
                              obj/Debug/uart_if.o (realloc)
/usr/lib/gcc/arm-none-eabi/5.2.0/../../../../arm-none-eabi/lib/armv7e-m/libc_nano.a(lib_a-sbrkr.o)
                              /usr/lib/gcc/arm-none-eabi/5.2.0/../../../../arm-none-eabi/lib/armv7e-m/libc_nano.a(lib_a-nano-mallocr.o) (_sbrk_r)
/usr/lib/gcc/arm-none-eabi/5.2.0/../../../../arm-none-eabi/lib/armv7e-m/libc_nano.a(lib_a-sprintf.o)
                              ../../../oslib/gcc/free_rtos/Debug/free_rtos.a(tasks.o) (sprintf)
/usr/lib/gcc/arm-none-eabi/5.2.0/../../../../arm-none-eabi/lib/armv7e-m/libc_nano.a(lib_a-strcmp.o)
                              ../../../netapps/mqtt/gcc/lib/client_server/Debug/libmqtt.a(server_core.o) (strcmp)
/usr/lib/gcc/arm-none-eabi/5.2.0/../../../../arm-none-eabi/lib/armv7e-m/libc_nano.a(lib_a-strcpy.o)
                              ../../../netapps/mqtt/gcc/lib/client_server/Debug/libmqtt.a(cc32xx_sl_net.o) (strcpy)
/usr/lib/gcc/arm-none-eabi/5.2.0/../../../../arm-none-eabi/lib/armv7e-m/libc_nano.a(lib_a-strlen.o)
                              obj/Debug/main.o (strlen)
/usr/lib/gcc/arm-none-eabi/5.2.0/../../../../arm-none-eabi/lib/armv7e-m/libc_nano.a(lib_a-strncmp.o)
                              ../../../netapps/mqtt/gcc/lib/client_server/Debug/libmqtt.a(client_mgmt.o) (strncmp)
/usr/lib/gcc/arm-none-eabi/5.2.0/../../../../arm-none-eabi/lib/armv7e-m/libc_nano.a(lib_a-strncpy.o)
                              obj/Debug/network_if.o (strncpy)
/usr/lib/gcc/arm-none-eabi/5.2.0/../../../../arm-none-eabi/lib/armv7e-m/libc_nano.a(lib_a-strtok.o)
                              ../../../netapps/mqtt/gcc/lib/client_server/Debug/libmqtt.a(cc32xx_sl_net.o) (strtok)
/usr/lib/gcc/arm-none-eabi/5.2.0/../../../../arm-none-eabi/lib/armv7e-m/libc_nano.a(lib_a-strtok_r.o)
                              /usr/lib/gcc/arm-none-eabi/5.2.0/../../../../arm-none-eabi/lib/armv7e-m/libc_nano.a(lib_a-strtok.o) (__strtok_r)
/usr/lib/gcc/arm-none-eabi/5.2.0/../../../../arm-none-eabi/lib/armv7e-m/libc_nano.a(lib_a-strtol.o)
                              /usr/lib/gcc/arm-none-eabi/5.2.0/../../../../arm-none-eabi/lib/armv7e-m/libc_nano.a(lib_a-atoi.o) (_strtol_r)
/usr/lib/gcc/arm-none-eabi/5.2.0/../../../../arm-none-eabi/lib/armv7e-m/libc_nano.a(lib_a-vsnprintf.o)
                              obj/Debug/uart_if.o (vsnprintf)
/usr/lib/gcc/arm-none-eabi/5.2.0/../../../../arm-none-eabi/lib/armv7e-m/libc_nano.a(lib_a-ctype_.o)
                              /usr/lib/gcc/arm-none-eabi/5.2.0/../../../../arm-none-eabi/lib/armv7e-m/libc_nano.a(lib_a-strtol.o) (__ctype_ptr__)
/usr/lib/gcc/arm-none-eabi/5.2.0/../../../../arm-none-eabi/lib/armv7e-m/libc_nano.a(lib_a-impure.o)
                              /usr/lib/gcc/arm-none-eabi/5.2.0/../../../../arm-none-eabi/lib/armv7e-m/libc_nano.a(lib_a-malloc.o) (_impure_ptr)
/usr/lib/gcc/arm-none-eabi/5.2.0/../../../../arm-none-eabi/lib/armv7e-m/libc_nano.a(lib_a-nano-reallocr.o)
                              /usr/lib/gcc/arm-none-eabi/5.2.0/../../../../arm-none-eabi/lib/armv7e-m/libc_nano.a(lib_a-realloc.o) (_realloc_r)
/usr/lib/gcc/arm-none-eabi/5.2.0/../../../../arm-none-eabi/lib/armv7e-m/libc_nano.a(lib_a-nano-svfprintf.o)
                              /usr/lib/gcc/arm-none-eabi/5.2.0/../../../../arm-none-eabi/lib/armv7e-m/libc_nano.a(lib_a-sprintf.o) (_svfprintf_r)
/usr/lib/gcc/arm-none-eabi/5.2.0/../../../../arm-none-eabi/lib/armv7e-m/libc_nano.a(lib_a-nano-vfprintf_i.o)
                              /usr/lib/gcc/arm-none-eabi/5.2.0/../../../../arm-none-eabi/lib/armv7e-m/libc_nano.a(lib_a-nano-svfprintf.o) (_printf_i)
/usr/lib/gcc/arm-none-eabi/5.2.0/../../../../arm-none-eabi/lib/armv7e-m/libc_nano.a(lib_a-reent.o)
                              /usr/lib/gcc/arm-none-eabi/5.2.0/../../../../arm-none-eabi/lib/armv7e-m/libc_nano.a(lib_a-sbrkr.o) (errno)
/usr/lib/gcc/arm-none-eabi/5.2.0/../../../../arm-none-eabi/lib/armv7e-m/libc_nano.a(lib_a-memchr.o)
                              /usr/lib/gcc/arm-none-eabi/5.2.0/../../../../arm-none-eabi/lib/armv7e-m/libc_nano.a(lib_a-nano-svfprintf.o) (memchr)
/usr/lib/gcc/arm-none-eabi/5.2.0/../../../../arm-none-eabi/lib/armv7e-m/libc_nano.a(lib_a-nano-msizer.o)
                              /usr/lib/gcc/arm-none-eabi/5.2.0/../../../../arm-none-eabi/lib/armv7e-m/libc_nano.a(lib_a-nano-reallocr.o) (_malloc_usable_size_r)
/usr/lib/gcc/arm-none-eabi/5.2.0/armv7e-m/libgcc.a(_aeabi_uldivmod.o)
                              ../../../driverlib/gcc/lib/Debug/libdriver.a(prcm.o) (__aeabi_uldivmod)
/usr/lib/gcc/arm-none-eabi/5.2.0/armv7e-m/libgcc.a(_udivmoddi4.o)
                              /usr/lib/gcc/arm-none-eabi/5.2.0/armv7e-m/libgcc.a(_aeabi_uldivmod.o) (__udivmoddi4)
/usr/lib/gcc/arm-none-eabi/5.2.0/armv7e-m/libgcc.a(_dvmd_tls.o)
                              /usr/lib/gcc/arm-none-eabi/5.2.0/armv7e-m/libgcc.a(_aeabi_uldivmod.o) (__aeabi_ldiv0)

Allocating common symbols
Common symbol       size              file

g_srvr_wait_secs    0x4               ../../../netapps/mqtt/gcc/lib/client_server/Debug/libmqtt.a(sl_mqtt_server.o)
g_rx_tx_sync_obj    0x4               ../../../netapps/mqtt/gcc/lib/client_server/Debug/libmqtt.a(sl_mqtt_client.o)
mqtt_lib_lockobj    0x4               ../../../netapps/mqtt/gcc/lib/client_server/Debug/libmqtt.a(sl_mqtt_client.o)
g_bDeviceRestartIsRequired
                    0x1               ../../../simplelink/gcc/lib/os/Debug/libsimplelink.a(driver.o)
errno               0x4               /usr/lib/gcc/arm-none-eabi/5.2.0/../../../../arm-none-eabi/lib/armv7e-m/libc_nano.a(lib_a-reent.o)
xQueueRegistry      0x50              ../../../oslib/gcc/free_rtos/Debug/free_rtos.a(queue.o)
g_usTimerInts       0x2               obj/Debug/main.o
RxIrqCnt            0x1               ../../../simplelink/gcc/lib/os/Debug/libsimplelink.a(driver.o)
g_ucLED1Pin         0x1               obj/Debug/gpio_if.o
g_usConnectIndex    0x2               obj/Debug/network_if.o
g_ucConnectionBSSID
                    0x6               obj/Debug/network_if.o
g_ucLED2Pin         0x1               obj/Debug/gpio_if.o
g_S3InterruptHdl    0x4               obj/Debug/button_if.o
g_S2InterruptHdl    0x4               obj/Debug/button_if.o
cbs_obj             0x10              ../../../netapps/mqtt/gcc/lib/client_server/Debug/libmqtt.a(sl_mqtt_server.o)
g_srvr_task_priority
                    0x4               ../../../netapps/mqtt/gcc/lib/client_server/Debug/libmqtt.a(sl_mqtt_server.o)
MutexLockObj        0x4               ../../../netapps/mqtt/gcc/lib/client_server/Debug/libmqtt.a(sl_mqtt_server.o)
BridgeHndl          0x4               obj/Debug/main.o
g_cDummy            0x4               ../../../simplelink/gcc/lib/os/Debug/libsimplelink.a(cc_pal.o)
g_rx_task_hndl      0x4               ../../../netapps/mqtt/gcc/lib/client_server/Debug/libmqtt.a(sl_mqtt_client.o)
g_ucConnectionSSID  0x21              obj/Debug/network_if.o
app_hndl            0x4               ../../../netapps/mqtt/gcc/lib/client_server/Debug/libmqtt.a(sl_mqtt_server.o)
g_wait_secs         0x4               ../../../netapps/mqtt/gcc/lib/client_server/Debug/libmqtt.a(sl_mqtt_client.o)
DMAMsgQ             0x4               ../../../simplelink/gcc/lib/os/Debug/libsimplelink.a(cc_pal.o)
g_PBQueue           0x4               obj/Debug/main.o
g_ucDinDout         0x50              ../../../simplelink/gcc/lib/os/Debug/libsimplelink.a(cc_pal.o)
client_info_table   0x4               obj/Debug/server_client_cbs.o
g_ucLED3Pin         0x1               obj/Debug/gpio_if.o

Discarded input sections

 .text          0x0000000000000000        0x0 obj/Debug/main.o
 .data          0x0000000000000000        0x0 obj/Debug/main.o
 .bss           0x0000000000000000        0x0 obj/Debug/main.o
 .data.Username
                0x0000000000000000        0x4 obj/Debug/main.o
 .data.Password
                0x0000000000000000        0x4 obj/Debug/main.o
 .text          0x0000000000000000        0x0 obj/Debug/pinmux.o
 .data          0x0000000000000000        0x0 obj/Debug/pinmux.o
 .bss           0x0000000000000000        0x0 obj/Debug/pinmux.o
 .text          0x0000000000000000        0x0 obj/Debug/server_client_cbs.o
 .data          0x0000000000000000        0x0 obj/Debug/server_client_cbs.o
 .bss           0x0000000000000000        0x0 obj/Debug/server_client_cbs.o
 .text          0x0000000000000000        0x0 obj/Debug/uart_if.o
 .data          0x0000000000000000        0x0 obj/Debug/uart_if.o
 .bss           0x0000000000000000        0x0 obj/Debug/uart_if.o
 .data.ilen     0x0000000000000000        0x4 obj/Debug/uart_if.o
 .text.ClearTerm
                0x0000000000000000       0x14 obj/Debug/uart_if.o
 .text.Error    0x0000000000000000       0x4c obj/Debug/uart_if.o
 .text          0x0000000000000000        0x0 obj/Debug/network_if.o
 .data          0x0000000000000000        0x0 obj/Debug/network_if.o
 .bss           0x0000000000000000        0x0 obj/Debug/network_if.o
 .rodata.pcDigits
                0x0000000000000000        0xc obj/Debug/network_if.o
 .text.Network_IF_DeInitDriver
                0x0000000000000000       0x30 obj/Debug/network_if.o
 .text.Network_IF_GetHostIP
                0x0000000000000000       0x80 obj/Debug/network_if.o
 .text.Network_IF_CurrentMCUState
                0x0000000000000000       0x14 obj/Debug/network_if.o
 .text.Network_IF_SetMCUMachineState
                0x0000000000000000       0x2c obj/Debug/network_if.o
 .text.Network_IF_UnsetMCUMachineState
                0x0000000000000000       0x30 obj/Debug/network_if.o
 .text.itoa_incompat
                0x0000000000000000       0xb4 obj/Debug/network_if.o
 .rodata.__FUNCTION__.5987
                0x0000000000000000       0x18 obj/Debug/network_if.o
 .text          0x0000000000000000        0x0 obj/Debug/gpio_if.o
 .data          0x0000000000000000        0x0 obj/Debug/gpio_if.o
 .bss           0x0000000000000000        0x0 obj/Debug/gpio_if.o
 .text.GetPeripheralIntNum
                0x0000000000000000       0x54 obj/Debug/gpio_if.o
 .text.GPIO_IF_LedStatus
                0x0000000000000000       0x84 obj/Debug/gpio_if.o
 .text.GPIO_IF_LedToggle
                0x0000000000000000       0x38 obj/Debug/gpio_if.o
 .text.GPIO_IF_ConfigureNIntEnable
                0x0000000000000000       0x4c obj/Debug/gpio_if.o
 .text.GPIO_IF_Get
                0x0000000000000000       0x34 obj/Debug/gpio_if.o
 .text          0x0000000000000000        0x0 obj/Debug/timer_if.o
 .data          0x0000000000000000        0x0 obj/Debug/timer_if.o
 .bss           0x0000000000000000        0x0 obj/Debug/timer_if.o
 .text.Timer_IF_InterruptClear
                0x0000000000000000       0x24 obj/Debug/timer_if.o
 .text.Timer_IF_ReLoad
                0x0000000000000000       0x2c obj/Debug/timer_if.o
 .text.Timer_IF_GetCount
                0x0000000000000000       0x20 obj/Debug/timer_if.o
 .text          0x0000000000000000        0x0 obj/Debug/button_if.o
 .data          0x0000000000000000        0x0 obj/Debug/button_if.o
 .bss           0x0000000000000000        0x0 obj/Debug/button_if.o
 .text          0x0000000000000000        0x0 obj/Debug/startup_gcc.o
 .data          0x0000000000000000        0x0 obj/Debug/startup_gcc.o
 .bss           0x0000000000000000        0x0 obj/Debug/startup_gcc.o
 .text          0x0000000000000000        0x0 ../../../netapps/mqtt/gcc/lib/client_server/Debug/libmqtt.a(sl_mqtt_client.o)
 .data          0x0000000000000000        0x0 ../../../netapps/mqtt/gcc/lib/client_server/Debug/libmqtt.a(sl_mqtt_client.o)
 .bss           0x0000000000000000        0x0 ../../../netapps/mqtt/gcc/lib/client_server/Debug/libmqtt.a(sl_mqtt_client.o)
 .text          0x0000000000000000        0x0 ../../../netapps/mqtt/gcc/lib/client_server/Debug/libmqtt.a(sl_mqtt_server.o)
 .data          0x0000000000000000        0x0 ../../../netapps/mqtt/gcc/lib/client_server/Debug/libmqtt.a(sl_mqtt_server.o)
 .bss           0x0000000000000000        0x0 ../../../netapps/mqtt/gcc/lib/client_server/Debug/libmqtt.a(sl_mqtt_server.o)
 .text.sl_ExtLib_MqttTopicDisenroll
                0x0000000000000000       0x3c ../../../netapps/mqtt/gcc/lib/client_server/Debug/libmqtt.a(sl_mqtt_server.o)
 .text.sl_ExtLib_MqttServerPause
                0x0000000000000000       0x6c ../../../netapps/mqtt/gcc/lib/client_server/Debug/libmqtt.a(sl_mqtt_server.o)
 .text          0x0000000000000000        0x0 ../../../netapps/mqtt/gcc/lib/client_server/Debug/libmqtt.a(cc32xx_sl_net.o)
 .data          0x0000000000000000        0x0 ../../../netapps/mqtt/gcc/lib/client_server/Debug/libmqtt.a(cc32xx_sl_net.o)
 .bss           0x0000000000000000        0x0 ../../../netapps/mqtt/gcc/lib/client_server/Debug/libmqtt.a(cc32xx_sl_net.o)
 .text          0x0000000000000000        0x0 ../../../netapps/mqtt/gcc/lib/client_server/Debug/libmqtt.a(cc32xx_platform.o)
 .data          0x0000000000000000        0x0 ../../../netapps/mqtt/gcc/lib/client_server/Debug/libmqtt.a(cc32xx_platform.o)
 .bss           0x0000000000000000        0x0 ../../../netapps/mqtt/gcc/lib/client_server/Debug/libmqtt.a(cc32xx_platform.o)
 .text          0x0000000000000000        0x0 ../../../netapps/mqtt/gcc/lib/client_server/Debug/libmqtt.a(mqtt_client.o)
 .data          0x0000000000000000        0x0 ../../../netapps/mqtt/gcc/lib/client_server/Debug/libmqtt.a(mqtt_client.o)
 .bss           0x0000000000000000        0x0 ../../../netapps/mqtt/gcc/lib/client_server/Debug/libmqtt.a(mqtt_client.o)
 .text.mqtt_client_new_msg_id
                0x0000000000000000       0x10 ../../../netapps/mqtt/gcc/lib/client_server/Debug/libmqtt.a(mqtt_client.o)
 .text.mqtt_client_is_connected
                0x0000000000000000       0x18 ../../../netapps/mqtt/gcc/lib/client_server/Debug/libmqtt.a(mqtt_client.o)
 .text.msg_dispatch_no_free
                0x0000000000000000       0x4c ../../../netapps/mqtt/gcc/lib/client_server/Debug/libmqtt.a(mqtt_client.o)
 .text.mqtt_client_pub_dispatch
                0x0000000000000000       0x2c ../../../netapps/mqtt/gcc/lib/client_server/Debug/libmqtt.a(mqtt_client.o)
 .text.mqtt_sub_dispatch
                0x0000000000000000       0x20 ../../../netapps/mqtt/gcc/lib/client_server/Debug/libmqtt.a(mqtt_client.o)
 .text.mqtt_unsub_dispatch
                0x0000000000000000       0x20 ../../../netapps/mqtt/gcc/lib/client_server/Debug/libmqtt.a(mqtt_client.o)
 .text.mqtt_pingreq_send
                0x0000000000000000       0x58 ../../../netapps/mqtt/gcc/lib/client_server/Debug/libmqtt.a(mqtt_client.o)
 .text.mqtt_client_ctx_await_msg
                0x0000000000000000       0x58 ../../../netapps/mqtt/gcc/lib/client_server/Debug/libmqtt.a(mqtt_client.o)
 .text.mqtt_client_await_msg
                0x0000000000000000       0x70 ../../../netapps/mqtt/gcc/lib/client_server/Debug/libmqtt.a(mqtt_client.o)
 .text          0x0000000000000000        0x0 ../../../netapps/mqtt/gcc/lib/client_server/Debug/libmqtt.a(mqtt_common.o)
 .data          0x0000000000000000        0x0 ../../../netapps/mqtt/gcc/lib/client_server/Debug/libmqtt.a(mqtt_common.o)
 .bss           0x0000000000000000        0x0 ../../../netapps/mqtt/gcc/lib/client_server/Debug/libmqtt.a(mqtt_common.o)
 .text.mqp_proc_vh_msg_id_rx
                0x0000000000000000       0x18 ../../../netapps/mqtt/gcc/lib/client_server/Debug/libmqtt.a(mqtt_common.o)
 .text          0x0000000000000000        0x0 ../../../netapps/mqtt/gcc/lib/client_server/Debug/libmqtt.a(server_core.o)
 .data          0x0000000000000000        0x0 ../../../netapps/mqtt/gcc/lib/client_server/Debug/libmqtt.a(server_core.o)
 .bss           0x0000000000000000        0x0 ../../../netapps/mqtt/gcc/lib/client_server/Debug/libmqtt.a(server_core.o)
 .text          0x0000000000000000        0x0 ../../../netapps/mqtt/gcc/lib/client_server/Debug/libmqtt.a(server_pkts.o)
 .data          0x0000000000000000        0x0 ../../../netapps/mqtt/gcc/lib/client_server/Debug/libmqtt.a(server_pkts.o)
 .bss           0x0000000000000000        0x0 ../../../netapps/mqtt/gcc/lib/client_server/Debug/libmqtt.a(server_pkts.o)
 .rodata.lpbk_nw_tear_msg
                0x0000000000000000        0x4 ../../../netapps/mqtt/gcc/lib/client_server/Debug/libmqtt.a(server_pkts.o)
 .text.mqtt_vh_msg_send_locked
                0x0000000000000000       0x6c ../../../netapps/mqtt/gcc/lib/client_server/Debug/libmqtt.a(server_pkts.o)
 .text.mqtt_server_pub_dispatch_locked
                0x0000000000000000       0x5c ../../../netapps/mqtt/gcc/lib/client_server/Debug/libmqtt.a(server_pkts.o)
 .text.mqtt_server_pause
                0x0000000000000000       0x18 ../../../netapps/mqtt/gcc/lib/client_server/Debug/libmqtt.a(server_pkts.o)
 .text.mqtt_server_pause_locked
                0x0000000000000000       0x4c ../../../netapps/mqtt/gcc/lib/client_server/Debug/libmqtt.a(server_pkts.o)
 .text          0x0000000000000000        0x0 ../../../netapps/mqtt/gcc/lib/client_server/Debug/libmqtt.a(server_plug.o)
 .data          0x0000000000000000        0x0 ../../../netapps/mqtt/gcc/lib/client_server/Debug/libmqtt.a(server_plug.o)
 .bss           0x0000000000000000        0x0 ../../../netapps/mqtt/gcc/lib/client_server/Debug/libmqtt.a(server_plug.o)
 .text.mqtt_server_topic_disenroll
                0x0000000000000000       0x34 ../../../netapps/mqtt/gcc/lib/client_server/Debug/libmqtt.a(server_plug.o)
 .text          0x0000000000000000        0x0 ../../../netapps/mqtt/gcc/lib/client_server/Debug/libmqtt.a(server_util.o)
 .data          0x0000000000000000        0x0 ../../../netapps/mqtt/gcc/lib/client_server/Debug/libmqtt.a(server_util.o)
 .bss           0x0000000000000000        0x0 ../../../netapps/mqtt/gcc/lib/client_server/Debug/libmqtt.a(server_util.o)
 .text          0x0000000000000000        0x0 ../../../netapps/mqtt/gcc/lib/client_server/Debug/libmqtt.a(client_mgmt.o)
 .data          0x0000000000000000        0x0 ../../../netapps/mqtt/gcc/lib/client_server/Debug/libmqtt.a(client_mgmt.o)
 .bss           0x0000000000000000        0x0 ../../../netapps/mqtt/gcc/lib/client_server/Debug/libmqtt.a(client_mgmt.o)
 .text.len_err_free_mqp
                0x0000000000000000       0x1c ../../../netapps/mqtt/gcc/lib/client_server/Debug/libmqtt.a(client_mgmt.o)
 .text.cl_pub_msg_send
                0x0000000000000000       0xe0 ../../../netapps/mqtt/gcc/lib/client_server/Debug/libmqtt.a(client_mgmt.o)
 .text          0x0000000000000000        0x0 ../../../simplelink/gcc/lib/os/Debug/libsimplelink.a(device.o)
 .data          0x0000000000000000        0x0 ../../../simplelink/gcc/lib/os/Debug/libsimplelink.a(device.o)
 .bss           0x0000000000000000        0x0 ../../../simplelink/gcc/lib/os/Debug/libsimplelink.a(device.o)
 .text.sl_Stop_WithNwpLpdsPoll
                0x0000000000000000       0xe4 ../../../simplelink/gcc/lib/os/Debug/libsimplelink.a(device.o)
 .rodata._SlEventMaskSetCmdCtrl
                0x0000000000000000        0x4 ../../../simplelink/gcc/lib/os/Debug/libsimplelink.a(device.o)
 .text.sl_EventMaskSet
                0x0000000000000000       0x6c ../../../simplelink/gcc/lib/os/Debug/libsimplelink.a(device.o)
 .rodata._SlEventMaskGetCmdCtrl
                0x0000000000000000        0x4 ../../../simplelink/gcc/lib/os/Debug/libsimplelink.a(device.o)
 .text.sl_EventMaskGet
                0x0000000000000000       0x70 ../../../simplelink/gcc/lib/os/Debug/libsimplelink.a(device.o)
 .rodata._SlDeviceSetCmdCtrl
                0x0000000000000000        0x4 ../../../simplelink/gcc/lib/os/Debug/libsimplelink.a(device.o)
 .text.sl_DevSet
                0x0000000000000000       0xa0 ../../../simplelink/gcc/lib/os/Debug/libsimplelink.a(device.o)
 .text          0x0000000000000000        0x0 ../../../simplelink/gcc/lib/os/Debug/libsimplelink.a(driver.o)
 .data          0x0000000000000000        0x0 ../../../simplelink/gcc/lib/os/Debug/libsimplelink.a(driver.o)
 .bss           0x0000000000000000        0x0 ../../../simplelink/gcc/lib/os/Debug/libsimplelink.a(driver.o)
 .text          0x0000000000000000        0x0 ../../../simplelink/gcc/lib/os/Debug/libsimplelink.a(netapp.o)
 .data          0x0000000000000000        0x0 ../../../simplelink/gcc/lib/os/Debug/libsimplelink.a(netapp.o)
 .bss           0x0000000000000000        0x0 ../../../simplelink/gcc/lib/os/Debug/libsimplelink.a(netapp.o)
 .rodata._SlNetAppStartCtrl
                0x0000000000000000        0x4 ../../../simplelink/gcc/lib/os/Debug/libsimplelink.a(netapp.o)
 .text.sl_NetAppStart
                0x0000000000000000       0x64 ../../../simplelink/gcc/lib/os/Debug/libsimplelink.a(netapp.o)
 .rodata._SlNetAppStopCtrl
                0x0000000000000000        0x4 ../../../simplelink/gcc/lib/os/Debug/libsimplelink.a(netapp.o)
 .text.sl_NetAppStop
                0x0000000000000000       0x64 ../../../simplelink/gcc/lib/os/Debug/libsimplelink.a(netapp.o)
 .rodata._SlGetServiceListeCtrl
                0x0000000000000000        0x4 ../../../simplelink/gcc/lib/os/Debug/libsimplelink.a(netapp.o)
 .text.sl_NetAppGetServiceList
                0x0000000000000000       0xe8 ../../../simplelink/gcc/lib/os/Debug/libsimplelink.a(netapp.o)
 .text.sl_NetAppMDNSRegisterService
                0x0000000000000000       0x6c ../../../simplelink/gcc/lib/os/Debug/libsimplelink.a(netapp.o)
 .rodata._SlGetHostByServiceCtrl
                0x0000000000000000        0x4 ../../../simplelink/gcc/lib/os/Debug/libsimplelink.a(netapp.o)
 .text.sl_NetAppDnsGetHostByService
                0x0000000000000000      0x144 ../../../simplelink/gcc/lib/os/Debug/libsimplelink.a(netapp.o)
 .text._sl_HandleAsync_DnsGetHostByAddr
                0x0000000000000000       0x18 ../../../simplelink/gcc/lib/os/Debug/libsimplelink.a(netapp.o)
 .rodata        0x0000000000000000        0x4 ../../../simplelink/gcc/lib/os/Debug/libsimplelink.a(netapp.o)
 .text.sl_NetAppPingStart
                0x0000000000000000      0x1f8 ../../../simplelink/gcc/lib/os/Debug/libsimplelink.a(netapp.o)
 .rodata._SlNetAppSetCmdCtrl
                0x0000000000000000        0x4 ../../../simplelink/gcc/lib/os/Debug/libsimplelink.a(netapp.o)
 .text.sl_NetAppSet
                0x0000000000000000       0xa0 ../../../simplelink/gcc/lib/os/Debug/libsimplelink.a(netapp.o)
 .rodata._SlNetAppGetCmdCtrl
                0x0000000000000000        0x4 ../../../simplelink/gcc/lib/os/Debug/libsimplelink.a(netapp.o)
 .text.sl_NetAppGet
                0x0000000000000000       0xc4 ../../../simplelink/gcc/lib/os/Debug/libsimplelink.a(netapp.o)
 .text          0x0000000000000000        0x0 ../../../simplelink/gcc/lib/os/Debug/libsimplelink.a(netcfg.o)
 .data          0x0000000000000000        0x0 ../../../simplelink/gcc/lib/os/Debug/libsimplelink.a(netcfg.o)
 .bss           0x0000000000000000        0x0 ../../../simplelink/gcc/lib/os/Debug/libsimplelink.a(netcfg.o)
 .text          0x0000000000000000        0x0 ../../../simplelink/gcc/lib/os/Debug/libsimplelink.a(socket.o)
 .data          0x0000000000000000        0x0 ../../../simplelink/gcc/lib/os/Debug/libsimplelink.a(socket.o)
 .bss           0x0000000000000000        0x0 ../../../simplelink/gcc/lib/os/Debug/libsimplelink.a(socket.o)
 .text._sl_ParseAddress
                0x0000000000000000       0x64 ../../../simplelink/gcc/lib/os/Debug/libsimplelink.a(socket.o)
 .rodata._SlGetSockOptCmdCtrl
                0x0000000000000000        0x4 ../../../simplelink/gcc/lib/os/Debug/libsimplelink.a(socket.o)
 .text.sl_GetSockOpt
                0x0000000000000000       0xdc ../../../simplelink/gcc/lib/os/Debug/libsimplelink.a(socket.o)
 .text.SL_FD_CLR
                0x0000000000000000       0x30 ../../../simplelink/gcc/lib/os/Debug/libsimplelink.a(socket.o)
 .text          0x0000000000000000        0x0 ../../../simplelink/gcc/lib/os/Debug/libsimplelink.a(wlan.o)
 .data          0x0000000000000000        0x0 ../../../simplelink/gcc/lib/os/Debug/libsimplelink.a(wlan.o)
 .bss           0x0000000000000000        0x0 ../../../simplelink/gcc/lib/os/Debug/libsimplelink.a(wlan.o)
 .rodata._SlPolicyGetCmdCtrl
                0x0000000000000000        0x4 ../../../simplelink/gcc/lib/os/Debug/libsimplelink.a(wlan.o)
 .text.sl_WlanPolicyGet
                0x0000000000000000      0x108 ../../../simplelink/gcc/lib/os/Debug/libsimplelink.a(wlan.o)
 .text.sl_WlanProfileAdd
                0x0000000000000000      0x308 ../../../simplelink/gcc/lib/os/Debug/libsimplelink.a(wlan.o)
 .rodata._SlProfileGetCmdCtrl
                0x0000000000000000        0x4 ../../../simplelink/gcc/lib/os/Debug/libsimplelink.a(wlan.o)
 .text.sl_WlanProfileGet
                0x0000000000000000      0x154 ../../../simplelink/gcc/lib/os/Debug/libsimplelink.a(wlan.o)
 .rodata._SlWlanGetNetworkListCtrl
                0x0000000000000000        0x4 ../../../simplelink/gcc/lib/os/Debug/libsimplelink.a(wlan.o)
 .text.sl_WlanGetNetworkList
                0x0000000000000000       0xac ../../../simplelink/gcc/lib/os/Debug/libsimplelink.a(wlan.o)
 .rodata._SlRxFilterAddtCmdCtrl
                0x0000000000000000        0x4 ../../../simplelink/gcc/lib/os/Debug/libsimplelink.a(wlan.o)
 .text.sl_WlanRxFilterAdd
                0x0000000000000000       0xac ../../../simplelink/gcc/lib/os/Debug/libsimplelink.a(wlan.o)
 .rodata._SlRxFilterGetCmdCtrl
                0x0000000000000000        0x4 ../../../simplelink/gcc/lib/os/Debug/libsimplelink.a(wlan.o)
 .text.sl_WlanRxFilterGet
                0x0000000000000000       0xa4 ../../../simplelink/gcc/lib/os/Debug/libsimplelink.a(wlan.o)
 .text.sl_WlanRxStatStart
                0x0000000000000000       0x40 ../../../simplelink/gcc/lib/os/Debug/libsimplelink.a(wlan.o)
 .text.sl_WlanRxStatStop
                0x0000000000000000       0x40 ../../../simplelink/gcc/lib/os/Debug/libsimplelink.a(wlan.o)
 .rodata        0x0000000000000000        0x4 ../../../simplelink/gcc/lib/os/Debug/libsimplelink.a(wlan.o)
 .text.sl_WlanRxStatGet
                0x0000000000000000       0x74 ../../../simplelink/gcc/lib/os/Debug/libsimplelink.a(wlan.o)
 .text.sl_WlanSmartConfigStop
                0x0000000000000000       0x40 ../../../simplelink/gcc/lib/os/Debug/libsimplelink.a(wlan.o)
 .rodata._SlSmartConfigStartCmdCtrl
                0x0000000000000000        0x4 ../../../simplelink/gcc/lib/os/Debug/libsimplelink.a(wlan.o)
 .text.sl_WlanSmartConfigStart
                0x0000000000000000       0xdc ../../../simplelink/gcc/lib/os/Debug/libsimplelink.a(wlan.o)
 .rodata._SlWlanCfgGetCmdCtrl
                0x0000000000000000        0x4 ../../../simplelink/gcc/lib/os/Debug/libsimplelink.a(wlan.o)
 .text.sl_WlanGet
                0x0000000000000000       0xe0 ../../../simplelink/gcc/lib/os/Debug/libsimplelink.a(wlan.o)
 .text          0x0000000000000000        0x0 ../../../simplelink/gcc/lib/os/Debug/libsimplelink.a(cc_pal.o)
 .data          0x0000000000000000        0x0 ../../../simplelink/gcc/lib/os/Debug/libsimplelink.a(cc_pal.o)
 .bss           0x0000000000000000        0x0 ../../../simplelink/gcc/lib/os/Debug/libsimplelink.a(cc_pal.o)
 .bss.g_pHostIntHdl
                0x0000000000000000        0x4 ../../../simplelink/gcc/lib/os/Debug/libsimplelink.a(cc_pal.o)
 .text.NwpPowerOff_WithNwpLpdsPoll
                0x0000000000000000       0x80 ../../../simplelink/gcc/lib/os/Debug/libsimplelink.a(cc_pal.o)
 .text          0x0000000000000000        0x0 ../../../oslib/gcc/free_rtos/Debug/free_rtos.a(osi_freertos.o)
 .data          0x0000000000000000        0x0 ../../../oslib/gcc/free_rtos/Debug/free_rtos.a(osi_freertos.o)
 .bss           0x0000000000000000        0x0 ../../../oslib/gcc/free_rtos/Debug/free_rtos.a(osi_freertos.o)
 .text.osi_SyncObjClear
                0x0000000000000000       0x30 ../../../oslib/gcc/free_rtos/Debug/free_rtos.a(osi_freertos.o)
 .text.VDeleteSimpleLinkSpawnTask
                0x0000000000000000       0x40 ../../../oslib/gcc/free_rtos/Debug/free_rtos.a(osi_freertos.o)
 .text.mem_Malloc
                0x0000000000000000       0x18 ../../../oslib/gcc/free_rtos/Debug/free_rtos.a(osi_freertos.o)
 .text.mem_Free
                0x0000000000000000       0x18 ../../../oslib/gcc/free_rtos/Debug/free_rtos.a(osi_freertos.o)
 .text.mem_set  0x0000000000000000       0x20 ../../../oslib/gcc/free_rtos/Debug/free_rtos.a(osi_freertos.o)
 .text.mem_copy
                0x0000000000000000       0x20 ../../../oslib/gcc/free_rtos/Debug/free_rtos.a(osi_freertos.o)
 .text.osi_TaskDisable
                0x0000000000000000       0x10 ../../../oslib/gcc/free_rtos/Debug/free_rtos.a(osi_freertos.o)
 .text.osi_TaskEnable
                0x0000000000000000       0x14 ../../../oslib/gcc/free_rtos/Debug/free_rtos.a(osi_freertos.o)
 .text.osi_ContextSave
                0x0000000000000000        0xc ../../../oslib/gcc/free_rtos/Debug/free_rtos.a(osi_freertos.o)
 .text.osi_ContextRestore
                0x0000000000000000        0xc ../../../oslib/gcc/free_rtos/Debug/free_rtos.a(osi_freertos.o)
 .text          0x0000000000000000        0x0 ../../../oslib/gcc/free_rtos/Debug/free_rtos.a(queue.o)
 .data          0x0000000000000000        0x0 ../../../oslib/gcc/free_rtos/Debug/free_rtos.a(queue.o)
 .bss           0x0000000000000000        0x0 ../../../oslib/gcc/free_rtos/Debug/free_rtos.a(queue.o)
 .text.xQueueCreateCountingSemaphore
                0x0000000000000000       0x64 ../../../oslib/gcc/free_rtos/Debug/free_rtos.a(queue.o)
 .text.xQueueReceiveFromISR
                0x0000000000000000       0xc0 ../../../oslib/gcc/free_rtos/Debug/free_rtos.a(queue.o)
 .text.xQueuePeekFromISR
                0x0000000000000000       0x98 ../../../oslib/gcc/free_rtos/Debug/free_rtos.a(queue.o)
 .text.uxQueueMessagesWaiting
                0x0000000000000000       0x34 ../../../oslib/gcc/free_rtos/Debug/free_rtos.a(queue.o)
 .text.uxQueueSpacesAvailable
                0x0000000000000000       0x40 ../../../oslib/gcc/free_rtos/Debug/free_rtos.a(queue.o)
 .text.uxQueueMessagesWaitingFromISR
                0x0000000000000000       0x2c ../../../oslib/gcc/free_rtos/Debug/free_rtos.a(queue.o)
 .text.uxQueueGetQueueNumber
                0x0000000000000000       0x18 ../../../oslib/gcc/free_rtos/Debug/free_rtos.a(queue.o)
 .text.vQueueSetQueueNumber
                0x0000000000000000       0x1c ../../../oslib/gcc/free_rtos/Debug/free_rtos.a(queue.o)
 .text.ucQueueGetQueueType
                0x0000000000000000       0x18 ../../../oslib/gcc/free_rtos/Debug/free_rtos.a(queue.o)
 .text.xQueueIsQueueEmptyFromISR
                0x0000000000000000       0x38 ../../../oslib/gcc/free_rtos/Debug/free_rtos.a(queue.o)
 .text.xQueueIsQueueFullFromISR
                0x0000000000000000       0x3c ../../../oslib/gcc/free_rtos/Debug/free_rtos.a(queue.o)
 .text.xQueueCreateSet
                0x0000000000000000       0x20 ../../../oslib/gcc/free_rtos/Debug/free_rtos.a(queue.o)
 .text.xQueueAddToSet
                0x0000000000000000       0x44 ../../../oslib/gcc/free_rtos/Debug/free_rtos.a(queue.o)
 .text.xQueueRemoveFromSet
                0x0000000000000000       0x48 ../../../oslib/gcc/free_rtos/Debug/free_rtos.a(queue.o)
 .text.xQueueSelectFromSet
                0x0000000000000000       0x28 ../../../oslib/gcc/free_rtos/Debug/free_rtos.a(queue.o)
 .text.xQueueSelectFromSetFromISR
                0x0000000000000000       0x24 ../../../oslib/gcc/free_rtos/Debug/free_rtos.a(queue.o)
 .text          0x0000000000000000        0x0 ../../../oslib/gcc/free_rtos/Debug/free_rtos.a(tasks.o)
 .data          0x0000000000000000        0x0 ../../../oslib/gcc/free_rtos/Debug/free_rtos.a(tasks.o)
 .bss           0x0000000000000000        0x0 ../../../oslib/gcc/free_rtos/Debug/free_rtos.a(tasks.o)
 .text.vTaskDelayUntil
                0x0000000000000000       0xf4 ../../../oslib/gcc/free_rtos/Debug/free_rtos.a(tasks.o)
 .text.eTaskGetState
                0x0000000000000000       0xa4 ../../../oslib/gcc/free_rtos/Debug/free_rtos.a(tasks.o)
 .text.uxTaskPriorityGet
                0x0000000000000000       0x34 ../../../oslib/gcc/free_rtos/Debug/free_rtos.a(tasks.o)
 .text.uxTaskPriorityGetFromISR
                0x0000000000000000       0x3c ../../../oslib/gcc/free_rtos/Debug/free_rtos.a(tasks.o)
 .text.vTaskPrioritySet
                0x0000000000000000      0x144 ../../../oslib/gcc/free_rtos/Debug/free_rtos.a(tasks.o)
 .text.vTaskSuspend
                0x0000000000000000       0xfc ../../../oslib/gcc/free_rtos/Debug/free_rtos.a(tasks.o)
 .text.prvTaskIsTaskSuspended
                0x0000000000000000       0x6c ../../../oslib/gcc/free_rtos/Debug/free_rtos.a(tasks.o)
 .text.vTaskResume
                0x0000000000000000       0xa4 ../../../oslib/gcc/free_rtos/Debug/free_rtos.a(tasks.o)
 .text.xTaskResumeFromISR
                0x0000000000000000       0xc0 ../../../oslib/gcc/free_rtos/Debug/free_rtos.a(tasks.o)
 .text.vTaskEndScheduler
                0x0000000000000000       0x1c ../../../oslib/gcc/free_rtos/Debug/free_rtos.a(tasks.o)
 .text.xTaskGetTickCountFromISR
                0x0000000000000000       0x24 ../../../oslib/gcc/free_rtos/Debug/free_rtos.a(tasks.o)
 .text.uxTaskGetNumberOfTasks
                0x0000000000000000       0x14 ../../../oslib/gcc/free_rtos/Debug/free_rtos.a(tasks.o)
 .text.pcTaskGetTaskName
                0x0000000000000000       0x3c ../../../oslib/gcc/free_rtos/Debug/free_rtos.a(tasks.o)
 .text.uxTaskGetSystemState
                0x0000000000000000       0xf4 ../../../oslib/gcc/free_rtos/Debug/free_rtos.a(tasks.o)
 .text.xTaskGetIdleTaskHandle
                0x0000000000000000       0x28 ../../../oslib/gcc/free_rtos/Debug/free_rtos.a(tasks.o)
 .text.vTaskPlaceOnUnorderedEventList
                0x0000000000000000       0xbc ../../../oslib/gcc/free_rtos/Debug/free_rtos.a(tasks.o)
 .text.xTaskRemoveFromUnorderedEventList
                0x0000000000000000       0xbc ../../../oslib/gcc/free_rtos/Debug/free_rtos.a(tasks.o)
 .text.uxTaskGetTaskNumber
                0x0000000000000000       0x2c ../../../oslib/gcc/free_rtos/Debug/free_rtos.a(tasks.o)
 .text.vTaskSetTaskNumber
                0x0000000000000000       0x24 ../../../oslib/gcc/free_rtos/Debug/free_rtos.a(tasks.o)
 .text.prvListTaskWithinSingleList
                0x0000000000000000      0x118 ../../../oslib/gcc/free_rtos/Debug/free_rtos.a(tasks.o)
 .text.prvTaskCheckFreeStackSpace
                0x0000000000000000       0x38 ../../../oslib/gcc/free_rtos/Debug/free_rtos.a(tasks.o)
 .text.uxTaskGetStackHighWaterMark
                0x0000000000000000       0x38 ../../../oslib/gcc/free_rtos/Debug/free_rtos.a(tasks.o)
 .text.xTaskGetCurrentTaskHandle
                0x0000000000000000       0x1c ../../../oslib/gcc/free_rtos/Debug/free_rtos.a(tasks.o)
 .text.prvWriteNameToBuffer
                0x0000000000000000       0x4c ../../../oslib/gcc/free_rtos/Debug/free_rtos.a(tasks.o)
 .text.vTaskList
                0x0000000000000000       0xfc ../../../oslib/gcc/free_rtos/Debug/free_rtos.a(tasks.o)
 .text.uxTaskResetEventItemValue
                0x0000000000000000       0x30 ../../../oslib/gcc/free_rtos/Debug/free_rtos.a(tasks.o)
 .text.ulTaskNotifyTake
                0x0000000000000000       0xd8 ../../../oslib/gcc/free_rtos/Debug/free_rtos.a(tasks.o)
 .text.xTaskNotifyWait
                0x0000000000000000       0xfc ../../../oslib/gcc/free_rtos/Debug/free_rtos.a(tasks.o)
 .text.xTaskGenericNotify
                0x0000000000000000      0x124 ../../../oslib/gcc/free_rtos/Debug/free_rtos.a(tasks.o)
 .text.xTaskNotifyFromISR
                0x0000000000000000      0x144 ../../../oslib/gcc/free_rtos/Debug/free_rtos.a(tasks.o)
 .text.vTaskNotifyGiveFromISR
                0x0000000000000000       0xe8 ../../../oslib/gcc/free_rtos/Debug/free_rtos.a(tasks.o)
 .text          0x0000000000000000        0x0 ../../../oslib/gcc/free_rtos/Debug/free_rtos.a(port.o)
 .data          0x0000000000000000        0x0 ../../../oslib/gcc/free_rtos/Debug/free_rtos.a(port.o)
 .bss           0x0000000000000000        0x0 ../../../oslib/gcc/free_rtos/Debug/free_rtos.a(port.o)
 .rodata.pcInterruptPriorityRegisters
                0x0000000000000000        0x4 ../../../oslib/gcc/free_rtos/Debug/free_rtos.a(port.o)
 .text.vPortEndScheduler
                0x0000000000000000       0x24 ../../../oslib/gcc/free_rtos/Debug/free_rtos.a(port.o)
 .text          0x0000000000000000        0x0 ../../../oslib/gcc/free_rtos/Debug/free_rtos.a(timers.o)
 .data          0x0000000000000000        0x0 ../../../oslib/gcc/free_rtos/Debug/free_rtos.a(timers.o)
 .bss           0x0000000000000000        0x0 ../../../oslib/gcc/free_rtos/Debug/free_rtos.a(timers.o)
 .text.xTimerCreate
                0x0000000000000000       0x74 ../../../oslib/gcc/free_rtos/Debug/free_rtos.a(timers.o)
 .text.xTimerGetTimerDaemonTaskHandle
                0x0000000000000000       0x28 ../../../oslib/gcc/free_rtos/Debug/free_rtos.a(timers.o)
 .text.pcTimerGetTimerName
                0x0000000000000000       0x1c ../../../oslib/gcc/free_rtos/Debug/free_rtos.a(timers.o)
 .text.xTimerIsTimerActive
                0x0000000000000000       0x30 ../../../oslib/gcc/free_rtos/Debug/free_rtos.a(timers.o)
 .text.pvTimerGetTimerID
                0x0000000000000000       0x38 ../../../oslib/gcc/free_rtos/Debug/free_rtos.a(timers.o)
 .text.vTimerSetTimerID
                0x0000000000000000       0x38 ../../../oslib/gcc/free_rtos/Debug/free_rtos.a(timers.o)
 .text.xTimerPendFunctionCallFromISR
                0x0000000000000000       0x40 ../../../oslib/gcc/free_rtos/Debug/free_rtos.a(timers.o)
 .text.xTimerPendFunctionCall
                0x0000000000000000       0x58 ../../../oslib/gcc/free_rtos/Debug/free_rtos.a(timers.o)
 .text          0x0000000000000000        0x0 ../../../oslib/gcc/free_rtos/Debug/free_rtos.a(heap_3.o)
 .data          0x0000000000000000        0x0 ../../../oslib/gcc/free_rtos/Debug/free_rtos.a(heap_3.o)
 .bss           0x0000000000000000        0x0 ../../../oslib/gcc/free_rtos/Debug/free_rtos.a(heap_3.o)
 .text          0x0000000000000000        0x0 ../../../oslib/gcc/free_rtos/Debug/free_rtos.a(list.o)
 .data          0x0000000000000000        0x0 ../../../oslib/gcc/free_rtos/Debug/free_rtos.a(list.o)
 .bss           0x0000000000000000        0x0 ../../../oslib/gcc/free_rtos/Debug/free_rtos.a(list.o)
 .text          0x0000000000000000        0x0 ../../../driverlib/gcc/lib/Debug/libdriver.a(gpio.o)
 .data          0x0000000000000000        0x0 ../../../driverlib/gcc/lib/Debug/libdriver.a(gpio.o)
 .bss           0x0000000000000000        0x0 ../../../driverlib/gcc/lib/Debug/libdriver.a(gpio.o)
 .text.GPIOGetIntNumber
                0x0000000000000000       0x64 ../../../driverlib/gcc/lib/Debug/libdriver.a(gpio.o)
 .text.GPIODirModeGet
                0x0000000000000000       0x3c ../../../driverlib/gcc/lib/Debug/libdriver.a(gpio.o)
 .text.GPIOIntTypeGet
                0x0000000000000000       0x78 ../../../driverlib/gcc/lib/Debug/libdriver.a(gpio.o)
 .text.GPIOIntRegister
                0x0000000000000000       0x2c ../../../driverlib/gcc/lib/Debug/libdriver.a(gpio.o)
 .text.GPIOIntUnregister
                0x0000000000000000       0x28 ../../../driverlib/gcc/lib/Debug/libdriver.a(gpio.o)
 .text.GPIOPinRead
                0x0000000000000000       0x24 ../../../driverlib/gcc/lib/Debug/libdriver.a(gpio.o)
 .text.GPIODMATriggerEnable
                0x0000000000000000       0x78 ../../../driverlib/gcc/lib/Debug/libdriver.a(gpio.o)
 .text.GPIODMATriggerDisable
                0x0000000000000000       0x78 ../../../driverlib/gcc/lib/Debug/libdriver.a(gpio.o)
 .text          0x0000000000000000        0x0 ../../../driverlib/gcc/lib/Debug/libdriver.a(interrupt.o)
 .data          0x0000000000000000        0x0 ../../../driverlib/gcc/lib/Debug/libdriver.a(interrupt.o)
 .bss           0x0000000000000000        0x0 ../../../driverlib/gcc/lib/Debug/libdriver.a(interrupt.o)
 .rodata.g_pulPriority
                0x0000000000000000       0x20 ../../../driverlib/gcc/lib/Debug/libdriver.a(interrupt.o)
 .rodata.g_pulPendRegs
                0x0000000000000000       0x18 ../../../driverlib/gcc/lib/Debug/libdriver.a(interrupt.o)
 .text.IntMasterDisable
                0x0000000000000000       0x10 ../../../driverlib/gcc/lib/Debug/libdriver.a(interrupt.o)
 .text.IntPriorityGroupingSet
                0x0000000000000000       0x30 ../../../driverlib/gcc/lib/Debug/libdriver.a(interrupt.o)
 .text.IntPriorityGroupingGet
                0x0000000000000000       0x48 ../../../driverlib/gcc/lib/Debug/libdriver.a(interrupt.o)
 .text.IntPriorityGet
                0x0000000000000000       0x30 ../../../driverlib/gcc/lib/Debug/libdriver.a(interrupt.o)
 .text.IntPendSet
                0x0000000000000000       0x9c ../../../driverlib/gcc/lib/Debug/libdriver.a(interrupt.o)
 .text.IntPriorityMaskSet
                0x0000000000000000       0x18 ../../../driverlib/gcc/lib/Debug/libdriver.a(interrupt.o)
 .text.IntPriorityMaskGet
                0x0000000000000000       0x10 ../../../driverlib/gcc/lib/Debug/libdriver.a(interrupt.o)
 .text          0x0000000000000000        0x0 ../../../driverlib/gcc/lib/Debug/libdriver.a(pin.o)
 .data          0x0000000000000000        0x0 ../../../driverlib/gcc/lib/Debug/libdriver.a(pin.o)
 .bss           0x0000000000000000        0x0 ../../../driverlib/gcc/lib/Debug/libdriver.a(pin.o)
 .text.PinModeGet
                0x0000000000000000       0x3c ../../../driverlib/gcc/lib/Debug/libdriver.a(pin.o)
 .text.PinDirModeSet
                0x0000000000000000       0x44 ../../../driverlib/gcc/lib/Debug/libdriver.a(pin.o)
 .text.PinDirModeGet
                0x0000000000000000       0x3c ../../../driverlib/gcc/lib/Debug/libdriver.a(pin.o)
 .text.PinConfigGet
                0x0000000000000000       0x50 ../../../driverlib/gcc/lib/Debug/libdriver.a(pin.o)
 .text.PinTypeI2C
                0x0000000000000000       0x28 ../../../driverlib/gcc/lib/Debug/libdriver.a(pin.o)
 .text.PinTypeSPI
                0x0000000000000000       0x24 ../../../driverlib/gcc/lib/Debug/libdriver.a(pin.o)
 .text.PinTypeI2S
                0x0000000000000000       0x24 ../../../driverlib/gcc/lib/Debug/libdriver.a(pin.o)
 .text.PinTypeTimer
                0x0000000000000000       0x24 ../../../driverlib/gcc/lib/Debug/libdriver.a(pin.o)
 .text.PinTypeCamera
                0x0000000000000000       0x24 ../../../driverlib/gcc/lib/Debug/libdriver.a(pin.o)
 .text.PinTypeADC
                0x0000000000000000       0x20 ../../../driverlib/gcc/lib/Debug/libdriver.a(pin.o)
 .text.PinTypeSDHost
                0x0000000000000000       0x24 ../../../driverlib/gcc/lib/Debug/libdriver.a(pin.o)
 .text          0x0000000000000000        0x0 ../../../driverlib/gcc/lib/Debug/libdriver.a(prcm.o)
 .data          0x0000000000000000        0x0 ../../../driverlib/gcc/lib/Debug/libdriver.a(prcm.o)
 .bss           0x0000000000000000        0x0 ../../../driverlib/gcc/lib/Debug/libdriver.a(prcm.o)
 .text.RTCU16MSecRegWrite
                0x0000000000000000       0x3c ../../../driverlib/gcc/lib/Debug/libdriver.a(prcm.o)
 .text.RTCU32SecRegWrite
                0x0000000000000000       0x1c ../../../driverlib/gcc/lib/Debug/libdriver.a(prcm.o)
 .text.PRCMMCUReset
                0x0000000000000000       0x28 ../../../driverlib/gcc/lib/Debug/libdriver.a(prcm.o)
 .text.PRCMI2SClockFreqSet
                0x0000000000000000       0x54 ../../../driverlib/gcc/lib/Debug/libdriver.a(prcm.o)
 .text.PRCMLPDSRestoreInfoSet
                0x0000000000000000       0x28 ../../../driverlib/gcc/lib/Debug/libdriver.a(prcm.o)
 .text.PRCMLPDSEnter
                0x0000000000000000       0x50 ../../../driverlib/gcc/lib/Debug/libdriver.a(prcm.o)
 .text.PRCMLPDSEnterKeepDebugIf
                0x0000000000000000       0x40 ../../../driverlib/gcc/lib/Debug/libdriver.a(prcm.o)
 .text.PRCMLPDSWakeupSourceEnable
                0x0000000000000000       0x30 ../../../driverlib/gcc/lib/Debug/libdriver.a(prcm.o)
 .text.PRCMLPDSWakeupSourceDisable
                0x0000000000000000       0x24 ../../../driverlib/gcc/lib/Debug/libdriver.a(prcm.o)
 .text.PRCMLPDSWakeupCauseGet
                0x0000000000000000       0x14 ../../../driverlib/gcc/lib/Debug/libdriver.a(prcm.o)
 .text.PRCMLPDSIntervalSet
                0x0000000000000000       0x34 ../../../driverlib/gcc/lib/Debug/libdriver.a(prcm.o)
 .text.PRCMLPDSWakeUpGPIOSelect
                0x0000000000000000       0x2c ../../../driverlib/gcc/lib/Debug/libdriver.a(prcm.o)
 .text.PRCMSleepEnter
                0x0000000000000000        0xc ../../../driverlib/gcc/lib/Debug/libdriver.a(prcm.o)
 .text.PRCMSRAMRetentionEnable
                0x0000000000000000       0x2c ../../../driverlib/gcc/lib/Debug/libdriver.a(prcm.o)
 .text.PRCMSRAMRetentionDisable
                0x0000000000000000       0x34 ../../../driverlib/gcc/lib/Debug/libdriver.a(prcm.o)
 .text.PRCMHibernateWakeupSourceEnable
                0x0000000000000000       0x50 ../../../driverlib/gcc/lib/Debug/libdriver.a(prcm.o)
 .text.PRCMHibernateWakeupSourceDisable
                0x0000000000000000       0x54 ../../../driverlib/gcc/lib/Debug/libdriver.a(prcm.o)
 .text.PRCMHibernateWakeupCauseGet
                0x0000000000000000       0x1c ../../../driverlib/gcc/lib/Debug/libdriver.a(prcm.o)
 .text.PRCMHibernateIntervalSet
                0x0000000000000000       0x9c ../../../driverlib/gcc/lib/Debug/libdriver.a(prcm.o)
 .text.PRCMHibernateWakeUpGPIOSelect
                0x0000000000000000       0x70 ../../../driverlib/gcc/lib/Debug/libdriver.a(prcm.o)
 .text.PRCMHibernateEnter
                0x0000000000000000       0x14 ../../../driverlib/gcc/lib/Debug/libdriver.a(prcm.o)
 .text.PRCMSlowClkCtrFastGet
                0x0000000000000000       0x50 ../../../driverlib/gcc/lib/Debug/libdriver.a(prcm.o)
 .text.PRCMSlowClkCtrMatchSet
                0x0000000000000000       0x38 ../../../driverlib/gcc/lib/Debug/libdriver.a(prcm.o)
 .text.PRCMSlowClkCtrMatchGet
                0x0000000000000000       0x58 ../../../driverlib/gcc/lib/Debug/libdriver.a(prcm.o)
 .text.PRCMOCRRegisterWrite
                0x0000000000000000       0x28 ../../../driverlib/gcc/lib/Debug/libdriver.a(prcm.o)
 .text.PRCMOCRRegisterRead
                0x0000000000000000       0x28 ../../../driverlib/gcc/lib/Debug/libdriver.a(prcm.o)
 .text.PRCMIntRegister
                0x0000000000000000       0x20 ../../../driverlib/gcc/lib/Debug/libdriver.a(prcm.o)
 .text.PRCMIntUnregister
                0x0000000000000000       0x14 ../../../driverlib/gcc/lib/Debug/libdriver.a(prcm.o)
 .text.PRCMIntEnable
                0x0000000000000000       0x48 ../../../driverlib/gcc/lib/Debug/libdriver.a(prcm.o)
 .text.PRCMIntDisable
                0x0000000000000000       0x48 ../../../driverlib/gcc/lib/Debug/libdriver.a(prcm.o)
 .text.PRCMIntStatus
                0x0000000000000000       0x14 ../../../driverlib/gcc/lib/Debug/libdriver.a(prcm.o)
 .text.PRCMRTCInUseGet
                0x0000000000000000       0x18 ../../../driverlib/gcc/lib/Debug/libdriver.a(prcm.o)
 .text.PRCMRTCSet
                0x0000000000000000       0xa8 ../../../driverlib/gcc/lib/Debug/libdriver.a(prcm.o)
 .text.PRCMRTCMatchSet
                0x0000000000000000       0xd8 ../../../driverlib/gcc/lib/Debug/libdriver.a(prcm.o)
 .text.PRCMRTCMatchGet
                0x0000000000000000       0xb0 ../../../driverlib/gcc/lib/Debug/libdriver.a(prcm.o)
 .text.PRCMCameraFreqSet
                0x0000000000000000       0x50 ../../../driverlib/gcc/lib/Debug/libdriver.a(prcm.o)
 .text          0x0000000000000000        0x0 ../../../driverlib/gcc/lib/Debug/libdriver.a(spi.o)
 .data          0x0000000000000000        0x0 ../../../driverlib/gcc/lib/Debug/libdriver.a(spi.o)
 .bss           0x0000000000000000        0x0 ../../../driverlib/gcc/lib/Debug/libdriver.a(spi.o)
 .rodata.g_ppulSPIIntMap
                0x0000000000000000       0x24 ../../../driverlib/gcc/lib/Debug/libdriver.a(spi.o)
 .text.SPITransfer8
                0x0000000000000000       0xec ../../../driverlib/gcc/lib/Debug/libdriver.a(spi.o)
 .text.SPITransfer16
                0x0000000000000000      0x108 ../../../driverlib/gcc/lib/Debug/libdriver.a(spi.o)
 .text.SPITransfer32
                0x0000000000000000      0x104 ../../../driverlib/gcc/lib/Debug/libdriver.a(spi.o)
 .text.SPIIntNumberGet
                0x0000000000000000       0x58 ../../../driverlib/gcc/lib/Debug/libdriver.a(spi.o)
 .text.SPIDataGetNonBlocking
                0x0000000000000000       0x3c ../../../driverlib/gcc/lib/Debug/libdriver.a(spi.o)
 .text.SPIDataGet
                0x0000000000000000       0x34 ../../../driverlib/gcc/lib/Debug/libdriver.a(spi.o)
 .text.SPIDataPutNonBlocking
                0x0000000000000000       0x3c ../../../driverlib/gcc/lib/Debug/libdriver.a(spi.o)
 .text.SPIDataPut
                0x0000000000000000       0x34 ../../../driverlib/gcc/lib/Debug/libdriver.a(spi.o)
 .text.SPIFIFOLevelGet
                0x0000000000000000       0x34 ../../../driverlib/gcc/lib/Debug/libdriver.a(spi.o)
 .text.SPIIntRegister
                0x0000000000000000       0x2c ../../../driverlib/gcc/lib/Debug/libdriver.a(spi.o)
 .text.SPIIntUnregister
                0x0000000000000000       0x28 ../../../driverlib/gcc/lib/Debug/libdriver.a(spi.o)
 .text.SPIIntDisable
                0x0000000000000000       0x6c ../../../driverlib/gcc/lib/Debug/libdriver.a(spi.o)
 .text.SPIIntStatus
                0x0000000000000000       0x88 ../../../driverlib/gcc/lib/Debug/libdriver.a(spi.o)
 .text.SPITransfer
                0x0000000000000000       0x90 ../../../driverlib/gcc/lib/Debug/libdriver.a(spi.o)
 .text          0x0000000000000000        0x0 ../../../driverlib/gcc/lib/Debug/libdriver.a(timer.o)
 .data          0x0000000000000000        0x0 ../../../driverlib/gcc/lib/Debug/libdriver.a(timer.o)
 .bss           0x0000000000000000        0x0 ../../../driverlib/gcc/lib/Debug/libdriver.a(timer.o)
 .text.TimerControlLevel
                0x0000000000000000       0x48 ../../../driverlib/gcc/lib/Debug/libdriver.a(timer.o)
 .text.TimerControlEvent
                0x0000000000000000       0x40 ../../../driverlib/gcc/lib/Debug/libdriver.a(timer.o)
 .text.TimerControlStall
                0x0000000000000000       0x48 ../../../driverlib/gcc/lib/Debug/libdriver.a(timer.o)
 .text.TimerPrescaleGet
                0x0000000000000000       0x28 ../../../driverlib/gcc/lib/Debug/libdriver.a(timer.o)
 .text.TimerPrescaleMatchSet
                0x0000000000000000       0x3c ../../../driverlib/gcc/lib/Debug/libdriver.a(timer.o)
 .text.TimerPrescaleMatchGet
                0x0000000000000000       0x28 ../../../driverlib/gcc/lib/Debug/libdriver.a(timer.o)
 .text.TimerLoadGet
                0x0000000000000000       0x28 ../../../driverlib/gcc/lib/Debug/libdriver.a(timer.o)
 .text.TimerValueSet
                0x0000000000000000       0x34 ../../../driverlib/gcc/lib/Debug/libdriver.a(timer.o)
 .text.TimerMatchSet
                0x0000000000000000       0x3c ../../../driverlib/gcc/lib/Debug/libdriver.a(timer.o)
 .text.TimerMatchGet
                0x0000000000000000       0x28 ../../../driverlib/gcc/lib/Debug/libdriver.a(timer.o)
 .text.TimerIntRegister
                0x0000000000000000       0x80 ../../../driverlib/gcc/lib/Debug/libdriver.a(timer.o)
 .text.TimerDMAEventSet
                0x0000000000000000       0x20 ../../../driverlib/gcc/lib/Debug/libdriver.a(timer.o)
 .text.TimerDMAEventGet
                0x0000000000000000       0x18 ../../../driverlib/gcc/lib/Debug/libdriver.a(timer.o)
 .text          0x0000000000000000        0x0 ../../../driverlib/gcc/lib/Debug/libdriver.a(uart.o)
 .data          0x0000000000000000        0x0 ../../../driverlib/gcc/lib/Debug/libdriver.a(uart.o)
 .bss           0x0000000000000000        0x0 ../../../driverlib/gcc/lib/Debug/libdriver.a(uart.o)
 .rodata.g_ppulUARTIntMap
                0x0000000000000000       0x10 ../../../driverlib/gcc/lib/Debug/libdriver.a(uart.o)
 .text.UARTIntNumberGet
                0x0000000000000000       0x48 ../../../driverlib/gcc/lib/Debug/libdriver.a(uart.o)
 .text.UARTParityModeSet
                0x0000000000000000       0x2c ../../../driverlib/gcc/lib/Debug/libdriver.a(uart.o)
 .text.UARTParityModeGet
                0x0000000000000000       0x1c ../../../driverlib/gcc/lib/Debug/libdriver.a(uart.o)
 .text.UARTFIFOLevelSet
                0x0000000000000000       0x24 ../../../driverlib/gcc/lib/Debug/libdriver.a(uart.o)
 .text.UARTFIFOLevelGet
                0x0000000000000000       0x34 ../../../driverlib/gcc/lib/Debug/libdriver.a(uart.o)
 .text.UARTConfigGetExpClk
                0x0000000000000000       0x64 ../../../driverlib/gcc/lib/Debug/libdriver.a(uart.o)
 .text.UARTFIFOEnable
                0x0000000000000000       0x24 ../../../driverlib/gcc/lib/Debug/libdriver.a(uart.o)
 .text.UARTFIFODisable
                0x0000000000000000       0x24 ../../../driverlib/gcc/lib/Debug/libdriver.a(uart.o)
 .text.UARTModemControlSet
                0x0000000000000000       0x34 ../../../driverlib/gcc/lib/Debug/libdriver.a(uart.o)
 .text.UARTModemControlClear
                0x0000000000000000       0x34 ../../../driverlib/gcc/lib/Debug/libdriver.a(uart.o)
 .text.UARTModemControlGet
                0x0000000000000000       0x1c ../../../driverlib/gcc/lib/Debug/libdriver.a(uart.o)
 .text.UARTModemStatusGet
                0x0000000000000000       0x1c ../../../driverlib/gcc/lib/Debug/libdriver.a(uart.o)
 .text.UARTFlowControlSet
                0x0000000000000000       0x2c ../../../driverlib/gcc/lib/Debug/libdriver.a(uart.o)
 .text.UARTFlowControlGet
                0x0000000000000000       0x1c ../../../driverlib/gcc/lib/Debug/libdriver.a(uart.o)
 .text.UARTTxIntModeSet
                0x0000000000000000       0x2c ../../../driverlib/gcc/lib/Debug/libdriver.a(uart.o)
 .text.UARTTxIntModeGet
                0x0000000000000000       0x1c ../../../driverlib/gcc/lib/Debug/libdriver.a(uart.o)
 .text.UARTSpaceAvail
                0x0000000000000000       0x28 ../../../driverlib/gcc/lib/Debug/libdriver.a(uart.o)
 .text.UARTCharGet
                0x0000000000000000       0x28 ../../../driverlib/gcc/lib/Debug/libdriver.a(uart.o)
 .text.UARTCharPutNonBlocking
                0x0000000000000000       0x30 ../../../driverlib/gcc/lib/Debug/libdriver.a(uart.o)
 .text.UARTBreakCtl
                0x0000000000000000       0x3c ../../../driverlib/gcc/lib/Debug/libdriver.a(uart.o)
 .text.UARTBusy
                0x0000000000000000       0x28 ../../../driverlib/gcc/lib/Debug/libdriver.a(uart.o)
 .text.UARTIntRegister
                0x0000000000000000       0x2c ../../../driverlib/gcc/lib/Debug/libdriver.a(uart.o)
 .text.UARTIntUnregister
                0x0000000000000000       0x28 ../../../driverlib/gcc/lib/Debug/libdriver.a(uart.o)
 .text.UARTIntEnable
                0x0000000000000000       0x28 ../../../driverlib/gcc/lib/Debug/libdriver.a(uart.o)
 .text.UARTIntDisable
                0x0000000000000000       0x28 ../../../driverlib/gcc/lib/Debug/libdriver.a(uart.o)
 .text.UARTIntStatus
                0x0000000000000000       0x2c ../../../driverlib/gcc/lib/Debug/libdriver.a(uart.o)
 .text.UARTIntClear
                0x0000000000000000       0x20 ../../../driverlib/gcc/lib/Debug/libdriver.a(uart.o)
 .text.UARTDMAEnable
                0x0000000000000000       0x28 ../../../driverlib/gcc/lib/Debug/libdriver.a(uart.o)
 .text.UARTDMADisable
                0x0000000000000000       0x28 ../../../driverlib/gcc/lib/Debug/libdriver.a(uart.o)
 .text.UARTRxErrorGet
                0x0000000000000000       0x1c ../../../driverlib/gcc/lib/Debug/libdriver.a(uart.o)
 .text.UARTRxErrorClear
                0x0000000000000000       0x1c ../../../driverlib/gcc/lib/Debug/libdriver.a(uart.o)
 .text          0x0000000000000000        0x0 ../../../driverlib/gcc/lib/Debug/libdriver.a(udma.o)
 .data          0x0000000000000000        0x0 ../../../driverlib/gcc/lib/Debug/libdriver.a(udma.o)
 .bss           0x0000000000000000        0x0 ../../../driverlib/gcc/lib/Debug/libdriver.a(udma.o)
 .text.uDMAEnable
                0x0000000000000000       0x18 ../../../driverlib/gcc/lib/Debug/libdriver.a(udma.o)
 .text.uDMADisable
                0x0000000000000000       0x18 ../../../driverlib/gcc/lib/Debug/libdriver.a(udma.o)
 .text.uDMAErrorStatusGet
                0x0000000000000000       0x14 ../../../driverlib/gcc/lib/Debug/libdriver.a(udma.o)
 .text.uDMAErrorStatusClear
                0x0000000000000000       0x18 ../../../driverlib/gcc/lib/Debug/libdriver.a(udma.o)
 .text.uDMAChannelDisable
                0x0000000000000000       0x28 ../../../driverlib/gcc/lib/Debug/libdriver.a(udma.o)
 .text.uDMAChannelIsEnabled
                0x0000000000000000       0x34 ../../../driverlib/gcc/lib/Debug/libdriver.a(udma.o)
 .text.uDMAControlBaseSet
                0x0000000000000000       0x1c ../../../driverlib/gcc/lib/Debug/libdriver.a(udma.o)
 .text.uDMAControlBaseGet
                0x0000000000000000       0x14 ../../../driverlib/gcc/lib/Debug/libdriver.a(udma.o)
 .text.uDMAControlAlternateBaseGet
                0x0000000000000000       0x14 ../../../driverlib/gcc/lib/Debug/libdriver.a(udma.o)
 .text.uDMAChannelRequest
                0x0000000000000000       0x28 ../../../driverlib/gcc/lib/Debug/libdriver.a(udma.o)
 .text.uDMAChannelAttributeGet
                0x0000000000000000       0x98 ../../../driverlib/gcc/lib/Debug/libdriver.a(udma.o)
 .text.uDMAChannelScatterGatherSet
                0x0000000000000000       0x88 ../../../driverlib/gcc/lib/Debug/libdriver.a(udma.o)
 .text.uDMAChannelSizeGet
                0x0000000000000000       0x48 ../../../driverlib/gcc/lib/Debug/libdriver.a(udma.o)
 .text.uDMAChannelModeGet
                0x0000000000000000       0x54 ../../../driverlib/gcc/lib/Debug/libdriver.a(udma.o)
 .text.uDMAIntRegister
                0x0000000000000000       0x20 ../../../driverlib/gcc/lib/Debug/libdriver.a(udma.o)
 .text.uDMAIntUnregister
                0x0000000000000000       0x1c ../../../driverlib/gcc/lib/Debug/libdriver.a(udma.o)
 .text.uDMAIntStatus
                0x0000000000000000       0x14 ../../../driverlib/gcc/lib/Debug/libdriver.a(udma.o)
 .text.uDMAIntClear
                0x0000000000000000       0x1c ../../../driverlib/gcc/lib/Debug/libdriver.a(udma.o)
 .text          0x0000000000000000        0x0 ../../../driverlib/gcc/lib/Debug/libdriver.a(utils.o)
 .data          0x0000000000000000        0x0 ../../../driverlib/gcc/lib/Debug/libdriver.a(utils.o)
 .bss           0x0000000000000000        0x0 ../../../driverlib/gcc/lib/Debug/libdriver.a(utils.o)
 .text          0x0000000000000000        0x0 ../../../driverlib/gcc/lib/Debug/libdriver.a(cpu.o)
 .data          0x0000000000000000        0x0 ../../../driverlib/gcc/lib/Debug/libdriver.a(cpu.o)
 .bss           0x0000000000000000        0x0 ../../../driverlib/gcc/lib/Debug/libdriver.a(cpu.o)
 .text.CPUcpsid
                0x0000000000000000       0x18 ../../../driverlib/gcc/lib/Debug/libdriver.a(cpu.o)
 .text.CPUprimask
                0x0000000000000000        0xc ../../../driverlib/gcc/lib/Debug/libdriver.a(cpu.o)
 .text.CPUwfi   0x0000000000000000       0x10 ../../../driverlib/gcc/lib/Debug/libdriver.a(cpu.o)
 .text.CPUbasepriSet
                0x0000000000000000       0x10 ../../../driverlib/gcc/lib/Debug/libdriver.a(cpu.o)
 .text.CPUbasepriGet
                0x0000000000000000        0xc ../../../driverlib/gcc/lib/Debug/libdriver.a(cpu.o)
 .text          0x0000000000000000        0x0 ../../../driverlib/gcc/lib/Debug/libdriver.a(flash.o)
 .data          0x0000000000000000        0x0 ../../../driverlib/gcc/lib/Debug/libdriver.a(flash.o)
 .bss           0x0000000000000000        0x0 ../../../driverlib/gcc/lib/Debug/libdriver.a(flash.o)
 .rodata.g_pulFMPPERegs
                0x0000000000000000       0x40 ../../../driverlib/gcc/lib/Debug/libdriver.a(flash.o)
 .rodata.g_pulFMPRERegs
                0x0000000000000000       0x40 ../../../driverlib/gcc/lib/Debug/libdriver.a(flash.o)
 .text.FlashDisable
                0x0000000000000000       0x50 ../../../driverlib/gcc/lib/Debug/libdriver.a(flash.o)
 .text.FlashErase
                0x0000000000000000       0x60 ../../../driverlib/gcc/lib/Debug/libdriver.a(flash.o)
 .text.FlashEraseNonBlocking
                0x0000000000000000       0x38 ../../../driverlib/gcc/lib/Debug/libdriver.a(flash.o)
 .text.FlashMassErase
                0x0000000000000000       0x50 ../../../driverlib/gcc/lib/Debug/libdriver.a(flash.o)
 .text.FlashMassEraseNonBlocking
                0x0000000000000000       0x28 ../../../driverlib/gcc/lib/Debug/libdriver.a(flash.o)
 .text.FlashProgram
                0x0000000000000000       0xb4 ../../../driverlib/gcc/lib/Debug/libdriver.a(flash.o)
 .text.FlashProgramNonBlocking
                0x0000000000000000       0xa4 ../../../driverlib/gcc/lib/Debug/libdriver.a(flash.o)
 .text.FlashProtectGet
                0x0000000000000000       0x78 ../../../driverlib/gcc/lib/Debug/libdriver.a(flash.o)
 .text.FlashIntRegister
                0x0000000000000000       0x20 ../../../driverlib/gcc/lib/Debug/libdriver.a(flash.o)
 .text.FlashIntUnregister
                0x0000000000000000       0x14 ../../../driverlib/gcc/lib/Debug/libdriver.a(flash.o)
 .text.FlashIntEnable
                0x0000000000000000       0x24 ../../../driverlib/gcc/lib/Debug/libdriver.a(flash.o)
 .text.FlashIntDisable
                0x0000000000000000       0x24 ../../../driverlib/gcc/lib/Debug/libdriver.a(flash.o)
 .text.FlashIntStatus
                0x0000000000000000       0x2c ../../../driverlib/gcc/lib/Debug/libdriver.a(flash.o)
 .text.FlashIntClear
                0x0000000000000000       0x1c ../../../driverlib/gcc/lib/Debug/libdriver.a(flash.o)
 .debug_info    0x0000000000000000      0x300 ../../../driverlib/gcc/lib/Debug/libdriver.a(flash.o)
 .debug_abbrev  0x0000000000000000      0x191 ../../../driverlib/gcc/lib/Debug/libdriver.a(flash.o)
 .debug_aranges
                0x0000000000000000       0x88 ../../../driverlib/gcc/lib/Debug/libdriver.a(flash.o)
 .debug_ranges  0x0000000000000000       0x78 ../../../driverlib/gcc/lib/Debug/libdriver.a(flash.o)
 .debug_line    0x0000000000000000      0x1f4 ../../../driverlib/gcc/lib/Debug/libdriver.a(flash.o)
 .debug_str     0x0000000000000000      0x279 ../../../driverlib/gcc/lib/Debug/libdriver.a(flash.o)
 .comment       0x0000000000000000       0x22 ../../../driverlib/gcc/lib/Debug/libdriver.a(flash.o)
 .ARM.attributes
                0x0000000000000000       0x33 ../../../driverlib/gcc/lib/Debug/libdriver.a(flash.o)
 .debug_frame   0x0000000000000000      0x214 ../../../driverlib/gcc/lib/Debug/libdriver.a(flash.o)
 .text          0x0000000000000000        0x0 /usr/lib/gcc/arm-none-eabi/5.2.0/../../../../arm-none-eabi/lib/armv7e-m/libc_nano.a(lib_a-atoi.o)
 .data          0x0000000000000000        0x0 /usr/lib/gcc/arm-none-eabi/5.2.0/../../../../arm-none-eabi/lib/armv7e-m/libc_nano.a(lib_a-atoi.o)
 .bss           0x0000000000000000        0x0 /usr/lib/gcc/arm-none-eabi/5.2.0/../../../../arm-none-eabi/lib/armv7e-m/libc_nano.a(lib_a-atoi.o)
 .text._atoi_r  0x0000000000000000        0x8 /usr/lib/gcc/arm-none-eabi/5.2.0/../../../../arm-none-eabi/lib/armv7e-m/libc_nano.a(lib_a-atoi.o)
 .text          0x0000000000000000        0x0 /usr/lib/gcc/arm-none-eabi/5.2.0/../../../../arm-none-eabi/lib/armv7e-m/libc_nano.a(lib_a-malloc.o)
 .data          0x0000000000000000        0x0 /usr/lib/gcc/arm-none-eabi/5.2.0/../../../../arm-none-eabi/lib/armv7e-m/libc_nano.a(lib_a-malloc.o)
 .bss           0x0000000000000000        0x0 /usr/lib/gcc/arm-none-eabi/5.2.0/../../../../arm-none-eabi/lib/armv7e-m/libc_nano.a(lib_a-malloc.o)
 .text          0x0000000000000000        0x0 /usr/lib/gcc/arm-none-eabi/5.2.0/../../../../arm-none-eabi/lib/armv7e-m/libc_nano.a(lib_a-memcmp.o)
 .data          0x0000000000000000        0x0 /usr/lib/gcc/arm-none-eabi/5.2.0/../../../../arm-none-eabi/lib/armv7e-m/libc_nano.a(lib_a-memcmp.o)
 .bss           0x0000000000000000        0x0 /usr/lib/gcc/arm-none-eabi/5.2.0/../../../../arm-none-eabi/lib/armv7e-m/libc_nano.a(lib_a-memcmp.o)
 .text          0x0000000000000000        0x0 /usr/lib/gcc/arm-none-eabi/5.2.0/../../../../arm-none-eabi/lib/armv7e-m/libc_nano.a(lib_a-memcpy.o)
 .data          0x0000000000000000        0x0 /usr/lib/gcc/arm-none-eabi/5.2.0/../../../../arm-none-eabi/lib/armv7e-m/libc_nano.a(lib_a-memcpy.o)
 .bss           0x0000000000000000        0x0 /usr/lib/gcc/arm-none-eabi/5.2.0/../../../../arm-none-eabi/lib/armv7e-m/libc_nano.a(lib_a-memcpy.o)
 .text          0x0000000000000000        0x0 /usr/lib/gcc/arm-none-eabi/5.2.0/../../../../arm-none-eabi/lib/armv7e-m/libc_nano.a(lib_a-memmove.o)
 .data          0x0000000000000000        0x0 /usr/lib/gcc/arm-none-eabi/5.2.0/../../../../arm-none-eabi/lib/armv7e-m/libc_nano.a(lib_a-memmove.o)
 .bss           0x0000000000000000        0x0 /usr/lib/gcc/arm-none-eabi/5.2.0/../../../../arm-none-eabi/lib/armv7e-m/libc_nano.a(lib_a-memmove.o)
 .text          0x0000000000000000        0x0 /usr/lib/gcc/arm-none-eabi/5.2.0/../../../../arm-none-eabi/lib/armv7e-m/libc_nano.a(lib_a-memset.o)
 .data          0x0000000000000000        0x0 /usr/lib/gcc/arm-none-eabi/5.2.0/../../../../arm-none-eabi/lib/armv7e-m/libc_nano.a(lib_a-memset.o)
 .bss           0x0000000000000000        0x0 /usr/lib/gcc/arm-none-eabi/5.2.0/../../../../arm-none-eabi/lib/armv7e-m/libc_nano.a(lib_a-memset.o)
 .text          0x0000000000000000        0x0 /usr/lib/gcc/arm-none-eabi/5.2.0/../../../../arm-none-eabi/lib/armv7e-m/libc_nano.a(lib_a-nano-freer.o)
 .data          0x0000000000000000        0x0 /usr/lib/gcc/arm-none-eabi/5.2.0/../../../../arm-none-eabi/lib/armv7e-m/libc_nano.a(lib_a-nano-freer.o)
 .bss           0x0000000000000000        0x0 /usr/lib/gcc/arm-none-eabi/5.2.0/../../../../arm-none-eabi/lib/armv7e-m/libc_nano.a(lib_a-nano-freer.o)
 .text          0x0000000000000000        0x0 /usr/lib/gcc/arm-none-eabi/5.2.0/../../../../arm-none-eabi/lib/armv7e-m/libc_nano.a(lib_a-nano-mallocr.o)
 .data          0x0000000000000000        0x0 /usr/lib/gcc/arm-none-eabi/5.2.0/../../../../arm-none-eabi/lib/armv7e-m/libc_nano.a(lib_a-nano-mallocr.o)
 .bss           0x0000000000000000        0x0 /usr/lib/gcc/arm-none-eabi/5.2.0/../../../../arm-none-eabi/lib/armv7e-m/libc_nano.a(lib_a-nano-mallocr.o)
 .text          0x0000000000000000        0x0 /usr/lib/gcc/arm-none-eabi/5.2.0/../../../../arm-none-eabi/lib/armv7e-m/libc_nano.a(lib_a-realloc.o)
 .data          0x0000000000000000        0x0 /usr/lib/gcc/arm-none-eabi/5.2.0/../../../../arm-none-eabi/lib/armv7e-m/libc_nano.a(lib_a-realloc.o)
 .bss           0x0000000000000000        0x0 /usr/lib/gcc/arm-none-eabi/5.2.0/../../../../arm-none-eabi/lib/armv7e-m/libc_nano.a(lib_a-realloc.o)
 .text          0x0000000000000000        0x0 /usr/lib/gcc/arm-none-eabi/5.2.0/../../../../arm-none-eabi/lib/armv7e-m/libc_nano.a(lib_a-sbrkr.o)
 .data          0x0000000000000000        0x0 /usr/lib/gcc/arm-none-eabi/5.2.0/../../../../arm-none-eabi/lib/armv7e-m/libc_nano.a(lib_a-sbrkr.o)
 .bss           0x0000000000000000        0x0 /usr/lib/gcc/arm-none-eabi/5.2.0/../../../../arm-none-eabi/lib/armv7e-m/libc_nano.a(lib_a-sbrkr.o)
 .text          0x0000000000000000        0x0 /usr/lib/gcc/arm-none-eabi/5.2.0/../../../../arm-none-eabi/lib/armv7e-m/libc_nano.a(lib_a-sprintf.o)
 .data          0x0000000000000000        0x0 /usr/lib/gcc/arm-none-eabi/5.2.0/../../../../arm-none-eabi/lib/armv7e-m/libc_nano.a(lib_a-sprintf.o)
 .bss           0x0000000000000000        0x0 /usr/lib/gcc/arm-none-eabi/5.2.0/../../../../arm-none-eabi/lib/armv7e-m/libc_nano.a(lib_a-sprintf.o)
 .text._sprintf_r
                0x0000000000000000       0x40 /usr/lib/gcc/arm-none-eabi/5.2.0/../../../../arm-none-eabi/lib/armv7e-m/libc_nano.a(lib_a-sprintf.o)
 .text.sprintf  0x0000000000000000       0x48 /usr/lib/gcc/arm-none-eabi/5.2.0/../../../../arm-none-eabi/lib/armv7e-m/libc_nano.a(lib_a-sprintf.o)
 .debug_info    0x0000000000000000      0x88c /usr/lib/gcc/arm-none-eabi/5.2.0/../../../../arm-none-eabi/lib/armv7e-m/libc_nano.a(lib_a-sprintf.o)
 .debug_abbrev  0x0000000000000000      0x1c0 /usr/lib/gcc/arm-none-eabi/5.2.0/../../../../arm-none-eabi/lib/armv7e-m/libc_nano.a(lib_a-sprintf.o)
 .debug_loc     0x0000000000000000       0x95 /usr/lib/gcc/arm-none-eabi/5.2.0/../../../../arm-none-eabi/lib/armv7e-m/libc_nano.a(lib_a-sprintf.o)
 .debug_aranges
                0x0000000000000000       0x28 /usr/lib/gcc/arm-none-eabi/5.2.0/../../../../arm-none-eabi/lib/armv7e-m/libc_nano.a(lib_a-sprintf.o)
 .debug_ranges  0x0000000000000000       0x18 /usr/lib/gcc/arm-none-eabi/5.2.0/../../../../arm-none-eabi/lib/armv7e-m/libc_nano.a(lib_a-sprintf.o)
 .debug_line    0x0000000000000000      0x190 /usr/lib/gcc/arm-none-eabi/5.2.0/../../../../arm-none-eabi/lib/armv7e-m/libc_nano.a(lib_a-sprintf.o)
 .debug_str     0x0000000000000000      0x544 /usr/lib/gcc/arm-none-eabi/5.2.0/../../../../arm-none-eabi/lib/armv7e-m/libc_nano.a(lib_a-sprintf.o)
 .comment       0x0000000000000000       0x22 /usr/lib/gcc/arm-none-eabi/5.2.0/../../../../arm-none-eabi/lib/armv7e-m/libc_nano.a(lib_a-sprintf.o)
 .debug_frame   0x0000000000000000       0x70 /usr/lib/gcc/arm-none-eabi/5.2.0/../../../../arm-none-eabi/lib/armv7e-m/libc_nano.a(lib_a-sprintf.o)
 .ARM.attributes
                0x0000000000000000       0x2e /usr/lib/gcc/arm-none-eabi/5.2.0/../../../../arm-none-eabi/lib/armv7e-m/libc_nano.a(lib_a-sprintf.o)
 .data          0x0000000000000000        0x0 /usr/lib/gcc/arm-none-eabi/5.2.0/../../../../arm-none-eabi/lib/armv7e-m/libc_nano.a(lib_a-strcmp.o)
 .bss           0x0000000000000000        0x0 /usr/lib/gcc/arm-none-eabi/5.2.0/../../../../arm-none-eabi/lib/armv7e-m/libc_nano.a(lib_a-strcmp.o)
 .eh_frame      0x0000000000000000       0x28 /usr/lib/gcc/arm-none-eabi/5.2.0/../../../../arm-none-eabi/lib/armv7e-m/libc_nano.a(lib_a-strcmp.o)
 .text          0x0000000000000000        0x0 /usr/lib/gcc/arm-none-eabi/5.2.0/../../../../arm-none-eabi/lib/armv7e-m/libc_nano.a(lib_a-strcpy.o)
 .data          0x0000000000000000        0x0 /usr/lib/gcc/arm-none-eabi/5.2.0/../../../../arm-none-eabi/lib/armv7e-m/libc_nano.a(lib_a-strcpy.o)
 .bss           0x0000000000000000        0x0 /usr/lib/gcc/arm-none-eabi/5.2.0/../../../../arm-none-eabi/lib/armv7e-m/libc_nano.a(lib_a-strcpy.o)
 .text          0x0000000000000000        0x0 /usr/lib/gcc/arm-none-eabi/5.2.0/../../../../arm-none-eabi/lib/armv7e-m/libc_nano.a(lib_a-strlen.o)
 .data          0x0000000000000000        0x0 /usr/lib/gcc/arm-none-eabi/5.2.0/../../../../arm-none-eabi/lib/armv7e-m/libc_nano.a(lib_a-strlen.o)
 .bss           0x0000000000000000        0x0 /usr/lib/gcc/arm-none-eabi/5.2.0/../../../../arm-none-eabi/lib/armv7e-m/libc_nano.a(lib_a-strlen.o)
 .text          0x0000000000000000        0x0 /usr/lib/gcc/arm-none-eabi/5.2.0/../../../../arm-none-eabi/lib/armv7e-m/libc_nano.a(lib_a-strncmp.o)
 .data          0x0000000000000000        0x0 /usr/lib/gcc/arm-none-eabi/5.2.0/../../../../arm-none-eabi/lib/armv7e-m/libc_nano.a(lib_a-strncmp.o)
 .bss           0x0000000000000000        0x0 /usr/lib/gcc/arm-none-eabi/5.2.0/../../../../arm-none-eabi/lib/armv7e-m/libc_nano.a(lib_a-strncmp.o)
 .text          0x0000000000000000        0x0 /usr/lib/gcc/arm-none-eabi/5.2.0/../../../../arm-none-eabi/lib/armv7e-m/libc_nano.a(lib_a-strncpy.o)
 .data          0x0000000000000000        0x0 /usr/lib/gcc/arm-none-eabi/5.2.0/../../../../arm-none-eabi/lib/armv7e-m/libc_nano.a(lib_a-strncpy.o)
 .bss           0x0000000000000000        0x0 /usr/lib/gcc/arm-none-eabi/5.2.0/../../../../arm-none-eabi/lib/armv7e-m/libc_nano.a(lib_a-strncpy.o)
 .text          0x0000000000000000        0x0 /usr/lib/gcc/arm-none-eabi/5.2.0/../../../../arm-none-eabi/lib/armv7e-m/libc_nano.a(lib_a-strtok.o)
 .data          0x0000000000000000        0x0 /usr/lib/gcc/arm-none-eabi/5.2.0/../../../../arm-none-eabi/lib/armv7e-m/libc_nano.a(lib_a-strtok.o)
 .bss           0x0000000000000000        0x0 /usr/lib/gcc/arm-none-eabi/5.2.0/../../../../arm-none-eabi/lib/armv7e-m/libc_nano.a(lib_a-strtok.o)
 .text          0x0000000000000000        0x0 /usr/lib/gcc/arm-none-eabi/5.2.0/../../../../arm-none-eabi/lib/armv7e-m/libc_nano.a(lib_a-strtok_r.o)
 .data          0x0000000000000000        0x0 /usr/lib/gcc/arm-none-eabi/5.2.0/../../../../arm-none-eabi/lib/armv7e-m/libc_nano.a(lib_a-strtok_r.o)
 .bss           0x0000000000000000        0x0 /usr/lib/gcc/arm-none-eabi/5.2.0/../../../../arm-none-eabi/lib/armv7e-m/libc_nano.a(lib_a-strtok_r.o)
 .text.strtok_r
                0x0000000000000000        0x6 /usr/lib/gcc/arm-none-eabi/5.2.0/../../../../arm-none-eabi/lib/armv7e-m/libc_nano.a(lib_a-strtok_r.o)
 .text          0x0000000000000000        0x0 /usr/lib/gcc/arm-none-eabi/5.2.0/../../../../arm-none-eabi/lib/armv7e-m/libc_nano.a(lib_a-strtol.o)
 .data          0x0000000000000000        0x0 /usr/lib/gcc/arm-none-eabi/5.2.0/../../../../arm-none-eabi/lib/armv7e-m/libc_nano.a(lib_a-strtol.o)
 .bss           0x0000000000000000        0x0 /usr/lib/gcc/arm-none-eabi/5.2.0/../../../../arm-none-eabi/lib/armv7e-m/libc_nano.a(lib_a-strtol.o)
 .text          0x0000000000000000        0x0 /usr/lib/gcc/arm-none-eabi/5.2.0/../../../../arm-none-eabi/lib/armv7e-m/libc_nano.a(lib_a-vsnprintf.o)
 .data          0x0000000000000000        0x0 /usr/lib/gcc/arm-none-eabi/5.2.0/../../../../arm-none-eabi/lib/armv7e-m/libc_nano.a(lib_a-vsnprintf.o)
 .bss           0x0000000000000000        0x0 /usr/lib/gcc/arm-none-eabi/5.2.0/../../../../arm-none-eabi/lib/armv7e-m/libc_nano.a(lib_a-vsnprintf.o)
 .text          0x0000000000000000        0x0 /usr/lib/gcc/arm-none-eabi/5.2.0/../../../../arm-none-eabi/lib/armv7e-m/libc_nano.a(lib_a-ctype_.o)
 .data          0x0000000000000000        0x0 /usr/lib/gcc/arm-none-eabi/5.2.0/../../../../arm-none-eabi/lib/armv7e-m/libc_nano.a(lib_a-ctype_.o)
 .bss           0x0000000000000000        0x0 /usr/lib/gcc/arm-none-eabi/5.2.0/../../../../arm-none-eabi/lib/armv7e-m/libc_nano.a(lib_a-ctype_.o)
 .text          0x0000000000000000        0x0 /usr/lib/gcc/arm-none-eabi/5.2.0/../../../../arm-none-eabi/lib/armv7e-m/libc_nano.a(lib_a-impure.o)
 .data          0x0000000000000000        0x0 /usr/lib/gcc/arm-none-eabi/5.2.0/../../../../arm-none-eabi/lib/armv7e-m/libc_nano.a(lib_a-impure.o)
 .bss           0x0000000000000000        0x0 /usr/lib/gcc/arm-none-eabi/5.2.0/../../../../arm-none-eabi/lib/armv7e-m/libc_nano.a(lib_a-impure.o)
 .rodata._global_impure_ptr
                0x0000000000000000        0x4 /usr/lib/gcc/arm-none-eabi/5.2.0/../../../../arm-none-eabi/lib/armv7e-m/libc_nano.a(lib_a-impure.o)
 .text          0x0000000000000000        0x0 /usr/lib/gcc/arm-none-eabi/5.2.0/../../../../arm-none-eabi/lib/armv7e-m/libc_nano.a(lib_a-nano-reallocr.o)
 .data          0x0000000000000000        0x0 /usr/lib/gcc/arm-none-eabi/5.2.0/../../../../arm-none-eabi/lib/armv7e-m/libc_nano.a(lib_a-nano-reallocr.o)
 .bss           0x0000000000000000        0x0 /usr/lib/gcc/arm-none-eabi/5.2.0/../../../../arm-none-eabi/lib/armv7e-m/libc_nano.a(lib_a-nano-reallocr.o)
 .text          0x0000000000000000        0x0 /usr/lib/gcc/arm-none-eabi/5.2.0/../../../../arm-none-eabi/lib/armv7e-m/libc_nano.a(lib_a-nano-svfprintf.o)
 .data          0x0000000000000000        0x0 /usr/lib/gcc/arm-none-eabi/5.2.0/../../../../arm-none-eabi/lib/armv7e-m/libc_nano.a(lib_a-nano-svfprintf.o)
 .bss           0x0000000000000000        0x0 /usr/lib/gcc/arm-none-eabi/5.2.0/../../../../arm-none-eabi/lib/armv7e-m/libc_nano.a(lib_a-nano-svfprintf.o)
 .text.__ssprint_r
                0x0000000000000000       0xfe /usr/lib/gcc/arm-none-eabi/5.2.0/../../../../arm-none-eabi/lib/armv7e-m/libc_nano.a(lib_a-nano-svfprintf.o)
 .text          0x0000000000000000        0x0 /usr/lib/gcc/arm-none-eabi/5.2.0/../../../../arm-none-eabi/lib/armv7e-m/libc_nano.a(lib_a-nano-vfprintf_i.o)
 .data          0x0000000000000000        0x0 /usr/lib/gcc/arm-none-eabi/5.2.0/../../../../arm-none-eabi/lib/armv7e-m/libc_nano.a(lib_a-nano-vfprintf_i.o)
 .bss           0x0000000000000000        0x0 /usr/lib/gcc/arm-none-eabi/5.2.0/../../../../arm-none-eabi/lib/armv7e-m/libc_nano.a(lib_a-nano-vfprintf_i.o)
 .text          0x0000000000000000        0x0 /usr/lib/gcc/arm-none-eabi/5.2.0/../../../../arm-none-eabi/lib/armv7e-m/libc_nano.a(lib_a-reent.o)
 .data          0x0000000000000000        0x0 /usr/lib/gcc/arm-none-eabi/5.2.0/../../../../arm-none-eabi/lib/armv7e-m/libc_nano.a(lib_a-reent.o)
 .bss           0x0000000000000000        0x0 /usr/lib/gcc/arm-none-eabi/5.2.0/../../../../arm-none-eabi/lib/armv7e-m/libc_nano.a(lib_a-reent.o)
 .text.cleanup_glue
                0x0000000000000000       0x1a /usr/lib/gcc/arm-none-eabi/5.2.0/../../../../arm-none-eabi/lib/armv7e-m/libc_nano.a(lib_a-reent.o)
 .text._reclaim_reent
                0x0000000000000000       0xb4 /usr/lib/gcc/arm-none-eabi/5.2.0/../../../../arm-none-eabi/lib/armv7e-m/libc_nano.a(lib_a-reent.o)
 .text          0x0000000000000000        0x0 /usr/lib/gcc/arm-none-eabi/5.2.0/../../../../arm-none-eabi/lib/armv7e-m/libc_nano.a(lib_a-memchr.o)
 .data          0x0000000000000000        0x0 /usr/lib/gcc/arm-none-eabi/5.2.0/../../../../arm-none-eabi/lib/armv7e-m/libc_nano.a(lib_a-memchr.o)
 .bss           0x0000000000000000        0x0 /usr/lib/gcc/arm-none-eabi/5.2.0/../../../../arm-none-eabi/lib/armv7e-m/libc_nano.a(lib_a-memchr.o)
 .text          0x0000000000000000        0x0 /usr/lib/gcc/arm-none-eabi/5.2.0/../../../../arm-none-eabi/lib/armv7e-m/libc_nano.a(lib_a-nano-msizer.o)
 .data          0x0000000000000000        0x0 /usr/lib/gcc/arm-none-eabi/5.2.0/../../../../arm-none-eabi/lib/armv7e-m/libc_nano.a(lib_a-nano-msizer.o)
 .bss           0x0000000000000000        0x0 /usr/lib/gcc/arm-none-eabi/5.2.0/../../../../arm-none-eabi/lib/armv7e-m/libc_nano.a(lib_a-nano-msizer.o)
 .text          0x0000000000000000       0x30 /usr/lib/gcc/arm-none-eabi/5.2.0/armv7e-m/libgcc.a(_aeabi_uldivmod.o)
 .data          0x0000000000000000        0x0 /usr/lib/gcc/arm-none-eabi/5.2.0/armv7e-m/libgcc.a(_aeabi_uldivmod.o)
 .bss           0x0000000000000000        0x0 /usr/lib/gcc/arm-none-eabi/5.2.0/armv7e-m/libgcc.a(_aeabi_uldivmod.o)
 .debug_line    0x0000000000000000       0x64 /usr/lib/gcc/arm-none-eabi/5.2.0/armv7e-m/libgcc.a(_aeabi_uldivmod.o)
 .debug_info    0x0000000000000000       0xb7 /usr/lib/gcc/arm-none-eabi/5.2.0/armv7e-m/libgcc.a(_aeabi_uldivmod.o)
 .debug_abbrev  0x0000000000000000       0x14 /usr/lib/gcc/arm-none-eabi/5.2.0/armv7e-m/libgcc.a(_aeabi_uldivmod.o)
 .debug_aranges
                0x0000000000000000       0x20 /usr/lib/gcc/arm-none-eabi/5.2.0/armv7e-m/libgcc.a(_aeabi_uldivmod.o)
 .debug_frame   0x0000000000000000       0x2c /usr/lib/gcc/arm-none-eabi/5.2.0/armv7e-m/libgcc.a(_aeabi_uldivmod.o)
 .ARM.attributes
                0x0000000000000000       0x1e /usr/lib/gcc/arm-none-eabi/5.2.0/armv7e-m/libgcc.a(_aeabi_uldivmod.o)
 .text          0x0000000000000000      0x2e4 /usr/lib/gcc/arm-none-eabi/5.2.0/armv7e-m/libgcc.a(_udivmoddi4.o)
 .data          0x0000000000000000        0x0 /usr/lib/gcc/arm-none-eabi/5.2.0/armv7e-m/libgcc.a(_udivmoddi4.o)
 .bss           0x0000000000000000        0x0 /usr/lib/gcc/arm-none-eabi/5.2.0/armv7e-m/libgcc.a(_udivmoddi4.o)
 .ARM.extab     0x0000000000000000        0x0 /usr/lib/gcc/arm-none-eabi/5.2.0/armv7e-m/libgcc.a(_udivmoddi4.o)
 .ARM.exidx     0x0000000000000000        0x8 /usr/lib/gcc/arm-none-eabi/5.2.0/armv7e-m/libgcc.a(_udivmoddi4.o)
 .debug_info    0x0000000000000000      0x441 /usr/lib/gcc/arm-none-eabi/5.2.0/armv7e-m/libgcc.a(_udivmoddi4.o)
 .debug_abbrev  0x0000000000000000      0x101 /usr/lib/gcc/arm-none-eabi/5.2.0/armv7e-m/libgcc.a(_udivmoddi4.o)
 .debug_loc     0x0000000000000000      0xe94 /usr/lib/gcc/arm-none-eabi/5.2.0/armv7e-m/libgcc.a(_udivmoddi4.o)
 .debug_aranges
                0x0000000000000000       0x20 /usr/lib/gcc/arm-none-eabi/5.2.0/armv7e-m/libgcc.a(_udivmoddi4.o)
 .debug_ranges  0x0000000000000000       0xd8 /usr/lib/gcc/arm-none-eabi/5.2.0/armv7e-m/libgcc.a(_udivmoddi4.o)
 .debug_line    0x0000000000000000      0x1ad /usr/lib/gcc/arm-none-eabi/5.2.0/armv7e-m/libgcc.a(_udivmoddi4.o)
 .debug_str     0x0000000000000000      0x243 /usr/lib/gcc/arm-none-eabi/5.2.0/armv7e-m/libgcc.a(_udivmoddi4.o)
 .comment       0x0000000000000000       0x22 /usr/lib/gcc/arm-none-eabi/5.2.0/armv7e-m/libgcc.a(_udivmoddi4.o)
 .debug_frame   0x0000000000000000       0x34 /usr/lib/gcc/arm-none-eabi/5.2.0/armv7e-m/libgcc.a(_udivmoddi4.o)
 .ARM.attributes
                0x0000000000000000       0x2e /usr/lib/gcc/arm-none-eabi/5.2.0/armv7e-m/libgcc.a(_udivmoddi4.o)
 .text          0x0000000000000000        0x4 /usr/lib/gcc/arm-none-eabi/5.2.0/armv7e-m/libgcc.a(_dvmd_tls.o)
 .data          0x0000000000000000        0x0 /usr/lib/gcc/arm-none-eabi/5.2.0/armv7e-m/libgcc.a(_dvmd_tls.o)
 .bss           0x0000000000000000        0x0 /usr/lib/gcc/arm-none-eabi/5.2.0/armv7e-m/libgcc.a(_dvmd_tls.o)
 .debug_line    0x0000000000000000       0x64 /usr/lib/gcc/arm-none-eabi/5.2.0/armv7e-m/libgcc.a(_dvmd_tls.o)
 .debug_info    0x0000000000000000       0xbb /usr/lib/gcc/arm-none-eabi/5.2.0/armv7e-m/libgcc.a(_dvmd_tls.o)
 .debug_abbrev  0x0000000000000000       0x14 /usr/lib/gcc/arm-none-eabi/5.2.0/armv7e-m/libgcc.a(_dvmd_tls.o)
 .debug_aranges
                0x0000000000000000       0x20 /usr/lib/gcc/arm-none-eabi/5.2.0/armv7e-m/libgcc.a(_dvmd_tls.o)
 .ARM.attributes
                0x0000000000000000       0x1e /usr/lib/gcc/arm-none-eabi/5.2.0/armv7e-m/libgcc.a(_dvmd_tls.o)

Memory Configuration

Name             Origin             Length             Attributes
SRAM             0x0000000020000000 0x0000000000040000 xrw
*default*        0x0000000000000000 0xffffffffffffffff

Linker script and memory map

                0x0000000000004000                BOOTLOADER_SIZE = 0x4000

.bootloader     0x0000000020000000     0x4000
                0x0000000020000000                _heap2 = .
                0x0000000020004000                . = (. + BOOTLOADER_SIZE)
 *fill*         0x0000000020000000     0x4000 
                0x0000000020004000                . = ALIGN (0x8)
                0x0000000020004000                _eheap2 = .

.text           0x0000000020004000    0x17f60
                0x0000000020004000                _text = .
 *(.intvecs)
 .intvecs       0x0000000020004000      0x400 obj/Debug/startup_gcc.o
                0x0000000020004000                g_pfnVectors
 *(.text*)
 .text.pushButtonInterruptHandler2
                0x0000000020004400       0x28 obj/Debug/main.o
                0x0000000020004400                pushButtonInterruptHandler2
 .text.pushButtonInterruptHandler3
                0x0000000020004428       0x28 obj/Debug/main.o
                0x0000000020004428                pushButtonInterruptHandler3
 .text.TimerPeriodicIntHandler
                0x0000000020004450       0x50 obj/Debug/main.o
                0x0000000020004450                TimerPeriodicIntHandler
 .text.LedTimerConfigNStart
                0x00000000200044a0       0x38 obj/Debug/main.o
                0x00000000200044a0                LedTimerConfigNStart
 .text.LedTimerDeinitStop
                0x00000000200044d8       0x1c obj/Debug/main.o
                0x00000000200044d8                LedTimerDeinitStop
 .text.BoardInit
                0x00000000200044f4       0x24 obj/Debug/main.o
                0x00000000200044f4                BoardInit
 .text.DisplayBanner
                0x0000000020004518       0x3c obj/Debug/main.o
 .text.MqttClientServer
                0x0000000020004554      0x408 obj/Debug/main.o
                0x0000000020004554                MqttClientServer
 .text.main     0x000000002000495c       0xa4 obj/Debug/main.o
                0x000000002000495c                main
 .text.PinMuxConfig
                0x0000000020004a00       0x9c obj/Debug/pinmux.o
                0x0000000020004a00                PinMuxConfig
 .text.connect_cb
                0x0000000020004a9c       0x50 obj/Debug/server_client_cbs.o
                0x0000000020004a9c                connect_cb
 .text.recv_cb  0x0000000020004aec      0x154 obj/Debug/server_client_cbs.o
                0x0000000020004aec                recv_cb
 .text.disconnect_cb
                0x0000000020004c40       0x3c obj/Debug/server_client_cbs.o
                0x0000000020004c40                disconnect_cb
 .text.recv_client_cb
                0x0000000020004c7c      0x154 obj/Debug/server_client_cbs.o
                0x0000000020004c7c                recv_client_cb
 .text.event_client_cb
                0x0000000020004dd0       0xa0 obj/Debug/server_client_cbs.o
                0x0000000020004dd0                event_client_cb
 .text.disconnectbridge_cb
                0x0000000020004e70       0x1c obj/Debug/server_client_cbs.o
                0x0000000020004e70                disconnectbridge_cb
 .text.InitTerm
                0x0000000020004e8c       0x2c obj/Debug/uart_if.o
                0x0000000020004e8c                InitTerm
 .text.Message  0x0000000020004eb8       0x34 obj/Debug/uart_if.o
                0x0000000020004eb8                Message
 .text.GetCmd   0x0000000020004eec       0xc4 obj/Debug/uart_if.o
                0x0000000020004eec                GetCmd
 .text.TrimSpace
                0x0000000020004fb0       0x90 obj/Debug/uart_if.o
                0x0000000020004fb0                TrimSpace
 .text.Report   0x0000000020005040       0x98 obj/Debug/uart_if.o
                0x0000000020005040                Report
 .text.vAssertCalled
                0x00000000200050d8        0xc obj/Debug/network_if.o
                0x00000000200050d8                vAssertCalled
 .text.vApplicationIdleHook
                0x00000000200050e4        0xc obj/Debug/network_if.o
                0x00000000200050e4                vApplicationIdleHook
 .text.vApplicationMallocFailedHook
                0x00000000200050f0        0x8 obj/Debug/network_if.o
                0x00000000200050f0                vApplicationMallocFailedHook
 .text.vApplicationStackOverflowHook
                0x00000000200050f8        0xc obj/Debug/network_if.o
                0x00000000200050f8                vApplicationStackOverflowHook
 .text.SimpleLinkWlanEventHandler
                0x0000000020005104      0x210 obj/Debug/network_if.o
                0x0000000020005104                SimpleLinkWlanEventHandler
 .text.SimpleLinkNetAppEventHandler
                0x0000000020005314       0xa8 obj/Debug/network_if.o
                0x0000000020005314                SimpleLinkNetAppEventHandler
 .text.SimpleLinkGeneralEventHandler
                0x00000000200053bc       0x30 obj/Debug/network_if.o
                0x00000000200053bc                SimpleLinkGeneralEventHandler
 .text.SimpleLinkSockEventHandler
                0x00000000200053ec       0xcc obj/Debug/network_if.o
                0x00000000200053ec                SimpleLinkSockEventHandler
 .text.SimpleLinkHttpServerCallback
                0x00000000200054b8       0x14 obj/Debug/network_if.o
                0x00000000200054b8                SimpleLinkHttpServerCallback
 .text.InitializeAppVariables
                0x00000000200054cc       0x44 obj/Debug/network_if.o
                0x00000000200054cc                InitializeAppVariables
 .text.ConfigureSimpleLinkToDefaultState
                0x0000000020005510      0x364 obj/Debug/network_if.o
                0x0000000020005510                ConfigureSimpleLinkToDefaultState
 .text.Network_IF_InitDriver
                0x0000000020005874      0x1b4 obj/Debug/network_if.o
                0x0000000020005874                Network_IF_InitDriver
 .text.Network_IF_ConnectAP
                0x0000000020005a28      0x27c obj/Debug/network_if.o
                0x0000000020005a28                Network_IF_ConnectAP
 .text.Network_IF_DisconnectFromAP
                0x0000000020005ca4       0x50 obj/Debug/network_if.o
                0x0000000020005ca4                Network_IF_DisconnectFromAP
 .text.Network_IF_IpConfigGet
                0x0000000020005cf4       0x80 obj/Debug/network_if.o
                0x0000000020005cf4                Network_IF_IpConfigGet
 .text.Network_IF_ResetMCUStateMachine
                0x0000000020005d74       0x18 obj/Debug/network_if.o
                0x0000000020005d74                Network_IF_ResetMCUStateMachine
 .text.GPIO_IF_LedConfigure
                0x0000000020005d8c       0x68 obj/Debug/gpio_if.o
                0x0000000020005d8c                GPIO_IF_LedConfigure
 .text.GPIO_IF_LedOn
                0x0000000020005df4       0xd4 obj/Debug/gpio_if.o
                0x0000000020005df4                GPIO_IF_LedOn
 .text.GPIO_IF_LedOff
                0x0000000020005ec8       0xd4 obj/Debug/gpio_if.o
                0x0000000020005ec8                GPIO_IF_LedOff
 .text.GPIO_IF_GetPortNPin
                0x0000000020005f9c       0x48 obj/Debug/gpio_if.o
                0x0000000020005f9c                GPIO_IF_GetPortNPin
 .text.GPIO_IF_Set
                0x0000000020005fe4       0x3c obj/Debug/gpio_if.o
                0x0000000020005fe4                GPIO_IF_Set
 .text.GetPeripheralIntNum
                0x0000000020006020       0xa4 obj/Debug/timer_if.o
 .text.Timer_IF_Init
                0x00000000200060c4       0x38 obj/Debug/timer_if.o
                0x00000000200060c4                Timer_IF_Init
 .text.Timer_IF_IntSetup
                0x00000000200060fc       0x8c obj/Debug/timer_if.o
                0x00000000200060fc                Timer_IF_IntSetup
 .text.Timer_IF_Start
                0x0000000020006188       0x34 obj/Debug/timer_if.o
                0x0000000020006188                Timer_IF_Start
 .text.Timer_IF_Stop
                0x00000000200061bc       0x1c obj/Debug/timer_if.o
                0x00000000200061bc                Timer_IF_Stop
 .text.Timer_IF_DeInit
                0x00000000200061d8       0x24 obj/Debug/timer_if.o
                0x00000000200061d8                Timer_IF_DeInit
 .text.GPIOs3IntHandler
                0x00000000200061fc       0x38 obj/Debug/button_if.o
                0x00000000200061fc                GPIOs3IntHandler
 .text.GPIOs2IntHandler
                0x0000000020006234       0x38 obj/Debug/button_if.o
                0x0000000020006234                GPIOs2IntHandler
 .text.Button_IF_Init
                0x000000002000626c       0x8c obj/Debug/button_if.o
                0x000000002000626c                Button_IF_Init
 .text.Button_IF_EnableInterrupt
                0x00000000200062f8       0x68 obj/Debug/button_if.o
                0x00000000200062f8                Button_IF_EnableInterrupt
 .text.Button_IF_DisableInterrupt
                0x0000000020006360       0x5c obj/Debug/button_if.o
                0x0000000020006360                Button_IF_DisableInterrupt
 .text.ResetISR
                0x00000000200063bc       0x78 obj/Debug/startup_gcc.o
                0x00000000200063bc                ResetISR
 .text.NmiSR    0x0000000020006434        0x8 obj/Debug/startup_gcc.o
 .text.FaultISR
                0x000000002000643c        0x8 obj/Debug/startup_gcc.o
 .text.BusFaultHandler
                0x0000000020006444        0x8 obj/Debug/startup_gcc.o
 .text.IntDefaultHandler
                0x000000002000644c        0x8 obj/Debug/startup_gcc.o
 .text._sbrk    0x0000000020006454       0x70 obj/Debug/startup_gcc.o
                0x0000000020006454                _sbrk
 .text._sl_ExtLib_ServerAckLockedWait
                0x00000000200064c4       0x64 ../../../netapps/mqtt/gcc/lib/client_server/Debug/libmqtt.a(sl_mqtt_client.o)
                0x00000000200064c4                _sl_ExtLib_ServerAckLockedWait
 .text._sl_ExtLib_AwaitedAckSet
                0x0000000020006528       0x34 ../../../netapps/mqtt/gcc/lib/client_server/Debug/libmqtt.a(sl_mqtt_client.o)
                0x0000000020006528                _sl_ExtLib_AwaitedAckSet
 .text._sl_ExtLib_AwaitedAckLockedSet
                0x000000002000655c       0x38 ../../../netapps/mqtt/gcc/lib/client_server/Debug/libmqtt.a(sl_mqtt_client.o)
                0x000000002000655c                _sl_ExtLib_AwaitedAckLockedSet
 .text.process_notify_ack_cb
                0x0000000020006594      0x10c ../../../netapps/mqtt/gcc/lib/client_server/Debug/libmqtt.a(sl_mqtt_client.o)
 .text.process_publish_rx_cb
                0x00000000200066a0       0xc8 ../../../netapps/mqtt/gcc/lib/client_server/Debug/libmqtt.a(sl_mqtt_client.o)
 .text.process_disconn_cb
                0x0000000020006768       0x50 ../../../netapps/mqtt/gcc/lib/client_server/Debug/libmqtt.a(sl_mqtt_client.o)
 .text.VMqttRecvTask
                0x00000000200067b8       0x64 ../../../netapps/mqtt/gcc/lib/client_server/Debug/libmqtt.a(sl_mqtt_client.o)
                0x00000000200067b8                VMqttRecvTask
 .text.get_available_clictx_mem
                0x000000002000681c       0x88 ../../../netapps/mqtt/gcc/lib/client_server/Debug/libmqtt.a(sl_mqtt_client.o)
 .text.sl_ExtLib_MqttClientCtxCreate
                0x00000000200068a4      0x138 ../../../netapps/mqtt/gcc/lib/client_server/Debug/libmqtt.a(sl_mqtt_client.o)
                0x00000000200068a4                sl_ExtLib_MqttClientCtxCreate
 .text.sl_ExtLib_MqttClientCtxDelete
                0x00000000200069dc       0x48 ../../../netapps/mqtt/gcc/lib/client_server/Debug/libmqtt.a(sl_mqtt_client.o)
                0x00000000200069dc                sl_ExtLib_MqttClientCtxDelete
 .text.mutex_lockup
                0x0000000020006a24       0x1c ../../../netapps/mqtt/gcc/lib/client_server/Debug/libmqtt.a(sl_mqtt_client.o)
                0x0000000020006a24                mutex_lockup
 .text.mutex_unlock
                0x0000000020006a40       0x18 ../../../netapps/mqtt/gcc/lib/client_server/Debug/libmqtt.a(sl_mqtt_client.o)
                0x0000000020006a40                mutex_unlock
 .text.sl_ExtLib_MqttClientInit
                0x0000000020006a58       0xf4 ../../../netapps/mqtt/gcc/lib/client_server/Debug/libmqtt.a(sl_mqtt_client.o)
                0x0000000020006a58                sl_ExtLib_MqttClientInit
 .text.sl_ExtLib_MqttClientExit
                0x0000000020006b4c       0x84 ../../../netapps/mqtt/gcc/lib/client_server/Debug/libmqtt.a(sl_mqtt_client.o)
                0x0000000020006b4c                sl_ExtLib_MqttClientExit
 .text.sl_ExtLib_MqttClientSet
                0x0000000020006bd0       0x68 ../../../netapps/mqtt/gcc/lib/client_server/Debug/libmqtt.a(sl_mqtt_client.o)
                0x0000000020006bd0                sl_ExtLib_MqttClientSet
 .text.sl_ExtLib_MqttClientConnect
                0x0000000020006c38      0x1fc ../../../netapps/mqtt/gcc/lib/client_server/Debug/libmqtt.a(sl_mqtt_client.o)
                0x0000000020006c38                sl_ExtLib_MqttClientConnect
 .text.sl_ExtLib_MqttClientDisconnect
                0x0000000020006e34       0x58 ../../../netapps/mqtt/gcc/lib/client_server/Debug/libmqtt.a(sl_mqtt_client.o)
                0x0000000020006e34                sl_ExtLib_MqttClientDisconnect
 .text.sl_ExtLib_MqttClientSub
                0x0000000020006e8c      0x11c ../../../netapps/mqtt/gcc/lib/client_server/Debug/libmqtt.a(sl_mqtt_client.o)
                0x0000000020006e8c                sl_ExtLib_MqttClientSub
 .text.sl_ExtLib_MqttClientUnsub
                0x0000000020006fa8       0xe0 ../../../netapps/mqtt/gcc/lib/client_server/Debug/libmqtt.a(sl_mqtt_client.o)
                0x0000000020006fa8                sl_ExtLib_MqttClientUnsub
 .text.sl_ExtLib_MqttClientSend
                0x0000000020007088       0xf4 ../../../netapps/mqtt/gcc/lib/client_server/Debug/libmqtt.a(sl_mqtt_client.o)
                0x0000000020007088                sl_ExtLib_MqttClientSend
 .text.mutex_lock
                0x000000002000717c       0x1c ../../../netapps/mqtt/gcc/lib/client_server/Debug/libmqtt.a(sl_mqtt_server.o)
 .text.mutex_unlock
                0x0000000020007198       0x18 ../../../netapps/mqtt/gcc/lib/client_server/Debug/libmqtt.a(sl_mqtt_server.o)
 .text.sl_server_connect_cb
                0x00000000200071b0       0x8c ../../../netapps/mqtt/gcc/lib/client_server/Debug/libmqtt.a(sl_mqtt_server.o)
                0x00000000200071b0                sl_server_connect_cb
 .text.sl_server_publish_cb
                0x000000002000723c       0x54 ../../../netapps/mqtt/gcc/lib/client_server/Debug/libmqtt.a(sl_mqtt_server.o)
                0x000000002000723c                sl_server_publish_cb
 .text.sl_server_disconn_cb
                0x0000000020007290       0x24 ../../../netapps/mqtt/gcc/lib/client_server/Debug/libmqtt.a(sl_mqtt_server.o)
                0x0000000020007290                sl_server_disconn_cb
 .text.sl_ExtLib_MqttServerSend
                0x00000000200072b4       0x48 ../../../netapps/mqtt/gcc/lib/client_server/Debug/libmqtt.a(sl_mqtt_server.o)
                0x00000000200072b4                sl_ExtLib_MqttServerSend
 .text.sl_ExtLib_MqttTopicEnroll
                0x00000000200072fc       0x40 ../../../netapps/mqtt/gcc/lib/client_server/Debug/libmqtt.a(sl_mqtt_server.o)
                0x00000000200072fc                sl_ExtLib_MqttTopicEnroll
 .text.sl_ExtLib_MqttServerInit
                0x000000002000733c      0x148 ../../../netapps/mqtt/gcc/lib/client_server/Debug/libmqtt.a(sl_mqtt_server.o)
                0x000000002000733c                sl_ExtLib_MqttServerInit
 .text._sl_MqttServerStateSet
                0x0000000020007484       0x28 ../../../netapps/mqtt/gcc/lib/client_server/Debug/libmqtt.a(sl_mqtt_server.o)
 .text._sl_MqttServerStateGet
                0x00000000200074ac       0x28 ../../../netapps/mqtt/gcc/lib/client_server/Debug/libmqtt.a(sl_mqtt_server.o)
 .text.VMqttServerRunTask
                0x00000000200074d4       0x88 ../../../netapps/mqtt/gcc/lib/client_server/Debug/libmqtt.a(sl_mqtt_server.o)
 .text.sl_ExtLib_MqttServerActivate
                0x000000002000755c       0x6c ../../../netapps/mqtt/gcc/lib/client_server/Debug/libmqtt.a(sl_mqtt_server.o)
                0x000000002000755c                sl_ExtLib_MqttServerActivate
 .text.buf_printf
                0x00000000200075c8       0x9c ../../../netapps/mqtt/gcc/lib/client_server/Debug/libmqtt.a(cc32xx_sl_net.o)
 .text.create_socket
                0x0000000020007664      0x224 ../../../netapps/mqtt/gcc/lib/client_server/Debug/libmqtt.a(cc32xx_sl_net.o)
 .text.svr_addr_NB_order_IPV4
                0x0000000020007888       0xdc ../../../netapps/mqtt/gcc/lib/client_server/Debug/libmqtt.a(cc32xx_sl_net.o)
 .text.comm_open
                0x0000000020007964      0x1c0 ../../../netapps/mqtt/gcc/lib/client_server/Debug/libmqtt.a(cc32xx_sl_net.o)
                0x0000000020007964                comm_open
 .text.tcp_send
                0x0000000020007b24       0x58 ../../../netapps/mqtt/gcc/lib/client_server/Debug/libmqtt.a(cc32xx_sl_net.o)
                0x0000000020007b24                tcp_send
 .text.tcp_recv
                0x0000000020007b7c       0xe4 ../../../netapps/mqtt/gcc/lib/client_server/Debug/libmqtt.a(cc32xx_sl_net.o)
                0x0000000020007b7c                tcp_recv
 .text.comm_close
                0x0000000020007c60       0x2c ../../../netapps/mqtt/gcc/lib/client_server/Debug/libmqtt.a(cc32xx_sl_net.o)
                0x0000000020007c60                comm_close
 .text.rtc_secs
                0x0000000020007c8c       0x10 ../../../netapps/mqtt/gcc/lib/client_server/Debug/libmqtt.a(cc32xx_sl_net.o)
                0x0000000020007c8c                rtc_secs
 .text.tcp_listen
                0x0000000020007c9c       0xbc ../../../netapps/mqtt/gcc/lib/client_server/Debug/libmqtt.a(cc32xx_sl_net.o)
                0x0000000020007c9c                tcp_listen
 .text.tcp_select
                0x0000000020007d58      0x154 ../../../netapps/mqtt/gcc/lib/client_server/Debug/libmqtt.a(cc32xx_sl_net.o)
                0x0000000020007d58                tcp_select
 .text.tcp_accept
                0x0000000020007eac       0x98 ../../../netapps/mqtt/gcc/lib/client_server/Debug/libmqtt.a(cc32xx_sl_net.o)
                0x0000000020007eac                tcp_accept
 .text.send_dest
                0x0000000020007f44       0xb4 ../../../netapps/mqtt/gcc/lib/client_server/Debug/libmqtt.a(cc32xx_sl_net.o)
                0x0000000020007f44                send_dest
 .text.recv_from
                0x0000000020007ff8       0xc4 ../../../netapps/mqtt/gcc/lib/client_server/Debug/libmqtt.a(cc32xx_sl_net.o)
                0x0000000020007ff8                recv_from
 .text.platform_timer_init
                0x00000000200080bc        0xc ../../../netapps/mqtt/gcc/lib/client_server/Debug/libmqtt.a(cc32xx_platform.o)
                0x00000000200080bc                platform_timer_init
 .text.platform_get_time_in_secs
                0x00000000200080c8       0x24 ../../../netapps/mqtt/gcc/lib/client_server/Debug/libmqtt.a(cc32xx_platform.o)
                0x00000000200080c8                platform_get_time_in_secs
 .text.buf_wr_nbytes
                0x00000000200080ec       0x38 ../../../netapps/mqtt/gcc/lib/client_server/Debug/libmqtt.a(mqtt_client.o)
 .text.buf_wr_nbo_2B
                0x0000000020008124       0x30 ../../../netapps/mqtt/gcc/lib/client_server/Debug/libmqtt.a(mqtt_client.o)
 .text.qos2_pub_cq_count
                0x0000000020008154       0x1c ../../../netapps/mqtt/gcc/lib/client_server/Debug/libmqtt.a(mqtt_client.o)
 .text.mqp_client_send_alloc
                0x0000000020008170       0x20 ../../../netapps/mqtt/gcc/lib/client_server/Debug/libmqtt.a(mqtt_client.o)
 .text.mqp_client_recv_alloc
                0x0000000020008190       0x20 ../../../netapps/mqtt/gcc/lib/client_server/Debug/libmqtt.a(mqtt_client.o)
 .text.assign_new_msg_id
                0x00000000200081b0       0x20 ../../../netapps/mqtt/gcc/lib/client_server/Debug/libmqtt.a(mqtt_client.o)
 .text.tx_part_setup
                0x00000000200081d0       0x4c ../../../netapps/mqtt/gcc/lib/client_server/Debug/libmqtt.a(mqtt_client.o)
 .text._tx_part_reset
                0x000000002000821c       0x2c ../../../netapps/mqtt/gcc/lib/client_server/Debug/libmqtt.a(mqtt_client.o)
 .text.tx_part_reset
                0x0000000020008248       0x28 ../../../netapps/mqtt/gcc/lib/client_server/Debug/libmqtt.a(mqtt_client.o)
 .text.tx_part_buf_p
                0x0000000020008270       0x38 ../../../netapps/mqtt/gcc/lib/client_server/Debug/libmqtt.a(mqtt_client.o)
 .text.cl_ctx_freeup
                0x00000000200082a8       0x24 ../../../netapps/mqtt/gcc/lib/client_server/Debug/libmqtt.a(mqtt_client.o)
 .text.client_reset
                0x00000000200082cc       0xb4 ../../../netapps/mqtt/gcc/lib/client_server/Debug/libmqtt.a(mqtt_client.o)
 .text.client_desc_init
                0x0000000020008380       0x68 ../../../netapps/mqtt/gcc/lib/client_server/Debug/libmqtt.a(mqtt_client.o)
 .text.mqp_free_locked
                0x00000000200083e8       0x4c ../../../netapps/mqtt/gcc/lib/client_server/Debug/libmqtt.a(mqtt_client.o)
 .text.mqp_do_not_report_cor
                0x0000000020008434       0x28 ../../../netapps/mqtt/gcc/lib/client_server/Debug/libmqtt.a(mqtt_client.o)
 .text.loopb_trigger
                0x000000002000845c       0x5c ../../../netapps/mqtt/gcc/lib/client_server/Debug/libmqtt.a(mqtt_client.o)
 .text.session_311fix
                0x00000000200084b8       0x44 ../../../netapps/mqtt/gcc/lib/client_server/Debug/libmqtt.a(mqtt_client.o)
 .text.session_delete
                0x00000000200084fc       0x54 ../../../netapps/mqtt/gcc/lib/client_server/Debug/libmqtt.a(mqtt_client.o)
 .text.do_net_close
                0x0000000020008550       0xac ../../../netapps/mqtt/gcc/lib/client_server/Debug/libmqtt.a(mqtt_client.o)
 .text.do_net_close_rx
                0x00000000200085fc       0x74 ../../../netapps/mqtt/gcc/lib/client_server/Debug/libmqtt.a(mqtt_client.o)
 .text.do_net_close_tx
                0x0000000020008670       0x68 ../../../netapps/mqtt/gcc/lib/client_server/Debug/libmqtt.a(mqtt_client.o)
 .text.qos2_pub_rx_logup
                0x00000000200086d8       0x24 ../../../netapps/mqtt/gcc/lib/client_server/Debug/libmqtt.a(mqtt_client.o)
 .text.ack2_msg_id_logup
                0x00000000200086fc       0x24 ../../../netapps/mqtt/gcc/lib/client_server/Debug/libmqtt.a(mqtt_client.o)
 .text.qos2_pub_rx_unlog
                0x0000000020008720       0x24 ../../../netapps/mqtt/gcc/lib/client_server/Debug/libmqtt.a(mqtt_client.o)
 .text.ack2_msg_id_unlog
                0x0000000020008744       0x58 ../../../netapps/mqtt/gcc/lib/client_server/Debug/libmqtt.a(mqtt_client.o)
 .text.qos2_pub_rx_is_done
                0x000000002000879c       0x24 ../../../netapps/mqtt/gcc/lib/client_server/Debug/libmqtt.a(mqtt_client.o)
 .text.awaits_pkts
                0x00000000200087c0       0x48 ../../../netapps/mqtt/gcc/lib/client_server/Debug/libmqtt.a(mqtt_client.o)
 .text.len_err_free_mqp
                0x0000000020008808       0x1c ../../../netapps/mqtt/gcc/lib/client_server/Debug/libmqtt.a(mqtt_client.o)
 .text.is_valid_utf8_string
                0x0000000020008824       0x28 ../../../netapps/mqtt/gcc/lib/client_server/Debug/libmqtt.a(mqtt_client.o)
 .text.is_connected
                0x000000002000884c       0x38 ../../../netapps/mqtt/gcc/lib/client_server/Debug/libmqtt.a(mqtt_client.o)
 .text.used_ctxs_TO_sort
                0x0000000020008884       0x24 ../../../netapps/mqtt/gcc/lib/client_server/Debug/libmqtt.a(mqtt_client.o)
 .text.net_send
                0x00000000200088a8       0x3c ../../../netapps/mqtt/gcc/lib/client_server/Debug/libmqtt.a(mqtt_client.o)
 .text.cl_ctx_part_send
                0x00000000200088e4      0x110 ../../../netapps/mqtt/gcc/lib/client_server/Debug/libmqtt.a(mqtt_client.o)
 .text.cl_ctx_seg1_send
                0x00000000200089f4       0x64 ../../../netapps/mqtt/gcc/lib/client_server/Debug/libmqtt.a(mqtt_client.o)
 .text.wr_connect_pl
                0x0000000020008a58       0xe4 ../../../netapps/mqtt/gcc/lib/client_server/Debug/libmqtt.a(mqtt_client.o)
 .text.get_connect_vh_len
                0x0000000020008b3c       0x24 ../../../netapps/mqtt/gcc/lib/client_server/Debug/libmqtt.a(mqtt_client.o)
 .text.wr_connect_vh
                0x0000000020008b60       0x80 ../../../netapps/mqtt/gcc/lib/client_server/Debug/libmqtt.a(mqtt_client.o)
 .text.net_connect
                0x0000000020008be0       0x74 ../../../netapps/mqtt/gcc/lib/client_server/Debug/libmqtt.a(mqtt_client.o)
 .text.cl_ctx_conn_state_try_locked
                0x0000000020008c54      0x10c ../../../netapps/mqtt/gcc/lib/client_server/Debug/libmqtt.a(mqtt_client.o)
 .text.connect_msg_send
                0x0000000020008d60      0x138 ../../../netapps/mqtt/gcc/lib/client_server/Debug/libmqtt.a(mqtt_client.o)
 .text.mqtt_connect_msg_send
                0x0000000020008e98       0x34 ../../../netapps/mqtt/gcc/lib/client_server/Debug/libmqtt.a(mqtt_client.o)
                0x0000000020008e98                mqtt_connect_msg_send
 .text._msg_dispatch
                0x0000000020008ecc       0xfc ../../../netapps/mqtt/gcc/lib/client_server/Debug/libmqtt.a(mqtt_client.o)
 .text.mqtt_client_pub_msg_send
                0x0000000020008fc8       0xb4 ../../../netapps/mqtt/gcc/lib/client_server/Debug/libmqtt.a(mqtt_client.o)
                0x0000000020008fc8                mqtt_client_pub_msg_send
 .text.tail_incorp_msg_id
                0x000000002000907c       0x60 ../../../netapps/mqtt/gcc/lib/client_server/Debug/libmqtt.a(mqtt_client.o)
 .text.buf_utf8_wr_try
                0x00000000200090dc       0x80 ../../../netapps/mqtt/gcc/lib/client_server/Debug/libmqtt.a(mqtt_client.o)
 .text.utf8_array_send
                0x000000002000915c      0x168 ../../../netapps/mqtt/gcc/lib/client_server/Debug/libmqtt.a(mqtt_client.o)
 .text.mqtt_sub_msg_send
                0x00000000200092c4       0x24 ../../../netapps/mqtt/gcc/lib/client_server/Debug/libmqtt.a(mqtt_client.o)
                0x00000000200092c4                mqtt_sub_msg_send
 .text.mqtt_unsub_msg_send
                0x00000000200092e8       0x24 ../../../netapps/mqtt/gcc/lib/client_server/Debug/libmqtt.a(mqtt_client.o)
                0x00000000200092e8                mqtt_unsub_msg_send
 .text.vh_msg_send
                0x000000002000930c       0x80 ../../../netapps/mqtt/gcc/lib/client_server/Debug/libmqtt.a(mqtt_client.o)
 .text.pingreq_send
                0x000000002000938c       0x48 ../../../netapps/mqtt/gcc/lib/client_server/Debug/libmqtt.a(mqtt_client.o)
 .text.mqtt_disconn_send
                0x00000000200093d4       0x74 ../../../netapps/mqtt/gcc/lib/client_server/Debug/libmqtt.a(mqtt_client.o)
                0x00000000200093d4                mqtt_disconn_send
 .text.ack1_wl_mqp_dispatch
                0x0000000020009448       0xa0 ../../../netapps/mqtt/gcc/lib/client_server/Debug/libmqtt.a(mqtt_client.o)
 .text.ack2_msg_id_dispatch
                0x00000000200094e8       0x6c ../../../netapps/mqtt/gcc/lib/client_server/Debug/libmqtt.a(mqtt_client.o)
 .text.session_resume
                0x0000000020009554       0x48 ../../../netapps/mqtt/gcc/lib/client_server/Debug/libmqtt.a(mqtt_client.o)
 .text.ack1_wl_rmfree
                0x000000002000959c       0x48 ../../../netapps/mqtt/gcc/lib/client_server/Debug/libmqtt.a(mqtt_client.o)
 .text._proc_pub_rec_rx
                0x00000000200095e4       0x58 ../../../netapps/mqtt/gcc/lib/client_server/Debug/libmqtt.a(mqtt_client.o)
 .text._proc_pub_rel_rx
                0x000000002000963c       0x40 ../../../netapps/mqtt/gcc/lib/client_server/Debug/libmqtt.a(mqtt_client.o)
 .text._proc_ack_msg_rx
                0x000000002000967c       0x90 ../../../netapps/mqtt/gcc/lib/client_server/Debug/libmqtt.a(mqtt_client.o)
 .text.proc_ack_msg_rx
                0x000000002000970c       0xb4 ../../../netapps/mqtt/gcc/lib/client_server/Debug/libmqtt.a(mqtt_client.o)
 .text.proc_pub_msg_rx
                0x00000000200097c0      0x108 ../../../netapps/mqtt/gcc/lib/client_server/Debug/libmqtt.a(mqtt_client.o)
 .text.proc_connack_rx
                0x00000000200098c8       0xc8 ../../../netapps/mqtt/gcc/lib/client_server/Debug/libmqtt.a(mqtt_client.o)
 .text.proc_pingrsp_rx
                0x0000000020009990       0x80 ../../../netapps/mqtt/gcc/lib/client_server/Debug/libmqtt.a(mqtt_client.o)
 .text.conn_sent_state_rx
                0x0000000020009a10       0x30 ../../../netapps/mqtt/gcc/lib/client_server/Debug/libmqtt.a(mqtt_client.o)
 .text.connected_state_rx
                0x0000000020009a40       0x84 ../../../netapps/mqtt/gcc/lib/client_server/Debug/libmqtt.a(mqtt_client.o)
 .text.process_recv
                0x0000000020009ac4       0xac ../../../netapps/mqtt/gcc/lib/client_server/Debug/libmqtt.a(mqtt_client.o)
 .text.net_recv
                0x0000000020009b70       0x7c ../../../netapps/mqtt/gcc/lib/client_server/Debug/libmqtt.a(mqtt_client.o)
 .text.conn2used_ctxs
                0x0000000020009bec       0x3c ../../../netapps/mqtt/gcc/lib/client_server/Debug/libmqtt.a(mqtt_client.o)
 .text.single_ctx_ka_sequence
                0x0000000020009c28       0xa0 ../../../netapps/mqtt/gcc/lib/client_server/Debug/libmqtt.a(mqtt_client.o)
 .text.single_ctx_adj_wait_secs_get
                0x0000000020009cc8       0x50 ../../../netapps/mqtt/gcc/lib/client_server/Debug/libmqtt.a(mqtt_client.o)
 .text.single_ctx_rx_prep
                0x0000000020009d18       0x70 ../../../netapps/mqtt/gcc/lib/client_server/Debug/libmqtt.a(mqtt_client.o)
 .text.single_ctx_rx_prep_locked
                0x0000000020009d88       0x54 ../../../netapps/mqtt/gcc/lib/client_server/Debug/libmqtt.a(mqtt_client.o)
 .text.proc_ctx_data_recv
                0x0000000020009ddc       0xb8 ../../../netapps/mqtt/gcc/lib/client_server/Debug/libmqtt.a(mqtt_client.o)
 .text.mqp_setup_proc_ctx_data_recv
                0x0000000020009e94       0xa4 ../../../netapps/mqtt/gcc/lib/client_server/Debug/libmqtt.a(mqtt_client.o)
 .text.cl_ctx_recv
                0x0000000020009f38       0x70 ../../../netapps/mqtt/gcc/lib/client_server/Debug/libmqtt.a(mqtt_client.o)
 .text.mqtt_client_ctx_run
                0x0000000020009fa8       0x34 ../../../netapps/mqtt/gcc/lib/client_server/Debug/libmqtt.a(mqtt_client.o)
                0x0000000020009fa8                mqtt_client_ctx_run
 .text.group_ctxs_ka_sequence
                0x0000000020009fdc       0x54 ../../../netapps/mqtt/gcc/lib/client_server/Debug/libmqtt.a(mqtt_client.o)
 .text.group_ctxs_adj_wait_secs_get
                0x000000002000a030       0x30 ../../../netapps/mqtt/gcc/lib/client_server/Debug/libmqtt.a(mqtt_client.o)
 .text.recv_hvec_load
                0x000000002000a060       0x58 ../../../netapps/mqtt/gcc/lib/client_server/Debug/libmqtt.a(mqtt_client.o)
 .text.group_ctxs_rx_prep
                0x000000002000a0b8       0xa0 ../../../netapps/mqtt/gcc/lib/client_server/Debug/libmqtt.a(mqtt_client.o)
 .text.proc_loopback_recv
                0x000000002000a158       0x48 ../../../netapps/mqtt/gcc/lib/client_server/Debug/libmqtt.a(mqtt_client.o)
 .text.net_cl_ctx_find
                0x000000002000a1a0       0x38 ../../../netapps/mqtt/gcc/lib/client_server/Debug/libmqtt.a(mqtt_client.o)
 .text.proc_net_data_recv
                0x000000002000a1d8       0x3c ../../../netapps/mqtt/gcc/lib/client_server/Debug/libmqtt.a(mqtt_client.o)
 .text.cl_recv  0x000000002000a214       0x9c ../../../netapps/mqtt/gcc/lib/client_server/Debug/libmqtt.a(mqtt_client.o)
 .text.grp_net_setup_create
                0x000000002000a2b0       0x64 ../../../netapps/mqtt/gcc/lib/client_server/Debug/libmqtt.a(mqtt_client.o)
 .text.mqtt_client_run
                0x000000002000a314       0x6c ../../../netapps/mqtt/gcc/lib/client_server/Debug/libmqtt.a(mqtt_client.o)
                0x000000002000a314                mqtt_client_run
 .text.mqp_alloc_atomic
                0x000000002000a380       0x60 ../../../netapps/mqtt/gcc/lib/client_server/Debug/libmqtt.a(mqtt_client.o)
 .text.mqp_client_alloc
                0x000000002000a3e0       0x6c ../../../netapps/mqtt/gcc/lib/client_server/Debug/libmqtt.a(mqtt_client.o)
                0x000000002000a3e0                mqp_client_alloc
 .text.free_mqp
                0x000000002000a44c       0x24 ../../../netapps/mqtt/gcc/lib/client_server/Debug/libmqtt.a(mqtt_client.o)
 .text.mqtt_client_buffers_register
                0x000000002000a470       0x94 ../../../netapps/mqtt/gcc/lib/client_server/Debug/libmqtt.a(mqtt_client.o)
                0x000000002000a470                mqtt_client_buffers_register
 .text.mqtt_client_ctx_will_register
                0x000000002000a504       0x94 ../../../netapps/mqtt/gcc/lib/client_server/Debug/libmqtt.a(mqtt_client.o)
                0x000000002000a504                mqtt_client_ctx_will_register
 .text.mqtt_client_ctx_info_register
                0x000000002000a598       0x88 ../../../netapps/mqtt/gcc/lib/client_server/Debug/libmqtt.a(mqtt_client.o)
                0x000000002000a598                mqtt_client_ctx_info_register
 .text.mqtt_client_net_svc_register
                0x000000002000a620       0x6c ../../../netapps/mqtt/gcc/lib/client_server/Debug/libmqtt.a(mqtt_client.o)
                0x000000002000a620                mqtt_client_net_svc_register
 .text.cl_ctx_setup
                0x000000002000a68c       0x8c ../../../netapps/mqtt/gcc/lib/client_server/Debug/libmqtt.a(mqtt_client.o)
 .text.mqtt_client_ctx_create
                0x000000002000a718       0xd8 ../../../netapps/mqtt/gcc/lib/client_server/Debug/libmqtt.a(mqtt_client.o)
                0x000000002000a718                mqtt_client_ctx_create
 .text.mqtt_client_ctx_delete
                0x000000002000a7f0       0x7c ../../../netapps/mqtt/gcc/lib/client_server/Debug/libmqtt.a(mqtt_client.o)
                0x000000002000a7f0                mqtt_client_ctx_delete
 .text.mqtt_client_lib_init
                0x000000002000a86c      0x130 ../../../netapps/mqtt/gcc/lib/client_server/Debug/libmqtt.a(mqtt_client.o)
                0x000000002000a86c                mqtt_client_lib_init
 .text.mqtt_client_lib_exit
                0x000000002000a99c       0x50 ../../../netapps/mqtt/gcc/lib/client_server/Debug/libmqtt.a(mqtt_client.o)
                0x000000002000a99c                mqtt_client_lib_exit
 .text.buf_wr_nbytes
                0x000000002000a9ec       0x38 ../../../netapps/mqtt/gcc/lib/client_server/Debug/libmqtt.a(mqtt_common.o)
 .text.buf_set  0x000000002000aa24       0x34 ../../../netapps/mqtt/gcc/lib/client_server/Debug/libmqtt.a(mqtt_common.o)
 .text.buf_wr_nbo_2B
                0x000000002000aa58       0x30 ../../../netapps/mqtt/gcc/lib/client_server/Debug/libmqtt.a(mqtt_common.o)
 .text.buf_rd_nbo_2B
                0x000000002000aa88       0x30 ../../../netapps/mqtt/gcc/lib/client_server/Debug/libmqtt.a(mqtt_common.o)
 .text.free_mqp
                0x000000002000aab8       0x38 ../../../netapps/mqtt/gcc/lib/client_server/Debug/libmqtt.a(mqtt_common.o)
 .text.mqp_free
                0x000000002000aaf0       0x18 ../../../netapps/mqtt/gcc/lib/client_server/Debug/libmqtt.a(mqtt_common.o)
                0x000000002000aaf0                mqp_free
 .text.reset_mqp
                0x000000002000ab08       0x3c ../../../netapps/mqtt/gcc/lib/client_server/Debug/libmqtt.a(mqtt_common.o)
 .text.mqp_reset
                0x000000002000ab44       0x18 ../../../netapps/mqtt/gcc/lib/client_server/Debug/libmqtt.a(mqtt_common.o)
                0x000000002000ab44                mqp_reset
 .text.mqp_init
                0x000000002000ab5c       0x2c ../../../netapps/mqtt/gcc/lib/client_server/Debug/libmqtt.a(mqtt_common.o)
                0x000000002000ab5c                mqp_init
 .text.buf_wr_utf8
                0x000000002000ab88       0x48 ../../../netapps/mqtt/gcc/lib/client_server/Debug/libmqtt.a(mqtt_common.o)
 .text.mqp_buf_wr_utf8
                0x000000002000abd0       0x1c ../../../netapps/mqtt/gcc/lib/client_server/Debug/libmqtt.a(mqtt_common.o)
                0x000000002000abd0                mqp_buf_wr_utf8
 .text.buf_tail_wr_remlen
                0x000000002000abec       0x7c ../../../netapps/mqtt/gcc/lib/client_server/Debug/libmqtt.a(mqtt_common.o)
 .text.mqp_buf_tail_wr_remlen
                0x000000002000ac68       0x1c ../../../netapps/mqtt/gcc/lib/client_server/Debug/libmqtt.a(mqtt_common.o)
                0x000000002000ac68                mqp_buf_tail_wr_remlen
 .text.buf_rd_remlen
                0x000000002000ac84       0x7c ../../../netapps/mqtt/gcc/lib/client_server/Debug/libmqtt.a(mqtt_common.o)
 .text.mqp_buf_rd_remlen
                0x000000002000ad00       0x1c ../../../netapps/mqtt/gcc/lib/client_server/Debug/libmqtt.a(mqtt_common.o)
                0x000000002000ad00                mqp_buf_rd_remlen
 .text.mqp_pub_append_topic
                0x000000002000ad1c       0xc4 ../../../netapps/mqtt/gcc/lib/client_server/Debug/libmqtt.a(mqtt_common.o)
                0x000000002000ad1c                mqp_pub_append_topic
 .text.mqp_pub_append_data
                0x000000002000ade0       0x9c ../../../netapps/mqtt/gcc/lib/client_server/Debug/libmqtt.a(mqtt_common.o)
                0x000000002000ade0                mqp_pub_append_data
 .text.proc_vh_msg_id_rx
                0x000000002000ae7c       0x5c ../../../netapps/mqtt/gcc/lib/client_server/Debug/libmqtt.a(mqtt_common.o)
 .text.mqp_proc_msg_id_ack_rx
                0x000000002000aed8       0x40 ../../../netapps/mqtt/gcc/lib/client_server/Debug/libmqtt.a(mqtt_common.o)
                0x000000002000aed8                mqp_proc_msg_id_ack_rx
 .text.mqp_proc_pub_rx
                0x000000002000af18       0xbc ../../../netapps/mqtt/gcc/lib/client_server/Debug/libmqtt.a(mqtt_common.o)
                0x000000002000af18                mqp_proc_pub_rx
 .text.mqp_ack_wlist_append
                0x000000002000afd4       0x40 ../../../netapps/mqtt/gcc/lib/client_server/Debug/libmqtt.a(mqtt_common.o)
                0x000000002000afd4                mqp_ack_wlist_append
 .text.mqp_ack_wlist_remove
                0x000000002000b014       0x7c ../../../netapps/mqtt/gcc/lib/client_server/Debug/libmqtt.a(mqtt_common.o)
                0x000000002000b014                mqp_ack_wlist_remove
 .text.mqp_ack_wlist_purge
                0x000000002000b090       0x3c ../../../netapps/mqtt/gcc/lib/client_server/Debug/libmqtt.a(mqtt_common.o)
                0x000000002000b090                mqp_ack_wlist_purge
 .text.secure_conn_struct_init
                0x000000002000b0cc       0x38 ../../../netapps/mqtt/gcc/lib/client_server/Debug/libmqtt.a(mqtt_common.o)
                0x000000002000b0cc                secure_conn_struct_init
 .text.mqp_prep_fh
                0x000000002000b104       0x90 ../../../netapps/mqtt/gcc/lib/client_server/Debug/libmqtt.a(mqtt_common.o)
                0x000000002000b104                mqp_prep_fh
 .text.mqp_recv
                0x000000002000b194      0x184 ../../../netapps/mqtt/gcc/lib/client_server/Debug/libmqtt.a(mqtt_common.o)
                0x000000002000b194                mqp_recv
 .text.qos2_pub_cq_reset
                0x000000002000b318       0x30 ../../../netapps/mqtt/gcc/lib/client_server/Debug/libmqtt.a(mqtt_common.o)
                0x000000002000b318                qos2_pub_cq_reset
 .text.qos2_pub_cq_logup
                0x000000002000b348       0x54 ../../../netapps/mqtt/gcc/lib/client_server/Debug/libmqtt.a(mqtt_common.o)
                0x000000002000b348                qos2_pub_cq_logup
 .text.qos2_pub_cq_unlog
                0x000000002000b39c       0x58 ../../../netapps/mqtt/gcc/lib/client_server/Debug/libmqtt.a(mqtt_common.o)
                0x000000002000b39c                qos2_pub_cq_unlog
 .text.qos2_pub_cq_check
                0x000000002000b3f4       0x60 ../../../netapps/mqtt/gcc/lib/client_server/Debug/libmqtt.a(mqtt_common.o)
                0x000000002000b3f4                qos2_pub_cq_check
 .text.cl_ctx_reset
                0x000000002000b454       0x38 ../../../netapps/mqtt/gcc/lib/client_server/Debug/libmqtt.a(mqtt_common.o)
                0x000000002000b454                cl_ctx_reset
 .text.cl_ctx_timeout_insert
                0x000000002000b48c       0x7c ../../../netapps/mqtt/gcc/lib/client_server/Debug/libmqtt.a(mqtt_common.o)
                0x000000002000b48c                cl_ctx_timeout_insert
 .text.cl_ctx_remove
                0x000000002000b508       0x60 ../../../netapps/mqtt/gcc/lib/client_server/Debug/libmqtt.a(mqtt_common.o)
                0x000000002000b508                cl_ctx_remove
 .text.cl_ctx_timeout_update
                0x000000002000b568       0x48 ../../../netapps/mqtt/gcc/lib/client_server/Debug/libmqtt.a(mqtt_common.o)
                0x000000002000b568                cl_ctx_timeout_update
 .text.buf_wr_nbytes
                0x000000002000b5b0       0x38 ../../../netapps/mqtt/gcc/lib/client_server/Debug/libmqtt.a(server_core.o)
 .text.stack_add
                0x000000002000b5e8       0x68 ../../../netapps/mqtt/gcc/lib/client_server/Debug/libmqtt.a(server_core.o)
 .text.stack_pop
                0x000000002000b650       0x40 ../../../netapps/mqtt/gcc/lib/client_server/Debug/libmqtt.a(server_core.o)
 .text.is_node_retain
                0x000000002000b690       0x28 ../../../netapps/mqtt/gcc/lib/client_server/Debug/libmqtt.a(server_core.o)
 .text.node_retain_set
                0x000000002000b6b8       0x44 ../../../netapps/mqtt/gcc/lib/client_server/Debug/libmqtt.a(server_core.o)
 .text.node_qid_set
                0x000000002000b6fc       0x3c ../../../netapps/mqtt/gcc/lib/client_server/Debug/libmqtt.a(server_core.o)
 .text.node_qid_get
                0x000000002000b738       0x20 ../../../netapps/mqtt/gcc/lib/client_server/Debug/libmqtt.a(server_core.o)
 .text.is_node_willed
                0x000000002000b758       0x20 ../../../netapps/mqtt/gcc/lib/client_server/Debug/libmqtt.a(server_core.o)
 .text.enrolls_plugin
                0x000000002000b778       0x24 ../../../netapps/mqtt/gcc/lib/client_server/Debug/libmqtt.a(server_core.o)
 .text.node_reset
                0x000000002000b79c       0x68 ../../../netapps/mqtt/gcc/lib/client_server/Debug/libmqtt.a(server_core.o)
 .text.topic_node_init
                0x000000002000b804       0x50 ../../../netapps/mqtt/gcc/lib/client_server/Debug/libmqtt.a(server_core.o)
 .text.alloc_topic_node
                0x000000002000b854       0x30 ../../../netapps/mqtt/gcc/lib/client_server/Debug/libmqtt.a(server_core.o)
 .text.free_node
                0x000000002000b884       0x28 ../../../netapps/mqtt/gcc/lib/client_server/Debug/libmqtt.a(server_core.o)
 .text.is_end_of_subtop
                0x000000002000b8ac       0x50 ../../../netapps/mqtt/gcc/lib/client_server/Debug/libmqtt.a(server_core.o)
 .text.subtop_read
                0x000000002000b8fc       0xa4 ../../../netapps/mqtt/gcc/lib/client_server/Debug/libmqtt.a(server_core.o)
 .text.alloc_node_subtop
                0x000000002000b9a0       0x54 ../../../netapps/mqtt/gcc/lib/client_server/Debug/libmqtt.a(server_core.o)
 .text.is_first_subtop
                0x000000002000b9f4       0x44 ../../../netapps/mqtt/gcc/lib/client_server/Debug/libmqtt.a(server_core.o)
                0x000000002000b9f4                is_first_subtop
 .text.subtop_nhbr_node_find
                0x000000002000ba38       0x3c ../../../netapps/mqtt/gcc/lib/client_server/Debug/libmqtt.a(server_core.o)
                0x000000002000ba38                subtop_nhbr_node_find
 .text.nhbr_node_find
                0x000000002000ba74       0x28 ../../../netapps/mqtt/gcc/lib/client_server/Debug/libmqtt.a(server_core.o)
                0x000000002000ba74                nhbr_node_find
 .text.lowest_node_find
                0x000000002000ba9c       0x70 ../../../netapps/mqtt/gcc/lib/client_server/Debug/libmqtt.a(server_core.o)
 .text.leaf_node_find
                0x000000002000bb0c       0x30 ../../../netapps/mqtt/gcc/lib/client_server/Debug/libmqtt.a(server_core.o)
                0x000000002000bb0c                leaf_node_find
 .text.hier_nodes_create
                0x000000002000bb3c       0xc0 ../../../netapps/mqtt/gcc/lib/client_server/Debug/libmqtt.a(server_core.o)
 .text.install_nhbr_node
                0x000000002000bbfc       0x5c ../../../netapps/mqtt/gcc/lib/client_server/Debug/libmqtt.a(server_core.o)
 .text.set_up_hier_nodes
                0x000000002000bc58       0x4c ../../../netapps/mqtt/gcc/lib/client_server/Debug/libmqtt.a(server_core.o)
 .text.install_topic_root_node
                0x000000002000bca4       0x1c ../../../netapps/mqtt/gcc/lib/client_server/Debug/libmqtt.a(server_core.o)
 .text.topic_node_create
                0x000000002000bcc0       0x9c ../../../netapps/mqtt/gcc/lib/client_server/Debug/libmqtt.a(server_core.o)
                0x000000002000bcc0                topic_node_create
 .text.can_delete_node
                0x000000002000bd5c       0x54 ../../../netapps/mqtt/gcc/lib/client_server/Debug/libmqtt.a(server_core.o)
 .text.node_delete
                0x000000002000bdb0       0xa4 ../../../netapps/mqtt/gcc/lib/client_server/Debug/libmqtt.a(server_core.o)
 .text.topbuf_add
                0x000000002000be54       0x7c ../../../netapps/mqtt/gcc/lib/client_server/Debug/libmqtt.a(server_core.o)
 .text.topbuf_cpy
                0x000000002000bed0       0x78 ../../../netapps/mqtt/gcc/lib/client_server/Debug/libmqtt.a(server_core.o)
 .text.has_a_wildcard
                0x000000002000bf48       0x40 ../../../netapps/mqtt/gcc/lib/client_server/Debug/libmqtt.a(server_core.o)
 .text.is_node_SUB_subtop
                0x000000002000bf88       0x7c ../../../netapps/mqtt/gcc/lib/client_server/Debug/libmqtt.a(server_core.o)
 .text.pub_hier_search
                0x000000002000c004       0xb4 ../../../netapps/mqtt/gcc/lib/client_server/Debug/libmqtt.a(server_core.o)
 .text.is_node_PUB_subtop
                0x000000002000c0b8       0x74 ../../../netapps/mqtt/gcc/lib/client_server/Debug/libmqtt.a(server_core.o)
 .text.SUB_leaf_search
                0x000000002000c12c       0xc0 ../../../netapps/mqtt/gcc/lib/client_server/Debug/libmqtt.a(server_core.o)
 .text.try_node_delete
                0x000000002000c1ec       0x5c ../../../netapps/mqtt/gcc/lib/client_server/Debug/libmqtt.a(server_core.o)
 .text.pub_msg_send
                0x000000002000c248       0xa0 ../../../netapps/mqtt/gcc/lib/client_server/Debug/libmqtt.a(server_core.o)
 .text.SUB_node_create
                0x000000002000c2e8       0xb4 ../../../netapps/mqtt/gcc/lib/client_server/Debug/libmqtt.a(server_core.o)
 .text.proc_pub_leaf
                0x000000002000c39c       0x80 ../../../netapps/mqtt/gcc/lib/client_server/Debug/libmqtt.a(server_core.o)
 .text.proc_pub_hier_no_top
                0x000000002000c41c       0xa8 ../../../netapps/mqtt/gcc/lib/client_server/Debug/libmqtt.a(server_core.o)
 .text.proc_pub_tree_no_top
                0x000000002000c4c4       0x7c ../../../netapps/mqtt/gcc/lib/client_server/Debug/libmqtt.a(server_core.o)
 .text.proc_pub_hier_SUBtop
                0x000000002000c540       0x50 ../../../netapps/mqtt/gcc/lib/client_server/Debug/libmqtt.a(server_core.o)
 .text.proc_pub_tree_SUBtop
                0x000000002000c590       0x84 ../../../netapps/mqtt/gcc/lib/client_server/Debug/libmqtt.a(server_core.o)
 .text.proc_sub_ml_wc_hier
                0x000000002000c614      0x124 ../../../netapps/mqtt/gcc/lib/client_server/Debug/libmqtt.a(server_core.o)
 .text.proc_sub_ml_wc_tree
                0x000000002000c738       0xa0 ../../../netapps/mqtt/gcc/lib/client_server/Debug/libmqtt.a(server_core.o)
 .text.ml_wc_nodes_create
                0x000000002000c7d8       0x80 ../../../netapps/mqtt/gcc/lib/client_server/Debug/libmqtt.a(server_core.o)
 .text.proc_sub_ml_wildcard
                0x000000002000c858      0x118 ../../../netapps/mqtt/gcc/lib/client_server/Debug/libmqtt.a(server_core.o)
 .text.proc_sub_sl_or_no_wc
                0x000000002000c970       0x68 ../../../netapps/mqtt/gcc/lib/client_server/Debug/libmqtt.a(server_core.o)
 .text.proc_forward_slash
                0x000000002000c9d8       0x88 ../../../netapps/mqtt/gcc/lib/client_server/Debug/libmqtt.a(server_core.o)
 .text.is_valid_char_order
                0x000000002000ca60       0x50 ../../../netapps/mqtt/gcc/lib/client_server/Debug/libmqtt.a(server_core.o)
 .text.is_valid_SUB_top
                0x000000002000cab0       0x84 ../../../netapps/mqtt/gcc/lib/client_server/Debug/libmqtt.a(server_core.o)
 .text.proc_sub_msg_rx
                0x000000002000cb34      0x104 ../../../netapps/mqtt/gcc/lib/client_server/Debug/libmqtt.a(server_core.o)
 .text.proc_sub_msg_rx_locked
                0x000000002000cc38       0x2c ../../../netapps/mqtt/gcc/lib/client_server/Debug/libmqtt.a(server_core.o)
 .text.leaf_un_sub
                0x000000002000cc64       0x6c ../../../netapps/mqtt/gcc/lib/client_server/Debug/libmqtt.a(server_core.o)
 .text.proc_un_sub_msg
                0x000000002000ccd0       0xcc ../../../netapps/mqtt/gcc/lib/client_server/Debug/libmqtt.a(server_core.o)
 .text.proc_un_sub_msg_locked
                0x000000002000cd9c       0x24 ../../../netapps/mqtt/gcc/lib/client_server/Debug/libmqtt.a(server_core.o)
 .text.leaf_msg_send
                0x000000002000cdc0       0xb8 ../../../netapps/mqtt/gcc/lib/client_server/Debug/libmqtt.a(server_core.o)
 .text.node_data_set
                0x000000002000ce78       0x38 ../../../netapps/mqtt/gcc/lib/client_server/Debug/libmqtt.a(server_core.o)
 .text.node_data_update
                0x000000002000ceb0       0x98 ../../../netapps/mqtt/gcc/lib/client_server/Debug/libmqtt.a(server_core.o)
 .text.is_wildcard_char
                0x000000002000cf48       0x2c ../../../netapps/mqtt/gcc/lib/client_server/Debug/libmqtt.a(server_core.o)
 .text.pub_topic_read
                0x000000002000cf74       0x84 ../../../netapps/mqtt/gcc/lib/client_server/Debug/libmqtt.a(server_core.o)
 .text.proc_sub_tree_topPUB
                0x000000002000cff8       0x88 ../../../netapps/mqtt/gcc/lib/client_server/Debug/libmqtt.a(server_core.o)
 .text._proc_pub_msg_rx
                0x000000002000d080      0x14c ../../../netapps/mqtt/gcc/lib/client_server/Debug/libmqtt.a(server_core.o)
 .text.proc_pub_msg_rx_locked
                0x000000002000d1cc       0x38 ../../../netapps/mqtt/gcc/lib/client_server/Debug/libmqtt.a(server_core.o)
 .text.utf8_str_rd
                0x000000002000d204       0x50 ../../../netapps/mqtt/gcc/lib/client_server/Debug/libmqtt.a(server_core.o)
 .text.proc_connect_rx
                0x000000002000d254      0x188 ../../../netapps/mqtt/gcc/lib/client_server/Debug/libmqtt.a(server_core.o)
 .text.proc_connect_rx_locked
                0x000000002000d3dc       0x28 ../../../netapps/mqtt/gcc/lib/client_server/Debug/libmqtt.a(server_core.o)
 .text.session_hier_delete
                0x000000002000d404       0xa0 ../../../netapps/mqtt/gcc/lib/client_server/Debug/libmqtt.a(server_core.o)
 .text.session_tree_delete
                0x000000002000d4a4       0x54 ../../../netapps/mqtt/gcc/lib/client_server/Debug/libmqtt.a(server_core.o)
                0x000000002000d4a4                session_tree_delete
 .text.proc_client_will
                0x000000002000d4f8       0xc4 ../../../netapps/mqtt/gcc/lib/client_server/Debug/libmqtt.a(server_core.o)
 .text.on_cl_net_close
                0x000000002000d5bc       0x8c ../../../netapps/mqtt/gcc/lib/client_server/Debug/libmqtt.a(server_core.o)
 .text.on_cl_net_close_locked
                0x000000002000d648       0x20 ../../../netapps/mqtt/gcc/lib/client_server/Debug/libmqtt.a(server_core.o)
 .text.on_connack_send
                0x000000002000d668       0x2c ../../../netapps/mqtt/gcc/lib/client_server/Debug/libmqtt.a(server_core.o)
 .text.on_connack_send_locked
                0x000000002000d694       0x20 ../../../netapps/mqtt/gcc/lib/client_server/Debug/libmqtt.a(server_core.o)
 .text.proc_notify_ack_locked
                0x000000002000d6b4       0x28 ../../../netapps/mqtt/gcc/lib/client_server/Debug/libmqtt.a(server_core.o)
 .text.proc_topic_enroll
                0x000000002000d6dc       0xd4 ../../../netapps/mqtt/gcc/lib/client_server/Debug/libmqtt.a(server_core.o)
 .text.proc_topic_enroll_locked
                0x000000002000d7b0       0x34 ../../../netapps/mqtt/gcc/lib/client_server/Debug/libmqtt.a(server_core.o)
 .text.proc_topic_cancel
                0x000000002000d7e4       0x98 ../../../netapps/mqtt/gcc/lib/client_server/Debug/libmqtt.a(server_core.o)
 .text.proc_topic_cancel_locked
                0x000000002000d87c       0x30 ../../../netapps/mqtt/gcc/lib/client_server/Debug/libmqtt.a(server_core.o)
 .text.proc_app_pub_send_locked
                0x000000002000d8ac       0x4c ../../../netapps/mqtt/gcc/lib/client_server/Debug/libmqtt.a(server_core.o)
 .text.mqtt_server_init
                0x000000002000d8f8       0x94 ../../../netapps/mqtt/gcc/lib/client_server/Debug/libmqtt.a(server_core.o)
                0x000000002000d8f8                mqtt_server_init
 .text.buf_wr_nbo_2B
                0x000000002000d98c       0x30 ../../../netapps/mqtt/gcc/lib/client_server/Debug/libmqtt.a(server_pkts.o)
 .text.buf_rd_nbo_2B
                0x000000002000d9bc       0x30 ../../../netapps/mqtt/gcc/lib/client_server/Debug/libmqtt.a(server_pkts.o)
 .text.mqp_buffer_attach
                0x000000002000d9ec       0x34 ../../../netapps/mqtt/gcc/lib/client_server/Debug/libmqtt.a(server_pkts.o)
 .text.mqp_buf_rd_utf8
                0x000000002000da20       0x78 ../../../netapps/mqtt/gcc/lib/client_server/Debug/libmqtt.a(server_pkts.o)
 .text.cl_ctx_init
                0x000000002000da98       0x50 ../../../netapps/mqtt/gcc/lib/client_server/Debug/libmqtt.a(server_pkts.o)
 .text.cl_ctx_free
                0x000000002000dae8       0x28 ../../../netapps/mqtt/gcc/lib/client_server/Debug/libmqtt.a(server_pkts.o)
 .text.cl_ctx_alloc
                0x000000002000db10       0x30 ../../../netapps/mqtt/gcc/lib/client_server/Debug/libmqtt.a(server_pkts.o)
 .text.had_rcvd_conn_msg
                0x000000002000db40       0x24 ../../../netapps/mqtt/gcc/lib/client_server/Debug/libmqtt.a(server_pkts.o)
 .text.set_rcvd_conn_msg
                0x000000002000db64       0x20 ../../../netapps/mqtt/gcc/lib/client_server/Debug/libmqtt.a(server_pkts.o)
 .text.used_ctxs_insert
                0x000000002000db84       0x1c ../../../netapps/mqtt/gcc/lib/client_server/Debug/libmqtt.a(server_pkts.o)
 .text.used_ctxs_remove
                0x000000002000dba0       0x1c ../../../netapps/mqtt/gcc/lib/client_server/Debug/libmqtt.a(server_pkts.o)
 .text.loopb_trigger
                0x000000002000dbbc       0xb8 ../../../netapps/mqtt/gcc/lib/client_server/Debug/libmqtt.a(server_pkts.o)
 .text.do_net_close_rx
                0x000000002000dc74       0x78 ../../../netapps/mqtt/gcc/lib/client_server/Debug/libmqtt.a(server_pkts.o)
 .text.do_net_close_tx
                0x000000002000dcec       0x40 ../../../netapps/mqtt/gcc/lib/client_server/Debug/libmqtt.a(server_pkts.o)
 .text.cl_ctx_send
                0x000000002000dd2c       0x88 ../../../netapps/mqtt/gcc/lib/client_server/Debug/libmqtt.a(server_pkts.o)
 .text.vh_msg_send
                0x000000002000ddb4       0x94 ../../../netapps/mqtt/gcc/lib/client_server/Debug/libmqtt.a(server_pkts.o)
 .text._mqtt_vh_msg_send
                0x000000002000de48       0x48 ../../../netapps/mqtt/gcc/lib/client_server/Debug/libmqtt.a(server_pkts.o)
 .text.mqtt_vh_msg_send
                0x000000002000de90       0x38 ../../../netapps/mqtt/gcc/lib/client_server/Debug/libmqtt.a(server_pkts.o)
                0x000000002000de90                mqtt_vh_msg_send
 .text._mqtt_server_pub_dispatch
                0x000000002000dec8       0x6c ../../../netapps/mqtt/gcc/lib/client_server/Debug/libmqtt.a(server_pkts.o)
 .text.mqtt_server_pub_dispatch
                0x000000002000df34       0x24 ../../../netapps/mqtt/gcc/lib/client_server/Debug/libmqtt.a(server_pkts.o)
                0x000000002000df34                mqtt_server_pub_dispatch
 .text.sub_ack_send
                0x000000002000df58       0x84 ../../../netapps/mqtt/gcc/lib/client_server/Debug/libmqtt.a(server_pkts.o)
 .text.unsub_ack_send
                0x000000002000dfdc       0x28 ../../../netapps/mqtt/gcc/lib/client_server/Debug/libmqtt.a(server_pkts.o)
 .text.mqp_proc_vh_msg_id_rx
                0x000000002000e004       0x5c ../../../netapps/mqtt/gcc/lib/client_server/Debug/libmqtt.a(server_pkts.o)
 .text.buf_rd_utf8_qos
                0x000000002000e060       0x64 ../../../netapps/mqtt/gcc/lib/client_server/Debug/libmqtt.a(server_pkts.o)
 .text._proc_sub_msg_rx
                0x000000002000e0c4       0xb8 ../../../netapps/mqtt/gcc/lib/client_server/Debug/libmqtt.a(server_pkts.o)
 .text.proc_sub_msg_rx
                0x000000002000e17c       0x8c ../../../netapps/mqtt/gcc/lib/client_server/Debug/libmqtt.a(server_pkts.o)
 .text._proc_unsub_msg_rx
                0x000000002000e208       0xb8 ../../../netapps/mqtt/gcc/lib/client_server/Debug/libmqtt.a(server_pkts.o)
 .text.proc_unsub_msg_rx
                0x000000002000e2c0       0x74 ../../../netapps/mqtt/gcc/lib/client_server/Debug/libmqtt.a(server_pkts.o)
 .text.proc_pingreq_rx
                0x000000002000e334       0x24 ../../../netapps/mqtt/gcc/lib/client_server/Debug/libmqtt.a(server_pkts.o)
 .text.proc_disconn_rx
                0x000000002000e358       0x1c ../../../netapps/mqtt/gcc/lib/client_server/Debug/libmqtt.a(server_pkts.o)
 .text.proc_pub_msg_rx
                0x000000002000e374      0x128 ../../../netapps/mqtt/gcc/lib/client_server/Debug/libmqtt.a(server_pkts.o)
 .text.proc_ack_msg_rx
                0x000000002000e49c       0x50 ../../../netapps/mqtt/gcc/lib/client_server/Debug/libmqtt.a(server_pkts.o)
 .text.rx_timeout_update
                0x000000002000e4ec       0x48 ../../../netapps/mqtt/gcc/lib/client_server/Debug/libmqtt.a(server_pkts.o)
 .text.proc_protocol_info
                0x000000002000e534       0xa4 ../../../netapps/mqtt/gcc/lib/client_server/Debug/libmqtt.a(server_pkts.o)
 .text.proc_connect_vh_rx
                0x000000002000e5d8       0xf4 ../../../netapps/mqtt/gcc/lib/client_server/Debug/libmqtt.a(server_pkts.o)
 .text.proc_connect_pl_rx
                0x000000002000e6cc      0x128 ../../../netapps/mqtt/gcc/lib/client_server/Debug/libmqtt.a(server_pkts.o)
                0x000000002000e6cc                proc_connect_pl_rx
 .text.proc_connect_rx
                0x000000002000e7f4      0x17c ../../../netapps/mqtt/gcc/lib/client_server/Debug/libmqtt.a(server_pkts.o)
 .text.recv_hvec_load
                0x000000002000e970       0x4c ../../../netapps/mqtt/gcc/lib/client_server/Debug/libmqtt.a(server_pkts.o)
 .text.process_recv
                0x000000002000e9bc      0x148 ../../../netapps/mqtt/gcc/lib/client_server/Debug/libmqtt.a(server_pkts.o)
 .text.ka_sequence
                0x000000002000eb04       0xc4 ../../../netapps/mqtt/gcc/lib/client_server/Debug/libmqtt.a(server_pkts.o)
 .text.accept_ctx
                0x000000002000ebc8       0xa8 ../../../netapps/mqtt/gcc/lib/client_server/Debug/libmqtt.a(server_pkts.o)
 .text.net_cl_ctx_find
                0x000000002000ec70       0x50 ../../../netapps/mqtt/gcc/lib/client_server/Debug/libmqtt.a(server_pkts.o)
 .text.net_recv
                0x000000002000ecc0       0x40 ../../../netapps/mqtt/gcc/lib/client_server/Debug/libmqtt.a(server_pkts.o)
 .text.proc_loopback_recv
                0x000000002000ed00       0x68 ../../../netapps/mqtt/gcc/lib/client_server/Debug/libmqtt.a(server_pkts.o)
 .text.proc_net_data_recv
                0x000000002000ed68       0x60 ../../../netapps/mqtt/gcc/lib/client_server/Debug/libmqtt.a(server_pkts.o)
 .text.proc_recv_hnds_locked
                0x000000002000edc8       0xd0 ../../../netapps/mqtt/gcc/lib/client_server/Debug/libmqtt.a(server_pkts.o)
 .text.net_hnds_mon_loop
                0x000000002000ee98       0xf0 ../../../netapps/mqtt/gcc/lib/client_server/Debug/libmqtt.a(server_pkts.o)
 .text.mqtt_server_run
                0x000000002000ef88      0x118 ../../../netapps/mqtt/gcc/lib/client_server/Debug/libmqtt.a(server_pkts.o)
                0x000000002000ef88                mqtt_server_run
 .text.mqtt_server_register_net_svc
                0x000000002000f0a0       0x5c ../../../netapps/mqtt/gcc/lib/client_server/Debug/libmqtt.a(server_pkts.o)
                0x000000002000f0a0                mqtt_server_register_net_svc
 .text.mqtt_server_lib_init
                0x000000002000f0fc       0xf0 ../../../netapps/mqtt/gcc/lib/client_server/Debug/libmqtt.a(server_pkts.o)
                0x000000002000f0fc                mqtt_server_lib_init
 .text.is_inuse
                0x000000002000f1ec       0x20 ../../../netapps/mqtt/gcc/lib/client_server/Debug/libmqtt.a(server_plug.o)
 .text.inuse_set
                0x000000002000f20c       0x1c ../../../netapps/mqtt/gcc/lib/client_server/Debug/libmqtt.a(server_plug.o)
 .text.plugin_find
                0x000000002000f228       0x28 ../../../netapps/mqtt/gcc/lib/client_server/Debug/libmqtt.a(server_plug.o)
 .text.plugin_reset
                0x000000002000f250       0x18 ../../../netapps/mqtt/gcc/lib/client_server/Debug/libmqtt.a(server_plug.o)
 .text.plugin_alloc
                0x000000002000f268       0xa0 ../../../netapps/mqtt/gcc/lib/client_server/Debug/libmqtt.a(server_plug.o)
 .text.plugin_connect
                0x000000002000f308       0x44 ../../../netapps/mqtt/gcc/lib/client_server/Debug/libmqtt.a(server_plug.o)
                0x000000002000f308                plugin_connect
 .text.plugin_publish
                0x000000002000f34c       0xb0 ../../../netapps/mqtt/gcc/lib/client_server/Debug/libmqtt.a(server_plug.o)
                0x000000002000f34c                plugin_publish
 .text.plugin_disconn
                0x000000002000f3fc       0x30 ../../../netapps/mqtt/gcc/lib/client_server/Debug/libmqtt.a(server_plug.o)
                0x000000002000f3fc                plugin_disconn
 .text.mqtt_server_topic_enroll
                0x000000002000f42c       0x38 ../../../netapps/mqtt/gcc/lib/client_server/Debug/libmqtt.a(server_plug.o)
                0x000000002000f42c                mqtt_server_topic_enroll
 .text.mqtt_server_app_pub_send
                0x000000002000f464       0x34 ../../../netapps/mqtt/gcc/lib/client_server/Debug/libmqtt.a(server_plug.o)
                0x000000002000f464                mqtt_server_app_pub_send
 .text.server_app_register
                0x000000002000f498       0x58 ../../../netapps/mqtt/gcc/lib/client_server/Debug/libmqtt.a(server_plug.o)
 .text.mqtt_server_app_register
                0x000000002000f4f0       0x60 ../../../netapps/mqtt/gcc/lib/client_server/Debug/libmqtt.a(server_plug.o)
                0x000000002000f4f0                mqtt_server_app_register
 .text.plugin_init
                0x000000002000f550       0xc4 ../../../netapps/mqtt/gcc/lib/client_server/Debug/libmqtt.a(server_plug.o)
                0x000000002000f550                plugin_init
 .text.buf_wr_nbytes
                0x000000002000f614       0x38 ../../../netapps/mqtt/gcc/lib/client_server/Debug/libmqtt.a(server_util.o)
 .text.assign_new_msg_id
                0x000000002000f64c       0x20 ../../../netapps/mqtt/gcc/lib/client_server/Debug/libmqtt.a(server_util.o)
 .text.mqp_new_id_server
                0x000000002000f66c       0x10 ../../../netapps/mqtt/gcc/lib/client_server/Debug/libmqtt.a(server_util.o)
                0x000000002000f66c                mqp_new_id_server
 .text.my_pkt_free
                0x000000002000f67c       0x18 ../../../netapps/mqtt/gcc/lib/client_server/Debug/libmqtt.a(server_util.o)
 .text.server_mqp_alloc
                0x000000002000f694       0xa4 ../../../netapps/mqtt/gcc/lib/client_server/Debug/libmqtt.a(server_util.o)
 .text.mqp_server_alloc
                0x000000002000f738       0x24 ../../../netapps/mqtt/gcc/lib/client_server/Debug/libmqtt.a(server_util.o)
                0x000000002000f738                mqp_server_alloc
 .text.mqp_server_copy
                0x000000002000f75c       0x54 ../../../netapps/mqtt/gcc/lib/client_server/Debug/libmqtt.a(server_util.o)
                0x000000002000f75c                mqp_server_copy
 .text.util_mutex_lockin
                0x000000002000f7b0       0x28 ../../../netapps/mqtt/gcc/lib/client_server/Debug/libmqtt.a(server_util.o)
                0x000000002000f7b0                util_mutex_lockin
 .text.util_mutex_unlock
                0x000000002000f7d8       0x28 ../../../netapps/mqtt/gcc/lib/client_server/Debug/libmqtt.a(server_util.o)
                0x000000002000f7d8                util_mutex_unlock
 .text.util_params_set
                0x000000002000f800       0x40 ../../../netapps/mqtt/gcc/lib/client_server/Debug/libmqtt.a(server_util.o)
                0x000000002000f800                util_params_set
 .text.is_connected
                0x000000002000f840       0x24 ../../../netapps/mqtt/gcc/lib/client_server/Debug/libmqtt.a(client_mgmt.o)
 .text.has_clean_session
                0x000000002000f864       0x24 ../../../netapps/mqtt/gcc/lib/client_server/Debug/libmqtt.a(client_mgmt.o)
 .text.is_assigned
                0x000000002000f888       0x24 ../../../netapps/mqtt/gcc/lib/client_server/Debug/libmqtt.a(client_mgmt.o)
 .text.set_connect_state
                0x000000002000f8ac       0x38 ../../../netapps/mqtt/gcc/lib/client_server/Debug/libmqtt.a(client_mgmt.o)
 .text.set_clean_session
                0x000000002000f8e4       0x38 ../../../netapps/mqtt/gcc/lib/client_server/Debug/libmqtt.a(client_mgmt.o)
 .text.set_assigned
                0x000000002000f91c       0x38 ../../../netapps/mqtt/gcc/lib/client_server/Debug/libmqtt.a(client_mgmt.o)
 .text.cl_usr_reset
                0x000000002000f954       0x48 ../../../netapps/mqtt/gcc/lib/client_server/Debug/libmqtt.a(client_mgmt.o)
 .text.cl_usr_init
                0x000000002000f99c       0x40 ../../../netapps/mqtt/gcc/lib/client_server/Debug/libmqtt.a(client_mgmt.o)
 .text.cl_usr_free
                0x000000002000f9dc       0x24 ../../../netapps/mqtt/gcc/lib/client_server/Debug/libmqtt.a(client_mgmt.o)
 .text.cl_sub_count_add
                0x000000002000fa00       0x50 ../../../netapps/mqtt/gcc/lib/client_server/Debug/libmqtt.a(client_mgmt.o)
                0x000000002000fa00                cl_sub_count_add
 .text.cl_sub_count_del
                0x000000002000fa50       0x50 ../../../netapps/mqtt/gcc/lib/client_server/Debug/libmqtt.a(client_mgmt.o)
                0x000000002000fa50                cl_sub_count_del
 .text.qos2_pub_rx_logup
                0x000000002000faa0       0x24 ../../../netapps/mqtt/gcc/lib/client_server/Debug/libmqtt.a(client_mgmt.o)
 .text.ack2_msg_id_logup
                0x000000002000fac4       0x24 ../../../netapps/mqtt/gcc/lib/client_server/Debug/libmqtt.a(client_mgmt.o)
 .text.qos2_pub_rx_unlog
                0x000000002000fae8       0x24 ../../../netapps/mqtt/gcc/lib/client_server/Debug/libmqtt.a(client_mgmt.o)
 .text.ack2_msg_id_unlog
                0x000000002000fb0c       0x24 ../../../netapps/mqtt/gcc/lib/client_server/Debug/libmqtt.a(client_mgmt.o)
 .text.qos2_pub_rx_is_done
                0x000000002000fb30       0x24 ../../../netapps/mqtt/gcc/lib/client_server/Debug/libmqtt.a(client_mgmt.o)
 .text.cl_mgmt_qos2_pub_rx_update
                0x000000002000fb54       0x58 ../../../netapps/mqtt/gcc/lib/client_server/Debug/libmqtt.a(client_mgmt.o)
                0x000000002000fb54                cl_mgmt_qos2_pub_rx_update
 .text.ack2_msg_id_dispatch
                0x000000002000fbac       0x70 ../../../netapps/mqtt/gcc/lib/client_server/Debug/libmqtt.a(client_mgmt.o)
 .text.ack2_msg_id_purge
                0x000000002000fc1c       0x24 ../../../netapps/mqtt/gcc/lib/client_server/Debug/libmqtt.a(client_mgmt.o)
 .text.wl_qos2_mqp_count
                0x000000002000fc40       0x60 ../../../netapps/mqtt/gcc/lib/client_server/Debug/libmqtt.a(client_mgmt.o)
 .text.can_mqp_sched
                0x000000002000fca0       0x74 ../../../netapps/mqtt/gcc/lib/client_server/Debug/libmqtt.a(client_mgmt.o)
 .text._pub_dispatch
                0x000000002000fd14       0x28 ../../../netapps/mqtt/gcc/lib/client_server/Debug/libmqtt.a(client_mgmt.o)
 .text.ack1_wl_mqp_dispatch
                0x000000002000fd3c       0x4c ../../../netapps/mqtt/gcc/lib/client_server/Debug/libmqtt.a(client_mgmt.o)
 .text._cl_bmap_get
                0x000000002000fd88       0x34 ../../../netapps/mqtt/gcc/lib/client_server/Debug/libmqtt.a(client_mgmt.o)
 .text.cl_bmap_get
                0x000000002000fdbc       0x24 ../../../netapps/mqtt/gcc/lib/client_server/Debug/libmqtt.a(client_mgmt.o)
                0x000000002000fdbc                cl_bmap_get
 .text.cl_app_hndl_get
                0x000000002000fde0       0x30 ../../../netapps/mqtt/gcc/lib/client_server/Debug/libmqtt.a(client_mgmt.o)
                0x000000002000fde0                cl_app_hndl_get
 .text.cl_will_hndl_get
                0x000000002000fe10       0x30 ../../../netapps/mqtt/gcc/lib/client_server/Debug/libmqtt.a(client_mgmt.o)
                0x000000002000fe10                cl_will_hndl_get
 .text.pub_dispatch
                0x000000002000fe40      0x178 ../../../netapps/mqtt/gcc/lib/client_server/Debug/libmqtt.a(client_mgmt.o)
 .text.cl_pub_dispatch
                0x000000002000ffb8       0x1c ../../../netapps/mqtt/gcc/lib/client_server/Debug/libmqtt.a(client_mgmt.o)
                0x000000002000ffb8                cl_pub_dispatch
 .text.wl_remove
                0x000000002000ffd4       0x50 ../../../netapps/mqtt/gcc/lib/client_server/Debug/libmqtt.a(client_mgmt.o)
 .text.sess_wl_mqp_dispatch
                0x0000000020010024       0xa8 ../../../netapps/mqtt/gcc/lib/client_server/Debug/libmqtt.a(client_mgmt.o)
 .text.wl_mqp_unmap_find
                0x00000000200100cc       0x64 ../../../netapps/mqtt/gcc/lib/client_server/Debug/libmqtt.a(client_mgmt.o)
 .text.wl_rmfree_try
                0x0000000020010130       0x34 ../../../netapps/mqtt/gcc/lib/client_server/Debug/libmqtt.a(client_mgmt.o)
 .text.ack1_unmap_rmfree_try
                0x0000000020010164       0x5c ../../../netapps/mqtt/gcc/lib/client_server/Debug/libmqtt.a(client_mgmt.o)
 .text.wl_purge
                0x00000000200101c0       0x68 ../../../netapps/mqtt/gcc/lib/client_server/Debug/libmqtt.a(client_mgmt.o)
 .text.ack1_wl_mqp_purge
                0x0000000020010228       0x20 ../../../netapps/mqtt/gcc/lib/client_server/Debug/libmqtt.a(client_mgmt.o)
 .text.sess_wl_mqp_purge
                0x0000000020010248       0x20 ../../../netapps/mqtt/gcc/lib/client_server/Debug/libmqtt.a(client_mgmt.o)
 .text.session_resume
                0x0000000020010268       0x24 ../../../netapps/mqtt/gcc/lib/client_server/Debug/libmqtt.a(client_mgmt.o)
 .text.session_delete
                0x000000002001028c       0x24 ../../../netapps/mqtt/gcc/lib/client_server/Debug/libmqtt.a(client_mgmt.o)
 .text.has_session_data
                0x00000000200102b0       0x80 ../../../netapps/mqtt/gcc/lib/client_server/Debug/libmqtt.a(client_mgmt.o)
 .text.cl_can_session_delete
                0x0000000020010330       0x44 ../../../netapps/mqtt/gcc/lib/client_server/Debug/libmqtt.a(client_mgmt.o)
                0x0000000020010330                cl_can_session_delete
 .text.cl_on_net_close
                0x0000000020010374       0x70 ../../../netapps/mqtt/gcc/lib/client_server/Debug/libmqtt.a(client_mgmt.o)
                0x0000000020010374                cl_on_net_close
 .text.proc_pub_rel_rx
                0x00000000200103e4       0x44 ../../../netapps/mqtt/gcc/lib/client_server/Debug/libmqtt.a(client_mgmt.o)
 .text.proc_pub_rec_rx
                0x0000000020010428       0x70 ../../../netapps/mqtt/gcc/lib/client_server/Debug/libmqtt.a(client_mgmt.o)
 .text.cl_notify_ack
                0x0000000020010498       0x8c ../../../netapps/mqtt/gcc/lib/client_server/Debug/libmqtt.a(client_mgmt.o)
                0x0000000020010498                cl_notify_ack
 .text.assign_cl_index_as_id
                0x0000000020010524       0x74 ../../../netapps/mqtt/gcc/lib/client_server/Debug/libmqtt.a(client_mgmt.o)
 .text.assign_cl_usr
                0x0000000020010598      0x13c ../../../netapps/mqtt/gcc/lib/client_server/Debug/libmqtt.a(client_mgmt.o)
 .text.cl_connect_rx
                0x00000000200106d4       0x90 ../../../netapps/mqtt/gcc/lib/client_server/Debug/libmqtt.a(client_mgmt.o)
                0x00000000200106d4                cl_connect_rx
 .text.cl_on_connack_send
                0x0000000020010764       0xa8 ../../../netapps/mqtt/gcc/lib/client_server/Debug/libmqtt.a(client_mgmt.o)
                0x0000000020010764                cl_on_connack_send
 .text.cl_mgmt_init
                0x000000002001080c       0x10 ../../../netapps/mqtt/gcc/lib/client_server/Debug/libmqtt.a(client_mgmt.o)
                0x000000002001080c                cl_mgmt_init
 .text._sl_GetStartResponseConvert
                0x000000002001081c       0x24 ../../../simplelink/gcc/lib/os/Debug/libsimplelink.a(device.o)
 .text.sl_Start
                0x0000000020010840      0x10c ../../../simplelink/gcc/lib/os/Debug/libsimplelink.a(device.o)
                0x0000000020010840                sl_Start
 .text._sl_HandleAsync_InitComplete
                0x000000002001094c       0xb8 ../../../simplelink/gcc/lib/os/Debug/libsimplelink.a(device.o)
                0x000000002001094c                _sl_HandleAsync_InitComplete
 .text._sl_HandleAsync_Stop
                0x0000000020010a04       0x68 ../../../simplelink/gcc/lib/os/Debug/libsimplelink.a(device.o)
                0x0000000020010a04                _sl_HandleAsync_Stop
 .text.sl_Stop  0x0000000020010a6c       0xec ../../../simplelink/gcc/lib/os/Debug/libsimplelink.a(device.o)
                0x0000000020010a6c                sl_Stop
 .text.sl_DevGet
                0x0000000020010b58       0xe0 ../../../simplelink/gcc/lib/os/Debug/libsimplelink.a(device.o)
                0x0000000020010b58                sl_DevGet
 .text._SlDrvDeviceEventHandler
                0x0000000020010c38       0xa8 ../../../simplelink/gcc/lib/os/Debug/libsimplelink.a(device.o)
                0x0000000020010c38                _SlDrvDeviceEventHandler
 .text._SlDrvProtectAsyncRespSetting
                0x0000000020010ce0       0x54 ../../../simplelink/gcc/lib/os/Debug/libsimplelink.a(driver.o)
                0x0000000020010ce0                _SlDrvProtectAsyncRespSetting
 .text._SlDrvDriverCBInit
                0x0000000020010d34      0x1a8 ../../../simplelink/gcc/lib/os/Debug/libsimplelink.a(driver.o)
                0x0000000020010d34                _SlDrvDriverCBInit
 .text._SlDrvDriverCBDeinit
                0x0000000020010edc      0x134 ../../../simplelink/gcc/lib/os/Debug/libsimplelink.a(driver.o)
                0x0000000020010edc                _SlDrvDriverCBDeinit
 .text._SlDrvRxIrqHandler
                0x0000000020011010       0x64 ../../../simplelink/gcc/lib/os/Debug/libsimplelink.a(driver.o)
                0x0000000020011010                _SlDrvRxIrqHandler
 .text._SlDrvCmdOp
                0x0000000020011074       0xc4 ../../../simplelink/gcc/lib/os/Debug/libsimplelink.a(driver.o)
                0x0000000020011074                _SlDrvCmdOp
 .text._SlDrvDataReadOp
                0x0000000020011138      0x208 ../../../simplelink/gcc/lib/os/Debug/libsimplelink.a(driver.o)
                0x0000000020011138                _SlDrvDataReadOp
 .text._SlDrvDataWriteOp
                0x0000000020011340      0x168 ../../../simplelink/gcc/lib/os/Debug/libsimplelink.a(driver.o)
                0x0000000020011340                _SlDrvDataWriteOp
 .text._SlDrvMsgWrite
                0x00000000200114a8      0x1d4 ../../../simplelink/gcc/lib/os/Debug/libsimplelink.a(driver.o)
 .text._SlDrvMsgRead
                0x000000002001167c      0x5cc ../../../simplelink/gcc/lib/os/Debug/libsimplelink.a(driver.o)
 .text._SlAsyncEventGenericHandler
                0x0000000020011c48       0xd8 ../../../simplelink/gcc/lib/os/Debug/libsimplelink.a(driver.o)
 .text._SlDrvMsgReadCmdCtx
                0x0000000020011d20      0x158 ../../../simplelink/gcc/lib/os/Debug/libsimplelink.a(driver.o)
 .text._SlDrvMsgReadSpawnCtx
                0x0000000020011e78       0xf4 ../../../simplelink/gcc/lib/os/Debug/libsimplelink.a(driver.o)
                0x0000000020011e78                _SlDrvMsgReadSpawnCtx
 .text._SlDrvClassifyRxMsg
                0x0000000020011f6c       0xd0 ../../../simplelink/gcc/lib/os/Debug/libsimplelink.a(driver.o)
 .text._SlDrvRxHdrRead
                0x000000002001203c      0x2ac ../../../simplelink/gcc/lib/os/Debug/libsimplelink.a(driver.o)
 .text._SlDrvBasicCmd
                0x00000000200122e8       0x50 ../../../simplelink/gcc/lib/os/Debug/libsimplelink.a(driver.o)
                0x00000000200122e8                _SlDrvBasicCmd
 .text._SlDrvCmdSend
                0x0000000020012338       0x74 ../../../simplelink/gcc/lib/os/Debug/libsimplelink.a(driver.o)
                0x0000000020012338                _SlDrvCmdSend
 .text._SlDrvWaitForPoolObj
                0x00000000200123ac      0x1a4 ../../../simplelink/gcc/lib/os/Debug/libsimplelink.a(driver.o)
                0x00000000200123ac                _SlDrvWaitForPoolObj
 .text._SlDrvReleasePoolObj
                0x0000000020012550      0x200 ../../../simplelink/gcc/lib/os/Debug/libsimplelink.a(driver.o)
                0x0000000020012550                _SlDrvReleasePoolObj
 .text._SlRemoveFromList
                0x0000000020012750       0xd0 ../../../simplelink/gcc/lib/os/Debug/libsimplelink.a(driver.o)
 .text._SlFindAndSetActiveObj
                0x0000000020012820      0x16c ../../../simplelink/gcc/lib/os/Debug/libsimplelink.a(driver.o)
 .text._SlDrvDispatchHttpServerEvents
                0x000000002001298c       0x1c ../../../simplelink/gcc/lib/os/Debug/libsimplelink.a(driver.o)
                0x000000002001298c                _SlDrvDispatchHttpServerEvents
 .text._SlDrvSyncObjSignal
                0x00000000200129a8       0x2c ../../../simplelink/gcc/lib/os/Debug/libsimplelink.a(driver.o)
                0x00000000200129a8                _SlDrvSyncObjSignal
 .text._SlDrvObjLockWaitForever
                0x00000000200129d4       0x30 ../../../simplelink/gcc/lib/os/Debug/libsimplelink.a(driver.o)
                0x00000000200129d4                _SlDrvObjLockWaitForever
 .text._SlDrvProtectionObjLockWaitForever
                0x0000000020012a04       0x38 ../../../simplelink/gcc/lib/os/Debug/libsimplelink.a(driver.o)
                0x0000000020012a04                _SlDrvProtectionObjLockWaitForever
 .text._SlDrvObjUnLock
                0x0000000020012a3c       0x2c ../../../simplelink/gcc/lib/os/Debug/libsimplelink.a(driver.o)
                0x0000000020012a3c                _SlDrvObjUnLock
 .text._SlDrvProtectionObjUnLock
                0x0000000020012a68       0x34 ../../../simplelink/gcc/lib/os/Debug/libsimplelink.a(driver.o)
                0x0000000020012a68                _SlDrvProtectionObjUnLock
 .text._SlDrvObjGlobalLockWaitForever
                0x0000000020012a9c       0x38 ../../../simplelink/gcc/lib/os/Debug/libsimplelink.a(driver.o)
 .text._SlDrvGlobalObjUnLock
                0x0000000020012ad4       0x34 ../../../simplelink/gcc/lib/os/Debug/libsimplelink.a(driver.o)
                0x0000000020012ad4                _SlDrvGlobalObjUnLock
 .text._SlDrvMemZero
                0x0000000020012b08       0x20 ../../../simplelink/gcc/lib/os/Debug/libsimplelink.a(driver.o)
                0x0000000020012b08                _SlDrvMemZero
 .text._SlDrvResetCmdExt
                0x0000000020012b28       0x18 ../../../simplelink/gcc/lib/os/Debug/libsimplelink.a(driver.o)
                0x0000000020012b28                _SlDrvResetCmdExt
 .text._SlDrvSyncObjWaitForever
                0x0000000020012b40       0x34 ../../../simplelink/gcc/lib/os/Debug/libsimplelink.a(driver.o)
                0x0000000020012b40                _SlDrvSyncObjWaitForever
 .text._SlDrvSyncObjWaitTimeout
                0x0000000020012b74       0x50 ../../../simplelink/gcc/lib/os/Debug/libsimplelink.a(driver.o)
                0x0000000020012b74                _SlDrvSyncObjWaitTimeout
 .text._SlDriverHandleError
                0x0000000020012bc4       0x98 ../../../simplelink/gcc/lib/os/Debug/libsimplelink.a(driver.o)
                0x0000000020012bc4                _SlDriverHandleError
 .text._SlDrvStartMeasureTimeout
                0x0000000020012c5c       0x30 ../../../simplelink/gcc/lib/os/Debug/libsimplelink.a(driver.o)
                0x0000000020012c5c                _SlDrvStartMeasureTimeout
 .text._SlDrvIsTimeoutExpired
                0x0000000020012c8c       0xa8 ../../../simplelink/gcc/lib/os/Debug/libsimplelink.a(driver.o)
                0x0000000020012c8c                _SlDrvIsTimeoutExpired
 .text.sl_NetAppMDNSRegisterUnregisterService
                0x0000000020012d34      0x140 ../../../simplelink/gcc/lib/os/Debug/libsimplelink.a(netapp.o)
                0x0000000020012d34                sl_NetAppMDNSRegisterUnregisterService
 .text.sl_NetAppMDNSUnRegisterService
                0x0000000020012e74       0x68 ../../../simplelink/gcc/lib/os/Debug/libsimplelink.a(netapp.o)
                0x0000000020012e74                sl_NetAppMDNSUnRegisterService
 .text._sl_HandleAsync_DnsGetHostByService
                0x0000000020012edc       0xd4 ../../../simplelink/gcc/lib/os/Debug/libsimplelink.a(netapp.o)
                0x0000000020012edc                _sl_HandleAsync_DnsGetHostByService
 .text.sl_NetAppDnsGetHostByName
                0x0000000020012fb0      0x16c ../../../simplelink/gcc/lib/os/Debug/libsimplelink.a(netapp.o)
                0x0000000020012fb0                sl_NetAppDnsGetHostByName
 .text._sl_HandleAsync_DnsGetHostByName
                0x000000002001311c       0xb8 ../../../simplelink/gcc/lib/os/Debug/libsimplelink.a(netapp.o)
                0x000000002001311c                _sl_HandleAsync_DnsGetHostByName
 .text.CopyPingResultsToReport
                0x00000000200131d4       0x44 ../../../simplelink/gcc/lib/os/Debug/libsimplelink.a(netapp.o)
 .text._sl_HandleAsync_PingResponse
                0x0000000020013218       0xb4 ../../../simplelink/gcc/lib/os/Debug/libsimplelink.a(netapp.o)
                0x0000000020013218                _sl_HandleAsync_PingResponse
 .text._sl_NetAppSendTokenValue
                0x00000000200132cc       0x7c ../../../simplelink/gcc/lib/os/Debug/libsimplelink.a(netapp.o)
                0x00000000200132cc                _sl_NetAppSendTokenValue
 .text._SlDrvNetAppEventHandler
                0x0000000020013348      0x134 ../../../simplelink/gcc/lib/os/Debug/libsimplelink.a(netapp.o)
                0x0000000020013348                _SlDrvNetAppEventHandler
 .text.sl_NetCfgSet
                0x000000002001347c       0xa0 ../../../simplelink/gcc/lib/os/Debug/libsimplelink.a(netcfg.o)
                0x000000002001347c                sl_NetCfgSet
 .text.sl_NetCfgGet
                0x000000002001351c       0xe8 ../../../simplelink/gcc/lib/os/Debug/libsimplelink.a(netcfg.o)
                0x000000002001351c                sl_NetCfgGet
 .text._sl_BuildAddress
                0x0000000020013604       0x58 ../../../simplelink/gcc/lib/os/Debug/libsimplelink.a(socket.o)
 .text._sl_TruncatePayloadByProtocol
                0x000000002001365c       0x40 ../../../simplelink/gcc/lib/os/Debug/libsimplelink.a(socket.o)
 .text.sl_Socket
                0x000000002001369c       0x8c ../../../simplelink/gcc/lib/os/Debug/libsimplelink.a(socket.o)
                0x000000002001369c                sl_Socket
 .text.sl_Close
                0x0000000020013728       0x68 ../../../simplelink/gcc/lib/os/Debug/libsimplelink.a(socket.o)
                0x0000000020013728                sl_Close
 .text.sl_Bind  0x0000000020013790       0xb4 ../../../simplelink/gcc/lib/os/Debug/libsimplelink.a(socket.o)
                0x0000000020013790                sl_Bind
 .text.sl_SendTo
                0x0000000020013844      0x148 ../../../simplelink/gcc/lib/os/Debug/libsimplelink.a(socket.o)
                0x0000000020013844                sl_SendTo
 .text.sl_RecvFrom
                0x000000002001398c      0x140 ../../../simplelink/gcc/lib/os/Debug/libsimplelink.a(socket.o)
                0x000000002001398c                sl_RecvFrom
 .text.sl_Connect
                0x0000000020013acc      0x194 ../../../simplelink/gcc/lib/os/Debug/libsimplelink.a(socket.o)
                0x0000000020013acc                sl_Connect
 .text._sl_HandleAsync_Connect
                0x0000000020013c60       0x9c ../../../simplelink/gcc/lib/os/Debug/libsimplelink.a(socket.o)
                0x0000000020013c60                _sl_HandleAsync_Connect
 .text.sl_Send  0x0000000020013cfc      0x134 ../../../simplelink/gcc/lib/os/Debug/libsimplelink.a(socket.o)
                0x0000000020013cfc                sl_Send
 .text.sl_Listen
                0x0000000020013e30       0x74 ../../../simplelink/gcc/lib/os/Debug/libsimplelink.a(socket.o)
                0x0000000020013e30                sl_Listen
 .text.sl_Accept
                0x0000000020013ea4      0x1c8 ../../../simplelink/gcc/lib/os/Debug/libsimplelink.a(socket.o)
                0x0000000020013ea4                sl_Accept
 .text.sl_Htonl
                0x000000002001406c       0x4c ../../../simplelink/gcc/lib/os/Debug/libsimplelink.a(socket.o)
                0x000000002001406c                sl_Htonl
 .text.sl_Htons
                0x00000000200140b8       0x40 ../../../simplelink/gcc/lib/os/Debug/libsimplelink.a(socket.o)
                0x00000000200140b8                sl_Htons
 .text._sl_HandleAsync_Accept
                0x00000000200140f8       0x80 ../../../simplelink/gcc/lib/os/Debug/libsimplelink.a(socket.o)
                0x00000000200140f8                _sl_HandleAsync_Accept
 .text._sl_HandleAsync_Select
                0x0000000020014178       0x6c ../../../simplelink/gcc/lib/os/Debug/libsimplelink.a(socket.o)
                0x0000000020014178                _sl_HandleAsync_Select
 .text.sl_Recv  0x00000000200141e4       0xa8 ../../../simplelink/gcc/lib/os/Debug/libsimplelink.a(socket.o)
                0x00000000200141e4                sl_Recv
 .text.sl_SetSockOpt
                0x000000002001428c       0xa0 ../../../simplelink/gcc/lib/os/Debug/libsimplelink.a(socket.o)
                0x000000002001428c                sl_SetSockOpt
 .text.sl_Select
                0x000000002001432c      0x180 ../../../simplelink/gcc/lib/os/Debug/libsimplelink.a(socket.o)
                0x000000002001432c                sl_Select
 .text.SL_FD_SET
                0x00000000200144ac       0x2c ../../../simplelink/gcc/lib/os/Debug/libsimplelink.a(socket.o)
                0x00000000200144ac                SL_FD_SET
 .text.SL_FD_ISSET
                0x00000000200144d8       0x34 ../../../simplelink/gcc/lib/os/Debug/libsimplelink.a(socket.o)
                0x00000000200144d8                SL_FD_ISSET
 .text.SL_FD_ZERO
                0x000000002001450c       0x18 ../../../simplelink/gcc/lib/os/Debug/libsimplelink.a(socket.o)
                0x000000002001450c                SL_FD_ZERO
 .text.sl_WlanConnect
                0x0000000020014524      0x2cc ../../../simplelink/gcc/lib/os/Debug/libsimplelink.a(wlan.o)
                0x0000000020014524                sl_WlanConnect
 .text.sl_WlanDisconnect
                0x00000000200147f0       0x40 ../../../simplelink/gcc/lib/os/Debug/libsimplelink.a(wlan.o)
                0x00000000200147f0                sl_WlanDisconnect
 .text.sl_WlanPolicySet
                0x0000000020014830       0x90 ../../../simplelink/gcc/lib/os/Debug/libsimplelink.a(wlan.o)
                0x0000000020014830                sl_WlanPolicySet
 .text.sl_WlanProfileDel
                0x00000000200148c0       0x68 ../../../simplelink/gcc/lib/os/Debug/libsimplelink.a(wlan.o)
                0x00000000200148c0                sl_WlanProfileDel
 .text.sl_WlanRxFilterSet
                0x0000000020014928       0x88 ../../../simplelink/gcc/lib/os/Debug/libsimplelink.a(wlan.o)
                0x0000000020014928                sl_WlanRxFilterSet
 .text.sl_WlanSetMode
                0x00000000200149b0       0x68 ../../../simplelink/gcc/lib/os/Debug/libsimplelink.a(wlan.o)
                0x00000000200149b0                sl_WlanSetMode
 .text.sl_WlanSet
                0x0000000020014a18       0x98 ../../../simplelink/gcc/lib/os/Debug/libsimplelink.a(wlan.o)
                0x0000000020014a18                sl_WlanSet
 .text.spi_Read_CPU
                0x0000000020014ab0       0x88 ../../../simplelink/gcc/lib/os/Debug/libsimplelink.a(cc_pal.o)
 .text.spi_Write_CPU
                0x0000000020014b38       0x84 ../../../simplelink/gcc/lib/os/Debug/libsimplelink.a(cc_pal.o)
 .text.DmaSpiSwIntHandler
                0x0000000020014bbc       0x30 ../../../simplelink/gcc/lib/os/Debug/libsimplelink.a(cc_pal.o)
                0x0000000020014bbc                DmaSpiSwIntHandler
 .text.SetupDMAReceive
                0x0000000020014bec       0x94 ../../../simplelink/gcc/lib/os/Debug/libsimplelink.a(cc_pal.o)
 .text.SetupDMASend
                0x0000000020014c80       0x94 ../../../simplelink/gcc/lib/os/Debug/libsimplelink.a(cc_pal.o)
 .text.spi_Open
                0x0000000020014d14      0x154 ../../../simplelink/gcc/lib/os/Debug/libsimplelink.a(cc_pal.o)
                0x0000000020014d14                spi_Open
 .text.spi_Close
                0x0000000020014e68       0x84 ../../../simplelink/gcc/lib/os/Debug/libsimplelink.a(cc_pal.o)
                0x0000000020014e68                spi_Close
 .text.spi_Read
                0x0000000020014eec       0xec ../../../simplelink/gcc/lib/os/Debug/libsimplelink.a(cc_pal.o)
                0x0000000020014eec                spi_Read
 .text.spi_Write
                0x0000000020014fd8       0x9c ../../../simplelink/gcc/lib/os/Debug/libsimplelink.a(cc_pal.o)
                0x0000000020014fd8                spi_Write
 .text.NwpRegisterInterruptHandler
                0x0000000020015074       0x34 ../../../simplelink/gcc/lib/os/Debug/libsimplelink.a(cc_pal.o)
                0x0000000020015074                NwpRegisterInterruptHandler
 .text.NwpMaskInterrupt
                0x00000000200150a8       0x18 ../../../simplelink/gcc/lib/os/Debug/libsimplelink.a(cc_pal.o)
                0x00000000200150a8                NwpMaskInterrupt
 .text.NwpUnMaskInterrupt
                0x00000000200150c0       0x18 ../../../simplelink/gcc/lib/os/Debug/libsimplelink.a(cc_pal.o)
                0x00000000200150c0                NwpUnMaskInterrupt
 .text.NwpPowerOnPreamble
                0x00000000200150d8       0x8c ../../../simplelink/gcc/lib/os/Debug/libsimplelink.a(cc_pal.o)
                0x00000000200150d8                NwpPowerOnPreamble
 .text.NwpPowerOn
                0x0000000020015164       0x3c ../../../simplelink/gcc/lib/os/Debug/libsimplelink.a(cc_pal.o)
                0x0000000020015164                NwpPowerOn
 .text.NwpPowerOff
                0x00000000200151a0       0x40 ../../../simplelink/gcc/lib/os/Debug/libsimplelink.a(cc_pal.o)
                0x00000000200151a0                NwpPowerOff
 .text.NwpPrePowerOffTimout0
                0x00000000200151e0       0x24 ../../../simplelink/gcc/lib/os/Debug/libsimplelink.a(cc_pal.o)
                0x00000000200151e0                NwpPrePowerOffTimout0
 .text.cc_UDMAChannelSelect
                0x0000000020015204       0x28 ../../../simplelink/gcc/lib/os/Debug/libsimplelink.a(cc_pal.o)
 .text.cc_SetupTransfer
                0x000000002001522c       0x4c ../../../simplelink/gcc/lib/os/Debug/libsimplelink.a(cc_pal.o)
 .text.simplelink_timerA2_start
                0x0000000020015278       0x40 ../../../simplelink/gcc/lib/os/Debug/libsimplelink.a(cc_pal.o)
                0x0000000020015278                simplelink_timerA2_start
 .text.TimerGetCurrentTimestamp
                0x00000000200152b8       0x28 ../../../simplelink/gcc/lib/os/Debug/libsimplelink.a(cc_pal.o)
                0x00000000200152b8                TimerGetCurrentTimestamp
 .text.osi_InterruptRegister
                0x00000000200152e0       0x38 ../../../oslib/gcc/free_rtos/Debug/free_rtos.a(osi_freertos.o)
                0x00000000200152e0                osi_InterruptRegister
 .text.osi_InterruptDeRegister
                0x0000000020015318       0x20 ../../../oslib/gcc/free_rtos/Debug/free_rtos.a(osi_freertos.o)
                0x0000000020015318                osi_InterruptDeRegister
 .text.osi_SyncObjCreate
                0x0000000020015338       0x40 ../../../oslib/gcc/free_rtos/Debug/free_rtos.a(osi_freertos.o)
                0x0000000020015338                osi_SyncObjCreate
 .text.osi_SyncObjDelete
                0x0000000020015378       0x28 ../../../oslib/gcc/free_rtos/Debug/free_rtos.a(osi_freertos.o)
                0x0000000020015378                osi_SyncObjDelete
 .text.osi_SyncObjSignal
                0x00000000200153a0       0x38 ../../../oslib/gcc/free_rtos/Debug/free_rtos.a(osi_freertos.o)
                0x00000000200153a0                osi_SyncObjSignal
 .text.osi_SyncObjSignalFromISR
                0x00000000200153d8       0x4c ../../../oslib/gcc/free_rtos/Debug/free_rtos.a(osi_freertos.o)
                0x00000000200153d8                osi_SyncObjSignalFromISR
 .text.osi_SyncObjWait
                0x0000000020015424       0x38 ../../../oslib/gcc/free_rtos/Debug/free_rtos.a(osi_freertos.o)
                0x0000000020015424                osi_SyncObjWait
 .text.osi_LockObjCreate
                0x000000002001545c       0x34 ../../../oslib/gcc/free_rtos/Debug/free_rtos.a(osi_freertos.o)
                0x000000002001545c                osi_LockObjCreate
 .text.osi_TaskCreate
                0x0000000020015490       0x48 ../../../oslib/gcc/free_rtos/Debug/free_rtos.a(osi_freertos.o)
                0x0000000020015490                osi_TaskCreate
 .text.osi_TaskDelete
                0x00000000200154d8       0x1c ../../../oslib/gcc/free_rtos/Debug/free_rtos.a(osi_freertos.o)
                0x00000000200154d8                osi_TaskDelete
 .text.osi_LockObjDelete
                0x00000000200154f4       0x20 ../../../oslib/gcc/free_rtos/Debug/free_rtos.a(osi_freertos.o)
                0x00000000200154f4                osi_LockObjDelete
 .text.osi_LockObjLock
                0x0000000020015514       0x38 ../../../oslib/gcc/free_rtos/Debug/free_rtos.a(osi_freertos.o)
                0x0000000020015514                osi_LockObjLock
 .text.osi_LockObjUnlock
                0x000000002001554c       0x38 ../../../oslib/gcc/free_rtos/Debug/free_rtos.a(osi_freertos.o)
                0x000000002001554c                osi_LockObjUnlock
 .text.osi_Spawn
                0x0000000020015584       0x54 ../../../oslib/gcc/free_rtos/Debug/free_rtos.a(osi_freertos.o)
                0x0000000020015584                osi_Spawn
 .text.vSimpleLinkSpawnTask
                0x00000000200155d8       0x34 ../../../oslib/gcc/free_rtos/Debug/free_rtos.a(osi_freertos.o)
 .text.VStartSimpleLinkSpawnTask
                0x000000002001560c       0x68 ../../../oslib/gcc/free_rtos/Debug/free_rtos.a(osi_freertos.o)
                0x000000002001560c                VStartSimpleLinkSpawnTask
 .text.osi_MsgQCreate
                0x0000000020015674       0x44 ../../../oslib/gcc/free_rtos/Debug/free_rtos.a(osi_freertos.o)
                0x0000000020015674                osi_MsgQCreate
 .text.osi_MsgQDelete
                0x00000000200156b8       0x28 ../../../oslib/gcc/free_rtos/Debug/free_rtos.a(osi_freertos.o)
                0x00000000200156b8                osi_MsgQDelete
 .text.osi_MsgQWrite
                0x00000000200156e0       0x44 ../../../oslib/gcc/free_rtos/Debug/free_rtos.a(osi_freertos.o)
                0x00000000200156e0                osi_MsgQWrite
 .text.osi_MsgQRead
                0x0000000020015724       0x48 ../../../oslib/gcc/free_rtos/Debug/free_rtos.a(osi_freertos.o)
                0x0000000020015724                osi_MsgQRead
 .text.osi_EnterCritical
                0x000000002001576c       0x10 ../../../oslib/gcc/free_rtos/Debug/free_rtos.a(osi_freertos.o)
                0x000000002001576c                osi_EnterCritical
 .text.osi_ExitCritical
                0x000000002001577c       0x14 ../../../oslib/gcc/free_rtos/Debug/free_rtos.a(osi_freertos.o)
                0x000000002001577c                osi_ExitCritical
 .text.osi_start
                0x0000000020015790        0xc ../../../oslib/gcc/free_rtos/Debug/free_rtos.a(osi_freertos.o)
                0x0000000020015790                osi_start
 .text.osi_Sleep
                0x000000002001579c       0x1c ../../../oslib/gcc/free_rtos/Debug/free_rtos.a(osi_freertos.o)
                0x000000002001579c                osi_Sleep
 .text.xQueueGenericReset
                0x00000000200157b8       0xb8 ../../../oslib/gcc/free_rtos/Debug/free_rtos.a(queue.o)
                0x00000000200157b8                xQueueGenericReset
 .text.xQueueGenericCreate
                0x0000000020015870       0xac ../../../oslib/gcc/free_rtos/Debug/free_rtos.a(queue.o)
                0x0000000020015870                xQueueGenericCreate
 .text.xQueueCreateMutex
                0x000000002001591c       0xa0 ../../../oslib/gcc/free_rtos/Debug/free_rtos.a(queue.o)
                0x000000002001591c                xQueueCreateMutex
 .text.xQueueGenericSend
                0x00000000200159bc      0x1b8 ../../../oslib/gcc/free_rtos/Debug/free_rtos.a(queue.o)
                0x00000000200159bc                xQueueGenericSend
 .text.xQueueGenericSendFromISR
                0x0000000020015b74      0x108 ../../../oslib/gcc/free_rtos/Debug/free_rtos.a(queue.o)
                0x0000000020015b74                xQueueGenericSendFromISR
 .text.xQueueGiveFromISR
                0x0000000020015c7c       0xf0 ../../../oslib/gcc/free_rtos/Debug/free_rtos.a(queue.o)
                0x0000000020015c7c                xQueueGiveFromISR
 .text.xQueueGenericReceive
                0x0000000020015d6c      0x1c8 ../../../oslib/gcc/free_rtos/Debug/free_rtos.a(queue.o)
                0x0000000020015d6c                xQueueGenericReceive
 .text.vQueueDelete
                0x0000000020015f34       0x34 ../../../oslib/gcc/free_rtos/Debug/free_rtos.a(queue.o)
                0x0000000020015f34                vQueueDelete
 .text.prvCopyDataToQueue
                0x0000000020015f68       0xd8 ../../../oslib/gcc/free_rtos/Debug/free_rtos.a(queue.o)
 .text.prvCopyDataFromQueue
                0x0000000020016040       0x4c ../../../oslib/gcc/free_rtos/Debug/free_rtos.a(queue.o)
 .text.prvUnlockQueue
                0x000000002001608c       0xb4 ../../../oslib/gcc/free_rtos/Debug/free_rtos.a(queue.o)
 .text.prvIsQueueEmpty
                0x0000000020016140       0x2c ../../../oslib/gcc/free_rtos/Debug/free_rtos.a(queue.o)
 .text.prvIsQueueFull
                0x000000002001616c       0x30 ../../../oslib/gcc/free_rtos/Debug/free_rtos.a(queue.o)
 .text.vQueueAddToRegistry
                0x000000002001619c       0x50 ../../../oslib/gcc/free_rtos/Debug/free_rtos.a(queue.o)
                0x000000002001619c                vQueueAddToRegistry
 .text.vQueueUnregisterQueue
                0x00000000200161ec       0x44 ../../../oslib/gcc/free_rtos/Debug/free_rtos.a(queue.o)
                0x00000000200161ec                vQueueUnregisterQueue
 .text.vQueueWaitForMessageRestricted
                0x0000000020016230       0x58 ../../../oslib/gcc/free_rtos/Debug/free_rtos.a(queue.o)
                0x0000000020016230                vQueueWaitForMessageRestricted
 .text.prvNotifyQueueSetContainer
                0x0000000020016288       0x94 ../../../oslib/gcc/free_rtos/Debug/free_rtos.a(queue.o)
 .text.xTaskGenericCreate
                0x000000002001631c      0x174 ../../../oslib/gcc/free_rtos/Debug/free_rtos.a(tasks.o)
                0x000000002001631c                xTaskGenericCreate
 .text.vTaskDelete
                0x0000000020016490       0xf0 ../../../oslib/gcc/free_rtos/Debug/free_rtos.a(tasks.o)
                0x0000000020016490                vTaskDelete
 .text.vTaskDelay
                0x0000000020016580       0x90 ../../../oslib/gcc/free_rtos/Debug/free_rtos.a(tasks.o)
                0x0000000020016580                vTaskDelay
 .text.vTaskStartScheduler
                0x0000000020016610       0x7c ../../../oslib/gcc/free_rtos/Debug/free_rtos.a(tasks.o)
                0x0000000020016610                vTaskStartScheduler
 .text.vTaskSuspendAll
                0x000000002001668c       0x1c ../../../oslib/gcc/free_rtos/Debug/free_rtos.a(tasks.o)
                0x000000002001668c                vTaskSuspendAll
 .text.xTaskResumeAll
                0x00000000200166a8      0x110 ../../../oslib/gcc/free_rtos/Debug/free_rtos.a(tasks.o)
                0x00000000200166a8                xTaskResumeAll
 .text.xTaskGetTickCount
                0x00000000200167b8       0x1c ../../../oslib/gcc/free_rtos/Debug/free_rtos.a(tasks.o)
                0x00000000200167b8                xTaskGetTickCount
 .text.xTaskIncrementTick
                0x00000000200167d4      0x154 ../../../oslib/gcc/free_rtos/Debug/free_rtos.a(tasks.o)
                0x00000000200167d4                xTaskIncrementTick
 .text.vTaskSwitchContext
                0x0000000020016928       0xf8 ../../../oslib/gcc/free_rtos/Debug/free_rtos.a(tasks.o)
                0x0000000020016928                vTaskSwitchContext
 .text.vTaskPlaceOnEventList
                0x0000000020016a20       0x98 ../../../oslib/gcc/free_rtos/Debug/free_rtos.a(tasks.o)
                0x0000000020016a20                vTaskPlaceOnEventList
 .text.vTaskPlaceOnEventListRestricted
                0x0000000020016ab8       0x7c ../../../oslib/gcc/free_rtos/Debug/free_rtos.a(tasks.o)
                0x0000000020016ab8                vTaskPlaceOnEventListRestricted
 .text.xTaskRemoveFromEventList
                0x0000000020016b34       0xbc ../../../oslib/gcc/free_rtos/Debug/free_rtos.a(tasks.o)
                0x0000000020016b34                xTaskRemoveFromEventList
 .text.vTaskSetTimeOutState
                0x0000000020016bf0       0x3c ../../../oslib/gcc/free_rtos/Debug/free_rtos.a(tasks.o)
                0x0000000020016bf0                vTaskSetTimeOutState
 .text.xTaskCheckForTimeOut
                0x0000000020016c2c       0xac ../../../oslib/gcc/free_rtos/Debug/free_rtos.a(tasks.o)
                0x0000000020016c2c                xTaskCheckForTimeOut
 .text.vTaskMissedYield
                0x0000000020016cd8       0x18 ../../../oslib/gcc/free_rtos/Debug/free_rtos.a(tasks.o)
                0x0000000020016cd8                vTaskMissedYield
 .text.prvIdleTask
                0x0000000020016cf0       0x14 ../../../oslib/gcc/free_rtos/Debug/free_rtos.a(tasks.o)
 .text.prvInitialiseTCBVariables
                0x0000000020016d04       0xa8 ../../../oslib/gcc/free_rtos/Debug/free_rtos.a(tasks.o)
 .text.prvInitialiseTaskLists
                0x0000000020016dac       0x80 ../../../oslib/gcc/free_rtos/Debug/free_rtos.a(tasks.o)
 .text.prvCheckTasksWaitingTermination
                0x0000000020016e2c       0x78 ../../../oslib/gcc/free_rtos/Debug/free_rtos.a(tasks.o)
 .text.prvAddCurrentTaskToDelayedList
                0x0000000020016ea4       0x6c ../../../oslib/gcc/free_rtos/Debug/free_rtos.a(tasks.o)
 .text.prvAllocateTCBAndStack
                0x0000000020016f10       0x6c ../../../oslib/gcc/free_rtos/Debug/free_rtos.a(tasks.o)
 .text.prvDeleteTCB
                0x0000000020016f7c       0x20 ../../../oslib/gcc/free_rtos/Debug/free_rtos.a(tasks.o)
 .text.prvResetNextTaskUnblockTime
                0x0000000020016f9c       0x48 ../../../oslib/gcc/free_rtos/Debug/free_rtos.a(tasks.o)
 .text.xTaskGetSchedulerState
                0x0000000020016fe4       0x3c ../../../oslib/gcc/free_rtos/Debug/free_rtos.a(tasks.o)
                0x0000000020016fe4                xTaskGetSchedulerState
 .text.vTaskPriorityInherit
                0x0000000020017020       0xec ../../../oslib/gcc/free_rtos/Debug/free_rtos.a(tasks.o)
                0x0000000020017020                vTaskPriorityInherit
 .text.xTaskPriorityDisinherit
                0x000000002001710c       0xf8 ../../../oslib/gcc/free_rtos/Debug/free_rtos.a(tasks.o)
                0x000000002001710c                xTaskPriorityDisinherit
 .text.pvTaskIncrementMutexHeldCount
                0x0000000020017204       0x28 ../../../oslib/gcc/free_rtos/Debug/free_rtos.a(tasks.o)
                0x0000000020017204                pvTaskIncrementMutexHeldCount
 .text.pxPortInitialiseStack
                0x000000002001722c       0x54 ../../../oslib/gcc/free_rtos/Debug/free_rtos.a(port.o)
                0x000000002001722c                pxPortInitialiseStack
 .text.prvTaskExitError
                0x0000000020017280       0x24 ../../../oslib/gcc/free_rtos/Debug/free_rtos.a(port.o)
 .text.vPortSVCHandler
                0x00000000200172a4       0x28 ../../../oslib/gcc/free_rtos/Debug/free_rtos.a(port.o)
                0x00000000200172a4                vPortSVCHandler
 .text.prvPortStartFirstTask
                0x00000000200172cc       0x20 ../../../oslib/gcc/free_rtos/Debug/free_rtos.a(port.o)
 .text.xPortStartScheduler
                0x00000000200172ec       0xbc ../../../oslib/gcc/free_rtos/Debug/free_rtos.a(port.o)
                0x00000000200172ec                xPortStartScheduler
 .text.vPortYield
                0x00000000200173a8       0x20 ../../../oslib/gcc/free_rtos/Debug/free_rtos.a(port.o)
                0x00000000200173a8                vPortYield
 .text.vPortEnterCritical
                0x00000000200173c8       0x48 ../../../oslib/gcc/free_rtos/Debug/free_rtos.a(port.o)
                0x00000000200173c8                vPortEnterCritical
 .text.vPortExitCritical
                0x0000000020017410       0x3c ../../../oslib/gcc/free_rtos/Debug/free_rtos.a(port.o)
                0x0000000020017410                vPortExitCritical
 .text.ulPortSetInterruptMask
                0x000000002001744c       0x14 ../../../oslib/gcc/free_rtos/Debug/free_rtos.a(port.o)
                0x000000002001744c                ulPortSetInterruptMask
 .text.vPortClearInterruptMask
                0x0000000020017460        0x8 ../../../oslib/gcc/free_rtos/Debug/free_rtos.a(port.o)
                0x0000000020017460                vPortClearInterruptMask
 .text.xPortPendSVHandler
                0x0000000020017468       0x48 ../../../oslib/gcc/free_rtos/Debug/free_rtos.a(port.o)
                0x0000000020017468                xPortPendSVHandler
 .text.xPortSysTickHandler
                0x00000000200174b0       0x28 ../../../oslib/gcc/free_rtos/Debug/free_rtos.a(port.o)
                0x00000000200174b0                xPortSysTickHandler
 .text.vPortSetupTimerInterrupt
                0x00000000200174d8       0x24 ../../../oslib/gcc/free_rtos/Debug/free_rtos.a(port.o)
                0x00000000200174d8                vPortSetupTimerInterrupt
 .text.vPortValidateInterruptPriority
                0x00000000200174fc       0x68 ../../../oslib/gcc/free_rtos/Debug/free_rtos.a(port.o)
                0x00000000200174fc                vPortValidateInterruptPriority
 .text.xTimerCreateTimerTask
                0x0000000020017564       0x64 ../../../oslib/gcc/free_rtos/Debug/free_rtos.a(timers.o)
                0x0000000020017564                xTimerCreateTimerTask
 .text.xTimerGenericCommand
                0x00000000200175c8       0x80 ../../../oslib/gcc/free_rtos/Debug/free_rtos.a(timers.o)
                0x00000000200175c8                xTimerGenericCommand
 .text.prvProcessExpiredTimer
                0x0000000020017648       0x78 ../../../oslib/gcc/free_rtos/Debug/free_rtos.a(timers.o)
 .text.prvTimerTask
                0x00000000200176c0       0x24 ../../../oslib/gcc/free_rtos/Debug/free_rtos.a(timers.o)
 .text.prvProcessTimerOrBlockTask
                0x00000000200176e4       0x6c ../../../oslib/gcc/free_rtos/Debug/free_rtos.a(timers.o)
 .text.prvGetNextExpireTime
                0x0000000020017750       0x48 ../../../oslib/gcc/free_rtos/Debug/free_rtos.a(timers.o)
 .text.prvSampleTimeNow
                0x0000000020017798       0x40 ../../../oslib/gcc/free_rtos/Debug/free_rtos.a(timers.o)
 .text.prvInsertTimerInActiveList
                0x00000000200177d8       0x84 ../../../oslib/gcc/free_rtos/Debug/free_rtos.a(timers.o)
 .text.prvProcessReceivedCommands
                0x000000002001785c      0x140 ../../../oslib/gcc/free_rtos/Debug/free_rtos.a(timers.o)
 .text.prvSwitchTimerLists
                0x000000002001799c       0xbc ../../../oslib/gcc/free_rtos/Debug/free_rtos.a(timers.o)
 .text.prvCheckForValidListAndQueue
                0x0000000020017a58       0x84 ../../../oslib/gcc/free_rtos/Debug/free_rtos.a(timers.o)
 .text.pvPortMalloc
                0x0000000020017adc       0x30 ../../../oslib/gcc/free_rtos/Debug/free_rtos.a(heap_3.o)
                0x0000000020017adc                pvPortMalloc
 .text.vPortFree
                0x0000000020017b0c       0x24 ../../../oslib/gcc/free_rtos/Debug/free_rtos.a(heap_3.o)
                0x0000000020017b0c                vPortFree
 .text.vListInitialise
                0x0000000020017b30       0x40 ../../../oslib/gcc/free_rtos/Debug/free_rtos.a(list.o)
                0x0000000020017b30                vListInitialise
 .text.vListInitialiseItem
                0x0000000020017b70       0x18 ../../../oslib/gcc/free_rtos/Debug/free_rtos.a(list.o)
                0x0000000020017b70                vListInitialiseItem
 .text.vListInsertEnd
                0x0000000020017b88       0x48 ../../../oslib/gcc/free_rtos/Debug/free_rtos.a(list.o)
                0x0000000020017b88                vListInsertEnd
 .text.vListInsert
                0x0000000020017bd0       0x70 ../../../oslib/gcc/free_rtos/Debug/free_rtos.a(list.o)
                0x0000000020017bd0                vListInsert
 .text.uxListRemove
                0x0000000020017c40       0x54 ../../../oslib/gcc/free_rtos/Debug/free_rtos.a(list.o)
                0x0000000020017c40                uxListRemove
 .text.GPIODirModeSet
                0x0000000020017c94       0x48 ../../../driverlib/gcc/lib/Debug/libdriver.a(gpio.o)
                0x0000000020017c94                GPIODirModeSet
 .text.GPIOIntTypeSet
                0x0000000020017cdc       0xa8 ../../../driverlib/gcc/lib/Debug/libdriver.a(gpio.o)
                0x0000000020017cdc                GPIOIntTypeSet
 .text.GPIOIntEnable
                0x0000000020017d84       0x2c ../../../driverlib/gcc/lib/Debug/libdriver.a(gpio.o)
                0x0000000020017d84                GPIOIntEnable
 .text.GPIOIntDisable
                0x0000000020017db0       0x2c ../../../driverlib/gcc/lib/Debug/libdriver.a(gpio.o)
                0x0000000020017db0                GPIOIntDisable
 .text.GPIOIntStatus
                0x0000000020017ddc       0x30 ../../../driverlib/gcc/lib/Debug/libdriver.a(gpio.o)
                0x0000000020017ddc                GPIOIntStatus
 .text.GPIOIntClear
                0x0000000020017e0c       0x20 ../../../driverlib/gcc/lib/Debug/libdriver.a(gpio.o)
                0x0000000020017e0c                GPIOIntClear
 .text.GPIOPinWrite
                0x0000000020017e2c       0x2c ../../../driverlib/gcc/lib/Debug/libdriver.a(gpio.o)
                0x0000000020017e2c                GPIOPinWrite
 .text.IntDefaultHandler
                0x0000000020017e58        0x8 ../../../driverlib/gcc/lib/Debug/libdriver.a(interrupt.o)
 .text.IntMasterEnable
                0x0000000020017e60       0x10 ../../../driverlib/gcc/lib/Debug/libdriver.a(interrupt.o)
                0x0000000020017e60                IntMasterEnable
 .text.IntVTableBaseSet
                0x0000000020017e70       0x1c ../../../driverlib/gcc/lib/Debug/libdriver.a(interrupt.o)
                0x0000000020017e70                IntVTableBaseSet
 .text.IntRegister
                0x0000000020017e8c       0x2c ../../../driverlib/gcc/lib/Debug/libdriver.a(interrupt.o)
                0x0000000020017e8c                IntRegister
 .text.IntUnregister
                0x0000000020017eb8       0x2c ../../../driverlib/gcc/lib/Debug/libdriver.a(interrupt.o)
                0x0000000020017eb8                IntUnregister
 .text.IntPrioritySet
                0x0000000020017ee4       0x68 ../../../driverlib/gcc/lib/Debug/libdriver.a(interrupt.o)
                0x0000000020017ee4                IntPrioritySet
 .text.IntEnable
                0x0000000020017f4c       0xbc ../../../driverlib/gcc/lib/Debug/libdriver.a(interrupt.o)
                0x0000000020017f4c                IntEnable
 .text.IntDisable
                0x0000000020018008       0xbc ../../../driverlib/gcc/lib/Debug/libdriver.a(interrupt.o)
                0x0000000020018008                IntDisable
 .text.IntPendClear
                0x00000000200180c4       0x68 ../../../driverlib/gcc/lib/Debug/libdriver.a(interrupt.o)
                0x00000000200180c4                IntPendClear
 .text.PinModeSet
                0x000000002001812c       0x48 ../../../driverlib/gcc/lib/Debug/libdriver.a(pin.o)
                0x000000002001812c                PinModeSet
 .text.PinConfigSet
                0x0000000020018174       0x98 ../../../driverlib/gcc/lib/Debug/libdriver.a(pin.o)
                0x0000000020018174                PinConfigSet
 .text.PinTypeUART
                0x000000002001820c       0x24 ../../../driverlib/gcc/lib/Debug/libdriver.a(pin.o)
                0x000000002001820c                PinTypeUART
 .text.PinTypeGPIO
                0x0000000020018230       0x3c ../../../driverlib/gcc/lib/Debug/libdriver.a(pin.o)
                0x0000000020018230                PinTypeGPIO
 .text.RTCUseSet
                0x000000002001826c       0x30 ../../../driverlib/gcc/lib/Debug/libdriver.a(prcm.o)
 .text.IsRTCUsed
                0x000000002001829c       0x28 ../../../driverlib/gcc/lib/Debug/libdriver.a(prcm.o)
 .text.RTCU16MSecRegRead
                0x00000000200182c4       0x28 ../../../driverlib/gcc/lib/Debug/libdriver.a(prcm.o)
 .text.RTCU32SecRegRead
                0x00000000200182ec       0x14 ../../../driverlib/gcc/lib/Debug/libdriver.a(prcm.o)
 .text.PRCMSysResetCauseGet
                0x0000000020018300       0x3c ../../../driverlib/gcc/lib/Debug/libdriver.a(prcm.o)
                0x0000000020018300                PRCMSysResetCauseGet
 .text.PRCMPeripheralClkEnable
                0x000000002001833c       0x5c ../../../driverlib/gcc/lib/Debug/libdriver.a(prcm.o)
                0x000000002001833c                PRCMPeripheralClkEnable
 .text.PRCMPeripheralClkDisable
                0x0000000020018398       0x44 ../../../driverlib/gcc/lib/Debug/libdriver.a(prcm.o)
                0x0000000020018398                PRCMPeripheralClkDisable
 .text.PRCMPeripheralClockGet
                0x00000000200183dc       0xa8 ../../../driverlib/gcc/lib/Debug/libdriver.a(prcm.o)
                0x00000000200183dc                PRCMPeripheralClockGet
 .text.PRCMPeripheralReset
                0x0000000020018484       0x8c ../../../driverlib/gcc/lib/Debug/libdriver.a(prcm.o)
                0x0000000020018484                PRCMPeripheralReset
 .text.PRCMPeripheralStatusGet
                0x0000000020018510       0x40 ../../../driverlib/gcc/lib/Debug/libdriver.a(prcm.o)
                0x0000000020018510                PRCMPeripheralStatusGet
 .text.PRCMSlowClkCtrGet
                0x0000000020018550       0x64 ../../../driverlib/gcc/lib/Debug/libdriver.a(prcm.o)
                0x0000000020018550                PRCMSlowClkCtrGet
 .text.PRCMRTCInUseSet
                0x00000000200185b4        0xc ../../../driverlib/gcc/lib/Debug/libdriver.a(prcm.o)
                0x00000000200185b4                PRCMRTCInUseSet
 .text.PRCMRTCGet
                0x00000000200185c0       0xb0 ../../../driverlib/gcc/lib/Debug/libdriver.a(prcm.o)
                0x00000000200185c0                PRCMRTCGet
 .text.PRCMCC3200MCUInit
                0x0000000020018670      0x1a0 ../../../driverlib/gcc/lib/Debug/libdriver.a(prcm.o)
                0x0000000020018670                PRCMCC3200MCUInit
 .text.PRCMHIBRegRead
                0x0000000020018810       0x20 ../../../driverlib/gcc/lib/Debug/libdriver.a(prcm.o)
                0x0000000020018810                PRCMHIBRegRead
 .text.PRCMHIBRegWrite
                0x0000000020018830       0x20 ../../../driverlib/gcc/lib/Debug/libdriver.a(prcm.o)
                0x0000000020018830                PRCMHIBRegWrite
 .text.SPIDmaMaskGet
                0x0000000020018850       0x48 ../../../driverlib/gcc/lib/Debug/libdriver.a(spi.o)
 .text.SPIEnable
                0x0000000020018898       0x28 ../../../driverlib/gcc/lib/Debug/libdriver.a(spi.o)
                0x0000000020018898                SPIEnable
 .text.SPIDisable
                0x00000000200188c0       0x28 ../../../driverlib/gcc/lib/Debug/libdriver.a(spi.o)
                0x00000000200188c0                SPIDisable
 .text.SPIDmaEnable
                0x00000000200188e8       0x2c ../../../driverlib/gcc/lib/Debug/libdriver.a(spi.o)
                0x00000000200188e8                SPIDmaEnable
 .text.SPIDmaDisable
                0x0000000020018914       0x2c ../../../driverlib/gcc/lib/Debug/libdriver.a(spi.o)
                0x0000000020018914                SPIDmaDisable
 .text.SPIReset
                0x0000000020018940       0x3c ../../../driverlib/gcc/lib/Debug/libdriver.a(spi.o)
                0x0000000020018940                SPIReset
 .text.SPIConfigSetExpClk
                0x000000002001897c       0xb8 ../../../driverlib/gcc/lib/Debug/libdriver.a(spi.o)
                0x000000002001897c                SPIConfigSetExpClk
 .text.SPIFIFOEnable
                0x0000000020018a34       0x2c ../../../driverlib/gcc/lib/Debug/libdriver.a(spi.o)
                0x0000000020018a34                SPIFIFOEnable
 .text.SPIFIFODisable
                0x0000000020018a60       0x2c ../../../driverlib/gcc/lib/Debug/libdriver.a(spi.o)
                0x0000000020018a60                SPIFIFODisable
 .text.SPIFIFOLevelSet
                0x0000000020018a8c       0x44 ../../../driverlib/gcc/lib/Debug/libdriver.a(spi.o)
                0x0000000020018a8c                SPIFIFOLevelSet
 .text.SPIWordCountSet
                0x0000000020018ad0       0x34 ../../../driverlib/gcc/lib/Debug/libdriver.a(spi.o)
                0x0000000020018ad0                SPIWordCountSet
 .text.SPIIntEnable
                0x0000000020018b04       0x6c ../../../driverlib/gcc/lib/Debug/libdriver.a(spi.o)
                0x0000000020018b04                SPIIntEnable
 .text.SPIIntClear
                0x0000000020018b70       0x60 ../../../driverlib/gcc/lib/Debug/libdriver.a(spi.o)
                0x0000000020018b70                SPIIntClear
 .text.SPICSEnable
                0x0000000020018bd0       0x28 ../../../driverlib/gcc/lib/Debug/libdriver.a(spi.o)
                0x0000000020018bd0                SPICSEnable
 .text.SPICSDisable
                0x0000000020018bf8       0x28 ../../../driverlib/gcc/lib/Debug/libdriver.a(spi.o)
                0x0000000020018bf8                SPICSDisable
 .text.TimerEnable
                0x0000000020018c20       0x2c ../../../driverlib/gcc/lib/Debug/libdriver.a(timer.o)
                0x0000000020018c20                TimerEnable
 .text.TimerDisable
                0x0000000020018c4c       0x30 ../../../driverlib/gcc/lib/Debug/libdriver.a(timer.o)
                0x0000000020018c4c                TimerDisable
 .text.TimerConfigure
                0x0000000020018c7c       0x58 ../../../driverlib/gcc/lib/Debug/libdriver.a(timer.o)
                0x0000000020018c7c                TimerConfigure
 .text.TimerPrescaleSet
                0x0000000020018cd4       0x3c ../../../driverlib/gcc/lib/Debug/libdriver.a(timer.o)
                0x0000000020018cd4                TimerPrescaleSet
 .text.TimerLoadSet
                0x0000000020018d10       0x3c ../../../driverlib/gcc/lib/Debug/libdriver.a(timer.o)
                0x0000000020018d10                TimerLoadSet
 .text.TimerValueGet
                0x0000000020018d4c       0x28 ../../../driverlib/gcc/lib/Debug/libdriver.a(timer.o)
                0x0000000020018d4c                TimerValueGet
 .text.TimerIntUnregister
                0x0000000020018d74       0x78 ../../../driverlib/gcc/lib/Debug/libdriver.a(timer.o)
                0x0000000020018d74                TimerIntUnregister
 .text.TimerIntEnable
                0x0000000020018dec       0x28 ../../../driverlib/gcc/lib/Debug/libdriver.a(timer.o)
                0x0000000020018dec                TimerIntEnable
 .text.TimerIntDisable
                0x0000000020018e14       0x28 ../../../driverlib/gcc/lib/Debug/libdriver.a(timer.o)
                0x0000000020018e14                TimerIntDisable
 .text.TimerIntStatus
                0x0000000020018e3c       0x2c ../../../driverlib/gcc/lib/Debug/libdriver.a(timer.o)
                0x0000000020018e3c                TimerIntStatus
 .text.TimerIntClear
                0x0000000020018e68       0x20 ../../../driverlib/gcc/lib/Debug/libdriver.a(timer.o)
                0x0000000020018e68                TimerIntClear
 .text.UARTConfigSetExpClk
                0x0000000020018e88       0x98 ../../../driverlib/gcc/lib/Debug/libdriver.a(uart.o)
                0x0000000020018e88                UARTConfigSetExpClk
 .text.UARTEnable
                0x0000000020018f20       0x3c ../../../driverlib/gcc/lib/Debug/libdriver.a(uart.o)
                0x0000000020018f20                UARTEnable
 .text.UARTDisable
                0x0000000020018f5c       0x4c ../../../driverlib/gcc/lib/Debug/libdriver.a(uart.o)
                0x0000000020018f5c                UARTDisable
 .text.UARTCharsAvail
                0x0000000020018fa8       0x28 ../../../driverlib/gcc/lib/Debug/libdriver.a(uart.o)
                0x0000000020018fa8                UARTCharsAvail
 .text.UARTCharGetNonBlocking
                0x0000000020018fd0       0x2c ../../../driverlib/gcc/lib/Debug/libdriver.a(uart.o)
                0x0000000020018fd0                UARTCharGetNonBlocking
 .text.UARTCharPut
                0x0000000020018ffc       0x2c ../../../driverlib/gcc/lib/Debug/libdriver.a(uart.o)
                0x0000000020018ffc                UARTCharPut
 .text.uDMAChannelEnable
                0x0000000020019028       0x28 ../../../driverlib/gcc/lib/Debug/libdriver.a(udma.o)
                0x0000000020019028                uDMAChannelEnable
 .text.uDMAChannelAttributeEnable
                0x0000000020019050       0x84 ../../../driverlib/gcc/lib/Debug/libdriver.a(udma.o)
                0x0000000020019050                uDMAChannelAttributeEnable
 .text.uDMAChannelAttributeDisable
                0x00000000200190d4       0x84 ../../../driverlib/gcc/lib/Debug/libdriver.a(udma.o)
                0x00000000200190d4                uDMAChannelAttributeDisable
 .text.uDMAChannelControlSet
                0x0000000020019158       0x48 ../../../driverlib/gcc/lib/Debug/libdriver.a(udma.o)
                0x0000000020019158                uDMAChannelControlSet
 .text.uDMAChannelTransferSet
                0x00000000200191a0      0x104 ../../../driverlib/gcc/lib/Debug/libdriver.a(udma.o)
                0x00000000200191a0                uDMAChannelTransferSet
 .text.uDMAChannelAssign
                0x00000000200192a4       0x58 ../../../driverlib/gcc/lib/Debug/libdriver.a(udma.o)
                0x00000000200192a4                uDMAChannelAssign
 .text.UtilsDelay
                0x00000000200192fc        0xc ../../../driverlib/gcc/lib/Debug/libdriver.a(utils.o)
                0x00000000200192fc                UtilsDelay
 .text.CPUcpsie
                0x0000000020019308       0x18 ../../../driverlib/gcc/lib/Debug/libdriver.a(cpu.o)
                0x0000000020019308                CPUcpsie
 .text.atoi     0x0000000020019320        0x8 /usr/lib/gcc/arm-none-eabi/5.2.0/../../../../arm-none-eabi/lib/armv7e-m/libc_nano.a(lib_a-atoi.o)
                0x0000000020019320                atoi
 .text.malloc   0x0000000020019328       0x10 /usr/lib/gcc/arm-none-eabi/5.2.0/../../../../arm-none-eabi/lib/armv7e-m/libc_nano.a(lib_a-malloc.o)
                0x0000000020019328                malloc
 .text.free     0x0000000020019338       0x10 /usr/lib/gcc/arm-none-eabi/5.2.0/../../../../arm-none-eabi/lib/armv7e-m/libc_nano.a(lib_a-malloc.o)
                0x0000000020019338                free
 .text.memcmp   0x0000000020019348       0x1e /usr/lib/gcc/arm-none-eabi/5.2.0/../../../../arm-none-eabi/lib/armv7e-m/libc_nano.a(lib_a-memcmp.o)
                0x0000000020019348                memcmp
 .text.memcpy   0x0000000020019366       0x16 /usr/lib/gcc/arm-none-eabi/5.2.0/../../../../arm-none-eabi/lib/armv7e-m/libc_nano.a(lib_a-memcpy.o)
                0x0000000020019366                memcpy
 .text.memmove  0x000000002001937c       0x36 /usr/lib/gcc/arm-none-eabi/5.2.0/../../../../arm-none-eabi/lib/armv7e-m/libc_nano.a(lib_a-memmove.o)
                0x000000002001937c                memmove
 .text.memset   0x00000000200193b2       0x10 /usr/lib/gcc/arm-none-eabi/5.2.0/../../../../arm-none-eabi/lib/armv7e-m/libc_nano.a(lib_a-memset.o)
                0x00000000200193b2                memset
 *fill*         0x00000000200193c2        0x2 
 .text._free_r  0x00000000200193c4       0x8c /usr/lib/gcc/arm-none-eabi/5.2.0/../../../../arm-none-eabi/lib/armv7e-m/libc_nano.a(lib_a-nano-freer.o)
                0x00000000200193c4                _free_r
 .text._malloc_r
                0x0000000020019450       0xa8 /usr/lib/gcc/arm-none-eabi/5.2.0/../../../../arm-none-eabi/lib/armv7e-m/libc_nano.a(lib_a-nano-mallocr.o)
                0x0000000020019450                _malloc_r
 .text.realloc  0x00000000200194f8       0x10 /usr/lib/gcc/arm-none-eabi/5.2.0/../../../../arm-none-eabi/lib/armv7e-m/libc_nano.a(lib_a-realloc.o)
                0x00000000200194f8                realloc
 .text._sbrk_r  0x0000000020019508       0x20 /usr/lib/gcc/arm-none-eabi/5.2.0/../../../../arm-none-eabi/lib/armv7e-m/libc_nano.a(lib_a-sbrkr.o)
                0x0000000020019508                _sbrk_r
 .text          0x0000000020019528       0x14 /usr/lib/gcc/arm-none-eabi/5.2.0/../../../../arm-none-eabi/lib/armv7e-m/libc_nano.a(lib_a-strcmp.o)
                0x0000000020019528                strcmp
 .text.strcpy   0x000000002001953c       0x10 /usr/lib/gcc/arm-none-eabi/5.2.0/../../../../arm-none-eabi/lib/armv7e-m/libc_nano.a(lib_a-strcpy.o)
                0x000000002001953c                strcpy
 .text.strlen   0x000000002001954c       0x10 /usr/lib/gcc/arm-none-eabi/5.2.0/../../../../arm-none-eabi/lib/armv7e-m/libc_nano.a(lib_a-strlen.o)
                0x000000002001954c                strlen
 .text.strncmp  0x000000002001955c       0x2a /usr/lib/gcc/arm-none-eabi/5.2.0/../../../../arm-none-eabi/lib/armv7e-m/libc_nano.a(lib_a-strncmp.o)
                0x000000002001955c                strncmp
 .text.strncpy  0x0000000020019586       0x26 /usr/lib/gcc/arm-none-eabi/5.2.0/../../../../arm-none-eabi/lib/armv7e-m/libc_nano.a(lib_a-strncpy.o)
                0x0000000020019586                strncpy
 .text.strtok   0x00000000200195ac       0x64 /usr/lib/gcc/arm-none-eabi/5.2.0/../../../../arm-none-eabi/lib/armv7e-m/libc_nano.a(lib_a-strtok.o)
                0x00000000200195ac                strtok
 .text.__strtok_r
                0x0000000020019610       0x56 /usr/lib/gcc/arm-none-eabi/5.2.0/../../../../arm-none-eabi/lib/armv7e-m/libc_nano.a(lib_a-strtok_r.o)
                0x0000000020019610                __strtok_r
 *fill*         0x0000000020019666        0x2 
 .text._strtol_r
                0x0000000020019668      0x10c /usr/lib/gcc/arm-none-eabi/5.2.0/../../../../arm-none-eabi/lib/armv7e-m/libc_nano.a(lib_a-strtol.o)
                0x0000000020019668                _strtol_r
 .text.strtol   0x0000000020019774       0x14 /usr/lib/gcc/arm-none-eabi/5.2.0/../../../../arm-none-eabi/lib/armv7e-m/libc_nano.a(lib_a-strtol.o)
                0x0000000020019774                strtol
 .text._vsnprintf_r
                0x0000000020019788       0x56 /usr/lib/gcc/arm-none-eabi/5.2.0/../../../../arm-none-eabi/lib/armv7e-m/libc_nano.a(lib_a-vsnprintf.o)
                0x0000000020019788                _vsnprintf_r
                0x0000000020019788                _vsniprintf_r
 *fill*         0x00000000200197de        0x2 
 .text.vsnprintf
                0x00000000200197e0       0x1c /usr/lib/gcc/arm-none-eabi/5.2.0/../../../../arm-none-eabi/lib/armv7e-m/libc_nano.a(lib_a-vsnprintf.o)
                0x00000000200197e0                vsnprintf
                0x00000000200197e0                vsniprintf
 .text._realloc_r
                0x00000000200197fc       0x4c /usr/lib/gcc/arm-none-eabi/5.2.0/../../../../arm-none-eabi/lib/armv7e-m/libc_nano.a(lib_a-nano-reallocr.o)
                0x00000000200197fc                _realloc_r
 .text.__ssputs_r
                0x0000000020019848       0xb2 /usr/lib/gcc/arm-none-eabi/5.2.0/../../../../arm-none-eabi/lib/armv7e-m/libc_nano.a(lib_a-nano-svfprintf.o)
                0x0000000020019848                __ssputs_r
 *fill*         0x00000000200198fa        0x2 
 .text._svfprintf_r
                0x00000000200198fc      0x1e8 /usr/lib/gcc/arm-none-eabi/5.2.0/../../../../arm-none-eabi/lib/armv7e-m/libc_nano.a(lib_a-nano-svfprintf.o)
                0x00000000200198fc                _svfprintf_r
                0x00000000200198fc                _svfiprintf_r
 .text._printf_common
                0x0000000020019ae4       0xec /usr/lib/gcc/arm-none-eabi/5.2.0/../../../../arm-none-eabi/lib/armv7e-m/libc_nano.a(lib_a-nano-vfprintf_i.o)
                0x0000000020019ae4                _printf_common
 .text._printf_i
                0x0000000020019bd0      0x24c /usr/lib/gcc/arm-none-eabi/5.2.0/../../../../arm-none-eabi/lib/armv7e-m/libc_nano.a(lib_a-nano-vfprintf_i.o)
                0x0000000020019bd0                _printf_i
 .text.memchr   0x0000000020019e1c       0x1e /usr/lib/gcc/arm-none-eabi/5.2.0/../../../../arm-none-eabi/lib/armv7e-m/libc_nano.a(lib_a-memchr.o)
                0x0000000020019e1c                memchr
 .text._malloc_usable_size_r
                0x0000000020019e3a       0x14 /usr/lib/gcc/arm-none-eabi/5.2.0/../../../../arm-none-eabi/lib/armv7e-m/libc_nano.a(lib_a-nano-msizer.o)
                0x0000000020019e3a                _malloc_usable_size_r
 *(.rodata*)
 *fill*         0x0000000020019e4e        0x2 
 .rodata        0x0000000020019e50      0x368 obj/Debug/main.o
 .rodata.__FUNCTION__.7330
                0x000000002001a1b8        0x8 obj/Debug/main.o
 .rodata        0x000000002001a1c0      0x15c obj/Debug/server_client_cbs.o
 .rodata        0x000000002001a31c       0x2c obj/Debug/uart_if.o
 .rodata        0x000000002001a348      0x6ec obj/Debug/network_if.o
 .rodata.__FUNCTION__.5920
                0x000000002001aa34       0x24 obj/Debug/network_if.o
 .rodata.__FUNCTION__.5933
                0x000000002001aa58       0x18 obj/Debug/network_if.o
 .rodata.__FUNCTION__.5953
                0x000000002001aa70       0x18 obj/Debug/network_if.o
 .rodata.__FUNCTION__.5981
                0x000000002001aa88       0x18 obj/Debug/network_if.o
 .rodata.qos    0x000000002001aaa0        0x4 ../../../netapps/mqtt/gcc/lib/client_server/Debug/libmqtt.a(sl_mqtt_client.o)
 .rodata        0x000000002001aaa4       0x2c ../../../netapps/mqtt/gcc/lib/client_server/Debug/libmqtt.a(sl_mqtt_client.o)
 .rodata        0x000000002001aad0       0x18 ../../../netapps/mqtt/gcc/lib/client_server/Debug/libmqtt.a(sl_mqtt_server.o)
 .rodata        0x000000002001aae8      0x50c ../../../netapps/mqtt/gcc/lib/client_server/Debug/libmqtt.a(cc32xx_sl_net.o)
 .rodata.LOOP_DATA
                0x000000002001aff4        0x4 ../../../netapps/mqtt/gcc/lib/client_server/Debug/libmqtt.a(mqtt_client.o)
 .rodata        0x000000002001aff8      0x2fc ../../../netapps/mqtt/gcc/lib/client_server/Debug/libmqtt.a(mqtt_client.o)
 .rodata        0x000000002001b2f4      0x264 ../../../netapps/mqtt/gcc/lib/client_server/Debug/libmqtt.a(server_core.o)
 .rodata.lpbk_wake_up_msg
                0x000000002001b558        0x4 ../../../netapps/mqtt/gcc/lib/client_server/Debug/libmqtt.a(server_pkts.o)
 .rodata        0x000000002001b55c      0x1c4 ../../../netapps/mqtt/gcc/lib/client_server/Debug/libmqtt.a(server_pkts.o)
 .rodata        0x000000002001b720       0x70 ../../../netapps/mqtt/gcc/lib/client_server/Debug/libmqtt.a(server_plug.o)
 .rodata        0x000000002001b790       0x58 ../../../netapps/mqtt/gcc/lib/client_server/Debug/libmqtt.a(server_util.o)
 .rodata        0x000000002001b7e8      0x140 ../../../netapps/mqtt/gcc/lib/client_server/Debug/libmqtt.a(client_mgmt.o)
 .rodata.StartResponseLUT
                0x000000002001b928        0x8 ../../../simplelink/gcc/lib/os/Debug/libsimplelink.a(device.o)
 .rodata._SlStopCmdCtrl
                0x000000002001b930        0x4 ../../../simplelink/gcc/lib/os/Debug/libsimplelink.a(device.o)
 .rodata._SlDeviceGetCmdCtrl
                0x000000002001b934        0x4 ../../../simplelink/gcc/lib/os/Debug/libsimplelink.a(device.o)
 .rodata.g_H2NSyncPattern
                0x000000002001b938        0x8 ../../../simplelink/gcc/lib/os/Debug/libsimplelink.a(driver.o)
 .rodata.g_H2NCnysPattern
                0x000000002001b940        0x8 ../../../simplelink/gcc/lib/os/Debug/libsimplelink.a(driver.o)
 .rodata._SlActionLookupTable
                0x000000002001b948       0x38 ../../../simplelink/gcc/lib/os/Debug/libsimplelink.a(driver.o)
                0x000000002001b948                _SlActionLookupTable
 .rodata.OpcodeTranslateTable
                0x000000002001b980       0x3c ../../../simplelink/gcc/lib/os/Debug/libsimplelink.a(driver.o)
                0x000000002001b980                OpcodeTranslateTable
 .rodata.RxMsgClassLUT
                0x000000002001b9bc       0x20 ../../../simplelink/gcc/lib/os/Debug/libsimplelink.a(driver.o)
 .rodata._SlRegisterServiceCtrl
                0x000000002001b9dc        0x4 ../../../simplelink/gcc/lib/os/Debug/libsimplelink.a(netapp.o)
 .rodata._SlGetHostByNameCtrl
                0x000000002001b9e0        0x4 ../../../simplelink/gcc/lib/os/Debug/libsimplelink.a(netapp.o)
 .rodata._SlNetAppSendTokenValueCmdCtrl
                0x000000002001b9e4        0x4 ../../../simplelink/gcc/lib/os/Debug/libsimplelink.a(netapp.o)
                0x000000002001b9e4                _SlNetAppSendTokenValueCmdCtrl
 .rodata._SlNetCfgSetCmdCtrl
                0x000000002001b9e8        0x4 ../../../simplelink/gcc/lib/os/Debug/libsimplelink.a(netcfg.o)
 .rodata._SlNetCfgGetCmdCtrl
                0x000000002001b9ec        0x4 ../../../simplelink/gcc/lib/os/Debug/libsimplelink.a(netcfg.o)
 .rodata._SlPayloadByProtocolLUT
                0x000000002001b9f0       0x10 ../../../simplelink/gcc/lib/os/Debug/libsimplelink.a(socket.o)
 .rodata._SlSockSocketCmdCtrl
                0x000000002001ba00        0x4 ../../../simplelink/gcc/lib/os/Debug/libsimplelink.a(socket.o)
 .rodata._SlSockCloseCmdCtrl
                0x000000002001ba04        0x4 ../../../simplelink/gcc/lib/os/Debug/libsimplelink.a(socket.o)
 .rodata._SlRecvfomCmdCtrl
                0x000000002001ba08        0x4 ../../../simplelink/gcc/lib/os/Debug/libsimplelink.a(socket.o)
 .rodata._SlSendCmdCtrl
                0x000000002001ba0c        0x4 ../../../simplelink/gcc/lib/os/Debug/libsimplelink.a(socket.o)
 .rodata._SlListenCmdCtrl
                0x000000002001ba10        0x4 ../../../simplelink/gcc/lib/os/Debug/libsimplelink.a(socket.o)
 .rodata._SlAcceptCmdCtrl
                0x000000002001ba14        0x4 ../../../simplelink/gcc/lib/os/Debug/libsimplelink.a(socket.o)
 .rodata._SlRecvCmdCtrl
                0x000000002001ba18        0x4 ../../../simplelink/gcc/lib/os/Debug/libsimplelink.a(socket.o)
 .rodata._SlSetSockOptCmdCtrl
                0x000000002001ba1c        0x4 ../../../simplelink/gcc/lib/os/Debug/libsimplelink.a(socket.o)
 .rodata._SlSelectCmdCtrl
                0x000000002001ba20        0x4 ../../../simplelink/gcc/lib/os/Debug/libsimplelink.a(socket.o)
 .rodata._SlPolicySetCmdCtrl
                0x000000002001ba24        0x4 ../../../simplelink/gcc/lib/os/Debug/libsimplelink.a(wlan.o)
 .rodata._SlProfileDelCmdCtrl
                0x000000002001ba28        0x4 ../../../simplelink/gcc/lib/os/Debug/libsimplelink.a(wlan.o)
 .rodata._SlRxFilterSetCmdCtrl
                0x000000002001ba2c        0x4 ../../../simplelink/gcc/lib/os/Debug/libsimplelink.a(wlan.o)
 .rodata._SlWlanSetModeCmdCtrl
                0x000000002001ba30        0x4 ../../../simplelink/gcc/lib/os/Debug/libsimplelink.a(wlan.o)
 .rodata._SlWlanCfgSetCmdCtrl
                0x000000002001ba34        0x4 ../../../simplelink/gcc/lib/os/Debug/libsimplelink.a(wlan.o)
 .rodata        0x000000002001ba38        0xc ../../../simplelink/gcc/lib/os/Debug/libsimplelink.a(cc_pal.o)
 .rodata        0x000000002001ba44        0x8 ../../../oslib/gcc/free_rtos/Debug/free_rtos.a(osi_freertos.o)
 .rodata        0x000000002001ba4c       0x2c ../../../oslib/gcc/free_rtos/Debug/free_rtos.a(queue.o)
 .rodata        0x000000002001ba78       0x44 ../../../oslib/gcc/free_rtos/Debug/free_rtos.a(tasks.o)
 .rodata.ucExpectedStackBytes.5776
                0x000000002001babc       0x14 ../../../oslib/gcc/free_rtos/Debug/free_rtos.a(tasks.o)
 .rodata        0x000000002001bad0       0x40 ../../../oslib/gcc/free_rtos/Debug/free_rtos.a(port.o)
 .rodata        0x000000002001bb10       0x3c ../../../oslib/gcc/free_rtos/Debug/free_rtos.a(timers.o)
 .rodata.g_pulRegs
                0x000000002001bb4c       0xd4 ../../../driverlib/gcc/lib/Debug/libdriver.a(interrupt.o)
 .rodata.g_pulEnRegs
                0x000000002001bc20       0x18 ../../../driverlib/gcc/lib/Debug/libdriver.a(interrupt.o)
 .rodata.g_pulDisRegs
                0x000000002001bc38       0x18 ../../../driverlib/gcc/lib/Debug/libdriver.a(interrupt.o)
 .rodata.g_pulUnpendRegs
                0x000000002001bc50       0x18 ../../../driverlib/gcc/lib/Debug/libdriver.a(interrupt.o)
 .rodata.g_ulPinToPadMap
                0x000000002001bc68      0x100 ../../../driverlib/gcc/lib/Debug/libdriver.a(pin.o)
 .rodata.PRCM_PeriphRegsList
                0x000000002001bd68       0xa8 ../../../driverlib/gcc/lib/Debug/libdriver.a(prcm.o)
 .rodata.g_ulSPIDmaMaskMap
                0x000000002001be10       0x18 ../../../driverlib/gcc/lib/Debug/libdriver.a(spi.o)
 .rodata._ctype_
                0x000000002001be28      0x101 /usr/lib/gcc/arm-none-eabi/5.2.0/../../../../arm-none-eabi/lib/armv7e-m/libc_nano.a(lib_a-ctype_.o)
                0x000000002001be28                _ctype_
 .rodata.str1.1
                0x000000002001bf29        0x2 /usr/lib/gcc/arm-none-eabi/5.2.0/../../../../arm-none-eabi/lib/armv7e-m/libc_nano.a(lib_a-impure.o)
 .rodata.str1.1
                0x000000002001bf2b       0x11 /usr/lib/gcc/arm-none-eabi/5.2.0/../../../../arm-none-eabi/lib/armv7e-m/libc_nano.a(lib_a-nano-svfprintf.o)
 .rodata.str1.1
                0x000000002001bf3c       0x22 /usr/lib/gcc/arm-none-eabi/5.2.0/../../../../arm-none-eabi/lib/armv7e-m/libc_nano.a(lib_a-nano-vfprintf_i.o)
 *(.ARM.extab* .gnu.linkonce.armextab.*)
                0x000000002001bf60                . = ALIGN (0x8)
 *fill*         0x000000002001bf5e        0x2 
                0x000000002001bf60                _etext = .

.glue_7         0x000000002001bf60        0x0
 .glue_7        0x0000000000000000        0x0 linker stubs

.glue_7t        0x000000002001bf60        0x0
 .glue_7t       0x0000000000000000        0x0 linker stubs

.vfp11_veneer   0x000000002001bf60        0x0
 .vfp11_veneer  0x0000000000000000        0x0 linker stubs

.v4_bx          0x000000002001bf60        0x0
 .v4_bx         0x0000000000000000        0x0 linker stubs

.iplt           0x000000002001bf60        0x0
 .iplt          0x0000000000000000        0x0 obj/Debug/main.o

.rel.dyn        0x000000002001bf60        0x0
 .rel.iplt      0x0000000000000000        0x0 obj/Debug/main.o

.ARM            0x000000002001bf60        0x0
                0x000000002001bf60                __exidx_start = .
 *(.ARM.exidx*)
                0x000000002001bf60                __exidx_end = .
                0x000000002001bf60                __init_data = .

.data           0x000000002001bf60      0x1e0
                0x000000002001bf60                _data = .
 *(.data*)
 .data.ClientId
                0x000000002001bf60        0x4 obj/Debug/main.o
                0x000000002001bf60                ClientId
 .data.topic    0x000000002001bf64        0x4 obj/Debug/main.o
                0x000000002001bf64                topic
 .data.qos      0x000000002001bf68        0x4 obj/Debug/main.o
                0x000000002001bf68                qos
 .data.pub_topic
                0x000000002001bf6c        0x4 obj/Debug/main.o
                0x000000002001bf6c                pub_topic
 .data.data     0x000000002001bf70        0x4 obj/Debug/main.o
                0x000000002001bf70                data
 .data.Mqtt_ClientCtx
                0x000000002001bf74       0x24 obj/Debug/main.o
                0x000000002001bf74                Mqtt_ClientCtx
 .data.Mqtt_ClientCfg
                0x000000002001bf98       0x14 obj/Debug/main.o
                0x000000002001bf98                Mqtt_ClientCfg
 .data.Mqtt_Server
                0x000000002001bfac       0x2c obj/Debug/main.o
                0x000000002001bfac                Mqtt_Server
 .data.will_param
                0x000000002001bfd8        0xc obj/Debug/main.o
                0x000000002001bfd8                will_param
 .data.server_callbacks
                0x000000002001bfe4       0x10 obj/Debug/server_client_cbs.o
                0x000000002001bfe4                server_callbacks
 .data.client_callbacks
                0x000000002001bff4        0xc obj/Debug/server_client_cbs.o
                0x000000002001bff4                client_callbacks
 .data.ulReg    0x000000002001c000       0x14 obj/Debug/gpio_if.o
 .data.net      0x000000002001c014       0x28 ../../../netapps/mqtt/gcc/lib/client_server/Debug/libmqtt.a(sl_mqtt_client.o)
                0x000000002001c014                net
 .data.server_cfg
                0x000000002001c03c       0x1c ../../../netapps/mqtt/gcc/lib/client_server/Debug/libmqtt.a(sl_mqtt_server.o)
                0x000000002001c03c                server_cfg
 .data.net_ops  0x000000002001c058       0x28 ../../../netapps/mqtt/gcc/lib/client_server/Debug/libmqtt.a(sl_mqtt_server.o)
                0x000000002001c058                net_ops
 .data.server_appcallbacks
                0x000000002001c080        0xc ../../../netapps/mqtt/gcc/lib/client_server/Debug/libmqtt.a(sl_mqtt_server.o)
                0x000000002001c080                server_appcallbacks
 .data.serverState
                0x000000002001c08c        0x1 ../../../netapps/mqtt/gcc/lib/client_server/Debug/libmqtt.a(sl_mqtt_server.o)
 .data.initFn_awaits
                0x000000002001c08d        0x1 ../../../netapps/mqtt/gcc/lib/client_server/Debug/libmqtt.a(sl_mqtt_server.o)
 .data.msg_id   0x000000002001c08e        0x2 ../../../netapps/mqtt/gcc/lib/client_server/Debug/libmqtt.a(mqtt_client.o)
 .data.loopb_net
                0x000000002001c090        0x4 ../../../netapps/mqtt/gcc/lib/client_server/Debug/libmqtt.a(mqtt_client.o)
 .data.mqtt310  0x000000002001c094        0xc ../../../netapps/mqtt/gcc/lib/client_server/Debug/libmqtt.a(mqtt_client.o)
 .data.mqtt311  0x000000002001c0a0        0x8 ../../../netapps/mqtt/gcc/lib/client_server/Debug/libmqtt.a(mqtt_client.o)
 .data.send_hvec
                0x000000002001c0a8        0x4 ../../../netapps/mqtt/gcc/lib/client_server/Debug/libmqtt.a(mqtt_client.o)
 .data.rsvd_hvec
                0x000000002001c0ac        0x4 ../../../netapps/mqtt/gcc/lib/client_server/Debug/libmqtt.a(mqtt_client.o)
 .data.loopb_net
                0x000000002001c0b0        0x4 ../../../netapps/mqtt/gcc/lib/client_server/Debug/libmqtt.a(server_pkts.o)
 .data.mon_loop_flag
                0x000000002001c0b4        0x1 ../../../netapps/mqtt/gcc/lib/client_server/Debug/libmqtt.a(server_pkts.o)
 *fill*         0x000000002001c0b5        0x3 
 .data.listen_net
                0x000000002001c0b8        0x4 ../../../netapps/mqtt/gcc/lib/client_server/Debug/libmqtt.a(server_pkts.o)
 .data.send_hvec.6965
                0x000000002001c0bc        0x4 ../../../netapps/mqtt/gcc/lib/client_server/Debug/libmqtt.a(server_pkts.o)
 .data.rsvd_hvec.6966
                0x000000002001c0c0        0x4 ../../../netapps/mqtt/gcc/lib/client_server/Debug/libmqtt.a(server_pkts.o)
 .data.msg_id   0x000000002001c0c4        0x2 ../../../netapps/mqtt/gcc/lib/client_server/Debug/libmqtt.a(server_util.o)
 *fill*         0x000000002001c0c6        0x2 
 .data.qos_ack1_wl
                0x000000002001c0c8        0x4 ../../../netapps/mqtt/gcc/lib/client_server/Debug/libmqtt.a(client_mgmt.o)
 .data.sess_mqp_wl
                0x000000002001c0cc        0x4 ../../../netapps/mqtt/gcc/lib/client_server/Debug/libmqtt.a(client_mgmt.o)
 .data.xNextTaskUnblockTime
                0x000000002001c0d0        0x4 ../../../oslib/gcc/free_rtos/Debug/free_rtos.a(tasks.o)
 .data.uxCriticalNesting
                0x000000002001c0d4        0x4 ../../../oslib/gcc/free_rtos/Debug/free_rtos.a(port.o)
 .data.__ctype_ptr__
                0x000000002001c0d8        0x4 /usr/lib/gcc/arm-none-eabi/5.2.0/../../../../arm-none-eabi/lib/armv7e-m/libc_nano.a(lib_a-ctype_.o)
                0x000000002001c0d8                __ctype_ptr__
 .data.impure_data
                0x000000002001c0dc       0x60 /usr/lib/gcc/arm-none-eabi/5.2.0/../../../../arm-none-eabi/lib/armv7e-m/libc_nano.a(lib_a-impure.o)
 .data._impure_ptr
                0x000000002001c13c        0x4 /usr/lib/gcc/arm-none-eabi/5.2.0/../../../../arm-none-eabi/lib/armv7e-m/libc_nano.a(lib_a-impure.o)
                0x000000002001c13c                _impure_ptr
                0x000000002001c140                . = ALIGN (0x8)
                0x000000002001c140                _edata = .

.igot.plt       0x000000002001c140        0x0
 .igot.plt      0x0000000000000000        0x0 obj/Debug/main.o

.bss            0x000000002001c140     0x4680
                0x000000002001c140                _bss = .
 *(.bss*)
 .bss.SecurityParams
                0x000000002001c140        0xc obj/Debug/main.o
                0x000000002001c140                SecurityParams
 .bss.__Errorlog
                0x000000002001c14c        0x4 obj/Debug/uart_if.o
 .bss.g_ulStatus
                0x000000002001c150        0x4 obj/Debug/network_if.o
                0x000000002001c150                g_ulStatus
 .bss.g_ulStaIp
                0x000000002001c154        0x4 obj/Debug/network_if.o
                0x000000002001c154                g_ulStaIp
 .bss.g_ulGatewayIP
                0x000000002001c158        0x4 obj/Debug/network_if.o
                0x000000002001c158                g_ulGatewayIP
 .bss.g_uiLED1Port
                0x000000002001c15c        0x4 obj/Debug/gpio_if.o
                0x000000002001c15c                g_uiLED1Port
 .bss.g_uiLED2Port
                0x000000002001c160        0x4 obj/Debug/gpio_if.o
                0x000000002001c160                g_uiLED2Port
 .bss.g_uiLED3Port
                0x000000002001c164        0x4 obj/Debug/gpio_if.o
                0x000000002001c164                g_uiLED3Port
 .bss.heap_end  0x000000002001c168        0x4 obj/Debug/startup_gcc.o
 .bss.heap2_end
                0x000000002001c16c        0x4 obj/Debug/startup_gcc.o
 .bss.pui32Stack
                0x000000002001c170     0x1000 obj/Debug/startup_gcc.o
 .bss.sl_cli_ctx
                0x000000002001d170       0xf0 ../../../netapps/mqtt/gcc/lib/client_server/Debug/libmqtt.a(sl_mqtt_client.o)
 .bss.mqp_vec   0x000000002001d260       0x48 ../../../netapps/mqtt/gcc/lib/client_server/Debug/libmqtt.a(sl_mqtt_client.o)
 .bss.buf_vec   0x000000002001d2a8     0x1000 ../../../netapps/mqtt/gcc/lib/client_server/Debug/libmqtt.a(sl_mqtt_client.o)
 .bss.g_multi_srvr_conn
                0x000000002001e2a8        0x1 ../../../netapps/mqtt/gcc/lib/client_server/Debug/libmqtt.a(sl_mqtt_client.o)
                0x000000002001e2a8                g_multi_srvr_conn
 *fill*         0x000000002001e2a9        0x3 
 .bss.mt_lock   0x000000002001e2ac        0x4 ../../../netapps/mqtt/gcc/lib/client_server/Debug/libmqtt.a(sl_mqtt_client.o)
 .bss.app_config
                0x000000002001e2b0        0x4 ../../../netapps/mqtt/gcc/lib/client_server/Debug/libmqtt.a(sl_mqtt_server.o)
                0x000000002001e2b0                app_config
 .bss.cbs_ptr   0x000000002001e2b4        0x4 ../../../netapps/mqtt/gcc/lib/client_server/Debug/libmqtt.a(sl_mqtt_server.o)
                0x000000002001e2b4                cbs_ptr
 .bss.serverSem
                0x000000002001e2b8        0x4 ../../../netapps/mqtt/gcc/lib/client_server/Debug/libmqtt.a(sl_mqtt_server.o)
 .bss.pSemObj   0x000000002001e2bc        0x4 ../../../netapps/mqtt/gcc/lib/client_server/Debug/libmqtt.a(sl_mqtt_server.o)
 .bss.rxTaskSem
                0x000000002001e2c0        0x4 ../../../netapps/mqtt/gcc/lib/client_server/Debug/libmqtt.a(sl_mqtt_server.o)
 .bss.pSemTsk   0x000000002001e2c4        0x4 ../../../netapps/mqtt/gcc/lib/client_server/Debug/libmqtt.a(sl_mqtt_server.o)
 .bss.mutex     0x000000002001e2c8        0x4 ../../../netapps/mqtt/gcc/lib/client_server/Debug/libmqtt.a(mqtt_client.o)
 .bss.mutex_lockin
                0x000000002001e2cc        0x4 ../../../netapps/mqtt/gcc/lib/client_server/Debug/libmqtt.a(mqtt_client.o)
 .bss.mutex_unlock
                0x000000002001e2d0        0x4 ../../../netapps/mqtt/gcc/lib/client_server/Debug/libmqtt.a(mqtt_client.o)
 .bss.aux_dbg_enbl
                0x000000002001e2d4        0x1 ../../../netapps/mqtt/gcc/lib/client_server/Debug/libmqtt.a(mqtt_client.o)
 *fill*         0x000000002001e2d5        0x3 
 .bss.debug_printf
                0x000000002001e2d8        0x4 ../../../netapps/mqtt/gcc/lib/client_server/Debug/libmqtt.a(mqtt_client.o)
                0x000000002001e2d8                debug_printf
 .bss.net_ops   0x000000002001e2dc        0x4 ../../../netapps/mqtt/gcc/lib/client_server/Debug/libmqtt.a(mqtt_client.o)
 .bss.cl_lib_state
                0x000000002001e2e0        0x1 ../../../netapps/mqtt/gcc/lib/client_server/Debug/libmqtt.a(mqtt_client.o)
 *fill*         0x000000002001e2e1        0x1 
 .bss.loopb_portid
                0x000000002001e2e2        0x2 ../../../netapps/mqtt/gcc/lib/client_server/Debug/libmqtt.a(mqtt_client.o)
 .bss.grp_has_cbfn
                0x000000002001e2e4        0x1 ../../../netapps/mqtt/gcc/lib/client_server/Debug/libmqtt.a(mqtt_client.o)
 *fill*         0x000000002001e2e5        0x3 
 .bss.free_ctxs
                0x000000002001e2e8        0x4 ../../../netapps/mqtt/gcc/lib/client_server/Debug/libmqtt.a(mqtt_client.o)
 .bss.used_ctxs
                0x000000002001e2ec        0x4 ../../../netapps/mqtt/gcc/lib/client_server/Debug/libmqtt.a(mqtt_client.o)
 .bss.conn_ctxs
                0x000000002001e2f0        0x4 ../../../netapps/mqtt/gcc/lib/client_server/Debug/libmqtt.a(mqtt_client.o)
 .bss.clients   0x000000002001e2f4      0x2f0 ../../../netapps/mqtt/gcc/lib/client_server/Debug/libmqtt.a(mqtt_client.o)
 .bss.recv_hvec
                0x000000002001e5e4       0x18 ../../../netapps/mqtt/gcc/lib/client_server/Debug/libmqtt.a(mqtt_client.o)
 .bss.free_list
                0x000000002001e5fc        0x4 ../../../netapps/mqtt/gcc/lib/client_server/Debug/libmqtt.a(mqtt_client.o)
 .bss.nodes     0x000000002001e600      0x980 ../../../netapps/mqtt/gcc/lib/client_server/Debug/libmqtt.a(server_core.o)
 .bss.node_stack
                0x000000002001ef80      0x180 ../../../netapps/mqtt/gcc/lib/client_server/Debug/libmqtt.a(server_core.o)
 .bss.stack_idx
                0x000000002001f100        0x4 ../../../netapps/mqtt/gcc/lib/client_server/Debug/libmqtt.a(server_core.o)
 .bss.free_nodes
                0x000000002001f104        0x4 ../../../netapps/mqtt/gcc/lib/client_server/Debug/libmqtt.a(server_core.o)
 .bss.root_node
                0x000000002001f108        0x4 ../../../netapps/mqtt/gcc/lib/client_server/Debug/libmqtt.a(server_core.o)
 .bss.work_buf  0x000000002001f10c      0x400 ../../../netapps/mqtt/gcc/lib/client_server/Debug/libmqtt.a(server_core.o)
 .bss.mutex     0x000000002001f50c        0x4 ../../../netapps/mqtt/gcc/lib/client_server/Debug/libmqtt.a(server_pkts.o)
 .bss.mutex_lockin
                0x000000002001f510        0x4 ../../../netapps/mqtt/gcc/lib/client_server/Debug/libmqtt.a(server_pkts.o)
 .bss.mutex_unlock
                0x000000002001f514        0x4 ../../../netapps/mqtt/gcc/lib/client_server/Debug/libmqtt.a(server_pkts.o)
 .bss.aux_dbg_enbl
                0x000000002001f518        0x1 ../../../netapps/mqtt/gcc/lib/client_server/Debug/libmqtt.a(server_pkts.o)
 *fill*         0x000000002001f519        0x3 
 .bss.debug_printf
                0x000000002001f51c        0x4 ../../../netapps/mqtt/gcc/lib/client_server/Debug/libmqtt.a(server_pkts.o)
 .bss.usr_obj   0x000000002001f520       0x1c ../../../netapps/mqtt/gcc/lib/client_server/Debug/libmqtt.a(server_pkts.o)
 .bss.usr_cbs   0x000000002001f53c        0x4 ../../../netapps/mqtt/gcc/lib/client_server/Debug/libmqtt.a(server_pkts.o)
 .bss.net_ops   0x000000002001f540        0x4 ../../../netapps/mqtt/gcc/lib/client_server/Debug/libmqtt.a(server_pkts.o)
 .bss.nw_sec_obj
                0x000000002001f544       0x18 ../../../netapps/mqtt/gcc/lib/client_server/Debug/libmqtt.a(server_pkts.o)
 .bss.nw_security
                0x000000002001f55c        0x4 ../../../netapps/mqtt/gcc/lib/client_server/Debug/libmqtt.a(server_pkts.o)
 .bss.contexts  0x000000002001f560      0x108 ../../../netapps/mqtt/gcc/lib/client_server/Debug/libmqtt.a(server_pkts.o)
 .bss.used_ctxs
                0x000000002001f668        0x4 ../../../netapps/mqtt/gcc/lib/client_server/Debug/libmqtt.a(server_pkts.o)
 .bss.free_ctxs
                0x000000002001f66c        0x4 ../../../netapps/mqtt/gcc/lib/client_server/Debug/libmqtt.a(server_pkts.o)
 .bss.loopback_port
                0x000000002001f670        0x2 ../../../netapps/mqtt/gcc/lib/client_server/Debug/libmqtt.a(server_pkts.o)
 .bss.pending_trigs
                0x000000002001f672        0x1 ../../../netapps/mqtt/gcc/lib/client_server/Debug/libmqtt.a(server_pkts.o)
 *fill*         0x000000002001f673        0x1 
 .bss.rx_mqp    0x000000002001f674       0x24 ../../../netapps/mqtt/gcc/lib/client_server/Debug/libmqtt.a(server_pkts.o)
 .bss.rxb       0x000000002001f698      0x400 ../../../netapps/mqtt/gcc/lib/client_server/Debug/libmqtt.a(server_pkts.o)
 .bss.listener_port
                0x000000002001fa98        0x2 ../../../netapps/mqtt/gcc/lib/client_server/Debug/libmqtt.a(server_pkts.o)
 *fill*         0x000000002001fa9a        0x2 
 .bss.recv_hvec.6964
                0x000000002001fa9c       0x24 ../../../netapps/mqtt/gcc/lib/client_server/Debug/libmqtt.a(server_pkts.o)
 .bss.plugins   0x000000002001fac0       0x50 ../../../netapps/mqtt/gcc/lib/client_server/Debug/libmqtt.a(server_plug.o)
 .bss.acl_pg    0x000000002001fb10        0x4 ../../../netapps/mqtt/gcc/lib/client_server/Debug/libmqtt.a(server_plug.o)
 .bss.msg_cbs   0x000000002001fb14        0x4 ../../../netapps/mqtt/gcc/lib/client_server/Debug/libmqtt.a(server_plug.o)
 .bss.msg_cbacks
                0x000000002001fb18        0xc ../../../netapps/mqtt/gcc/lib/client_server/Debug/libmqtt.a(server_plug.o)
 .bss.inited    0x000000002001fb24        0x1 ../../../netapps/mqtt/gcc/lib/client_server/Debug/libmqtt.a(server_plug.o)
 *fill*         0x000000002001fb25        0x3 
 .bss.util_dbg_prn
                0x000000002001fb28        0x4 ../../../netapps/mqtt/gcc/lib/client_server/Debug/libmqtt.a(server_util.o)
                0x000000002001fb28                util_dbg_prn
 .bss.util_prn_aux
                0x000000002001fb2c        0x1 ../../../netapps/mqtt/gcc/lib/client_server/Debug/libmqtt.a(server_util.o)
                0x000000002001fb2c                util_prn_aux
 *fill*         0x000000002001fb2d        0x3 
 .bss.lockin_mutex
                0x000000002001fb30        0x4 ../../../netapps/mqtt/gcc/lib/client_server/Debug/libmqtt.a(server_util.o)
 .bss.unlock_mutex
                0x000000002001fb34        0x4 ../../../netapps/mqtt/gcc/lib/client_server/Debug/libmqtt.a(server_util.o)
 .bss.mutex_hnd
                0x000000002001fb38        0x4 ../../../netapps/mqtt/gcc/lib/client_server/Debug/libmqtt.a(server_util.o)
 .bss.users     0x000000002001fb3c      0x800 ../../../netapps/mqtt/gcc/lib/client_server/Debug/libmqtt.a(client_mgmt.o)
 .bss.wl_qos_ack1
                0x000000002002033c        0x8 ../../../netapps/mqtt/gcc/lib/client_server/Debug/libmqtt.a(client_mgmt.o)
 .bss.wl_mqp_sess
                0x0000000020020344        0x8 ../../../netapps/mqtt/gcc/lib/client_server/Debug/libmqtt.a(client_mgmt.o)
 .bss.g_SlDeviceStatus
                0x000000002002034c        0x2 ../../../simplelink/gcc/lib/os/Debug/libsimplelink.a(driver.o)
                0x000000002002034c                g_SlDeviceStatus
 *fill*         0x000000002002034e        0x2 
 .bss.g_StatMem
                0x0000000020020350      0x178 ../../../simplelink/gcc/lib/os/Debug/libsimplelink.a(driver.o)
 .bss.g_pCB     0x00000000200204c8        0x4 ../../../simplelink/gcc/lib/os/Debug/libsimplelink.a(driver.o)
                0x00000000200204c8                g_pCB
 .bss.pPingCallBackFunc
                0x00000000200204cc        0x4 ../../../simplelink/gcc/lib/os/Debug/libsimplelink.a(driver.o)
                0x00000000200204cc                pPingCallBackFunc
 .bss.gFirstCmdMode
                0x00000000200204d0        0x1 ../../../simplelink/gcc/lib/os/Debug/libsimplelink.a(driver.o)
 *fill*         0x00000000200204d1        0x3 
 .bss.g_SpiFd   0x00000000200204d4        0x4 ../../../simplelink/gcc/lib/os/Debug/libsimplelink.a(cc_pal.o)
                0x00000000200204d4                g_SpiFd
 .bss.g_ucDMAEnabled
                0x00000000200204d8        0x1 ../../../simplelink/gcc/lib/os/Debug/libsimplelink.a(cc_pal.o)
                0x00000000200204d8                g_ucDMAEnabled
 *fill*         0x00000000200204d9        0x3 
 .bss.xHigherPriorityTaskWoken
                0x00000000200204dc        0x4 ../../../oslib/gcc/free_rtos/Debug/free_rtos.a(osi_freertos.o)
                0x00000000200204dc                xHigherPriorityTaskWoken
 .bss.xSimpleLinkSpawnQueue
                0x00000000200204e0        0x4 ../../../oslib/gcc/free_rtos/Debug/free_rtos.a(osi_freertos.o)
                0x00000000200204e0                xSimpleLinkSpawnQueue
 .bss.xSimpleLinkSpawnTaskHndl
                0x00000000200204e4        0x4 ../../../oslib/gcc/free_rtos/Debug/free_rtos.a(osi_freertos.o)
                0x00000000200204e4                xSimpleLinkSpawnTaskHndl
 .bss.pxCurrentTCB
                0x00000000200204e8        0x4 ../../../oslib/gcc/free_rtos/Debug/free_rtos.a(tasks.o)
                0x00000000200204e8                pxCurrentTCB
 .bss.pxReadyTasksLists
                0x00000000200204ec       0xc8 ../../../oslib/gcc/free_rtos/Debug/free_rtos.a(tasks.o)
 .bss.xDelayedTaskList1
                0x00000000200205b4       0x14 ../../../oslib/gcc/free_rtos/Debug/free_rtos.a(tasks.o)
 .bss.xDelayedTaskList2
                0x00000000200205c8       0x14 ../../../oslib/gcc/free_rtos/Debug/free_rtos.a(tasks.o)
 .bss.pxDelayedTaskList
                0x00000000200205dc        0x4 ../../../oslib/gcc/free_rtos/Debug/free_rtos.a(tasks.o)
 .bss.pxOverflowDelayedTaskList
                0x00000000200205e0        0x4 ../../../oslib/gcc/free_rtos/Debug/free_rtos.a(tasks.o)
 .bss.xPendingReadyList
                0x00000000200205e4       0x14 ../../../oslib/gcc/free_rtos/Debug/free_rtos.a(tasks.o)
 .bss.xTasksWaitingTermination
                0x00000000200205f8       0x14 ../../../oslib/gcc/free_rtos/Debug/free_rtos.a(tasks.o)
 .bss.uxTasksDeleted
                0x000000002002060c        0x4 ../../../oslib/gcc/free_rtos/Debug/free_rtos.a(tasks.o)
 .bss.xSuspendedTaskList
                0x0000000020020610       0x14 ../../../oslib/gcc/free_rtos/Debug/free_rtos.a(tasks.o)
 .bss.xIdleTaskHandle
                0x0000000020020624        0x4 ../../../oslib/gcc/free_rtos/Debug/free_rtos.a(tasks.o)
 .bss.uxCurrentNumberOfTasks
                0x0000000020020628        0x4 ../../../oslib/gcc/free_rtos/Debug/free_rtos.a(tasks.o)
 .bss.xTickCount
                0x000000002002062c        0x4 ../../../oslib/gcc/free_rtos/Debug/free_rtos.a(tasks.o)
 .bss.uxTopReadyPriority
                0x0000000020020630        0x4 ../../../oslib/gcc/free_rtos/Debug/free_rtos.a(tasks.o)
 .bss.xSchedulerRunning
                0x0000000020020634        0x4 ../../../oslib/gcc/free_rtos/Debug/free_rtos.a(tasks.o)
 .bss.uxPendedTicks
                0x0000000020020638        0x4 ../../../oslib/gcc/free_rtos/Debug/free_rtos.a(tasks.o)
 .bss.xYieldPending
                0x000000002002063c        0x4 ../../../oslib/gcc/free_rtos/Debug/free_rtos.a(tasks.o)
 .bss.xNumOfOverflows
                0x0000000020020640        0x4 ../../../oslib/gcc/free_rtos/Debug/free_rtos.a(tasks.o)
 .bss.uxTaskNumber
                0x0000000020020644        0x4 ../../../oslib/gcc/free_rtos/Debug/free_rtos.a(tasks.o)
 .bss.uxSchedulerSuspended
                0x0000000020020648        0x4 ../../../oslib/gcc/free_rtos/Debug/free_rtos.a(tasks.o)
 .bss.ucMaxSysCallPriority
                0x000000002002064c        0x1 ../../../oslib/gcc/free_rtos/Debug/free_rtos.a(port.o)
 *fill*         0x000000002002064d        0x3 
 .bss.ulMaxPRIGROUPValue
                0x0000000020020650        0x4 ../../../oslib/gcc/free_rtos/Debug/free_rtos.a(port.o)
 .bss.xActiveTimerList1
                0x0000000020020654       0x14 ../../../oslib/gcc/free_rtos/Debug/free_rtos.a(timers.o)
 .bss.xActiveTimerList2
                0x0000000020020668       0x14 ../../../oslib/gcc/free_rtos/Debug/free_rtos.a(timers.o)
 .bss.pxCurrentTimerList
                0x000000002002067c        0x4 ../../../oslib/gcc/free_rtos/Debug/free_rtos.a(timers.o)
 .bss.pxOverflowTimerList
                0x0000000020020680        0x4 ../../../oslib/gcc/free_rtos/Debug/free_rtos.a(timers.o)
 .bss.xTimerQueue
                0x0000000020020684        0x4 ../../../oslib/gcc/free_rtos/Debug/free_rtos.a(timers.o)
 .bss.xTimerTaskHandle
                0x0000000020020688        0x4 ../../../oslib/gcc/free_rtos/Debug/free_rtos.a(timers.o)
 .bss.xLastTime.4980
                0x000000002002068c        0x4 ../../../oslib/gcc/free_rtos/Debug/free_rtos.a(timers.o)
 .bss.__malloc_sbrk_start
                0x0000000020020690        0x4 /usr/lib/gcc/arm-none-eabi/5.2.0/../../../../arm-none-eabi/lib/armv7e-m/libc_nano.a(lib_a-nano-mallocr.o)
                0x0000000020020690                __malloc_sbrk_start
 .bss.__malloc_free_list
                0x0000000020020694        0x4 /usr/lib/gcc/arm-none-eabi/5.2.0/../../../../arm-none-eabi/lib/armv7e-m/libc_nano.a(lib_a-nano-mallocr.o)
                0x0000000020020694                __malloc_free_list
 *(COMMON)
 COMMON         0x0000000020020698        0xc obj/Debug/main.o
                0x0000000020020698                g_usTimerInts
                0x000000002002069c                BridgeHndl
                0x00000000200206a0                g_PBQueue
 COMMON         0x00000000200206a4        0x4 obj/Debug/server_client_cbs.o
                0x00000000200206a4                client_info_table
 COMMON         0x00000000200206a8       0x2d obj/Debug/network_if.o
                0x00000000200206a8                g_usConnectIndex
                0x00000000200206ac                g_ucConnectionBSSID
                0x00000000200206b4                g_ucConnectionSSID
 COMMON         0x00000000200206d5        0x3 obj/Debug/gpio_if.o
                0x00000000200206d5                g_ucLED1Pin
                0x00000000200206d6                g_ucLED2Pin
                0x00000000200206d7                g_ucLED3Pin
 COMMON         0x00000000200206d8        0x8 obj/Debug/button_if.o
                0x00000000200206d8                g_S3InterruptHdl
                0x00000000200206dc                g_S2InterruptHdl
 COMMON         0x00000000200206e0       0x10 ../../../netapps/mqtt/gcc/lib/client_server/Debug/libmqtt.a(sl_mqtt_client.o)
                0x00000000200206e0                g_rx_tx_sync_obj
                0x00000000200206e4                mqtt_lib_lockobj
                0x00000000200206e8                g_rx_task_hndl
                0x00000000200206ec                g_wait_secs
 COMMON         0x00000000200206f0       0x20 ../../../netapps/mqtt/gcc/lib/client_server/Debug/libmqtt.a(sl_mqtt_server.o)
                0x00000000200206f0                g_srvr_wait_secs
                0x00000000200206f4                cbs_obj
                0x0000000020020704                g_srvr_task_priority
                0x0000000020020708                MutexLockObj
                0x000000002002070c                app_hndl
 COMMON         0x0000000020020710        0x2 ../../../simplelink/gcc/lib/os/Debug/libsimplelink.a(driver.o)
                0x0000000020020710                g_bDeviceRestartIsRequired
                0x0000000020020711                RxIrqCnt
 *fill*         0x0000000020020712        0x2 
 COMMON         0x0000000020020714       0x58 ../../../simplelink/gcc/lib/os/Debug/libsimplelink.a(cc_pal.o)
                0x0000000020020714                g_cDummy
                0x0000000020020718                DMAMsgQ
                0x000000002002071c                g_ucDinDout
 COMMON         0x000000002002076c       0x50 ../../../oslib/gcc/free_rtos/Debug/free_rtos.a(queue.o)
                0x000000002002076c                xQueueRegistry
 COMMON         0x00000000200207bc        0x4 /usr/lib/gcc/arm-none-eabi/5.2.0/../../../../arm-none-eabi/lib/armv7e-m/libc_nano.a(lib_a-reent.o)
                0x00000000200207bc                errno
                0x00000000200207c0                _ebss = .

.heap           0x00000000200207c0    0x1f440
                0x00000000200207c0                _heap = .
                0x000000002003fc00                . = (((((((. + 0x40000) - SIZEOF (.bss)) - SIZEOF (.data)) - SIZEOF (.ARM)) - SIZEOF (.text)) - SIZEOF (.bootloader)) - 0x400)
 *fill*         0x00000000200207c0    0x1f440 
                0x000000002003fc00                . = ALIGN (0x400)
                0x000000002003fc00                _eheap = .
LOAD obj/Debug/main.o
LOAD obj/Debug/pinmux.o
LOAD obj/Debug/server_client_cbs.o
LOAD obj/Debug/uart_if.o
LOAD obj/Debug/network_if.o
LOAD obj/Debug/gpio_if.o
LOAD obj/Debug/timer_if.o
LOAD obj/Debug/button_if.o
LOAD obj/Debug/startup_gcc.o
LOAD ../../../netapps/mqtt/gcc/lib/client_server/Debug/libmqtt.a
LOAD ../../../simplelink/gcc/lib/os/Debug/libsimplelink.a
LOAD ../../../oslib/gcc/free_rtos/Debug/free_rtos.a
LOAD ../../../driverlib/gcc/lib/Debug/libdriver.a
LOAD /usr/lib/gcc/arm-none-eabi/5.2.0/../../../../arm-none-eabi/lib/armv7e-m/libc_nano.a
LOAD /usr/lib/gcc/arm-none-eabi/5.2.0/../../../../arm-none-eabi/lib/armv7e-m/libm.a
LOAD /usr/lib/gcc/arm-none-eabi/5.2.0/armv7e-m/libgcc.a
LOAD /usr/lib/gcc/arm-none-eabi/5.2.0/../../../../arm-none-eabi/lib/armv7e-m/libnosys.a
OUTPUT(bin/Debug/mqtt_server.elf elf32-littlearm)

.debug_info     0x0000000000000000    0x2724f
 .debug_info    0x0000000000000000      0x906 obj/Debug/main.o
 .debug_info    0x0000000000000906       0x45 obj/Debug/pinmux.o
 .debug_info    0x000000000000094b      0x5d8 obj/Debug/server_client_cbs.o
 .debug_info    0x0000000000000f23      0x2ac obj/Debug/uart_if.o
 .debug_info    0x00000000000011cf     0x1191 obj/Debug/network_if.o
 .debug_info    0x0000000000002360      0x3e6 obj/Debug/gpio_if.o
 .debug_info    0x0000000000002746      0x2b4 obj/Debug/timer_if.o
 .debug_info    0x00000000000029fa      0x1a0 obj/Debug/button_if.o
 .debug_info    0x0000000000002b9a      0x20f obj/Debug/startup_gcc.o
 .debug_info    0x0000000000002da9     0x1259 ../../../netapps/mqtt/gcc/lib/client_server/Debug/libmqtt.a(sl_mqtt_client.o)
 .debug_info    0x0000000000004002      0xbef ../../../netapps/mqtt/gcc/lib/client_server/Debug/libmqtt.a(sl_mqtt_server.o)
 .debug_info    0x0000000000004bf1      0x9ae ../../../netapps/mqtt/gcc/lib/client_server/Debug/libmqtt.a(cc32xx_sl_net.o)
 .debug_info    0x000000000000559f       0xd3 ../../../netapps/mqtt/gcc/lib/client_server/Debug/libmqtt.a(cc32xx_platform.o)
 .debug_info    0x0000000000005672     0x2b2b ../../../netapps/mqtt/gcc/lib/client_server/Debug/libmqtt.a(mqtt_client.o)
 .debug_info    0x000000000000819d      0xef6 ../../../netapps/mqtt/gcc/lib/client_server/Debug/libmqtt.a(mqtt_common.o)
 .debug_info    0x0000000000009093     0x25bd ../../../netapps/mqtt/gcc/lib/client_server/Debug/libmqtt.a(server_core.o)
 .debug_info    0x000000000000b650     0x1b99 ../../../netapps/mqtt/gcc/lib/client_server/Debug/libmqtt.a(server_pkts.o)
 .debug_info    0x000000000000d1e9      0x703 ../../../netapps/mqtt/gcc/lib/client_server/Debug/libmqtt.a(server_plug.o)
 .debug_info    0x000000000000d8ec      0x438 ../../../netapps/mqtt/gcc/lib/client_server/Debug/libmqtt.a(server_util.o)
 .debug_info    0x000000000000dd24     0x1159 ../../../netapps/mqtt/gcc/lib/client_server/Debug/libmqtt.a(client_mgmt.o)
 .debug_info    0x000000000000ee7d      0xf4e ../../../simplelink/gcc/lib/os/Debug/libsimplelink.a(device.o)
 .debug_info    0x000000000000fdcb     0x1bd5 ../../../simplelink/gcc/lib/os/Debug/libsimplelink.a(driver.o)
 .debug_info    0x00000000000119a0     0x1943 ../../../simplelink/gcc/lib/os/Debug/libsimplelink.a(netapp.o)
 .debug_info    0x00000000000132e3      0x3ec ../../../simplelink/gcc/lib/os/Debug/libsimplelink.a(netcfg.o)
 .debug_info    0x00000000000136cf     0x1a88 ../../../simplelink/gcc/lib/os/Debug/libsimplelink.a(socket.o)
 .debug_info    0x0000000000015157     0x1aaa ../../../simplelink/gcc/lib/os/Debug/libsimplelink.a(wlan.o)
 .debug_info    0x0000000000016c01      0x6db ../../../simplelink/gcc/lib/os/Debug/libsimplelink.a(cc_pal.o)
 .debug_info    0x00000000000172dc      0x8d9 ../../../oslib/gcc/free_rtos/Debug/free_rtos.a(osi_freertos.o)
 .debug_info    0x0000000000017bb5      0xd88 ../../../oslib/gcc/free_rtos/Debug/free_rtos.a(queue.o)
 .debug_info    0x000000000001893d     0x1790 ../../../oslib/gcc/free_rtos/Debug/free_rtos.a(tasks.o)
 .debug_info    0x000000000001a0cd      0x317 ../../../oslib/gcc/free_rtos/Debug/free_rtos.a(port.o)
 .debug_info    0x000000000001a3e4      0x9f1 ../../../oslib/gcc/free_rtos/Debug/free_rtos.a(timers.o)
 .debug_info    0x000000000001add5       0xed ../../../oslib/gcc/free_rtos/Debug/free_rtos.a(heap_3.o)
 .debug_info    0x000000000001aec2      0x29d ../../../oslib/gcc/free_rtos/Debug/free_rtos.a(list.o)
 .debug_info    0x000000000001b15f      0x3b0 ../../../driverlib/gcc/lib/Debug/libdriver.a(gpio.o)
 .debug_info    0x000000000001b50f      0x383 ../../../driverlib/gcc/lib/Debug/libdriver.a(interrupt.o)
 .debug_info    0x000000000001b892      0x3eb ../../../driverlib/gcc/lib/Debug/libdriver.a(pin.o)
 .debug_info    0x000000000001bc7d      0xa3d ../../../driverlib/gcc/lib/Debug/libdriver.a(prcm.o)
 .debug_info    0x000000000001c6ba      0x9be ../../../driverlib/gcc/lib/Debug/libdriver.a(spi.o)
 .debug_info    0x000000000001d078      0x5c1 ../../../driverlib/gcc/lib/Debug/libdriver.a(timer.o)
 .debug_info    0x000000000001d639      0x82e ../../../driverlib/gcc/lib/Debug/libdriver.a(uart.o)
 .debug_info    0x000000000001de67      0x53f ../../../driverlib/gcc/lib/Debug/libdriver.a(udma.o)
 .debug_info    0x000000000001e3a6       0x50 ../../../driverlib/gcc/lib/Debug/libdriver.a(utils.o)
 .debug_info    0x000000000001e3f6       0xfe ../../../driverlib/gcc/lib/Debug/libdriver.a(cpu.o)
 .debug_info    0x000000000001e4f4      0x7c5 /usr/lib/gcc/arm-none-eabi/5.2.0/../../../../arm-none-eabi/lib/armv7e-m/libc_nano.a(lib_a-atoi.o)
 .debug_info    0x000000000001ecb9      0x7b2 /usr/lib/gcc/arm-none-eabi/5.2.0/../../../../arm-none-eabi/lib/armv7e-m/libc_nano.a(lib_a-malloc.o)
 .debug_info    0x000000000001f46b       0xf8 /usr/lib/gcc/arm-none-eabi/5.2.0/../../../../arm-none-eabi/lib/armv7e-m/libc_nano.a(lib_a-memcmp.o)
 .debug_info    0x000000000001f563      0x115 /usr/lib/gcc/arm-none-eabi/5.2.0/../../../../arm-none-eabi/lib/armv7e-m/libc_nano.a(lib_a-memcpy.o)
 .debug_info    0x000000000001f678      0x109 /usr/lib/gcc/arm-none-eabi/5.2.0/../../../../arm-none-eabi/lib/armv7e-m/libc_nano.a(lib_a-memmove.o)
 .debug_info    0x000000000001f781       0xda /usr/lib/gcc/arm-none-eabi/5.2.0/../../../../arm-none-eabi/lib/armv7e-m/libc_nano.a(lib_a-memset.o)
 .debug_info    0x000000000001f85b      0x821 /usr/lib/gcc/arm-none-eabi/5.2.0/../../../../arm-none-eabi/lib/armv7e-m/libc_nano.a(lib_a-nano-freer.o)
 .debug_info    0x000000000002007c      0x8ec /usr/lib/gcc/arm-none-eabi/5.2.0/../../../../arm-none-eabi/lib/armv7e-m/libc_nano.a(lib_a-nano-mallocr.o)
 .debug_info    0x0000000000020968      0x786 /usr/lib/gcc/arm-none-eabi/5.2.0/../../../../arm-none-eabi/lib/armv7e-m/libc_nano.a(lib_a-realloc.o)
 .debug_info    0x00000000000210ee      0x7a1 /usr/lib/gcc/arm-none-eabi/5.2.0/../../../../arm-none-eabi/lib/armv7e-m/libc_nano.a(lib_a-sbrkr.o)
 .debug_info    0x000000000002188f       0xc4 /usr/lib/gcc/arm-none-eabi/5.2.0/../../../../arm-none-eabi/lib/armv7e-m/libc_nano.a(lib_a-strcmp.o)
 .debug_info    0x0000000000021953       0xc4 /usr/lib/gcc/arm-none-eabi/5.2.0/../../../../arm-none-eabi/lib/armv7e-m/libc_nano.a(lib_a-strcpy.o)
 .debug_info    0x0000000000021a17       0xd4 /usr/lib/gcc/arm-none-eabi/5.2.0/../../../../arm-none-eabi/lib/armv7e-m/libc_nano.a(lib_a-strlen.o)
 .debug_info    0x0000000000021aeb       0xd6 /usr/lib/gcc/arm-none-eabi/5.2.0/../../../../arm-none-eabi/lib/armv7e-m/libc_nano.a(lib_a-strncmp.o)
 .debug_info    0x0000000000021bc1      0x10a /usr/lib/gcc/arm-none-eabi/5.2.0/../../../../arm-none-eabi/lib/armv7e-m/libc_nano.a(lib_a-strncpy.o)
 .debug_info    0x0000000000021ccb      0x802 /usr/lib/gcc/arm-none-eabi/5.2.0/../../../../arm-none-eabi/lib/armv7e-m/libc_nano.a(lib_a-strtok.o)
 .debug_info    0x00000000000224cd      0x19e /usr/lib/gcc/arm-none-eabi/5.2.0/../../../../arm-none-eabi/lib/armv7e-m/libc_nano.a(lib_a-strtok_r.o)
 .debug_info    0x000000000002266b      0x864 /usr/lib/gcc/arm-none-eabi/5.2.0/../../../../arm-none-eabi/lib/armv7e-m/libc_nano.a(lib_a-strtol.o)
 .debug_info    0x0000000000022ecf      0x892 /usr/lib/gcc/arm-none-eabi/5.2.0/../../../../arm-none-eabi/lib/armv7e-m/libc_nano.a(lib_a-vsnprintf.o)
 .debug_info    0x0000000000023761       0x6f /usr/lib/gcc/arm-none-eabi/5.2.0/../../../../arm-none-eabi/lib/armv7e-m/libc_nano.a(lib_a-ctype_.o)
 .debug_info    0x00000000000237d0      0x7da /usr/lib/gcc/arm-none-eabi/5.2.0/../../../../arm-none-eabi/lib/armv7e-m/libc_nano.a(lib_a-impure.o)
 .debug_info    0x0000000000023faa      0x878 /usr/lib/gcc/arm-none-eabi/5.2.0/../../../../arm-none-eabi/lib/armv7e-m/libc_nano.a(lib_a-nano-reallocr.o)
 .debug_info    0x0000000000024822      0xd40 /usr/lib/gcc/arm-none-eabi/5.2.0/../../../../arm-none-eabi/lib/armv7e-m/libc_nano.a(lib_a-nano-svfprintf.o)
 .debug_info    0x0000000000025562      0xb33 /usr/lib/gcc/arm-none-eabi/5.2.0/../../../../arm-none-eabi/lib/armv7e-m/libc_nano.a(lib_a-nano-vfprintf_i.o)
 .debug_info    0x0000000000026095      0x8fb /usr/lib/gcc/arm-none-eabi/5.2.0/../../../../arm-none-eabi/lib/armv7e-m/libc_nano.a(lib_a-reent.o)
 .debug_info    0x0000000000026990       0xff /usr/lib/gcc/arm-none-eabi/5.2.0/../../../../arm-none-eabi/lib/armv7e-m/libc_nano.a(lib_a-memchr.o)
 .debug_info    0x0000000000026a8f      0x7c0 /usr/lib/gcc/arm-none-eabi/5.2.0/../../../../arm-none-eabi/lib/armv7e-m/libc_nano.a(lib_a-nano-msizer.o)

.debug_abbrev   0x0000000000000000     0x6ac9
 .debug_abbrev  0x0000000000000000      0x260 obj/Debug/main.o
 .debug_abbrev  0x0000000000000260       0x37 obj/Debug/pinmux.o
 .debug_abbrev  0x0000000000000297      0x18b obj/Debug/server_client_cbs.o
 .debug_abbrev  0x0000000000000422      0x147 obj/Debug/uart_if.o
 .debug_abbrev  0x0000000000000569      0x2f7 obj/Debug/network_if.o
 .debug_abbrev  0x0000000000000860      0x135 obj/Debug/gpio_if.o
 .debug_abbrev  0x0000000000000995       0xde obj/Debug/timer_if.o
 .debug_abbrev  0x0000000000000a73       0xc9 obj/Debug/button_if.o
 .debug_abbrev  0x0000000000000b3c      0x10b obj/Debug/startup_gcc.o
 .debug_abbrev  0x0000000000000c47      0x2ea ../../../netapps/mqtt/gcc/lib/client_server/Debug/libmqtt.a(sl_mqtt_client.o)
 .debug_abbrev  0x0000000000000f31      0x207 ../../../netapps/mqtt/gcc/lib/client_server/Debug/libmqtt.a(sl_mqtt_server.o)
 .debug_abbrev  0x0000000000001138      0x1c5 ../../../netapps/mqtt/gcc/lib/client_server/Debug/libmqtt.a(cc32xx_sl_net.o)
 .debug_abbrev  0x00000000000012fd       0x74 ../../../netapps/mqtt/gcc/lib/client_server/Debug/libmqtt.a(cc32xx_platform.o)
 .debug_abbrev  0x0000000000001371      0x31d ../../../netapps/mqtt/gcc/lib/client_server/Debug/libmqtt.a(mqtt_client.o)
 .debug_abbrev  0x000000000000168e      0x2b3 ../../../netapps/mqtt/gcc/lib/client_server/Debug/libmqtt.a(mqtt_common.o)
 .debug_abbrev  0x0000000000001941      0x2ac ../../../netapps/mqtt/gcc/lib/client_server/Debug/libmqtt.a(server_core.o)
 .debug_abbrev  0x0000000000001bed      0x2d8 ../../../netapps/mqtt/gcc/lib/client_server/Debug/libmqtt.a(server_pkts.o)
 .debug_abbrev  0x0000000000001ec5      0x1b1 ../../../netapps/mqtt/gcc/lib/client_server/Debug/libmqtt.a(server_plug.o)
 .debug_abbrev  0x0000000000002076      0x1cd ../../../netapps/mqtt/gcc/lib/client_server/Debug/libmqtt.a(server_util.o)
 .debug_abbrev  0x0000000000002243      0x2c1 ../../../netapps/mqtt/gcc/lib/client_server/Debug/libmqtt.a(client_mgmt.o)
 .debug_abbrev  0x0000000000002504      0x25e ../../../simplelink/gcc/lib/os/Debug/libsimplelink.a(device.o)
 .debug_abbrev  0x0000000000002762      0x28e ../../../simplelink/gcc/lib/os/Debug/libsimplelink.a(driver.o)
 .debug_abbrev  0x00000000000029f0      0x29d ../../../simplelink/gcc/lib/os/Debug/libsimplelink.a(netapp.o)
 .debug_abbrev  0x0000000000002c8d      0x142 ../../../simplelink/gcc/lib/os/Debug/libsimplelink.a(netcfg.o)
 .debug_abbrev  0x0000000000002dcf      0x2d4 ../../../simplelink/gcc/lib/os/Debug/libsimplelink.a(socket.o)
 .debug_abbrev  0x00000000000030a3      0x252 ../../../simplelink/gcc/lib/os/Debug/libsimplelink.a(wlan.o)
 .debug_abbrev  0x00000000000032f5      0x1bd ../../../simplelink/gcc/lib/os/Debug/libsimplelink.a(cc_pal.o)
 .debug_abbrev  0x00000000000034b2      0x207 ../../../oslib/gcc/free_rtos/Debug/free_rtos.a(osi_freertos.o)
 .debug_abbrev  0x00000000000036b9      0x18f ../../../oslib/gcc/free_rtos/Debug/free_rtos.a(queue.o)
 .debug_abbrev  0x0000000000003848      0x2a3 ../../../oslib/gcc/free_rtos/Debug/free_rtos.a(tasks.o)
 .debug_abbrev  0x0000000000003aeb      0x1a4 ../../../oslib/gcc/free_rtos/Debug/free_rtos.a(port.o)
 .debug_abbrev  0x0000000000003c8f      0x1c5 ../../../oslib/gcc/free_rtos/Debug/free_rtos.a(timers.o)
 .debug_abbrev  0x0000000000003e54       0xb9 ../../../oslib/gcc/free_rtos/Debug/free_rtos.a(heap_3.o)
 .debug_abbrev  0x0000000000003f0d       0xbe ../../../oslib/gcc/free_rtos/Debug/free_rtos.a(list.o)
 .debug_abbrev  0x0000000000003fcb      0x130 ../../../driverlib/gcc/lib/Debug/libdriver.a(gpio.o)
 .debug_abbrev  0x00000000000040fb      0x145 ../../../driverlib/gcc/lib/Debug/libdriver.a(interrupt.o)
 .debug_abbrev  0x0000000000004240       0xf4 ../../../driverlib/gcc/lib/Debug/libdriver.a(pin.o)
 .debug_abbrev  0x0000000000004334      0x1cc ../../../driverlib/gcc/lib/Debug/libdriver.a(prcm.o)
 .debug_abbrev  0x0000000000004500      0x131 ../../../driverlib/gcc/lib/Debug/libdriver.a(spi.o)
 .debug_abbrev  0x0000000000004631       0xde ../../../driverlib/gcc/lib/Debug/libdriver.a(timer.o)
 .debug_abbrev  0x000000000000470f      0x131 ../../../driverlib/gcc/lib/Debug/libdriver.a(uart.o)
 .debug_abbrev  0x0000000000004840      0x182 ../../../driverlib/gcc/lib/Debug/libdriver.a(udma.o)
 .debug_abbrev  0x00000000000049c2       0x48 ../../../driverlib/gcc/lib/Debug/libdriver.a(utils.o)
 .debug_abbrev  0x0000000000004a0a       0xb4 ../../../driverlib/gcc/lib/Debug/libdriver.a(cpu.o)
 .debug_abbrev  0x0000000000004abe      0x15f /usr/lib/gcc/arm-none-eabi/5.2.0/../../../../arm-none-eabi/lib/armv7e-m/libc_nano.a(lib_a-atoi.o)
 .debug_abbrev  0x0000000000004c1d      0x18a /usr/lib/gcc/arm-none-eabi/5.2.0/../../../../arm-none-eabi/lib/armv7e-m/libc_nano.a(lib_a-malloc.o)
 .debug_abbrev  0x0000000000004da7       0x7f /usr/lib/gcc/arm-none-eabi/5.2.0/../../../../arm-none-eabi/lib/armv7e-m/libc_nano.a(lib_a-memcmp.o)
 .debug_abbrev  0x0000000000004e26       0xab /usr/lib/gcc/arm-none-eabi/5.2.0/../../../../arm-none-eabi/lib/armv7e-m/libc_nano.a(lib_a-memcpy.o)
 .debug_abbrev  0x0000000000004ed1       0x9c /usr/lib/gcc/arm-none-eabi/5.2.0/../../../../arm-none-eabi/lib/armv7e-m/libc_nano.a(lib_a-memmove.o)
 .debug_abbrev  0x0000000000004f6d       0x8e /usr/lib/gcc/arm-none-eabi/5.2.0/../../../../arm-none-eabi/lib/armv7e-m/libc_nano.a(lib_a-memset.o)
 .debug_abbrev  0x0000000000004ffb      0x1b6 /usr/lib/gcc/arm-none-eabi/5.2.0/../../../../arm-none-eabi/lib/armv7e-m/libc_nano.a(lib_a-nano-freer.o)
 .debug_abbrev  0x00000000000051b1      0x24e /usr/lib/gcc/arm-none-eabi/5.2.0/../../../../arm-none-eabi/lib/armv7e-m/libc_nano.a(lib_a-nano-mallocr.o)
 .debug_abbrev  0x00000000000053ff      0x17f /usr/lib/gcc/arm-none-eabi/5.2.0/../../../../arm-none-eabi/lib/armv7e-m/libc_nano.a(lib_a-realloc.o)
 .debug_abbrev  0x000000000000557e      0x1a0 /usr/lib/gcc/arm-none-eabi/5.2.0/../../../../arm-none-eabi/lib/armv7e-m/libc_nano.a(lib_a-sbrkr.o)
 .debug_abbrev  0x000000000000571e       0x14 /usr/lib/gcc/arm-none-eabi/5.2.0/../../../../arm-none-eabi/lib/armv7e-m/libc_nano.a(lib_a-strcmp.o)
 .debug_abbrev  0x0000000000005732       0x72 /usr/lib/gcc/arm-none-eabi/5.2.0/../../../../arm-none-eabi/lib/armv7e-m/libc_nano.a(lib_a-strcpy.o)
 .debug_abbrev  0x00000000000057a4       0x8c /usr/lib/gcc/arm-none-eabi/5.2.0/../../../../arm-none-eabi/lib/armv7e-m/libc_nano.a(lib_a-strlen.o)
 .debug_abbrev  0x0000000000005830       0x70 /usr/lib/gcc/arm-none-eabi/5.2.0/../../../../arm-none-eabi/lib/armv7e-m/libc_nano.a(lib_a-strncmp.o)
 .debug_abbrev  0x00000000000058a0       0x97 /usr/lib/gcc/arm-none-eabi/5.2.0/../../../../arm-none-eabi/lib/armv7e-m/libc_nano.a(lib_a-strncpy.o)
 .debug_abbrev  0x0000000000005937      0x1e4 /usr/lib/gcc/arm-none-eabi/5.2.0/../../../../arm-none-eabi/lib/armv7e-m/libc_nano.a(lib_a-strtok.o)
 .debug_abbrev  0x0000000000005b1b       0xda /usr/lib/gcc/arm-none-eabi/5.2.0/../../../../arm-none-eabi/lib/armv7e-m/libc_nano.a(lib_a-strtok_r.o)
 .debug_abbrev  0x0000000000005bf5      0x1b3 /usr/lib/gcc/arm-none-eabi/5.2.0/../../../../arm-none-eabi/lib/armv7e-m/libc_nano.a(lib_a-strtol.o)
 .debug_abbrev  0x0000000000005da8      0x1bd /usr/lib/gcc/arm-none-eabi/5.2.0/../../../../arm-none-eabi/lib/armv7e-m/libc_nano.a(lib_a-vsnprintf.o)
 .debug_abbrev  0x0000000000005f65       0x4e /usr/lib/gcc/arm-none-eabi/5.2.0/../../../../arm-none-eabi/lib/armv7e-m/libc_nano.a(lib_a-ctype_.o)
 .debug_abbrev  0x0000000000005fb3      0x136 /usr/lib/gcc/arm-none-eabi/5.2.0/../../../../arm-none-eabi/lib/armv7e-m/libc_nano.a(lib_a-impure.o)
 .debug_abbrev  0x00000000000060e9      0x1af /usr/lib/gcc/arm-none-eabi/5.2.0/../../../../arm-none-eabi/lib/armv7e-m/libc_nano.a(lib_a-nano-reallocr.o)
 .debug_abbrev  0x0000000000006298      0x23f /usr/lib/gcc/arm-none-eabi/5.2.0/../../../../arm-none-eabi/lib/armv7e-m/libc_nano.a(lib_a-nano-svfprintf.o)
 .debug_abbrev  0x00000000000064d7      0x1f4 /usr/lib/gcc/arm-none-eabi/5.2.0/../../../../arm-none-eabi/lib/armv7e-m/libc_nano.a(lib_a-nano-vfprintf_i.o)
 .debug_abbrev  0x00000000000066cb      0x1f2 /usr/lib/gcc/arm-none-eabi/5.2.0/../../../../arm-none-eabi/lib/armv7e-m/libc_nano.a(lib_a-reent.o)
 .debug_abbrev  0x00000000000068bd       0xab /usr/lib/gcc/arm-none-eabi/5.2.0/../../../../arm-none-eabi/lib/armv7e-m/libc_nano.a(lib_a-memchr.o)
 .debug_abbrev  0x0000000000006968      0x161 /usr/lib/gcc/arm-none-eabi/5.2.0/../../../../arm-none-eabi/lib/armv7e-m/libc_nano.a(lib_a-nano-msizer.o)

.debug_aranges  0x0000000000000000     0x26b8
 .debug_aranges
                0x0000000000000000       0x60 obj/Debug/main.o
 .debug_aranges
                0x0000000000000060       0x20 obj/Debug/pinmux.o
 .debug_aranges
                0x0000000000000080       0x48 obj/Debug/server_client_cbs.o
 .debug_aranges
                0x00000000000000c8       0x50 obj/Debug/uart_if.o
 .debug_aranges
                0x0000000000000118       0xc8 obj/Debug/network_if.o
 .debug_aranges
                0x00000000000001e0       0x68 obj/Debug/gpio_if.o
 .debug_aranges
                0x0000000000000248       0x60 obj/Debug/timer_if.o
 .debug_aranges
                0x00000000000002a8       0x40 obj/Debug/button_if.o
 .debug_aranges
                0x00000000000002e8       0x48 obj/Debug/startup_gcc.o
 .debug_aranges
                0x0000000000000330       0xb8 ../../../netapps/mqtt/gcc/lib/client_server/Debug/libmqtt.a(sl_mqtt_client.o)
 .debug_aranges
                0x00000000000003e8       0x88 ../../../netapps/mqtt/gcc/lib/client_server/Debug/libmqtt.a(sl_mqtt_server.o)
 .debug_aranges
                0x0000000000000470       0x80 ../../../netapps/mqtt/gcc/lib/client_server/Debug/libmqtt.a(cc32xx_sl_net.o)
 .debug_aranges
                0x00000000000004f0       0x28 ../../../netapps/mqtt/gcc/lib/client_server/Debug/libmqtt.a(cc32xx_platform.o)
 .debug_aranges
                0x0000000000000518      0x368 ../../../netapps/mqtt/gcc/lib/client_server/Debug/libmqtt.a(mqtt_client.o)
 .debug_aranges
                0x0000000000000880      0x130 ../../../netapps/mqtt/gcc/lib/client_server/Debug/libmqtt.a(mqtt_common.o)
 .debug_aranges
                0x00000000000009b0      0x2a0 ../../../netapps/mqtt/gcc/lib/client_server/Debug/libmqtt.a(server_core.o)
 .debug_aranges
                0x0000000000000c50      0x1c8 ../../../netapps/mqtt/gcc/lib/client_server/Debug/libmqtt.a(server_pkts.o)
 .debug_aranges
                0x0000000000000e18       0x88 ../../../netapps/mqtt/gcc/lib/client_server/Debug/libmqtt.a(server_plug.o)
 .debug_aranges
                0x0000000000000ea0       0x68 ../../../netapps/mqtt/gcc/lib/client_server/Debug/libmqtt.a(server_util.o)
 .debug_aranges
                0x0000000000000f08      0x1b8 ../../../netapps/mqtt/gcc/lib/client_server/Debug/libmqtt.a(client_mgmt.o)
 .debug_aranges
                0x00000000000010c0       0x70 ../../../simplelink/gcc/lib/os/Debug/libsimplelink.a(device.o)
 .debug_aranges
                0x0000000000001130      0x130 ../../../simplelink/gcc/lib/os/Debug/libsimplelink.a(driver.o)
 .debug_aranges
                0x0000000000001260       0xa8 ../../../simplelink/gcc/lib/os/Debug/libsimplelink.a(netapp.o)
 .debug_aranges
                0x0000000000001308       0x28 ../../../simplelink/gcc/lib/os/Debug/libsimplelink.a(netcfg.o)
 .debug_aranges
                0x0000000000001330       0xe0 ../../../simplelink/gcc/lib/os/Debug/libsimplelink.a(socket.o)
 .debug_aranges
                0x0000000000001410       0xb0 ../../../simplelink/gcc/lib/os/Debug/libsimplelink.a(wlan.o)
 .debug_aranges
                0x00000000000014c0       0xc0 ../../../simplelink/gcc/lib/os/Debug/libsimplelink.a(cc_pal.o)
 .debug_aranges
                0x0000000000001580      0x128 ../../../oslib/gcc/free_rtos/Debug/free_rtos.a(osi_freertos.o)
 .debug_aranges
                0x00000000000016a8      0x120 ../../../oslib/gcc/free_rtos/Debug/free_rtos.a(queue.o)
 .debug_aranges
                0x00000000000017c8      0x1e8 ../../../oslib/gcc/free_rtos/Debug/free_rtos.a(tasks.o)
 .debug_aranges
                0x00000000000019b0       0x90 ../../../oslib/gcc/free_rtos/Debug/free_rtos.a(port.o)
 .debug_aranges
                0x0000000000001a40       0xb0 ../../../oslib/gcc/free_rtos/Debug/free_rtos.a(timers.o)
 .debug_aranges
                0x0000000000001af0       0x28 ../../../oslib/gcc/free_rtos/Debug/free_rtos.a(heap_3.o)
 .debug_aranges
                0x0000000000001b18       0x40 ../../../oslib/gcc/free_rtos/Debug/free_rtos.a(list.o)
 .debug_aranges
                0x0000000000001b58       0x90 ../../../driverlib/gcc/lib/Debug/libdriver.a(gpio.o)
 .debug_aranges
                0x0000000000001be8       0x98 ../../../driverlib/gcc/lib/Debug/libdriver.a(interrupt.o)
 .debug_aranges
                0x0000000000001c80       0x90 ../../../driverlib/gcc/lib/Debug/libdriver.a(pin.o)
 .debug_aranges
                0x0000000000001d10      0x1b8 ../../../driverlib/gcc/lib/Debug/libdriver.a(prcm.o)
 .debug_aranges
                0x0000000000001ec8      0x100 ../../../driverlib/gcc/lib/Debug/libdriver.a(spi.o)
 .debug_aranges
                0x0000000000001fc8       0xd8 ../../../driverlib/gcc/lib/Debug/libdriver.a(timer.o)
 .debug_aranges
                0x00000000000020a0      0x140 ../../../driverlib/gcc/lib/Debug/libdriver.a(uart.o)
 .debug_aranges
                0x00000000000021e0       0xd8 ../../../driverlib/gcc/lib/Debug/libdriver.a(udma.o)
 .debug_aranges
                0x00000000000022b8       0x20 ../../../driverlib/gcc/lib/Debug/libdriver.a(utils.o)
 .debug_aranges
                0x00000000000022d8       0x48 ../../../driverlib/gcc/lib/Debug/libdriver.a(cpu.o)
 .debug_aranges
                0x0000000000002320       0x28 /usr/lib/gcc/arm-none-eabi/5.2.0/../../../../arm-none-eabi/lib/armv7e-m/libc_nano.a(lib_a-atoi.o)
 .debug_aranges
                0x0000000000002348       0x28 /usr/lib/gcc/arm-none-eabi/5.2.0/../../../../arm-none-eabi/lib/armv7e-m/libc_nano.a(lib_a-malloc.o)
 .debug_aranges
                0x0000000000002370       0x20 /usr/lib/gcc/arm-none-eabi/5.2.0/../../../../arm-none-eabi/lib/armv7e-m/libc_nano.a(lib_a-memcmp.o)
 .debug_aranges
                0x0000000000002390       0x20 /usr/lib/gcc/arm-none-eabi/5.2.0/../../../../arm-none-eabi/lib/armv7e-m/libc_nano.a(lib_a-memcpy.o)
 .debug_aranges
                0x00000000000023b0       0x20 /usr/lib/gcc/arm-none-eabi/5.2.0/../../../../arm-none-eabi/lib/armv7e-m/libc_nano.a(lib_a-memmove.o)
 .debug_aranges
                0x00000000000023d0       0x20 /usr/lib/gcc/arm-none-eabi/5.2.0/../../../../arm-none-eabi/lib/armv7e-m/libc_nano.a(lib_a-memset.o)
 .debug_aranges
                0x00000000000023f0       0x20 /usr/lib/gcc/arm-none-eabi/5.2.0/../../../../arm-none-eabi/lib/armv7e-m/libc_nano.a(lib_a-nano-freer.o)
 .debug_aranges
                0x0000000000002410       0x20 /usr/lib/gcc/arm-none-eabi/5.2.0/../../../../arm-none-eabi/lib/armv7e-m/libc_nano.a(lib_a-nano-mallocr.o)
 .debug_aranges
                0x0000000000002430       0x20 /usr/lib/gcc/arm-none-eabi/5.2.0/../../../../arm-none-eabi/lib/armv7e-m/libc_nano.a(lib_a-realloc.o)
 .debug_aranges
                0x0000000000002450       0x20 /usr/lib/gcc/arm-none-eabi/5.2.0/../../../../arm-none-eabi/lib/armv7e-m/libc_nano.a(lib_a-sbrkr.o)
 .debug_aranges
                0x0000000000002470       0x20 /usr/lib/gcc/arm-none-eabi/5.2.0/../../../../arm-none-eabi/lib/armv7e-m/libc_nano.a(lib_a-strcmp.o)
 .debug_aranges
                0x0000000000002490       0x20 /usr/lib/gcc/arm-none-eabi/5.2.0/../../../../arm-none-eabi/lib/armv7e-m/libc_nano.a(lib_a-strcpy.o)
 .debug_aranges
                0x00000000000024b0       0x20 /usr/lib/gcc/arm-none-eabi/5.2.0/../../../../arm-none-eabi/lib/armv7e-m/libc_nano.a(lib_a-strlen.o)
 .debug_aranges
                0x00000000000024d0       0x20 /usr/lib/gcc/arm-none-eabi/5.2.0/../../../../arm-none-eabi/lib/armv7e-m/libc_nano.a(lib_a-strncmp.o)
 .debug_aranges
                0x00000000000024f0       0x20 /usr/lib/gcc/arm-none-eabi/5.2.0/../../../../arm-none-eabi/lib/armv7e-m/libc_nano.a(lib_a-strncpy.o)
 .debug_aranges
                0x0000000000002510       0x20 /usr/lib/gcc/arm-none-eabi/5.2.0/../../../../arm-none-eabi/lib/armv7e-m/libc_nano.a(lib_a-strtok.o)
 .debug_aranges
                0x0000000000002530       0x28 /usr/lib/gcc/arm-none-eabi/5.2.0/../../../../arm-none-eabi/lib/armv7e-m/libc_nano.a(lib_a-strtok_r.o)
 .debug_aranges
                0x0000000000002558       0x28 /usr/lib/gcc/arm-none-eabi/5.2.0/../../../../arm-none-eabi/lib/armv7e-m/libc_nano.a(lib_a-strtol.o)
 .debug_aranges
                0x0000000000002580       0x28 /usr/lib/gcc/arm-none-eabi/5.2.0/../../../../arm-none-eabi/lib/armv7e-m/libc_nano.a(lib_a-vsnprintf.o)
 .debug_aranges
                0x00000000000025a8       0x18 /usr/lib/gcc/arm-none-eabi/5.2.0/../../../../arm-none-eabi/lib/armv7e-m/libc_nano.a(lib_a-ctype_.o)
 .debug_aranges
                0x00000000000025c0       0x18 /usr/lib/gcc/arm-none-eabi/5.2.0/../../../../arm-none-eabi/lib/armv7e-m/libc_nano.a(lib_a-impure.o)
 .debug_aranges
                0x00000000000025d8       0x20 /usr/lib/gcc/arm-none-eabi/5.2.0/../../../../arm-none-eabi/lib/armv7e-m/libc_nano.a(lib_a-nano-reallocr.o)
 .debug_aranges
                0x00000000000025f8       0x30 /usr/lib/gcc/arm-none-eabi/5.2.0/../../../../arm-none-eabi/lib/armv7e-m/libc_nano.a(lib_a-nano-svfprintf.o)
 .debug_aranges
                0x0000000000002628       0x28 /usr/lib/gcc/arm-none-eabi/5.2.0/../../../../arm-none-eabi/lib/armv7e-m/libc_nano.a(lib_a-nano-vfprintf_i.o)
 .debug_aranges
                0x0000000000002650       0x28 /usr/lib/gcc/arm-none-eabi/5.2.0/../../../../arm-none-eabi/lib/armv7e-m/libc_nano.a(lib_a-reent.o)
 .debug_aranges
                0x0000000000002678       0x20 /usr/lib/gcc/arm-none-eabi/5.2.0/../../../../arm-none-eabi/lib/armv7e-m/libc_nano.a(lib_a-memchr.o)
 .debug_aranges
                0x0000000000002698       0x20 /usr/lib/gcc/arm-none-eabi/5.2.0/../../../../arm-none-eabi/lib/armv7e-m/libc_nano.a(lib_a-nano-msizer.o)

.debug_ranges   0x0000000000000000     0x2350
 .debug_ranges  0x0000000000000000       0x50 obj/Debug/main.o
 .debug_ranges  0x0000000000000050       0x10 obj/Debug/pinmux.o
 .debug_ranges  0x0000000000000060       0x38 obj/Debug/server_client_cbs.o
 .debug_ranges  0x0000000000000098       0x40 obj/Debug/uart_if.o
 .debug_ranges  0x00000000000000d8       0xb8 obj/Debug/network_if.o
 .debug_ranges  0x0000000000000190       0x58 obj/Debug/gpio_if.o
 .debug_ranges  0x00000000000001e8       0x50 obj/Debug/timer_if.o
 .debug_ranges  0x0000000000000238       0x30 obj/Debug/button_if.o
 .debug_ranges  0x0000000000000268       0x38 obj/Debug/startup_gcc.o
 .debug_ranges  0x00000000000002a0       0xa8 ../../../netapps/mqtt/gcc/lib/client_server/Debug/libmqtt.a(sl_mqtt_client.o)
 .debug_ranges  0x0000000000000348       0x78 ../../../netapps/mqtt/gcc/lib/client_server/Debug/libmqtt.a(sl_mqtt_server.o)
 .debug_ranges  0x00000000000003c0       0x70 ../../../netapps/mqtt/gcc/lib/client_server/Debug/libmqtt.a(cc32xx_sl_net.o)
 .debug_ranges  0x0000000000000430       0x18 ../../../netapps/mqtt/gcc/lib/client_server/Debug/libmqtt.a(cc32xx_platform.o)
 .debug_ranges  0x0000000000000448      0x370 ../../../netapps/mqtt/gcc/lib/client_server/Debug/libmqtt.a(mqtt_client.o)
 .debug_ranges  0x00000000000007b8      0x120 ../../../netapps/mqtt/gcc/lib/client_server/Debug/libmqtt.a(mqtt_common.o)
 .debug_ranges  0x00000000000008d8      0x290 ../../../netapps/mqtt/gcc/lib/client_server/Debug/libmqtt.a(server_core.o)
 .debug_ranges  0x0000000000000b68      0x1e8 ../../../netapps/mqtt/gcc/lib/client_server/Debug/libmqtt.a(server_pkts.o)
 .debug_ranges  0x0000000000000d50       0x78 ../../../netapps/mqtt/gcc/lib/client_server/Debug/libmqtt.a(server_plug.o)
 .debug_ranges  0x0000000000000dc8       0x58 ../../../netapps/mqtt/gcc/lib/client_server/Debug/libmqtt.a(server_util.o)
 .debug_ranges  0x0000000000000e20      0x1a8 ../../../netapps/mqtt/gcc/lib/client_server/Debug/libmqtt.a(client_mgmt.o)
 .debug_ranges  0x0000000000000fc8       0x60 ../../../simplelink/gcc/lib/os/Debug/libsimplelink.a(device.o)
 .debug_ranges  0x0000000000001028      0x138 ../../../simplelink/gcc/lib/os/Debug/libsimplelink.a(driver.o)
 .debug_ranges  0x0000000000001160       0x98 ../../../simplelink/gcc/lib/os/Debug/libsimplelink.a(netapp.o)
 .debug_ranges  0x00000000000011f8       0x18 ../../../simplelink/gcc/lib/os/Debug/libsimplelink.a(netcfg.o)
 .debug_ranges  0x0000000000001210       0xd0 ../../../simplelink/gcc/lib/os/Debug/libsimplelink.a(socket.o)
 .debug_ranges  0x00000000000012e0       0xa0 ../../../simplelink/gcc/lib/os/Debug/libsimplelink.a(wlan.o)
 .debug_ranges  0x0000000000001380       0xb0 ../../../simplelink/gcc/lib/os/Debug/libsimplelink.a(cc_pal.o)
 .debug_ranges  0x0000000000001430      0x118 ../../../oslib/gcc/free_rtos/Debug/free_rtos.a(osi_freertos.o)
 .debug_ranges  0x0000000000001548      0x110 ../../../oslib/gcc/free_rtos/Debug/free_rtos.a(queue.o)
 .debug_ranges  0x0000000000001658      0x1d8 ../../../oslib/gcc/free_rtos/Debug/free_rtos.a(tasks.o)
 .debug_ranges  0x0000000000001830       0x80 ../../../oslib/gcc/free_rtos/Debug/free_rtos.a(port.o)
 .debug_ranges  0x00000000000018b0       0xa0 ../../../oslib/gcc/free_rtos/Debug/free_rtos.a(timers.o)
 .debug_ranges  0x0000000000001950       0x18 ../../../oslib/gcc/free_rtos/Debug/free_rtos.a(heap_3.o)
 .debug_ranges  0x0000000000001968       0x30 ../../../oslib/gcc/free_rtos/Debug/free_rtos.a(list.o)
 .debug_ranges  0x0000000000001998       0x80 ../../../driverlib/gcc/lib/Debug/libdriver.a(gpio.o)
 .debug_ranges  0x0000000000001a18       0x88 ../../../driverlib/gcc/lib/Debug/libdriver.a(interrupt.o)
 .debug_ranges  0x0000000000001aa0       0x80 ../../../driverlib/gcc/lib/Debug/libdriver.a(pin.o)
 .debug_ranges  0x0000000000001b20      0x1a8 ../../../driverlib/gcc/lib/Debug/libdriver.a(prcm.o)
 .debug_ranges  0x0000000000001cc8       0xf0 ../../../driverlib/gcc/lib/Debug/libdriver.a(spi.o)
 .debug_ranges  0x0000000000001db8       0xc8 ../../../driverlib/gcc/lib/Debug/libdriver.a(timer.o)
 .debug_ranges  0x0000000000001e80      0x130 ../../../driverlib/gcc/lib/Debug/libdriver.a(uart.o)
 .debug_ranges  0x0000000000001fb0       0xc8 ../../../driverlib/gcc/lib/Debug/libdriver.a(udma.o)
 .debug_ranges  0x0000000000002078       0x10 ../../../driverlib/gcc/lib/Debug/libdriver.a(utils.o)
 .debug_ranges  0x0000000000002088       0x38 ../../../driverlib/gcc/lib/Debug/libdriver.a(cpu.o)
 .debug_ranges  0x00000000000020c0       0x18 /usr/lib/gcc/arm-none-eabi/5.2.0/../../../../arm-none-eabi/lib/armv7e-m/libc_nano.a(lib_a-atoi.o)
 .debug_ranges  0x00000000000020d8       0x18 /usr/lib/gcc/arm-none-eabi/5.2.0/../../../../arm-none-eabi/lib/armv7e-m/libc_nano.a(lib_a-malloc.o)
 .debug_ranges  0x00000000000020f0       0x10 /usr/lib/gcc/arm-none-eabi/5.2.0/../../../../arm-none-eabi/lib/armv7e-m/libc_nano.a(lib_a-memcmp.o)
 .debug_ranges  0x0000000000002100       0x10 /usr/lib/gcc/arm-none-eabi/5.2.0/../../../../arm-none-eabi/lib/armv7e-m/libc_nano.a(lib_a-memcpy.o)
 .debug_ranges  0x0000000000002110       0x10 /usr/lib/gcc/arm-none-eabi/5.2.0/../../../../arm-none-eabi/lib/armv7e-m/libc_nano.a(lib_a-memmove.o)
 .debug_ranges  0x0000000000002120       0x10 /usr/lib/gcc/arm-none-eabi/5.2.0/../../../../arm-none-eabi/lib/armv7e-m/libc_nano.a(lib_a-memset.o)
 .debug_ranges  0x0000000000002130       0x28 /usr/lib/gcc/arm-none-eabi/5.2.0/../../../../arm-none-eabi/lib/armv7e-m/libc_nano.a(lib_a-nano-freer.o)
 .debug_ranges  0x0000000000002158       0x28 /usr/lib/gcc/arm-none-eabi/5.2.0/../../../../arm-none-eabi/lib/armv7e-m/libc_nano.a(lib_a-nano-mallocr.o)
 .debug_ranges  0x0000000000002180       0x10 /usr/lib/gcc/arm-none-eabi/5.2.0/../../../../arm-none-eabi/lib/armv7e-m/libc_nano.a(lib_a-realloc.o)
 .debug_ranges  0x0000000000002190       0x10 /usr/lib/gcc/arm-none-eabi/5.2.0/../../../../arm-none-eabi/lib/armv7e-m/libc_nano.a(lib_a-sbrkr.o)
 .debug_ranges  0x00000000000021a0       0x10 /usr/lib/gcc/arm-none-eabi/5.2.0/../../../../arm-none-eabi/lib/armv7e-m/libc_nano.a(lib_a-strcpy.o)
 .debug_ranges  0x00000000000021b0       0x10 /usr/lib/gcc/arm-none-eabi/5.2.0/../../../../arm-none-eabi/lib/armv7e-m/libc_nano.a(lib_a-strlen.o)
 .debug_ranges  0x00000000000021c0       0x10 /usr/lib/gcc/arm-none-eabi/5.2.0/../../../../arm-none-eabi/lib/armv7e-m/libc_nano.a(lib_a-strncmp.o)
 .debug_ranges  0x00000000000021d0       0x10 /usr/lib/gcc/arm-none-eabi/5.2.0/../../../../arm-none-eabi/lib/armv7e-m/libc_nano.a(lib_a-strncpy.o)
 .debug_ranges  0x00000000000021e0       0x28 /usr/lib/gcc/arm-none-eabi/5.2.0/../../../../arm-none-eabi/lib/armv7e-m/libc_nano.a(lib_a-strtok.o)
 .debug_ranges  0x0000000000002208       0x18 /usr/lib/gcc/arm-none-eabi/5.2.0/../../../../arm-none-eabi/lib/armv7e-m/libc_nano.a(lib_a-strtok_r.o)
 .debug_ranges  0x0000000000002220       0x18 /usr/lib/gcc/arm-none-eabi/5.2.0/../../../../arm-none-eabi/lib/armv7e-m/libc_nano.a(lib_a-strtol.o)
 .debug_ranges  0x0000000000002238       0x18 /usr/lib/gcc/arm-none-eabi/5.2.0/../../../../arm-none-eabi/lib/armv7e-m/libc_nano.a(lib_a-vsnprintf.o)
 .debug_ranges  0x0000000000002250       0x10 /usr/lib/gcc/arm-none-eabi/5.2.0/../../../../arm-none-eabi/lib/armv7e-m/libc_nano.a(lib_a-nano-reallocr.o)
 .debug_ranges  0x0000000000002260       0x50 /usr/lib/gcc/arm-none-eabi/5.2.0/../../../../arm-none-eabi/lib/armv7e-m/libc_nano.a(lib_a-nano-svfprintf.o)
 .debug_ranges  0x00000000000022b0       0x68 /usr/lib/gcc/arm-none-eabi/5.2.0/../../../../arm-none-eabi/lib/armv7e-m/libc_nano.a(lib_a-nano-vfprintf_i.o)
 .debug_ranges  0x0000000000002318       0x18 /usr/lib/gcc/arm-none-eabi/5.2.0/../../../../arm-none-eabi/lib/armv7e-m/libc_nano.a(lib_a-reent.o)
 .debug_ranges  0x0000000000002330       0x10 /usr/lib/gcc/arm-none-eabi/5.2.0/../../../../arm-none-eabi/lib/armv7e-m/libc_nano.a(lib_a-memchr.o)
 .debug_ranges  0x0000000000002340       0x10 /usr/lib/gcc/arm-none-eabi/5.2.0/../../../../arm-none-eabi/lib/armv7e-m/libc_nano.a(lib_a-nano-msizer.o)

.debug_line     0x0000000000000000     0xc896
 .debug_line    0x0000000000000000      0x278 obj/Debug/main.o
 .debug_line    0x0000000000000278       0x4b obj/Debug/pinmux.o
 .debug_line    0x00000000000002c3      0x18a obj/Debug/server_client_cbs.o
 .debug_line    0x000000000000044d      0x171 obj/Debug/uart_if.o
 .debug_line    0x00000000000005be      0x4e1 obj/Debug/network_if.o
 .debug_line    0x0000000000000a9f      0x13e obj/Debug/gpio_if.o
 .debug_line    0x0000000000000bdd      0x115 obj/Debug/timer_if.o
 .debug_line    0x0000000000000cf2       0xed obj/Debug/button_if.o
 .debug_line    0x0000000000000ddf      0x131 obj/Debug/startup_gcc.o
 .debug_line    0x0000000000000f10      0x485 ../../../netapps/mqtt/gcc/lib/client_server/Debug/libmqtt.a(sl_mqtt_client.o)
 .debug_line    0x0000000000001395      0x304 ../../../netapps/mqtt/gcc/lib/client_server/Debug/libmqtt.a(sl_mqtt_server.o)
 .debug_line    0x0000000000001699      0x303 ../../../netapps/mqtt/gcc/lib/client_server/Debug/libmqtt.a(cc32xx_sl_net.o)
 .debug_line    0x000000000000199c       0x71 ../../../netapps/mqtt/gcc/lib/client_server/Debug/libmqtt.a(cc32xx_platform.o)
 .debug_line    0x0000000000001a0d     0x1078 ../../../netapps/mqtt/gcc/lib/client_server/Debug/libmqtt.a(mqtt_client.o)
 .debug_line    0x0000000000002a85      0x478 ../../../netapps/mqtt/gcc/lib/client_server/Debug/libmqtt.a(mqtt_common.o)
 .debug_line    0x0000000000002efd      0xd38 ../../../netapps/mqtt/gcc/lib/client_server/Debug/libmqtt.a(server_core.o)
 .debug_line    0x0000000000003c35      0x91d ../../../netapps/mqtt/gcc/lib/client_server/Debug/libmqtt.a(server_pkts.o)
 .debug_line    0x0000000000004552      0x28a ../../../netapps/mqtt/gcc/lib/client_server/Debug/libmqtt.a(server_plug.o)
 .debug_line    0x00000000000047dc      0x15d ../../../netapps/mqtt/gcc/lib/client_server/Debug/libmqtt.a(server_util.o)
 .debug_line    0x0000000000004939      0x73c ../../../netapps/mqtt/gcc/lib/client_server/Debug/libmqtt.a(client_mgmt.o)
 .debug_line    0x0000000000005075      0x2d9 ../../../simplelink/gcc/lib/os/Debug/libsimplelink.a(device.o)
 .debug_line    0x000000000000534e      0x90c ../../../simplelink/gcc/lib/os/Debug/libsimplelink.a(driver.o)
 .debug_line    0x0000000000005c5a      0x4a2 ../../../simplelink/gcc/lib/os/Debug/libsimplelink.a(netapp.o)
 .debug_line    0x00000000000060fc      0x100 ../../../simplelink/gcc/lib/os/Debug/libsimplelink.a(netcfg.o)
 .debug_line    0x00000000000061fc      0x5d0 ../../../simplelink/gcc/lib/os/Debug/libsimplelink.a(socket.o)
 .debug_line    0x00000000000067cc      0x554 ../../../simplelink/gcc/lib/os/Debug/libsimplelink.a(wlan.o)
 .debug_line    0x0000000000006d20      0x30b ../../../simplelink/gcc/lib/os/Debug/libsimplelink.a(cc_pal.o)
 .debug_line    0x000000000000702b      0x423 ../../../oslib/gcc/free_rtos/Debug/free_rtos.a(osi_freertos.o)
 .debug_line    0x000000000000744e      0x786 ../../../oslib/gcc/free_rtos/Debug/free_rtos.a(queue.o)
 .debug_line    0x0000000000007bd4      0xbe6 ../../../oslib/gcc/free_rtos/Debug/free_rtos.a(tasks.o)
 .debug_line    0x00000000000087ba      0x284 ../../../oslib/gcc/free_rtos/Debug/free_rtos.a(port.o)
 .debug_line    0x0000000000008a3e      0x3c6 ../../../oslib/gcc/free_rtos/Debug/free_rtos.a(timers.o)
 .debug_line    0x0000000000008e04       0xbd ../../../oslib/gcc/free_rtos/Debug/free_rtos.a(heap_3.o)
 .debug_line    0x0000000000008ec1      0x1a7 ../../../oslib/gcc/free_rtos/Debug/free_rtos.a(list.o)
 .debug_line    0x0000000000009068      0x218 ../../../driverlib/gcc/lib/Debug/libdriver.a(gpio.o)
 .debug_line    0x0000000000009280      0x210 ../../../driverlib/gcc/lib/Debug/libdriver.a(interrupt.o)
 .debug_line    0x0000000000009490      0x172 ../../../driverlib/gcc/lib/Debug/libdriver.a(pin.o)
 .debug_line    0x0000000000009602      0x4f6 ../../../driverlib/gcc/lib/Debug/libdriver.a(prcm.o)
 .debug_line    0x0000000000009af8      0x369 ../../../driverlib/gcc/lib/Debug/libdriver.a(spi.o)
 .debug_line    0x0000000000009e61      0x33d ../../../driverlib/gcc/lib/Debug/libdriver.a(timer.o)
 .debug_line    0x000000000000a19e      0x37e ../../../driverlib/gcc/lib/Debug/libdriver.a(uart.o)
 .debug_line    0x000000000000a51c      0x2aa ../../../driverlib/gcc/lib/Debug/libdriver.a(udma.o)
 .debug_line    0x000000000000a7c6       0x3d ../../../driverlib/gcc/lib/Debug/libdriver.a(utils.o)
 .debug_line    0x000000000000a803       0xa0 ../../../driverlib/gcc/lib/Debug/libdriver.a(cpu.o)
 .debug_line    0x000000000000a8a3      0x146 /usr/lib/gcc/arm-none-eabi/5.2.0/../../../../arm-none-eabi/lib/armv7e-m/libc_nano.a(lib_a-atoi.o)
 .debug_line    0x000000000000a9e9      0x148 /usr/lib/gcc/arm-none-eabi/5.2.0/../../../../arm-none-eabi/lib/armv7e-m/libc_nano.a(lib_a-malloc.o)
 .debug_line    0x000000000000ab31       0xde /usr/lib/gcc/arm-none-eabi/5.2.0/../../../../arm-none-eabi/lib/armv7e-m/libc_nano.a(lib_a-memcmp.o)
 .debug_line    0x000000000000ac0f       0xdc /usr/lib/gcc/arm-none-eabi/5.2.0/../../../../arm-none-eabi/lib/armv7e-m/libc_nano.a(lib_a-memcpy.o)
 .debug_line    0x000000000000aceb       0xe9 /usr/lib/gcc/arm-none-eabi/5.2.0/../../../../arm-none-eabi/lib/armv7e-m/libc_nano.a(lib_a-memmove.o)
 .debug_line    0x000000000000add4       0xdd /usr/lib/gcc/arm-none-eabi/5.2.0/../../../../arm-none-eabi/lib/armv7e-m/libc_nano.a(lib_a-memset.o)
 .debug_line    0x000000000000aeb1      0x13b /usr/lib/gcc/arm-none-eabi/5.2.0/../../../../arm-none-eabi/lib/armv7e-m/libc_nano.a(lib_a-nano-freer.o)
 .debug_line    0x000000000000afec      0x175 /usr/lib/gcc/arm-none-eabi/5.2.0/../../../../arm-none-eabi/lib/armv7e-m/libc_nano.a(lib_a-nano-mallocr.o)
 .debug_line    0x000000000000b161      0x137 /usr/lib/gcc/arm-none-eabi/5.2.0/../../../../arm-none-eabi/lib/armv7e-m/libc_nano.a(lib_a-realloc.o)
 .debug_line    0x000000000000b298      0x140 /usr/lib/gcc/arm-none-eabi/5.2.0/../../../../arm-none-eabi/lib/armv7e-m/libc_nano.a(lib_a-sbrkr.o)
 .debug_line    0x000000000000b3d8       0x75 /usr/lib/gcc/arm-none-eabi/5.2.0/../../../../arm-none-eabi/lib/armv7e-m/libc_nano.a(lib_a-strcmp.o)
 .debug_line    0x000000000000b44d       0xab /usr/lib/gcc/arm-none-eabi/5.2.0/../../../../arm-none-eabi/lib/armv7e-m/libc_nano.a(lib_a-strcpy.o)
 .debug_line    0x000000000000b4f8       0xe4 /usr/lib/gcc/arm-none-eabi/5.2.0/../../../../arm-none-eabi/lib/armv7e-m/libc_nano.a(lib_a-strlen.o)
 .debug_line    0x000000000000b5dc       0xeb /usr/lib/gcc/arm-none-eabi/5.2.0/../../../../arm-none-eabi/lib/armv7e-m/libc_nano.a(lib_a-strncmp.o)
 .debug_line    0x000000000000b6c7       0xe3 /usr/lib/gcc/arm-none-eabi/5.2.0/../../../../arm-none-eabi/lib/armv7e-m/libc_nano.a(lib_a-strncpy.o)
 .debug_line    0x000000000000b7aa      0x147 /usr/lib/gcc/arm-none-eabi/5.2.0/../../../../arm-none-eabi/lib/armv7e-m/libc_nano.a(lib_a-strtok.o)
 .debug_line    0x000000000000b8f1       0xdc /usr/lib/gcc/arm-none-eabi/5.2.0/../../../../arm-none-eabi/lib/armv7e-m/libc_nano.a(lib_a-strtok_r.o)
 .debug_line    0x000000000000b9cd      0x1c3 /usr/lib/gcc/arm-none-eabi/5.2.0/../../../../arm-none-eabi/lib/armv7e-m/libc_nano.a(lib_a-strtol.o)
 .debug_line    0x000000000000bb90      0x17d /usr/lib/gcc/arm-none-eabi/5.2.0/../../../../arm-none-eabi/lib/armv7e-m/libc_nano.a(lib_a-vsnprintf.o)
 .debug_line    0x000000000000bd0d       0x61 /usr/lib/gcc/arm-none-eabi/5.2.0/../../../../arm-none-eabi/lib/armv7e-m/libc_nano.a(lib_a-ctype_.o)
 .debug_line    0x000000000000bd6e       0xe0 /usr/lib/gcc/arm-none-eabi/5.2.0/../../../../arm-none-eabi/lib/armv7e-m/libc_nano.a(lib_a-impure.o)
 .debug_line    0x000000000000be4e      0x15c /usr/lib/gcc/arm-none-eabi/5.2.0/../../../../arm-none-eabi/lib/armv7e-m/libc_nano.a(lib_a-nano-reallocr.o)
 .debug_line    0x000000000000bfaa      0x2ad /usr/lib/gcc/arm-none-eabi/5.2.0/../../../../arm-none-eabi/lib/armv7e-m/libc_nano.a(lib_a-nano-svfprintf.o)
 .debug_line    0x000000000000c257      0x2e9 /usr/lib/gcc/arm-none-eabi/5.2.0/../../../../arm-none-eabi/lib/armv7e-m/libc_nano.a(lib_a-nano-vfprintf_i.o)
 .debug_line    0x000000000000c540      0x17b /usr/lib/gcc/arm-none-eabi/5.2.0/../../../../arm-none-eabi/lib/armv7e-m/libc_nano.a(lib_a-reent.o)
 .debug_line    0x000000000000c6bb       0xdf /usr/lib/gcc/arm-none-eabi/5.2.0/../../../../arm-none-eabi/lib/armv7e-m/libc_nano.a(lib_a-memchr.o)
 .debug_line    0x000000000000c79a       0xfc /usr/lib/gcc/arm-none-eabi/5.2.0/../../../../arm-none-eabi/lib/armv7e-m/libc_nano.a(lib_a-nano-msizer.o)

.debug_str      0x0000000000000000     0xb576
 .debug_str     0x0000000000000000      0x69e obj/Debug/main.o
                                        0x6fa (size before relaxing)
 .debug_str     0x000000000000069e       0x19 obj/Debug/pinmux.o
                                         0xde (size before relaxing)
 .debug_str     0x00000000000006b7      0x130 obj/Debug/server_client_cbs.o
                                        0x375 (size before relaxing)
 .debug_str     0x00000000000007e7       0xd0 obj/Debug/uart_if.o
                                        0x23a (size before relaxing)
 .debug_str     0x00000000000008b7      0xeb8 obj/Debug/network_if.o
                                       0x1138 (size before relaxing)
 .debug_str     0x000000000000176f      0x19f obj/Debug/gpio_if.o
                                        0x3f2 (size before relaxing)
 .debug_str     0x000000000000190e       0xeb obj/Debug/timer_if.o
                                        0x246 (size before relaxing)
 .debug_str     0x00000000000019f9       0xdf obj/Debug/button_if.o
                                        0x23a (size before relaxing)
 .debug_str     0x0000000000001ad8       0xdb obj/Debug/startup_gcc.o
                                        0x237 (size before relaxing)
 .debug_str     0x0000000000001bb3      0x669 ../../../netapps/mqtt/gcc/lib/client_server/Debug/libmqtt.a(sl_mqtt_client.o)
                                        0x9c7 (size before relaxing)
 .debug_str     0x000000000000221c      0x2eb ../../../netapps/mqtt/gcc/lib/client_server/Debug/libmqtt.a(sl_mqtt_server.o)
                                        0x6ef (size before relaxing)
 .debug_str     0x0000000000002507      0x2e1 ../../../netapps/mqtt/gcc/lib/client_server/Debug/libmqtt.a(cc32xx_sl_net.o)
                                        0x4d7 (size before relaxing)
 .debug_str     0x00000000000027e8       0x4c ../../../netapps/mqtt/gcc/lib/client_server/Debug/libmqtt.a(cc32xx_platform.o)
                                        0x186 (size before relaxing)
 .debug_str     0x0000000000002834      0xa47 ../../../netapps/mqtt/gcc/lib/client_server/Debug/libmqtt.a(mqtt_client.o)
                                        0xf74 (size before relaxing)
 .debug_str     0x000000000000327b      0x1fe ../../../netapps/mqtt/gcc/lib/client_server/Debug/libmqtt.a(mqtt_common.o)
                                        0x5c7 (size before relaxing)
 .debug_str     0x0000000000003479      0x79b ../../../netapps/mqtt/gcc/lib/client_server/Debug/libmqtt.a(server_core.o)
                                        0xbea (size before relaxing)
 .debug_str     0x0000000000003c14      0x351 ../../../netapps/mqtt/gcc/lib/client_server/Debug/libmqtt.a(server_pkts.o)
                                        0x99a (size before relaxing)
 .debug_str     0x0000000000003f65      0x126 ../../../netapps/mqtt/gcc/lib/client_server/Debug/libmqtt.a(server_plug.o)
                                        0x3b1 (size before relaxing)
 .debug_str     0x000000000000408b       0xce ../../../netapps/mqtt/gcc/lib/client_server/Debug/libmqtt.a(server_util.o)
                                        0x2ce (size before relaxing)
 .debug_str     0x0000000000004159      0x2d3 ../../../netapps/mqtt/gcc/lib/client_server/Debug/libmqtt.a(client_mgmt.o)
                                        0x6c7 (size before relaxing)
 .debug_str     0x000000000000442c      0x916 ../../../simplelink/gcc/lib/os/Debug/libsimplelink.a(device.o)
                                        0xe3f (size before relaxing)
 .debug_str     0x0000000000004d42      0x7cb ../../../simplelink/gcc/lib/os/Debug/libsimplelink.a(driver.o)
                                       0x1413 (size before relaxing)
 .debug_str     0x000000000000550d      0x958 ../../../simplelink/gcc/lib/os/Debug/libsimplelink.a(netapp.o)
                                       0x1397 (size before relaxing)
 .debug_str     0x0000000000005e65       0x9d ../../../simplelink/gcc/lib/os/Debug/libsimplelink.a(netcfg.o)
                                        0x4a9 (size before relaxing)
 .debug_str     0x0000000000005f02      0x54c ../../../simplelink/gcc/lib/os/Debug/libsimplelink.a(socket.o)
                                        0xecd (size before relaxing)
 .debug_str     0x000000000000644e      0xd05 ../../../simplelink/gcc/lib/os/Debug/libsimplelink.a(wlan.o)
                                       0x1102 (size before relaxing)
 .debug_str     0x0000000000007153      0x333 ../../../simplelink/gcc/lib/os/Debug/libsimplelink.a(cc_pal.o)
                                        0x4ba (size before relaxing)
 .debug_str     0x0000000000007486      0x3dd ../../../oslib/gcc/free_rtos/Debug/free_rtos.a(osi_freertos.o)
                                        0x63f (size before relaxing)
 .debug_str     0x0000000000007863      0x643 ../../../oslib/gcc/free_rtos/Debug/free_rtos.a(queue.o)
                                        0x824 (size before relaxing)
 .debug_str     0x0000000000007ea6      0xbdc ../../../oslib/gcc/free_rtos/Debug/free_rtos.a(tasks.o)
                                        0xf31 (size before relaxing)
 .debug_str     0x0000000000008a82      0x244 ../../../oslib/gcc/free_rtos/Debug/free_rtos.a(port.o)
                                        0x3ea (size before relaxing)
 .debug_str     0x0000000000008cc6      0x4c7 ../../../oslib/gcc/free_rtos/Debug/free_rtos.a(timers.o)
                                        0x76b (size before relaxing)
 .debug_str     0x000000000000918d       0x5f ../../../oslib/gcc/free_rtos/Debug/free_rtos.a(heap_3.o)
                                        0x1b5 (size before relaxing)
 .debug_str     0x00000000000091ec       0xb6 ../../../oslib/gcc/free_rtos/Debug/free_rtos.a(list.o)
                                        0x2a5 (size before relaxing)
 .debug_str     0x00000000000092a2      0x188 ../../../driverlib/gcc/lib/Debug/libdriver.a(gpio.o)
                                        0x239 (size before relaxing)
 .debug_str     0x000000000000942a      0x16c ../../../driverlib/gcc/lib/Debug/libdriver.a(interrupt.o)
                                        0x296 (size before relaxing)
 .debug_str     0x0000000000009596      0x10d ../../../driverlib/gcc/lib/Debug/libdriver.a(pin.o)
                                        0x1fa (size before relaxing)
 .debug_str     0x00000000000096a3      0x608 ../../../driverlib/gcc/lib/Debug/libdriver.a(prcm.o)
                                        0x71d (size before relaxing)
 .debug_str     0x0000000000009cab      0x2b4 ../../../driverlib/gcc/lib/Debug/libdriver.a(spi.o)
                                        0x41b (size before relaxing)
 .debug_str     0x0000000000009f5f      0x1ad ../../../driverlib/gcc/lib/Debug/libdriver.a(timer.o)
                                        0x2af (size before relaxing)
 .debug_str     0x000000000000a10c      0x2d4 ../../../driverlib/gcc/lib/Debug/libdriver.a(uart.o)
                                        0x423 (size before relaxing)
 .debug_str     0x000000000000a3e0      0x2f0 ../../../driverlib/gcc/lib/Debug/libdriver.a(udma.o)
                                        0x3dd (size before relaxing)
 .debug_str     0x000000000000a6d0       0x16 ../../../driverlib/gcc/lib/Debug/libdriver.a(utils.o)
                                         0xcb (size before relaxing)
 .debug_str     0x000000000000a6e6       0x5c ../../../driverlib/gcc/lib/Debug/libdriver.a(cpu.o)
                                        0x109 (size before relaxing)
 .debug_str     0x000000000000a742      0x40f /usr/lib/gcc/arm-none-eabi/5.2.0/../../../../arm-none-eabi/lib/armv7e-m/libc_nano.a(lib_a-atoi.o)
                                        0x50a (size before relaxing)
 .debug_str     0x000000000000ab51       0x4c /usr/lib/gcc/arm-none-eabi/5.2.0/../../../../arm-none-eabi/lib/armv7e-m/libc_nano.a(lib_a-malloc.o)
                                        0x52b (size before relaxing)
 .debug_str     0x000000000000ab9d       0x8f /usr/lib/gcc/arm-none-eabi/5.2.0/../../../../arm-none-eabi/lib/armv7e-m/libc_nano.a(lib_a-memcmp.o)
                                        0x1ae (size before relaxing)
 .debug_str     0x000000000000ac2c       0x49 /usr/lib/gcc/arm-none-eabi/5.2.0/../../../../arm-none-eabi/lib/armv7e-m/libc_nano.a(lib_a-memcpy.o)
                                        0x1c2 (size before relaxing)
 .debug_str     0x000000000000ac75       0x49 /usr/lib/gcc/arm-none-eabi/5.2.0/../../../../arm-none-eabi/lib/armv7e-m/libc_nano.a(lib_a-memmove.o)
                                        0x1c9 (size before relaxing)
 .debug_str     0x000000000000acbe       0x35 /usr/lib/gcc/arm-none-eabi/5.2.0/../../../../arm-none-eabi/lib/armv7e-m/libc_nano.a(lib_a-memset.o)
                                        0x1ae (size before relaxing)
 .debug_str     0x000000000000acf3       0x90 /usr/lib/gcc/arm-none-eabi/5.2.0/../../../../arm-none-eabi/lib/armv7e-m/libc_nano.a(lib_a-nano-freer.o)
                                        0x56f (size before relaxing)
 .debug_str     0x000000000000ad83       0x46 /usr/lib/gcc/arm-none-eabi/5.2.0/../../../../arm-none-eabi/lib/armv7e-m/libc_nano.a(lib_a-nano-mallocr.o)
                                        0x59a (size before relaxing)
 .debug_str     0x000000000000adc9       0x3a /usr/lib/gcc/arm-none-eabi/5.2.0/../../../../arm-none-eabi/lib/armv7e-m/libc_nano.a(lib_a-realloc.o)
                                        0x51c (size before relaxing)
 .debug_str     0x000000000000ae03       0x8f /usr/lib/gcc/arm-none-eabi/5.2.0/../../../../arm-none-eabi/lib/armv7e-m/libc_nano.a(lib_a-sbrkr.o)
                                        0x50e (size before relaxing)
 .debug_str     0x000000000000ae92       0x9c /usr/lib/gcc/arm-none-eabi/5.2.0/../../../../arm-none-eabi/lib/armv7e-m/libc_nano.a(lib_a-strcpy.o)
                                        0x1b4 (size before relaxing)
 .debug_str     0x000000000000af2e       0x45 /usr/lib/gcc/arm-none-eabi/5.2.0/../../../../arm-none-eabi/lib/armv7e-m/libc_nano.a(lib_a-strlen.o)
                                        0x1c3 (size before relaxing)
 .debug_str     0x000000000000af73       0x37 /usr/lib/gcc/arm-none-eabi/5.2.0/../../../../arm-none-eabi/lib/armv7e-m/libc_nano.a(lib_a-strncmp.o)
                                        0x1b0 (size before relaxing)
 .debug_str     0x000000000000afaa       0x43 /usr/lib/gcc/arm-none-eabi/5.2.0/../../../../arm-none-eabi/lib/armv7e-m/libc_nano.a(lib_a-strncpy.o)
                                        0x1cc (size before relaxing)
 .debug_str     0x000000000000afed       0x40 /usr/lib/gcc/arm-none-eabi/5.2.0/../../../../arm-none-eabi/lib/armv7e-m/libc_nano.a(lib_a-strtok.o)
                                        0x51f (size before relaxing)
 .debug_str     0x000000000000b02d       0x54 /usr/lib/gcc/arm-none-eabi/5.2.0/../../../../arm-none-eabi/lib/armv7e-m/libc_nano.a(lib_a-strtok_r.o)
                                        0x1e0 (size before relaxing)
 .debug_str     0x000000000000b081       0x5b /usr/lib/gcc/arm-none-eabi/5.2.0/../../../../arm-none-eabi/lib/armv7e-m/libc_nano.a(lib_a-strtol.o)
                                        0x53d (size before relaxing)
 .debug_str     0x000000000000b0dc       0xad /usr/lib/gcc/arm-none-eabi/5.2.0/../../../../arm-none-eabi/lib/armv7e-m/libc_nano.a(lib_a-vsnprintf.o)
                                        0x556 (size before relaxing)
 .debug_str     0x000000000000b189       0x8e /usr/lib/gcc/arm-none-eabi/5.2.0/../../../../arm-none-eabi/lib/armv7e-m/libc_nano.a(lib_a-ctype_.o)
                                        0x124 (size before relaxing)
 .debug_str     0x000000000000b217       0x8b /usr/lib/gcc/arm-none-eabi/5.2.0/../../../../arm-none-eabi/lib/armv7e-m/libc_nano.a(lib_a-impure.o)
                                        0x556 (size before relaxing)
 .debug_str     0x000000000000b2a2       0x23 /usr/lib/gcc/arm-none-eabi/5.2.0/../../../../arm-none-eabi/lib/armv7e-m/libc_nano.a(lib_a-nano-reallocr.o)
                                        0x577 (size before relaxing)
 .debug_str     0x000000000000b2c5      0x195 /usr/lib/gcc/arm-none-eabi/5.2.0/../../../../arm-none-eabi/lib/armv7e-m/libc_nano.a(lib_a-nano-svfprintf.o)
                                        0x677 (size before relaxing)
 .debug_str     0x000000000000b45a       0x87 /usr/lib/gcc/arm-none-eabi/5.2.0/../../../../arm-none-eabi/lib/armv7e-m/libc_nano.a(lib_a-nano-vfprintf_i.o)
                                        0x616 (size before relaxing)
 .debug_str     0x000000000000b4e1       0x58 /usr/lib/gcc/arm-none-eabi/5.2.0/../../../../arm-none-eabi/lib/armv7e-m/libc_nano.a(lib_a-reent.o)
                                        0x536 (size before relaxing)
 .debug_str     0x000000000000b539       0x2e /usr/lib/gcc/arm-none-eabi/5.2.0/../../../../arm-none-eabi/lib/armv7e-m/libc_nano.a(lib_a-memchr.o)
                                        0x1be (size before relaxing)
 .debug_str     0x000000000000b567        0xf /usr/lib/gcc/arm-none-eabi/5.2.0/../../../../arm-none-eabi/lib/armv7e-m/libc_nano.a(lib_a-nano-msizer.o)
                                        0x555 (size before relaxing)

.comment        0x0000000000000000       0x42
 .comment       0x0000000000000000       0x21 obj/Debug/main.o
                                         0x22 (size before relaxing)
 .comment       0x0000000000000000       0x22 obj/Debug/pinmux.o
 .comment       0x0000000000000000       0x22 obj/Debug/server_client_cbs.o
 .comment       0x0000000000000000       0x22 obj/Debug/uart_if.o
 .comment       0x0000000000000000       0x22 obj/Debug/network_if.o
 .comment       0x0000000000000000       0x22 obj/Debug/gpio_if.o
 .comment       0x0000000000000000       0x22 obj/Debug/timer_if.o
 .comment       0x0000000000000000       0x22 obj/Debug/button_if.o
 .comment       0x0000000000000000       0x22 obj/Debug/startup_gcc.o
 .comment       0x0000000000000000       0x22 ../../../netapps/mqtt/gcc/lib/client_server/Debug/libmqtt.a(sl_mqtt_client.o)
 .comment       0x0000000000000000       0x22 ../../../netapps/mqtt/gcc/lib/client_server/Debug/libmqtt.a(sl_mqtt_server.o)
 .comment       0x0000000000000000       0x22 ../../../netapps/mqtt/gcc/lib/client_server/Debug/libmqtt.a(cc32xx_sl_net.o)
 .comment       0x0000000000000000       0x22 ../../../netapps/mqtt/gcc/lib/client_server/Debug/libmqtt.a(cc32xx_platform.o)
 .comment       0x0000000000000000       0x22 ../../../netapps/mqtt/gcc/lib/client_server/Debug/libmqtt.a(mqtt_client.o)
 .comment       0x0000000000000000       0x22 ../../../netapps/mqtt/gcc/lib/client_server/Debug/libmqtt.a(mqtt_common.o)
 .comment       0x0000000000000000       0x22 ../../../netapps/mqtt/gcc/lib/client_server/Debug/libmqtt.a(server_core.o)
 .comment       0x0000000000000000       0x22 ../../../netapps/mqtt/gcc/lib/client_server/Debug/libmqtt.a(server_pkts.o)
 .comment       0x0000000000000000       0x22 ../../../netapps/mqtt/gcc/lib/client_server/Debug/libmqtt.a(server_plug.o)
 .comment       0x0000000000000000       0x22 ../../../netapps/mqtt/gcc/lib/client_server/Debug/libmqtt.a(server_util.o)
 .comment       0x0000000000000000       0x22 ../../../netapps/mqtt/gcc/lib/client_server/Debug/libmqtt.a(client_mgmt.o)
 .comment       0x0000000000000000       0x22 ../../../simplelink/gcc/lib/os/Debug/libsimplelink.a(device.o)
 .comment       0x0000000000000000       0x22 ../../../simplelink/gcc/lib/os/Debug/libsimplelink.a(driver.o)
 .comment       0x0000000000000000       0x22 ../../../simplelink/gcc/lib/os/Debug/libsimplelink.a(netapp.o)
 .comment       0x0000000000000000       0x22 ../../../simplelink/gcc/lib/os/Debug/libsimplelink.a(netcfg.o)
 .comment       0x0000000000000000       0x22 ../../../simplelink/gcc/lib/os/Debug/libsimplelink.a(socket.o)
 .comment       0x0000000000000000       0x22 ../../../simplelink/gcc/lib/os/Debug/libsimplelink.a(wlan.o)
 .comment       0x0000000000000000       0x22 ../../../simplelink/gcc/lib/os/Debug/libsimplelink.a(cc_pal.o)
 .comment       0x0000000000000000       0x22 ../../../oslib/gcc/free_rtos/Debug/free_rtos.a(osi_freertos.o)
 .comment       0x0000000000000000       0x22 ../../../oslib/gcc/free_rtos/Debug/free_rtos.a(queue.o)
 .comment       0x0000000000000000       0x22 ../../../oslib/gcc/free_rtos/Debug/free_rtos.a(tasks.o)
 .comment       0x0000000000000000       0x22 ../../../oslib/gcc/free_rtos/Debug/free_rtos.a(port.o)
 .comment       0x0000000000000000       0x22 ../../../oslib/gcc/free_rtos/Debug/free_rtos.a(timers.o)
 .comment       0x0000000000000000       0x22 ../../../oslib/gcc/free_rtos/Debug/free_rtos.a(heap_3.o)
 .comment       0x0000000000000000       0x22 ../../../oslib/gcc/free_rtos/Debug/free_rtos.a(list.o)
 .comment       0x0000000000000000       0x22 ../../../driverlib/gcc/lib/Debug/libdriver.a(gpio.o)
 .comment       0x0000000000000000       0x22 ../../../driverlib/gcc/lib/Debug/libdriver.a(interrupt.o)
 .comment       0x0000000000000000       0x22 ../../../driverlib/gcc/lib/Debug/libdriver.a(pin.o)
 .comment       0x0000000000000000       0x22 ../../../driverlib/gcc/lib/Debug/libdriver.a(prcm.o)
 .comment       0x0000000000000000       0x22 ../../../driverlib/gcc/lib/Debug/libdriver.a(spi.o)
 .comment       0x0000000000000000       0x22 ../../../driverlib/gcc/lib/Debug/libdriver.a(timer.o)
 .comment       0x0000000000000000       0x22 ../../../driverlib/gcc/lib/Debug/libdriver.a(uart.o)
 .comment       0x0000000000000000       0x22 ../../../driverlib/gcc/lib/Debug/libdriver.a(udma.o)
 .comment       0x0000000000000000       0x22 ../../../driverlib/gcc/lib/Debug/libdriver.a(utils.o)
 .comment       0x0000000000000000       0x22 ../../../driverlib/gcc/lib/Debug/libdriver.a(cpu.o)
 .comment       0x0000000000000021       0x21 /usr/lib/gcc/arm-none-eabi/5.2.0/../../../../arm-none-eabi/lib/armv7e-m/libc_nano.a(lib_a-atoi.o)
                                         0x22 (size before relaxing)
 .comment       0x0000000000000000       0x22 /usr/lib/gcc/arm-none-eabi/5.2.0/../../../../arm-none-eabi/lib/armv7e-m/libc_nano.a(lib_a-malloc.o)
 .comment       0x0000000000000000       0x22 /usr/lib/gcc/arm-none-eabi/5.2.0/../../../../arm-none-eabi/lib/armv7e-m/libc_nano.a(lib_a-memcmp.o)
 .comment       0x0000000000000000       0x22 /usr/lib/gcc/arm-none-eabi/5.2.0/../../../../arm-none-eabi/lib/armv7e-m/libc_nano.a(lib_a-memcpy.o)
 .comment       0x0000000000000000       0x22 /usr/lib/gcc/arm-none-eabi/5.2.0/../../../../arm-none-eabi/lib/armv7e-m/libc_nano.a(lib_a-memmove.o)
 .comment       0x0000000000000000       0x22 /usr/lib/gcc/arm-none-eabi/5.2.0/../../../../arm-none-eabi/lib/armv7e-m/libc_nano.a(lib_a-memset.o)
 .comment       0x0000000000000000       0x22 /usr/lib/gcc/arm-none-eabi/5.2.0/../../../../arm-none-eabi/lib/armv7e-m/libc_nano.a(lib_a-nano-freer.o)
 .comment       0x0000000000000000       0x22 /usr/lib/gcc/arm-none-eabi/5.2.0/../../../../arm-none-eabi/lib/armv7e-m/libc_nano.a(lib_a-nano-mallocr.o)
 .comment       0x0000000000000000       0x22 /usr/lib/gcc/arm-none-eabi/5.2.0/../../../../arm-none-eabi/lib/armv7e-m/libc_nano.a(lib_a-realloc.o)
 .comment       0x0000000000000000       0x22 /usr/lib/gcc/arm-none-eabi/5.2.0/../../../../arm-none-eabi/lib/armv7e-m/libc_nano.a(lib_a-sbrkr.o)
 .comment       0x0000000000000000       0x22 /usr/lib/gcc/arm-none-eabi/5.2.0/../../../../arm-none-eabi/lib/armv7e-m/libc_nano.a(lib_a-strcpy.o)
 .comment       0x0000000000000000       0x22 /usr/lib/gcc/arm-none-eabi/5.2.0/../../../../arm-none-eabi/lib/armv7e-m/libc_nano.a(lib_a-strlen.o)
 .comment       0x0000000000000000       0x22 /usr/lib/gcc/arm-none-eabi/5.2.0/../../../../arm-none-eabi/lib/armv7e-m/libc_nano.a(lib_a-strncmp.o)
 .comment       0x0000000000000000       0x22 /usr/lib/gcc/arm-none-eabi/5.2.0/../../../../arm-none-eabi/lib/armv7e-m/libc_nano.a(lib_a-strncpy.o)
 .comment       0x0000000000000000       0x22 /usr/lib/gcc/arm-none-eabi/5.2.0/../../../../arm-none-eabi/lib/armv7e-m/libc_nano.a(lib_a-strtok.o)
 .comment       0x0000000000000000       0x22 /usr/lib/gcc/arm-none-eabi/5.2.0/../../../../arm-none-eabi/lib/armv7e-m/libc_nano.a(lib_a-strtok_r.o)
 .comment       0x0000000000000000       0x22 /usr/lib/gcc/arm-none-eabi/5.2.0/../../../../arm-none-eabi/lib/armv7e-m/libc_nano.a(lib_a-strtol.o)
 .comment       0x0000000000000000       0x22 /usr/lib/gcc/arm-none-eabi/5.2.0/../../../../arm-none-eabi/lib/armv7e-m/libc_nano.a(lib_a-vsnprintf.o)
 .comment       0x0000000000000000       0x22 /usr/lib/gcc/arm-none-eabi/5.2.0/../../../../arm-none-eabi/lib/armv7e-m/libc_nano.a(lib_a-ctype_.o)
 .comment       0x0000000000000000       0x22 /usr/lib/gcc/arm-none-eabi/5.2.0/../../../../arm-none-eabi/lib/armv7e-m/libc_nano.a(lib_a-impure.o)
 .comment       0x0000000000000000       0x22 /usr/lib/gcc/arm-none-eabi/5.2.0/../../../../arm-none-eabi/lib/armv7e-m/libc_nano.a(lib_a-nano-reallocr.o)
 .comment       0x0000000000000000       0x22 /usr/lib/gcc/arm-none-eabi/5.2.0/../../../../arm-none-eabi/lib/armv7e-m/libc_nano.a(lib_a-nano-svfprintf.o)
 .comment       0x0000000000000000       0x22 /usr/lib/gcc/arm-none-eabi/5.2.0/../../../../arm-none-eabi/lib/armv7e-m/libc_nano.a(lib_a-nano-vfprintf_i.o)
 .comment       0x0000000000000000       0x22 /usr/lib/gcc/arm-none-eabi/5.2.0/../../../../arm-none-eabi/lib/armv7e-m/libc_nano.a(lib_a-reent.o)
 .comment       0x0000000000000000       0x22 /usr/lib/gcc/arm-none-eabi/5.2.0/../../../../arm-none-eabi/lib/armv7e-m/libc_nano.a(lib_a-memchr.o)
 .comment       0x0000000000000000       0x22 /usr/lib/gcc/arm-none-eabi/5.2.0/../../../../arm-none-eabi/lib/armv7e-m/libc_nano.a(lib_a-nano-msizer.o)

.ARM.attributes
                0x0000000000000000       0x31
 .ARM.attributes
                0x0000000000000000       0x33 obj/Debug/main.o
 .ARM.attributes
                0x0000000000000033       0x33 obj/Debug/pinmux.o
 .ARM.attributes
                0x0000000000000066       0x33 obj/Debug/server_client_cbs.o
 .ARM.attributes
                0x0000000000000099       0x33 obj/Debug/uart_if.o
 .ARM.attributes
                0x00000000000000cc       0x33 obj/Debug/network_if.o
 .ARM.attributes
                0x00000000000000ff       0x33 obj/Debug/gpio_if.o
 .ARM.attributes
                0x0000000000000132       0x33 obj/Debug/timer_if.o
 .ARM.attributes
                0x0000000000000165       0x33 obj/Debug/button_if.o
 .ARM.attributes
                0x0000000000000198       0x33 obj/Debug/startup_gcc.o
 .ARM.attributes
                0x00000000000001cb       0x33 ../../../netapps/mqtt/gcc/lib/client_server/Debug/libmqtt.a(sl_mqtt_client.o)
 .ARM.attributes
                0x00000000000001fe       0x33 ../../../netapps/mqtt/gcc/lib/client_server/Debug/libmqtt.a(sl_mqtt_server.o)
 .ARM.attributes
                0x0000000000000231       0x33 ../../../netapps/mqtt/gcc/lib/client_server/Debug/libmqtt.a(cc32xx_sl_net.o)
 .ARM.attributes
                0x0000000000000264       0x33 ../../../netapps/mqtt/gcc/lib/client_server/Debug/libmqtt.a(cc32xx_platform.o)
 .ARM.attributes
                0x0000000000000297       0x33 ../../../netapps/mqtt/gcc/lib/client_server/Debug/libmqtt.a(mqtt_client.o)
 .ARM.attributes
                0x00000000000002ca       0x33 ../../../netapps/mqtt/gcc/lib/client_server/Debug/libmqtt.a(mqtt_common.o)
 .ARM.attributes
                0x00000000000002fd       0x33 ../../../netapps/mqtt/gcc/lib/client_server/Debug/libmqtt.a(server_core.o)
 .ARM.attributes
                0x0000000000000330       0x33 ../../../netapps/mqtt/gcc/lib/client_server/Debug/libmqtt.a(server_pkts.o)
 .ARM.attributes
                0x0000000000000363       0x33 ../../../netapps/mqtt/gcc/lib/client_server/Debug/libmqtt.a(server_plug.o)
 .ARM.attributes
                0x0000000000000396       0x33 ../../../netapps/mqtt/gcc/lib/client_server/Debug/libmqtt.a(server_util.o)
 .ARM.attributes
                0x00000000000003c9       0x33 ../../../netapps/mqtt/gcc/lib/client_server/Debug/libmqtt.a(client_mgmt.o)
 .ARM.attributes
                0x00000000000003fc       0x33 ../../../simplelink/gcc/lib/os/Debug/libsimplelink.a(device.o)
 .ARM.attributes
                0x000000000000042f       0x33 ../../../simplelink/gcc/lib/os/Debug/libsimplelink.a(driver.o)
 .ARM.attributes
                0x0000000000000462       0x33 ../../../simplelink/gcc/lib/os/Debug/libsimplelink.a(netapp.o)
 .ARM.attributes
                0x0000000000000495       0x33 ../../../simplelink/gcc/lib/os/Debug/libsimplelink.a(netcfg.o)
 .ARM.attributes
                0x00000000000004c8       0x33 ../../../simplelink/gcc/lib/os/Debug/libsimplelink.a(socket.o)
 .ARM.attributes
                0x00000000000004fb       0x33 ../../../simplelink/gcc/lib/os/Debug/libsimplelink.a(wlan.o)
 .ARM.attributes
                0x000000000000052e       0x33 ../../../simplelink/gcc/lib/os/Debug/libsimplelink.a(cc_pal.o)
 .ARM.attributes
                0x0000000000000561       0x33 ../../../oslib/gcc/free_rtos/Debug/free_rtos.a(osi_freertos.o)
 .ARM.attributes
                0x0000000000000594       0x33 ../../../oslib/gcc/free_rtos/Debug/free_rtos.a(queue.o)
 .ARM.attributes
                0x00000000000005c7       0x33 ../../../oslib/gcc/free_rtos/Debug/free_rtos.a(tasks.o)
 .ARM.attributes
                0x00000000000005fa       0x33 ../../../oslib/gcc/free_rtos/Debug/free_rtos.a(port.o)
 .ARM.attributes
                0x000000000000062d       0x33 ../../../oslib/gcc/free_rtos/Debug/free_rtos.a(timers.o)
 .ARM.attributes
                0x0000000000000660       0x33 ../../../oslib/gcc/free_rtos/Debug/free_rtos.a(heap_3.o)
 .ARM.attributes
                0x0000000000000693       0x33 ../../../oslib/gcc/free_rtos/Debug/free_rtos.a(list.o)
 .ARM.attributes
                0x00000000000006c6       0x33 ../../../driverlib/gcc/lib/Debug/libdriver.a(gpio.o)
 .ARM.attributes
                0x00000000000006f9       0x33 ../../../driverlib/gcc/lib/Debug/libdriver.a(interrupt.o)
 .ARM.attributes
                0x000000000000072c       0x33 ../../../driverlib/gcc/lib/Debug/libdriver.a(pin.o)
 .ARM.attributes
                0x000000000000075f       0x33 ../../../driverlib/gcc/lib/Debug/libdriver.a(prcm.o)
 .ARM.attributes
                0x0000000000000792       0x33 ../../../driverlib/gcc/lib/Debug/libdriver.a(spi.o)
 .ARM.attributes
                0x00000000000007c5       0x33 ../../../driverlib/gcc/lib/Debug/libdriver.a(timer.o)
 .ARM.attributes
                0x00000000000007f8       0x33 ../../../driverlib/gcc/lib/Debug/libdriver.a(uart.o)
 .ARM.attributes
                0x000000000000082b       0x33 ../../../driverlib/gcc/lib/Debug/libdriver.a(udma.o)
 .ARM.attributes
                0x000000000000085e       0x33 ../../../driverlib/gcc/lib/Debug/libdriver.a(utils.o)
 .ARM.attributes
                0x0000000000000891       0x33 ../../../driverlib/gcc/lib/Debug/libdriver.a(cpu.o)
 .ARM.attributes
                0x00000000000008c4       0x2e /usr/lib/gcc/arm-none-eabi/5.2.0/../../../../arm-none-eabi/lib/armv7e-m/libc_nano.a(lib_a-atoi.o)
 .ARM.attributes
                0x00000000000008f2       0x2e /usr/lib/gcc/arm-none-eabi/5.2.0/../../../../arm-none-eabi/lib/armv7e-m/libc_nano.a(lib_a-malloc.o)
 .ARM.attributes
                0x0000000000000920       0x2e /usr/lib/gcc/arm-none-eabi/5.2.0/../../../../arm-none-eabi/lib/armv7e-m/libc_nano.a(lib_a-memcmp.o)
 .ARM.attributes
                0x000000000000094e       0x2e /usr/lib/gcc/arm-none-eabi/5.2.0/../../../../arm-none-eabi/lib/armv7e-m/libc_nano.a(lib_a-memcpy.o)
 .ARM.attributes
                0x000000000000097c       0x2e /usr/lib/gcc/arm-none-eabi/5.2.0/../../../../arm-none-eabi/lib/armv7e-m/libc_nano.a(lib_a-memmove.o)
 .ARM.attributes
                0x00000000000009aa       0x2e /usr/lib/gcc/arm-none-eabi/5.2.0/../../../../arm-none-eabi/lib/armv7e-m/libc_nano.a(lib_a-memset.o)
 .ARM.attributes
                0x00000000000009d8       0x2e /usr/lib/gcc/arm-none-eabi/5.2.0/../../../../arm-none-eabi/lib/armv7e-m/libc_nano.a(lib_a-nano-freer.o)
 .ARM.attributes
                0x0000000000000a06       0x2e /usr/lib/gcc/arm-none-eabi/5.2.0/../../../../arm-none-eabi/lib/armv7e-m/libc_nano.a(lib_a-nano-mallocr.o)
 .ARM.attributes
                0x0000000000000a34       0x2e /usr/lib/gcc/arm-none-eabi/5.2.0/../../../../arm-none-eabi/lib/armv7e-m/libc_nano.a(lib_a-realloc.o)
 .ARM.attributes
                0x0000000000000a62       0x2e /usr/lib/gcc/arm-none-eabi/5.2.0/../../../../arm-none-eabi/lib/armv7e-m/libc_nano.a(lib_a-sbrkr.o)
 .ARM.attributes
                0x0000000000000a90       0x1c /usr/lib/gcc/arm-none-eabi/5.2.0/../../../../arm-none-eabi/lib/armv7e-m/libc_nano.a(lib_a-strcmp.o)
 .ARM.attributes
                0x0000000000000aac       0x2e /usr/lib/gcc/arm-none-eabi/5.2.0/../../../../arm-none-eabi/lib/armv7e-m/libc_nano.a(lib_a-strcpy.o)
 .ARM.attributes
                0x0000000000000ada       0x2e /usr/lib/gcc/arm-none-eabi/5.2.0/../../../../arm-none-eabi/lib/armv7e-m/libc_nano.a(lib_a-strlen.o)
 .ARM.attributes
                0x0000000000000b08       0x2e /usr/lib/gcc/arm-none-eabi/5.2.0/../../../../arm-none-eabi/lib/armv7e-m/libc_nano.a(lib_a-strncmp.o)
 .ARM.attributes
                0x0000000000000b36       0x2e /usr/lib/gcc/arm-none-eabi/5.2.0/../../../../arm-none-eabi/lib/armv7e-m/libc_nano.a(lib_a-strncpy.o)
 .ARM.attributes
                0x0000000000000b64       0x2e /usr/lib/gcc/arm-none-eabi/5.2.0/../../../../arm-none-eabi/lib/armv7e-m/libc_nano.a(lib_a-strtok.o)
 .ARM.attributes
                0x0000000000000b92       0x2e /usr/lib/gcc/arm-none-eabi/5.2.0/../../../../arm-none-eabi/lib/armv7e-m/libc_nano.a(lib_a-strtok_r.o)
 .ARM.attributes
                0x0000000000000bc0       0x2e /usr/lib/gcc/arm-none-eabi/5.2.0/../../../../arm-none-eabi/lib/armv7e-m/libc_nano.a(lib_a-strtol.o)
 .ARM.attributes
                0x0000000000000bee       0x2e /usr/lib/gcc/arm-none-eabi/5.2.0/../../../../arm-none-eabi/lib/armv7e-m/libc_nano.a(lib_a-vsnprintf.o)
 .ARM.attributes
                0x0000000000000c1c       0x2e /usr/lib/gcc/arm-none-eabi/5.2.0/../../../../arm-none-eabi/lib/armv7e-m/libc_nano.a(lib_a-ctype_.o)
 .ARM.attributes
                0x0000000000000c4a       0x2e /usr/lib/gcc/arm-none-eabi/5.2.0/../../../../arm-none-eabi/lib/armv7e-m/libc_nano.a(lib_a-impure.o)
 .ARM.attributes
                0x0000000000000c78       0x2e /usr/lib/gcc/arm-none-eabi/5.2.0/../../../../arm-none-eabi/lib/armv7e-m/libc_nano.a(lib_a-nano-reallocr.o)
 .ARM.attributes
                0x0000000000000ca6       0x2e /usr/lib/gcc/arm-none-eabi/5.2.0/../../../../arm-none-eabi/lib/armv7e-m/libc_nano.a(lib_a-nano-svfprintf.o)
 .ARM.attributes
                0x0000000000000cd4       0x2e /usr/lib/gcc/arm-none-eabi/5.2.0/../../../../arm-none-eabi/lib/armv7e-m/libc_nano.a(lib_a-nano-vfprintf_i.o)
 .ARM.attributes
                0x0000000000000d02       0x2e /usr/lib/gcc/arm-none-eabi/5.2.0/../../../../arm-none-eabi/lib/armv7e-m/libc_nano.a(lib_a-reent.o)
 .ARM.attributes
                0x0000000000000d30       0x2e /usr/lib/gcc/arm-none-eabi/5.2.0/../../../../arm-none-eabi/lib/armv7e-m/libc_nano.a(lib_a-memchr.o)
 .ARM.attributes
                0x0000000000000d5e       0x2e /usr/lib/gcc/arm-none-eabi/5.2.0/../../../../arm-none-eabi/lib/armv7e-m/libc_nano.a(lib_a-nano-msizer.o)

.debug_frame    0x0000000000000000     0x95f4
 .debug_frame   0x0000000000000000      0x144 obj/Debug/main.o
 .debug_frame   0x0000000000000144       0x2c obj/Debug/pinmux.o
 .debug_frame   0x0000000000000170       0xe8 obj/Debug/server_client_cbs.o
 .debug_frame   0x0000000000000258      0x12c obj/Debug/uart_if.o
 .debug_frame   0x0000000000000384      0x320 obj/Debug/network_if.o
 .debug_frame   0x00000000000006a4      0x180 obj/Debug/gpio_if.o
 .debug_frame   0x0000000000000824      0x158 obj/Debug/timer_if.o
 .debug_frame   0x000000000000097c       0xc4 obj/Debug/button_if.o
 .debug_frame   0x0000000000000a40       0xbc obj/Debug/startup_gcc.o
 .debug_frame   0x0000000000000afc      0x300 ../../../netapps/mqtt/gcc/lib/client_server/Debug/libmqtt.a(sl_mqtt_client.o)
 .debug_frame   0x0000000000000dfc      0x218 ../../../netapps/mqtt/gcc/lib/client_server/Debug/libmqtt.a(sl_mqtt_server.o)
 .debug_frame   0x0000000000001014      0x1f8 ../../../netapps/mqtt/gcc/lib/client_server/Debug/libmqtt.a(cc32xx_sl_net.o)
 .debug_frame   0x000000000000120c       0x50 ../../../netapps/mqtt/gcc/lib/client_server/Debug/libmqtt.a(cc32xx_platform.o)
 .debug_frame   0x000000000000125c      0xf80 ../../../netapps/mqtt/gcc/lib/client_server/Debug/libmqtt.a(mqtt_client.o)
 .debug_frame   0x00000000000021dc      0x540 ../../../netapps/mqtt/gcc/lib/client_server/Debug/libmqtt.a(mqtt_common.o)
 .debug_frame   0x000000000000271c      0xbe8 ../../../netapps/mqtt/gcc/lib/client_server/Debug/libmqtt.a(server_core.o)
 .debug_frame   0x0000000000003304      0x7f8 ../../../netapps/mqtt/gcc/lib/client_server/Debug/libmqtt.a(server_pkts.o)
 .debug_frame   0x0000000000003afc      0x220 ../../../netapps/mqtt/gcc/lib/client_server/Debug/libmqtt.a(server_plug.o)
 .debug_frame   0x0000000000003d1c      0x164 ../../../netapps/mqtt/gcc/lib/client_server/Debug/libmqtt.a(server_util.o)
 .debug_frame   0x0000000000003e80      0x790 ../../../netapps/mqtt/gcc/lib/client_server/Debug/libmqtt.a(client_mgmt.o)
 .debug_frame   0x0000000000004610      0x1a8 ../../../simplelink/gcc/lib/os/Debug/libsimplelink.a(device.o)
 .debug_frame   0x00000000000047b8      0x514 ../../../simplelink/gcc/lib/os/Debug/libsimplelink.a(driver.o)
 .debug_frame   0x0000000000004ccc      0x2ac ../../../simplelink/gcc/lib/os/Debug/libsimplelink.a(netapp.o)
 .debug_frame   0x0000000000004f78       0x58 ../../../simplelink/gcc/lib/os/Debug/libsimplelink.a(netcfg.o)
 .debug_frame   0x0000000000004fd0      0x3b0 ../../../simplelink/gcc/lib/os/Debug/libsimplelink.a(socket.o)
 .debug_frame   0x0000000000005380      0x2a8 ../../../simplelink/gcc/lib/os/Debug/libsimplelink.a(wlan.o)
 .debug_frame   0x0000000000005628      0x2d0 ../../../simplelink/gcc/lib/os/Debug/libsimplelink.a(cc_pal.o)
 .debug_frame   0x00000000000058f8      0x4ac ../../../oslib/gcc/free_rtos/Debug/free_rtos.a(osi_freertos.o)
 .debug_frame   0x0000000000005da4      0x4c8 ../../../oslib/gcc/free_rtos/Debug/free_rtos.a(queue.o)
 .debug_frame   0x000000000000626c      0x840 ../../../oslib/gcc/free_rtos/Debug/free_rtos.a(tasks.o)
 .debug_frame   0x0000000000006aac      0x19c ../../../oslib/gcc/free_rtos/Debug/free_rtos.a(port.o)
 .debug_frame   0x0000000000006c48      0x2b8 ../../../oslib/gcc/free_rtos/Debug/free_rtos.a(timers.o)
 .debug_frame   0x0000000000006f00       0x58 ../../../oslib/gcc/free_rtos/Debug/free_rtos.a(heap_3.o)
 .debug_frame   0x0000000000006f58       0xd8 ../../../oslib/gcc/free_rtos/Debug/free_rtos.a(list.o)
 .debug_frame   0x0000000000007030      0x260 ../../../driverlib/gcc/lib/Debug/libdriver.a(gpio.o)
 .debug_frame   0x0000000000007290      0x258 ../../../driverlib/gcc/lib/Debug/libdriver.a(interrupt.o)
 .debug_frame   0x00000000000074e8      0x244 ../../../driverlib/gcc/lib/Debug/libdriver.a(pin.o)
 .debug_frame   0x000000000000772c      0x790 ../../../driverlib/gcc/lib/Debug/libdriver.a(prcm.o)
 .debug_frame   0x0000000000007ebc      0x480 ../../../driverlib/gcc/lib/Debug/libdriver.a(spi.o)
 .debug_frame   0x000000000000833c      0x3c8 ../../../driverlib/gcc/lib/Debug/libdriver.a(timer.o)
 .debug_frame   0x0000000000008704      0x5cc ../../../driverlib/gcc/lib/Debug/libdriver.a(uart.o)
 .debug_frame   0x0000000000008cd0      0x390 ../../../driverlib/gcc/lib/Debug/libdriver.a(udma.o)
 .debug_frame   0x0000000000009060       0x20 ../../../driverlib/gcc/lib/Debug/libdriver.a(utils.o)
 .debug_frame   0x0000000000009080       0x70 ../../../driverlib/gcc/lib/Debug/libdriver.a(cpu.o)
 .debug_frame   0x00000000000090f0       0x30 /usr/lib/gcc/arm-none-eabi/5.2.0/../../../../arm-none-eabi/lib/armv7e-m/libc_nano.a(lib_a-atoi.o)
 .debug_frame   0x0000000000009120       0x30 /usr/lib/gcc/arm-none-eabi/5.2.0/../../../../arm-none-eabi/lib/armv7e-m/libc_nano.a(lib_a-malloc.o)
 .debug_frame   0x0000000000009150       0x28 /usr/lib/gcc/arm-none-eabi/5.2.0/../../../../arm-none-eabi/lib/armv7e-m/libc_nano.a(lib_a-memcmp.o)
 .debug_frame   0x0000000000009178       0x28 /usr/lib/gcc/arm-none-eabi/5.2.0/../../../../arm-none-eabi/lib/armv7e-m/libc_nano.a(lib_a-memcpy.o)
 .debug_frame   0x00000000000091a0       0x28 /usr/lib/gcc/arm-none-eabi/5.2.0/../../../../arm-none-eabi/lib/armv7e-m/libc_nano.a(lib_a-memmove.o)
 .debug_frame   0x00000000000091c8       0x20 /usr/lib/gcc/arm-none-eabi/5.2.0/../../../../arm-none-eabi/lib/armv7e-m/libc_nano.a(lib_a-memset.o)
 .debug_frame   0x00000000000091e8       0x2c /usr/lib/gcc/arm-none-eabi/5.2.0/../../../../arm-none-eabi/lib/armv7e-m/libc_nano.a(lib_a-nano-freer.o)
 .debug_frame   0x0000000000009214       0x2c /usr/lib/gcc/arm-none-eabi/5.2.0/../../../../arm-none-eabi/lib/armv7e-m/libc_nano.a(lib_a-nano-mallocr.o)
 .debug_frame   0x0000000000009240       0x20 /usr/lib/gcc/arm-none-eabi/5.2.0/../../../../arm-none-eabi/lib/armv7e-m/libc_nano.a(lib_a-realloc.o)
 .debug_frame   0x0000000000009260       0x2c /usr/lib/gcc/arm-none-eabi/5.2.0/../../../../arm-none-eabi/lib/armv7e-m/libc_nano.a(lib_a-sbrkr.o)
 .debug_frame   0x000000000000928c       0x20 /usr/lib/gcc/arm-none-eabi/5.2.0/../../../../arm-none-eabi/lib/armv7e-m/libc_nano.a(lib_a-strcpy.o)
 .debug_frame   0x00000000000092ac       0x20 /usr/lib/gcc/arm-none-eabi/5.2.0/../../../../arm-none-eabi/lib/armv7e-m/libc_nano.a(lib_a-strlen.o)
 .debug_frame   0x00000000000092cc       0x2c /usr/lib/gcc/arm-none-eabi/5.2.0/../../../../arm-none-eabi/lib/armv7e-m/libc_nano.a(lib_a-strncmp.o)
 .debug_frame   0x00000000000092f8       0x28 /usr/lib/gcc/arm-none-eabi/5.2.0/../../../../arm-none-eabi/lib/armv7e-m/libc_nano.a(lib_a-strncpy.o)
 .debug_frame   0x0000000000009320       0x38 /usr/lib/gcc/arm-none-eabi/5.2.0/../../../../arm-none-eabi/lib/armv7e-m/libc_nano.a(lib_a-strtok.o)
 .debug_frame   0x0000000000009358       0x40 /usr/lib/gcc/arm-none-eabi/5.2.0/../../../../arm-none-eabi/lib/armv7e-m/libc_nano.a(lib_a-strtok_r.o)
 .debug_frame   0x0000000000009398       0x44 /usr/lib/gcc/arm-none-eabi/5.2.0/../../../../arm-none-eabi/lib/armv7e-m/libc_nano.a(lib_a-strtol.o)
 .debug_frame   0x00000000000093dc       0x48 /usr/lib/gcc/arm-none-eabi/5.2.0/../../../../arm-none-eabi/lib/armv7e-m/libc_nano.a(lib_a-vsnprintf.o)
 .debug_frame   0x0000000000009424       0x3c /usr/lib/gcc/arm-none-eabi/5.2.0/../../../../arm-none-eabi/lib/armv7e-m/libc_nano.a(lib_a-nano-reallocr.o)
 .debug_frame   0x0000000000009460       0x90 /usr/lib/gcc/arm-none-eabi/5.2.0/../../../../arm-none-eabi/lib/armv7e-m/libc_nano.a(lib_a-nano-svfprintf.o)
 .debug_frame   0x00000000000094f0       0x60 /usr/lib/gcc/arm-none-eabi/5.2.0/../../../../arm-none-eabi/lib/armv7e-m/libc_nano.a(lib_a-nano-vfprintf_i.o)
 .debug_frame   0x0000000000009550       0x5c /usr/lib/gcc/arm-none-eabi/5.2.0/../../../../arm-none-eabi/lib/armv7e-m/libc_nano.a(lib_a-reent.o)
 .debug_frame   0x00000000000095ac       0x28 /usr/lib/gcc/arm-none-eabi/5.2.0/../../../../arm-none-eabi/lib/armv7e-m/libc_nano.a(lib_a-memchr.o)
 .debug_frame   0x00000000000095d4       0x20 /usr/lib/gcc/arm-none-eabi/5.2.0/../../../../arm-none-eabi/lib/armv7e-m/libc_nano.a(lib_a-nano-msizer.o)

.debug_loc      0x0000000000000000     0x1f1d
 .debug_loc     0x0000000000000000       0x63 /usr/lib/gcc/arm-none-eabi/5.2.0/../../../../arm-none-eabi/lib/armv7e-m/libc_nano.a(lib_a-atoi.o)
 .debug_loc     0x0000000000000063       0x58 /usr/lib/gcc/arm-none-eabi/5.2.0/../../../../arm-none-eabi/lib/armv7e-m/libc_nano.a(lib_a-malloc.o)
 .debug_loc     0x00000000000000bb      0x12e /usr/lib/gcc/arm-none-eabi/5.2.0/../../../../arm-none-eabi/lib/armv7e-m/libc_nano.a(lib_a-memcmp.o)
 .debug_loc     0x00000000000001e9       0x87 /usr/lib/gcc/arm-none-eabi/5.2.0/../../../../arm-none-eabi/lib/armv7e-m/libc_nano.a(lib_a-memcpy.o)
 .debug_loc     0x0000000000000270       0xde /usr/lib/gcc/arm-none-eabi/5.2.0/../../../../arm-none-eabi/lib/armv7e-m/libc_nano.a(lib_a-memmove.o)
 .debug_loc     0x000000000000034e       0x57 /usr/lib/gcc/arm-none-eabi/5.2.0/../../../../arm-none-eabi/lib/armv7e-m/libc_nano.a(lib_a-memset.o)
 .debug_loc     0x00000000000003a5      0x172 /usr/lib/gcc/arm-none-eabi/5.2.0/../../../../arm-none-eabi/lib/armv7e-m/libc_nano.a(lib_a-nano-freer.o)
 .debug_loc     0x0000000000000517      0x311 /usr/lib/gcc/arm-none-eabi/5.2.0/../../../../arm-none-eabi/lib/armv7e-m/libc_nano.a(lib_a-nano-mallocr.o)
 .debug_loc     0x0000000000000828       0x58 /usr/lib/gcc/arm-none-eabi/5.2.0/../../../../arm-none-eabi/lib/armv7e-m/libc_nano.a(lib_a-realloc.o)
 .debug_loc     0x0000000000000880       0x4d /usr/lib/gcc/arm-none-eabi/5.2.0/../../../../arm-none-eabi/lib/armv7e-m/libc_nano.a(lib_a-sbrkr.o)
 .debug_loc     0x00000000000008cd       0x21 /usr/lib/gcc/arm-none-eabi/5.2.0/../../../../arm-none-eabi/lib/armv7e-m/libc_nano.a(lib_a-strcpy.o)
 .debug_loc     0x00000000000008ee       0x21 /usr/lib/gcc/arm-none-eabi/5.2.0/../../../../arm-none-eabi/lib/armv7e-m/libc_nano.a(lib_a-strlen.o)
 .debug_loc     0x000000000000090f       0x80 /usr/lib/gcc/arm-none-eabi/5.2.0/../../../../arm-none-eabi/lib/armv7e-m/libc_nano.a(lib_a-strncmp.o)
 .debug_loc     0x000000000000098f       0xdb /usr/lib/gcc/arm-none-eabi/5.2.0/../../../../arm-none-eabi/lib/armv7e-m/libc_nano.a(lib_a-strncpy.o)
 .debug_loc     0x0000000000000a6a       0x94 /usr/lib/gcc/arm-none-eabi/5.2.0/../../../../arm-none-eabi/lib/armv7e-m/libc_nano.a(lib_a-strtok.o)
 .debug_loc     0x0000000000000afe      0x1a3 /usr/lib/gcc/arm-none-eabi/5.2.0/../../../../arm-none-eabi/lib/armv7e-m/libc_nano.a(lib_a-strtok_r.o)
 .debug_loc     0x0000000000000ca1      0x32b /usr/lib/gcc/arm-none-eabi/5.2.0/../../../../arm-none-eabi/lib/armv7e-m/libc_nano.a(lib_a-strtol.o)
 .debug_loc     0x0000000000000fcc      0x163 /usr/lib/gcc/arm-none-eabi/5.2.0/../../../../arm-none-eabi/lib/armv7e-m/libc_nano.a(lib_a-vsnprintf.o)
 .debug_loc     0x000000000000112f      0x11b /usr/lib/gcc/arm-none-eabi/5.2.0/../../../../arm-none-eabi/lib/armv7e-m/libc_nano.a(lib_a-nano-reallocr.o)
 .debug_loc     0x000000000000124a      0x54e /usr/lib/gcc/arm-none-eabi/5.2.0/../../../../arm-none-eabi/lib/armv7e-m/libc_nano.a(lib_a-nano-svfprintf.o)
 .debug_loc     0x0000000000001798      0x52c /usr/lib/gcc/arm-none-eabi/5.2.0/../../../../arm-none-eabi/lib/armv7e-m/libc_nano.a(lib_a-nano-vfprintf_i.o)
 .debug_loc     0x0000000000001cc4       0xfa /usr/lib/gcc/arm-none-eabi/5.2.0/../../../../arm-none-eabi/lib/armv7e-m/libc_nano.a(lib_a-reent.o)
 .debug_loc     0x0000000000001dbe       0xaa /usr/lib/gcc/arm-none-eabi/5.2.0/../../../../arm-none-eabi/lib/armv7e-m/libc_nano.a(lib_a-memchr.o)
 .debug_loc     0x0000000000001e68       0xb5 /usr/lib/gcc/arm-none-eabi/5.2.0/../../../../arm-none-eabi/lib/armv7e-m/libc_nano.a(lib_a-nano-msizer.o)
