Archive member included to satisfy reference by file (symbol)

../../../../simplelink_extlib/ota/gcc/lib/Release/ota.a(OtaApp.o)
                              obj/Release/main.o (sl_extLib_OtaInit)
../../../../simplelink_extlib/ota/gcc/lib/Release/ota.a(OtaClient.o)
                              ../../../../simplelink_extlib/ota/gcc/lib/Release/ota.a(OtaApp.o) (OtaClient_Init)
../../../../simplelink_extlib/ota/gcc/lib/Release/ota.a(OtaHttp.o)
                              ../../../../simplelink_extlib/ota/gcc/lib/Release/ota.a(OtaClient.o) (http_send_buf)
../../../../simplelink_extlib/ota/gcc/lib/Release/ota.a(CdnClient.o)
                              ../../../../simplelink_extlib/ota/gcc/lib/Release/ota.a(OtaApp.o) (CdnClient_Init)
../../../../simplelink_extlib/ota/gcc/lib/Release/ota.a(LogClient.o)
                              ../../../../simplelink_extlib/ota/gcc/lib/Release/ota.a(OtaApp.o) (LogClient_Init)
../../../../simplelink_extlib/flc/gcc/lib/Release/flc.a(flc.o)
                              ../../../../simplelink_extlib/ota/gcc/lib/Release/ota.a(OtaApp.o) (sl_extlib_FlcCommit)
../../../../simplelink/gcc/lib/nonos/Release/libsimplelink.a(device.o)
                              obj/Release/net.o (sl_Start)
../../../../simplelink/gcc/lib/nonos/Release/libsimplelink.a(driver.o)
                              ../../../../simplelink/gcc/lib/nonos/Release/libsimplelink.a(device.o) (g_bDeviceRestartIsRequired)
../../../../simplelink/gcc/lib/nonos/Release/libsimplelink.a(netapp.o)
                              obj/Release/net.o (sl_NetAppMDNSUnRegisterService)
../../../../simplelink/gcc/lib/nonos/Release/libsimplelink.a(netcfg.o)
                              obj/Release/net.o (sl_NetCfgSet)
../../../../simplelink/gcc/lib/nonos/Release/libsimplelink.a(nonos.o)
                              ../../../../simplelink/gcc/lib/nonos/Release/libsimplelink.a(driver.o) (_SlNonOsSemSet)
../../../../simplelink/gcc/lib/nonos/Release/libsimplelink.a(fs.o)
                              ../../../../simplelink_extlib/ota/gcc/lib/Release/ota.a(OtaApp.o) (_sl_GetCreateFsMode)
../../../../simplelink/gcc/lib/nonos/Release/libsimplelink.a(socket.o)
                              obj/Release/main.o (sl_Socket)
../../../../simplelink/gcc/lib/nonos/Release/libsimplelink.a(wlan.o)
                              obj/Release/net.o (sl_WlanConnect)
../../../../simplelink/gcc/lib/nonos/Release/libsimplelink.a(cc_pal.o)
                              ../../../../simplelink/gcc/lib/nonos/Release/libsimplelink.a(device.o) (spi_Open)
../../../../driverlib/gcc/lib/Release/libdriver.a(gpio.o)
                              obj/Release/pinmux.o (GPIODirModeSet)
../../../../driverlib/gcc/lib/Release/libdriver.a(interrupt.o)
                              ../../../../driverlib/gcc/lib/Release/libdriver.a(gpio.o) (IntRegister)
../../../../driverlib/gcc/lib/Release/libdriver.a(pin.o)
                              obj/Release/pinmux.o (PinTypeGPIO)
../../../../driverlib/gcc/lib/Release/libdriver.a(prcm.o)
                              obj/Release/pinmux.o (PRCMPeripheralClkEnable)
../../../../driverlib/gcc/lib/Release/libdriver.a(spi.o)
                              ../../../../simplelink/gcc/lib/nonos/Release/libsimplelink.a(cc_pal.o) (SPIConfigSetExpClk)
../../../../driverlib/gcc/lib/Release/libdriver.a(systick.o)
                              obj/Release/task.o (SysTickEnable)
../../../../driverlib/gcc/lib/Release/libdriver.a(timer.o)
                              ../../../../simplelink/gcc/lib/nonos/Release/libsimplelink.a(cc_pal.o) (TimerConfigure)
../../../../driverlib/gcc/lib/Release/libdriver.a(utils.o)
                              ../../../../simplelink/gcc/lib/nonos/Release/libsimplelink.a(cc_pal.o) (UtilsDelay)
../../../../driverlib/gcc/lib/Release/libdriver.a(cpu.o)
                              ../../../../driverlib/gcc/lib/Release/libdriver.a(interrupt.o) (CPUcpsid)
../../../../driverlib/gcc/lib/Release/libdriver.a(flash.o)
                              ../../../../driverlib/gcc/lib/Release/libdriver.a(prcm.o) (FlashDisable)
/usr/lib/gcc/arm-none-eabi/5.2.0/../../../../arm-none-eabi/lib/armv7e-m/libc_nano.a(lib_a-atol.o)
                              ../../../../simplelink_extlib/ota/gcc/lib/Release/ota.a(OtaHttp.o) (atol)
/usr/lib/gcc/arm-none-eabi/5.2.0/../../../../arm-none-eabi/lib/armv7e-m/libc_nano.a(lib_a-malloc.o)
                              obj/Release/uart_if.o (malloc)
/usr/lib/gcc/arm-none-eabi/5.2.0/../../../../arm-none-eabi/lib/armv7e-m/libc_nano.a(lib_a-memcpy.o)
                              obj/Release/net.o (memcpy)
/usr/lib/gcc/arm-none-eabi/5.2.0/../../../../arm-none-eabi/lib/armv7e-m/libc_nano.a(lib_a-memmove.o)
                              obj/Release/uart_if.o (memmove)
/usr/lib/gcc/arm-none-eabi/5.2.0/../../../../arm-none-eabi/lib/armv7e-m/libc_nano.a(lib_a-memset.o)
                              obj/Release/main.o (memset)
/usr/lib/gcc/arm-none-eabi/5.2.0/../../../../arm-none-eabi/lib/armv7e-m/libc_nano.a(lib_a-nano-freer.o)
                              /usr/lib/gcc/arm-none-eabi/5.2.0/../../../../arm-none-eabi/lib/armv7e-m/libc_nano.a(lib_a-malloc.o) (_free_r)
/usr/lib/gcc/arm-none-eabi/5.2.0/../../../../arm-none-eabi/lib/armv7e-m/libc_nano.a(lib_a-nano-mallocr.o)
                              /usr/lib/gcc/arm-none-eabi/5.2.0/../../../../arm-none-eabi/lib/armv7e-m/libc_nano.a(lib_a-malloc.o) (_malloc_r)
/usr/lib/gcc/arm-none-eabi/5.2.0/../../../../arm-none-eabi/lib/armv7e-m/libc_nano.a(lib_a-realloc.o)
                              obj/Release/uart_if.o (realloc)
/usr/lib/gcc/arm-none-eabi/5.2.0/../../../../arm-none-eabi/lib/armv7e-m/libc_nano.a(lib_a-sbrkr.o)
                              /usr/lib/gcc/arm-none-eabi/5.2.0/../../../../arm-none-eabi/lib/armv7e-m/libc_nano.a(lib_a-nano-mallocr.o) (_sbrk_r)
/usr/lib/gcc/arm-none-eabi/5.2.0/../../../../arm-none-eabi/lib/armv7e-m/libc_nano.a(lib_a-snprintf.o)
                              ../../../../simplelink_extlib/ota/gcc/lib/Release/ota.a(OtaClient.o) (snprintf)
/usr/lib/gcc/arm-none-eabi/5.2.0/../../../../arm-none-eabi/lib/armv7e-m/libc_nano.a(lib_a-sprintf.o)
                              obj/Release/main.o (sprintf)
/usr/lib/gcc/arm-none-eabi/5.2.0/../../../../arm-none-eabi/lib/armv7e-m/libc_nano.a(lib_a-strcat.o)
                              ../../../../simplelink_extlib/ota/gcc/lib/Release/ota.a(OtaClient.o) (strcat)
/usr/lib/gcc/arm-none-eabi/5.2.0/../../../../arm-none-eabi/lib/armv7e-m/libc_nano.a(lib_a-strchr.o)
                              ../../../../simplelink_extlib/ota/gcc/lib/Release/ota.a(OtaHttp.o) (strchr)
/usr/lib/gcc/arm-none-eabi/5.2.0/../../../../arm-none-eabi/lib/armv7e-m/libc_nano.a(lib_a-strcmp.o)
                              ../../../../simplelink_extlib/ota/gcc/lib/Release/ota.a(CdnClient.o) (strcmp)
/usr/lib/gcc/arm-none-eabi/5.2.0/../../../../arm-none-eabi/lib/armv7e-m/libc_nano.a(lib_a-strcpy.o)
                              obj/Release/main.o (strcpy)
/usr/lib/gcc/arm-none-eabi/5.2.0/../../../../arm-none-eabi/lib/armv7e-m/libc_nano.a(lib_a-strlen.o)
                              obj/Release/main.o (strlen)
/usr/lib/gcc/arm-none-eabi/5.2.0/../../../../arm-none-eabi/lib/armv7e-m/libc_nano.a(lib_a-strncmp.o)
                              ../../../../simplelink_extlib/ota/gcc/lib/Release/ota.a(OtaHttp.o) (strncmp)
/usr/lib/gcc/arm-none-eabi/5.2.0/../../../../arm-none-eabi/lib/armv7e-m/libc_nano.a(lib_a-strncpy.o)
                              ../../../../simplelink_extlib/ota/gcc/lib/Release/ota.a(OtaHttp.o) (strncpy)
/usr/lib/gcc/arm-none-eabi/5.2.0/../../../../arm-none-eabi/lib/armv7e-m/libc_nano.a(lib_a-strstr.o)
                              ../../../../simplelink_extlib/ota/gcc/lib/Release/ota.a(OtaApp.o) (strstr)
/usr/lib/gcc/arm-none-eabi/5.2.0/../../../../arm-none-eabi/lib/armv7e-m/libc_nano.a(lib_a-strtol.o)
                              /usr/lib/gcc/arm-none-eabi/5.2.0/../../../../arm-none-eabi/lib/armv7e-m/libc_nano.a(lib_a-atol.o) (_strtol_r)
/usr/lib/gcc/arm-none-eabi/5.2.0/../../../../arm-none-eabi/lib/armv7e-m/libc_nano.a(lib_a-vsnprintf.o)
                              obj/Release/uart_if.o (vsnprintf)
/usr/lib/gcc/arm-none-eabi/5.2.0/../../../../arm-none-eabi/lib/armv7e-m/libc_nano.a(lib_a-ctype_.o)
                              /usr/lib/gcc/arm-none-eabi/5.2.0/../../../../arm-none-eabi/lib/armv7e-m/libc_nano.a(lib_a-strtol.o) (__ctype_ptr__)
/usr/lib/gcc/arm-none-eabi/5.2.0/../../../../arm-none-eabi/lib/armv7e-m/libc_nano.a(lib_a-impure.o)
                              /usr/lib/gcc/arm-none-eabi/5.2.0/../../../../arm-none-eabi/lib/armv7e-m/libc_nano.a(lib_a-malloc.o) (_impure_ptr)
/usr/lib/gcc/arm-none-eabi/5.2.0/../../../../arm-none-eabi/lib/armv7e-m/libc_nano.a(lib_a-nano-reallocr.o)
                              /usr/lib/gcc/arm-none-eabi/5.2.0/../../../../arm-none-eabi/lib/armv7e-m/libc_nano.a(lib_a-realloc.o) (_realloc_r)
/usr/lib/gcc/arm-none-eabi/5.2.0/../../../../arm-none-eabi/lib/armv7e-m/libc_nano.a(lib_a-nano-svfprintf.o)
                              /usr/lib/gcc/arm-none-eabi/5.2.0/../../../../arm-none-eabi/lib/armv7e-m/libc_nano.a(lib_a-snprintf.o) (_svfprintf_r)
/usr/lib/gcc/arm-none-eabi/5.2.0/../../../../arm-none-eabi/lib/armv7e-m/libc_nano.a(lib_a-nano-vfprintf_i.o)
                              /usr/lib/gcc/arm-none-eabi/5.2.0/../../../../arm-none-eabi/lib/armv7e-m/libc_nano.a(lib_a-nano-svfprintf.o) (_printf_i)
/usr/lib/gcc/arm-none-eabi/5.2.0/../../../../arm-none-eabi/lib/armv7e-m/libc_nano.a(lib_a-reent.o)
                              /usr/lib/gcc/arm-none-eabi/5.2.0/../../../../arm-none-eabi/lib/armv7e-m/libc_nano.a(lib_a-sbrkr.o) (errno)
/usr/lib/gcc/arm-none-eabi/5.2.0/../../../../arm-none-eabi/lib/armv7e-m/libc_nano.a(lib_a-memchr.o)
                              /usr/lib/gcc/arm-none-eabi/5.2.0/../../../../arm-none-eabi/lib/armv7e-m/libc_nano.a(lib_a-nano-svfprintf.o) (memchr)
/usr/lib/gcc/arm-none-eabi/5.2.0/../../../../arm-none-eabi/lib/armv7e-m/libc_nano.a(lib_a-nano-msizer.o)
                              /usr/lib/gcc/arm-none-eabi/5.2.0/../../../../arm-none-eabi/lib/armv7e-m/libc_nano.a(lib_a-nano-reallocr.o) (_malloc_usable_size_r)
/usr/lib/gcc/arm-none-eabi/5.2.0/armv7e-m/libgcc.a(_aeabi_uldivmod.o)
                              ../../../../driverlib/gcc/lib/Release/libdriver.a(prcm.o) (__aeabi_uldivmod)
/usr/lib/gcc/arm-none-eabi/5.2.0/armv7e-m/libgcc.a(_udivmoddi4.o)
                              /usr/lib/gcc/arm-none-eabi/5.2.0/armv7e-m/libgcc.a(_aeabi_uldivmod.o) (__udivmoddi4)
/usr/lib/gcc/arm-none-eabi/5.2.0/armv7e-m/libgcc.a(_dvmd_tls.o)
                              /usr/lib/gcc/arm-none-eabi/5.2.0/armv7e-m/libgcc.a(_aeabi_uldivmod.o) (__aeabi_ldiv0)

Allocating common symbols
Common symbol       size              file

gfpAppCallbackHndl  0x100             obj/Release/udma_if.o
g_ulIpAddr          0x4               obj/Release/net.o
g_ucSimplelinkstarted
                    0x1               obj/Release/net.o
g_bDeviceRestartIsRequired
                    0x1               ../../../../simplelink/gcc/lib/nonos/Release/libsimplelink.a(driver.o)
errno               0x4               /usr/lib/gcc/arm-none-eabi/5.2.0/../../../../arm-none-eabi/lib/armv7e-m/libc_nano.a(lib_a-reent.o)
g_CdnClient         0x74              ../../../../simplelink_extlib/ota/gcc/lib/Release/ota.a(CdnClient.o)
g_OtaCheckUpdateResponse
                    0x44c             ../../../../simplelink_extlib/ota/gcc/lib/Release/ota.a(OtaClient.o)
g_OtaApp_statistics
                    0x4c              ../../../../simplelink_extlib/ota/gcc/lib/Release/ota.a(OtaApp.o)
RxIrqCnt            0x1               ../../../../simplelink/gcc/lib/nonos/Release/libsimplelink.a(driver.o)
iDone               0x1               obj/Release/udma_if.o
g_ucConnectionBSSID
                    0x6               obj/Release/net.o
g_FlcSflashCb       0x14              ../../../../simplelink_extlib/ota/gcc/lib/Release/ota.a(OtaApp.o)
g_S3InterruptHdl    0x4               obj/Release/button_if.o
g_S2InterruptHdl    0x4               obj/Release/button_if.o
g_OtaFileMetadata   0x3d8             ../../../../simplelink_extlib/ota/gcc/lib/Release/ota.a(OtaClient.o)
g_ulGatewayIP       0x4               obj/Release/net.o
g_ulStatus          0x4               obj/Release/net.o
gpCtlTbl            0x400             obj/Release/udma_if.o
g_cDummy            0x1               ../../../../simplelink/gcc/lib/nonos/Release/libsimplelink.a(cc_pal.o)
g_ucConnectionSSID  0x21              obj/Release/net.o
g_OtaClient         0x24              ../../../../simplelink_extlib/ota/gcc/lib/Release/ota.a(OtaClient.o)
g_ucDinDout         0x50              ../../../../simplelink/gcc/lib/nonos/Release/libsimplelink.a(cc_pal.o)
g_OtaApp            0x4c              ../../../../simplelink_extlib/ota/gcc/lib/Release/ota.a(OtaApp.o)
g_LogClient         0x8               ../../../../simplelink_extlib/ota/gcc/lib/Release/ota.a(LogClient.o)

Discarded input sections

 .text          0x0000000000000000        0x0 obj/Release/main.o
 .data          0x0000000000000000        0x0 obj/Release/main.o
 .bss           0x0000000000000000        0x0 obj/Release/main.o
 .text          0x0000000000000000        0x0 obj/Release/pinmux.o
 .data          0x0000000000000000        0x0 obj/Release/pinmux.o
 .bss           0x0000000000000000        0x0 obj/Release/pinmux.o
 .text          0x0000000000000000        0x0 obj/Release/net.o
 .data          0x0000000000000000        0x0 obj/Release/net.o
 .bss           0x0000000000000000        0x0 obj/Release/net.o
 .text          0x0000000000000000        0x0 obj/Release/task.o
 .data          0x0000000000000000        0x0 obj/Release/task.o
 .bss           0x0000000000000000        0x0 obj/Release/task.o
 .text          0x0000000000000000        0x0 obj/Release/uart_if.o
 .data          0x0000000000000000        0x0 obj/Release/uart_if.o
 .bss           0x0000000000000000        0x0 obj/Release/uart_if.o
 .text.ClearTerm
                0x0000000000000000        0xc obj/Release/uart_if.o
 .text.Error    0x0000000000000000       0x34 obj/Release/uart_if.o
 .text.TrimSpace
                0x0000000000000000       0x4e obj/Release/uart_if.o
 .text.GetCmd   0x0000000000000000       0x94 obj/Release/uart_if.o
 .data.ilen     0x0000000000000000        0x4 obj/Release/uart_if.o
 .text          0x0000000000000000        0x0 obj/Release/button_if.o
 .data          0x0000000000000000        0x0 obj/Release/button_if.o
 .bss           0x0000000000000000        0x0 obj/Release/button_if.o
 .text          0x0000000000000000        0x0 obj/Release/udma_if.o
 .data          0x0000000000000000        0x0 obj/Release/udma_if.o
 .bss           0x0000000000000000        0x0 obj/Release/udma_if.o
 .text.UDMAChannelSelect
                0x0000000000000000       0x2c obj/Release/udma_if.o
 .text.UDMAStartTransfer
                0x0000000000000000        0xa obj/Release/udma_if.o
 .text.UDMAStopTransfer
                0x0000000000000000        0xa obj/Release/udma_if.o
 .text.UDMADeInit
                0x0000000000000000       0x20 obj/Release/udma_if.o
 .text.UDMASetupTransfer
                0x0000000000000000       0x5c obj/Release/udma_if.o
 .text.UDMASetupAutoMemTransfer
                0x0000000000000000       0x22 obj/Release/udma_if.o
 .text.UDMASetupPingPongTransfer
                0x0000000000000000       0x40 obj/Release/udma_if.o
 .text          0x0000000000000000        0x0 obj/Release/startup_gcc.o
 .data          0x0000000000000000        0x0 obj/Release/startup_gcc.o
 .bss           0x0000000000000000        0x0 obj/Release/startup_gcc.o
 .text          0x0000000000000000        0x0 ../../../../simplelink_extlib/ota/gcc/lib/Release/ota.a(OtaApp.o)
 .data          0x0000000000000000        0x0 ../../../../simplelink_extlib/ota/gcc/lib/Release/ota.a(OtaApp.o)
 .bss           0x0000000000000000        0x0 ../../../../simplelink_extlib/ota/gcc/lib/Release/ota.a(OtaApp.o)
 .text.local_filter
                0x0000000000000000        0x4 ../../../../simplelink_extlib/ota/gcc/lib/Release/ota.a(OtaApp.o)
 .text          0x0000000000000000        0x0 ../../../../simplelink_extlib/ota/gcc/lib/Release/ota.a(OtaClient.o)
 .data          0x0000000000000000        0x0 ../../../../simplelink_extlib/ota/gcc/lib/Release/ota.a(OtaClient.o)
 .bss           0x0000000000000000        0x0 ../../../../simplelink_extlib/ota/gcc/lib/Release/ota.a(OtaClient.o)
 .text          0x0000000000000000        0x0 ../../../../simplelink_extlib/ota/gcc/lib/Release/ota.a(OtaHttp.o)
 .data          0x0000000000000000        0x0 ../../../../simplelink_extlib/ota/gcc/lib/Release/ota.a(OtaHttp.o)
 .bss           0x0000000000000000        0x0 ../../../../simplelink_extlib/ota/gcc/lib/Release/ota.a(OtaHttp.o)
 .text.json_parse_update_check_resp
                0x0000000000000000      0x130 ../../../../simplelink_extlib/ota/gcc/lib/Release/ota.a(OtaHttp.o)
 .text.json_parse_rsrc_metadata_url
                0x0000000000000000       0x48 ../../../../simplelink_extlib/ota/gcc/lib/Release/ota.a(OtaHttp.o)
 .text          0x0000000000000000        0x0 ../../../../simplelink_extlib/ota/gcc/lib/Release/ota.a(CdnClient.o)
 .data          0x0000000000000000        0x0 ../../../../simplelink_extlib/ota/gcc/lib/Release/ota.a(CdnClient.o)
 .bss           0x0000000000000000        0x0 ../../../../simplelink_extlib/ota/gcc/lib/Release/ota.a(CdnClient.o)
 .text          0x0000000000000000        0x0 ../../../../simplelink_extlib/ota/gcc/lib/Release/ota.a(LogClient.o)
 .data          0x0000000000000000        0x0 ../../../../simplelink_extlib/ota/gcc/lib/Release/ota.a(LogClient.o)
 .bss           0x0000000000000000        0x0 ../../../../simplelink_extlib/ota/gcc/lib/Release/ota.a(LogClient.o)
 .text          0x0000000000000000        0x0 ../../../../simplelink_extlib/flc/gcc/lib/Release/flc.a(flc.o)
 .data          0x0000000000000000        0x0 ../../../../simplelink_extlib/flc/gcc/lib/Release/flc.a(flc.o)
 .bss           0x0000000000000000        0x0 ../../../../simplelink_extlib/flc/gcc/lib/Release/flc.a(flc.o)
 .text          0x0000000000000000        0x0 ../../../../simplelink/gcc/lib/nonos/Release/libsimplelink.a(device.o)
 .data          0x0000000000000000        0x0 ../../../../simplelink/gcc/lib/nonos/Release/libsimplelink.a(device.o)
 .bss           0x0000000000000000        0x0 ../../../../simplelink/gcc/lib/nonos/Release/libsimplelink.a(device.o)
 .text.sl_Task  0x0000000000000000        0x4 ../../../../simplelink/gcc/lib/nonos/Release/libsimplelink.a(device.o)
 .text.sl_Stop_WithNwpLpdsPoll
                0x0000000000000000       0x98 ../../../../simplelink/gcc/lib/nonos/Release/libsimplelink.a(device.o)
 .text.sl_EventMaskSet
                0x0000000000000000       0x40 ../../../../simplelink/gcc/lib/nonos/Release/libsimplelink.a(device.o)
 .text.sl_EventMaskGet
                0x0000000000000000       0x40 ../../../../simplelink/gcc/lib/nonos/Release/libsimplelink.a(device.o)
 .text.sl_DevSet
                0x0000000000000000       0x64 ../../../../simplelink/gcc/lib/nonos/Release/libsimplelink.a(device.o)
 .rodata._SlEventMaskGetCmdCtrl
                0x0000000000000000        0x4 ../../../../simplelink/gcc/lib/nonos/Release/libsimplelink.a(device.o)
 .rodata._SlEventMaskSetCmdCtrl
                0x0000000000000000        0x4 ../../../../simplelink/gcc/lib/nonos/Release/libsimplelink.a(device.o)
 .rodata._SlDeviceSetCmdCtrl
                0x0000000000000000        0x4 ../../../../simplelink/gcc/lib/nonos/Release/libsimplelink.a(device.o)
 .text          0x0000000000000000        0x0 ../../../../simplelink/gcc/lib/nonos/Release/libsimplelink.a(driver.o)
 .data          0x0000000000000000        0x0 ../../../../simplelink/gcc/lib/nonos/Release/libsimplelink.a(driver.o)
 .bss           0x0000000000000000        0x0 ../../../../simplelink/gcc/lib/nonos/Release/libsimplelink.a(driver.o)
 .text          0x0000000000000000        0x0 ../../../../simplelink/gcc/lib/nonos/Release/libsimplelink.a(netapp.o)
 .data          0x0000000000000000        0x0 ../../../../simplelink/gcc/lib/nonos/Release/libsimplelink.a(netapp.o)
 .bss           0x0000000000000000        0x0 ../../../../simplelink/gcc/lib/nonos/Release/libsimplelink.a(netapp.o)
 .text.sl_NetAppStart
                0x0000000000000000       0x40 ../../../../simplelink/gcc/lib/nonos/Release/libsimplelink.a(netapp.o)
 .text.sl_NetAppStop
                0x0000000000000000       0x40 ../../../../simplelink/gcc/lib/nonos/Release/libsimplelink.a(netapp.o)
 .text.sl_NetAppGetServiceList
                0x0000000000000000       0x90 ../../../../simplelink/gcc/lib/nonos/Release/libsimplelink.a(netapp.o)
 .text.sl_NetAppMDNSRegisterService
                0x0000000000000000       0x38 ../../../../simplelink/gcc/lib/nonos/Release/libsimplelink.a(netapp.o)
 .text.sl_NetAppDnsGetHostByService
                0x0000000000000000       0xc0 ../../../../simplelink/gcc/lib/nonos/Release/libsimplelink.a(netapp.o)
 .text._sl_HandleAsync_DnsGetHostByAddr
                0x0000000000000000        0x4 ../../../../simplelink/gcc/lib/nonos/Release/libsimplelink.a(netapp.o)
 .text.sl_NetAppPingStart
                0x0000000000000000      0x15c ../../../../simplelink/gcc/lib/nonos/Release/libsimplelink.a(netapp.o)
 .text.sl_NetAppSet
                0x0000000000000000       0x64 ../../../../simplelink/gcc/lib/nonos/Release/libsimplelink.a(netapp.o)
 .text.sl_NetAppGet
                0x0000000000000000       0x7c ../../../../simplelink/gcc/lib/nonos/Release/libsimplelink.a(netapp.o)
 .rodata        0x0000000000000000        0x4 ../../../../simplelink/gcc/lib/nonos/Release/libsimplelink.a(netapp.o)
 .rodata._SlNetAppStopCtrl
                0x0000000000000000        0x4 ../../../../simplelink/gcc/lib/nonos/Release/libsimplelink.a(netapp.o)
 .rodata._SlGetServiceListeCtrl
                0x0000000000000000        0x4 ../../../../simplelink/gcc/lib/nonos/Release/libsimplelink.a(netapp.o)
 .rodata._SlGetHostByServiceCtrl
                0x0000000000000000        0x4 ../../../../simplelink/gcc/lib/nonos/Release/libsimplelink.a(netapp.o)
 .rodata._SlNetAppGetCmdCtrl
                0x0000000000000000        0x4 ../../../../simplelink/gcc/lib/nonos/Release/libsimplelink.a(netapp.o)
 .rodata._SlNetAppStartCtrl
                0x0000000000000000        0x4 ../../../../simplelink/gcc/lib/nonos/Release/libsimplelink.a(netapp.o)
 .rodata._SlNetAppSetCmdCtrl
                0x0000000000000000        0x4 ../../../../simplelink/gcc/lib/nonos/Release/libsimplelink.a(netapp.o)
 .rodata.CSWTCH.35
                0x0000000000000000        0x6 ../../../../simplelink/gcc/lib/nonos/Release/libsimplelink.a(netapp.o)
 .text          0x0000000000000000        0x0 ../../../../simplelink/gcc/lib/nonos/Release/libsimplelink.a(netcfg.o)
 .data          0x0000000000000000        0x0 ../../../../simplelink/gcc/lib/nonos/Release/libsimplelink.a(netcfg.o)
 .bss           0x0000000000000000        0x0 ../../../../simplelink/gcc/lib/nonos/Release/libsimplelink.a(netcfg.o)
 .text          0x0000000000000000        0x0 ../../../../simplelink/gcc/lib/nonos/Release/libsimplelink.a(nonos.o)
 .data          0x0000000000000000        0x0 ../../../../simplelink/gcc/lib/nonos/Release/libsimplelink.a(nonos.o)
 .bss           0x0000000000000000        0x0 ../../../../simplelink/gcc/lib/nonos/Release/libsimplelink.a(nonos.o)
 .text          0x0000000000000000        0x0 ../../../../simplelink/gcc/lib/nonos/Release/libsimplelink.a(fs.o)
 .data          0x0000000000000000        0x0 ../../../../simplelink/gcc/lib/nonos/Release/libsimplelink.a(fs.o)
 .bss           0x0000000000000000        0x0 ../../../../simplelink/gcc/lib/nonos/Release/libsimplelink.a(fs.o)
 .text.sl_FsGetInfo
                0x0000000000000000       0x7c ../../../../simplelink/gcc/lib/nonos/Release/libsimplelink.a(fs.o)
 .rodata._SlFsGetInfoCmdCtrl
                0x0000000000000000        0x4 ../../../../simplelink/gcc/lib/nonos/Release/libsimplelink.a(fs.o)
 .text          0x0000000000000000        0x0 ../../../../simplelink/gcc/lib/nonos/Release/libsimplelink.a(socket.o)
 .data          0x0000000000000000        0x0 ../../../../simplelink/gcc/lib/nonos/Release/libsimplelink.a(socket.o)
 .bss           0x0000000000000000        0x0 ../../../../simplelink/gcc/lib/nonos/Release/libsimplelink.a(socket.o)
 .text._sl_ParseAddress
                0x0000000000000000       0x30 ../../../../simplelink/gcc/lib/nonos/Release/libsimplelink.a(socket.o)
 .text.sl_Bind  0x0000000000000000       0x80 ../../../../simplelink/gcc/lib/nonos/Release/libsimplelink.a(socket.o)
 .text.sl_RecvFrom
                0x0000000000000000       0xc8 ../../../../simplelink/gcc/lib/nonos/Release/libsimplelink.a(socket.o)
 .text.sl_Listen
                0x0000000000000000       0x44 ../../../../simplelink/gcc/lib/nonos/Release/libsimplelink.a(socket.o)
 .text.sl_Accept
                0x0000000000000000      0x114 ../../../../simplelink/gcc/lib/nonos/Release/libsimplelink.a(socket.o)
 .text.sl_GetSockOpt
                0x0000000000000000       0x94 ../../../../simplelink/gcc/lib/nonos/Release/libsimplelink.a(socket.o)
 .text.sl_Select
                0x0000000000000000       0xf4 ../../../../simplelink/gcc/lib/nonos/Release/libsimplelink.a(socket.o)
 .text.SL_FD_SET
                0x0000000000000000       0x12 ../../../../simplelink/gcc/lib/nonos/Release/libsimplelink.a(socket.o)
 .text.SL_FD_CLR
                0x0000000000000000       0x14 ../../../../simplelink/gcc/lib/nonos/Release/libsimplelink.a(socket.o)
 .text.SL_FD_ISSET
                0x0000000000000000       0x16 ../../../../simplelink/gcc/lib/nonos/Release/libsimplelink.a(socket.o)
 .text.SL_FD_ZERO
                0x0000000000000000        0x6 ../../../../simplelink/gcc/lib/nonos/Release/libsimplelink.a(socket.o)
 .rodata._SlSelectCmdCtrl
                0x0000000000000000        0x4 ../../../../simplelink/gcc/lib/nonos/Release/libsimplelink.a(socket.o)
 .rodata._SlListenCmdCtrl
                0x0000000000000000        0x4 ../../../../simplelink/gcc/lib/nonos/Release/libsimplelink.a(socket.o)
 .rodata._SlAcceptCmdCtrl
                0x0000000000000000        0x4 ../../../../simplelink/gcc/lib/nonos/Release/libsimplelink.a(socket.o)
 .rodata._SlGetSockOptCmdCtrl
                0x0000000000000000        0x4 ../../../../simplelink/gcc/lib/nonos/Release/libsimplelink.a(socket.o)
 .rodata._SlRecvfomCmdCtrl
                0x0000000000000000        0x4 ../../../../simplelink/gcc/lib/nonos/Release/libsimplelink.a(socket.o)
 .text          0x0000000000000000        0x0 ../../../../simplelink/gcc/lib/nonos/Release/libsimplelink.a(wlan.o)
 .data          0x0000000000000000        0x0 ../../../../simplelink/gcc/lib/nonos/Release/libsimplelink.a(wlan.o)
 .bss           0x0000000000000000        0x0 ../../../../simplelink/gcc/lib/nonos/Release/libsimplelink.a(wlan.o)
 .text.sl_WlanPolicyGet
                0x0000000000000000       0xa8 ../../../../simplelink/gcc/lib/nonos/Release/libsimplelink.a(wlan.o)
 .text.sl_WlanProfileAdd
                0x0000000000000000      0x1b8 ../../../../simplelink/gcc/lib/nonos/Release/libsimplelink.a(wlan.o)
 .text.sl_WlanProfileGet
                0x0000000000000000       0xd4 ../../../../simplelink/gcc/lib/nonos/Release/libsimplelink.a(wlan.o)
 .text.sl_WlanGetNetworkList
                0x0000000000000000       0x68 ../../../../simplelink/gcc/lib/nonos/Release/libsimplelink.a(wlan.o)
 .text.sl_WlanRxFilterAdd
                0x0000000000000000       0x80 ../../../../simplelink/gcc/lib/nonos/Release/libsimplelink.a(wlan.o)
 .text.sl_WlanRxFilterGet
                0x0000000000000000       0x70 ../../../../simplelink/gcc/lib/nonos/Release/libsimplelink.a(wlan.o)
 .text.sl_WlanRxStatStart
                0x0000000000000000       0x28 ../../../../simplelink/gcc/lib/nonos/Release/libsimplelink.a(wlan.o)
 .text.sl_WlanRxStatStop
                0x0000000000000000       0x28 ../../../../simplelink/gcc/lib/nonos/Release/libsimplelink.a(wlan.o)
 .text.sl_WlanRxStatGet
                0x0000000000000000       0x44 ../../../../simplelink/gcc/lib/nonos/Release/libsimplelink.a(wlan.o)
 .text.sl_WlanSmartConfigStop
                0x0000000000000000       0x28 ../../../../simplelink/gcc/lib/nonos/Release/libsimplelink.a(wlan.o)
 .text.sl_WlanSmartConfigStart
                0x0000000000000000       0x84 ../../../../simplelink/gcc/lib/nonos/Release/libsimplelink.a(wlan.o)
 .text.sl_WlanGet
                0x0000000000000000       0x94 ../../../../simplelink/gcc/lib/nonos/Release/libsimplelink.a(wlan.o)
 .rodata        0x0000000000000000        0x4 ../../../../simplelink/gcc/lib/nonos/Release/libsimplelink.a(wlan.o)
 .rodata._SlSmartConfigStartCmdCtrl
                0x0000000000000000        0x4 ../../../../simplelink/gcc/lib/nonos/Release/libsimplelink.a(wlan.o)
 .rodata._SlRxFilterGetCmdCtrl
                0x0000000000000000        0x4 ../../../../simplelink/gcc/lib/nonos/Release/libsimplelink.a(wlan.o)
 .rodata._SlWlanGetNetworkListCtrl
                0x0000000000000000        0x4 ../../../../simplelink/gcc/lib/nonos/Release/libsimplelink.a(wlan.o)
 .rodata._SlRxFilterAddtCmdCtrl
                0x0000000000000000        0x4 ../../../../simplelink/gcc/lib/nonos/Release/libsimplelink.a(wlan.o)
 .rodata._SlPolicyGetCmdCtrl
                0x0000000000000000        0x4 ../../../../simplelink/gcc/lib/nonos/Release/libsimplelink.a(wlan.o)
 .rodata._SlProfileGetCmdCtrl
                0x0000000000000000        0x4 ../../../../simplelink/gcc/lib/nonos/Release/libsimplelink.a(wlan.o)
 .rodata._SlWlanCfgGetCmdCtrl
                0x0000000000000000        0x4 ../../../../simplelink/gcc/lib/nonos/Release/libsimplelink.a(wlan.o)
 .text          0x0000000000000000        0x0 ../../../../simplelink/gcc/lib/nonos/Release/libsimplelink.a(cc_pal.o)
 .data          0x0000000000000000        0x0 ../../../../simplelink/gcc/lib/nonos/Release/libsimplelink.a(cc_pal.o)
 .bss           0x0000000000000000        0x0 ../../../../simplelink/gcc/lib/nonos/Release/libsimplelink.a(cc_pal.o)
 .text.NwpPowerOff_WithNwpLpdsPoll
                0x0000000000000000       0x5c ../../../../simplelink/gcc/lib/nonos/Release/libsimplelink.a(cc_pal.o)
 .bss.g_pHostIntHdl
                0x0000000000000000        0x4 ../../../../simplelink/gcc/lib/nonos/Release/libsimplelink.a(cc_pal.o)
 .text          0x0000000000000000        0x0 ../../../../driverlib/gcc/lib/Release/libdriver.a(gpio.o)
 .data          0x0000000000000000        0x0 ../../../../driverlib/gcc/lib/Release/libdriver.a(gpio.o)
 .bss           0x0000000000000000        0x0 ../../../../driverlib/gcc/lib/Release/libdriver.a(gpio.o)
 .text.GPIOGetIntNumber
                0x0000000000000000       0x3c ../../../../driverlib/gcc/lib/Release/libdriver.a(gpio.o)
 .text.GPIODirModeGet
                0x0000000000000000       0x16 ../../../../driverlib/gcc/lib/Release/libdriver.a(gpio.o)
 .text.GPIOIntTypeSet
                0x0000000000000000       0x42 ../../../../driverlib/gcc/lib/Release/libdriver.a(gpio.o)
 .text.GPIOIntTypeGet
                0x0000000000000000       0x34 ../../../../driverlib/gcc/lib/Release/libdriver.a(gpio.o)
 .text.GPIOIntEnable
                0x0000000000000000        0xc ../../../../driverlib/gcc/lib/Release/libdriver.a(gpio.o)
 .text.GPIOIntDisable
                0x0000000000000000        0xe ../../../../driverlib/gcc/lib/Release/libdriver.a(gpio.o)
 .text.GPIOIntClear
                0x0000000000000000        0x6 ../../../../driverlib/gcc/lib/Release/libdriver.a(gpio.o)
 .text.GPIOIntRegister
                0x0000000000000000       0x16 ../../../../driverlib/gcc/lib/Release/libdriver.a(gpio.o)
 .text.GPIOIntUnregister
                0x0000000000000000       0x16 ../../../../driverlib/gcc/lib/Release/libdriver.a(gpio.o)
 .text.GPIOPinRead
                0x0000000000000000        0x6 ../../../../driverlib/gcc/lib/Release/libdriver.a(gpio.o)
 .text.GPIOPinWrite
                0x0000000000000000        0x6 ../../../../driverlib/gcc/lib/Release/libdriver.a(gpio.o)
 .text.GPIODMATriggerEnable
                0x0000000000000000       0x54 ../../../../driverlib/gcc/lib/Release/libdriver.a(gpio.o)
 .text.GPIODMATriggerDisable
                0x0000000000000000       0x54 ../../../../driverlib/gcc/lib/Release/libdriver.a(gpio.o)
 .text          0x0000000000000000        0x0 ../../../../driverlib/gcc/lib/Release/libdriver.a(interrupt.o)
 .data          0x0000000000000000        0x0 ../../../../driverlib/gcc/lib/Release/libdriver.a(interrupt.o)
 .bss           0x0000000000000000        0x0 ../../../../driverlib/gcc/lib/Release/libdriver.a(interrupt.o)
 .text.IntDefaultHandler
                0x0000000000000000        0x2 ../../../../driverlib/gcc/lib/Release/libdriver.a(interrupt.o)
 .text.IntMasterEnable
                0x0000000000000000        0xa ../../../../driverlib/gcc/lib/Release/libdriver.a(interrupt.o)
 .text.IntMasterDisable
                0x0000000000000000        0xa ../../../../driverlib/gcc/lib/Release/libdriver.a(interrupt.o)
 .text.IntVTableBaseSet
                0x0000000000000000        0xc ../../../../driverlib/gcc/lib/Release/libdriver.a(interrupt.o)
 .text.IntUnregister
                0x0000000000000000       0x14 ../../../../driverlib/gcc/lib/Release/libdriver.a(interrupt.o)
 .text.IntPriorityGroupingSet
                0x0000000000000000       0x1c ../../../../driverlib/gcc/lib/Release/libdriver.a(interrupt.o)
 .text.IntPriorityGroupingGet
                0x0000000000000000       0x24 ../../../../driverlib/gcc/lib/Release/libdriver.a(interrupt.o)
 .text.IntPrioritySet
                0x0000000000000000       0x28 ../../../../driverlib/gcc/lib/Release/libdriver.a(interrupt.o)
 .text.IntPriorityGet
                0x0000000000000000       0x1c ../../../../driverlib/gcc/lib/Release/libdriver.a(interrupt.o)
 .text.IntPendSet
                0x0000000000000000       0x58 ../../../../driverlib/gcc/lib/Release/libdriver.a(interrupt.o)
 .text.IntPendClear
                0x0000000000000000       0x40 ../../../../driverlib/gcc/lib/Release/libdriver.a(interrupt.o)
 .text.IntPriorityMaskSet
                0x0000000000000000        0x4 ../../../../driverlib/gcc/lib/Release/libdriver.a(interrupt.o)
 .text.IntPriorityMaskGet
                0x0000000000000000        0x4 ../../../../driverlib/gcc/lib/Release/libdriver.a(interrupt.o)
 .rodata.g_pulPendRegs
                0x0000000000000000       0x18 ../../../../driverlib/gcc/lib/Release/libdriver.a(interrupt.o)
 .rodata.g_pulUnpendRegs
                0x0000000000000000       0x18 ../../../../driverlib/gcc/lib/Release/libdriver.a(interrupt.o)
 .rodata.g_pulPriority
                0x0000000000000000       0x20 ../../../../driverlib/gcc/lib/Release/libdriver.a(interrupt.o)
 .rodata.g_pulRegs
                0x0000000000000000       0xd4 ../../../../driverlib/gcc/lib/Release/libdriver.a(interrupt.o)
 .text          0x0000000000000000        0x0 ../../../../driverlib/gcc/lib/Release/libdriver.a(pin.o)
 .data          0x0000000000000000        0x0 ../../../../driverlib/gcc/lib/Release/libdriver.a(pin.o)
 .bss           0x0000000000000000        0x0 ../../../../driverlib/gcc/lib/Release/libdriver.a(pin.o)
 .text.PinModeGet
                0x0000000000000000       0x20 ../../../../driverlib/gcc/lib/Release/libdriver.a(pin.o)
 .text.PinDirModeSet
                0x0000000000000000       0x24 ../../../../driverlib/gcc/lib/Release/libdriver.a(pin.o)
 .text.PinDirModeGet
                0x0000000000000000       0x20 ../../../../driverlib/gcc/lib/Release/libdriver.a(pin.o)
 .text.PinConfigGet
                0x0000000000000000       0x2c ../../../../driverlib/gcc/lib/Release/libdriver.a(pin.o)
 .text.PinTypeI2C
                0x0000000000000000       0x18 ../../../../driverlib/gcc/lib/Release/libdriver.a(pin.o)
 .text.PinTypeCamera
                0x0000000000000000       0x16 ../../../../driverlib/gcc/lib/Release/libdriver.a(pin.o)
 .text.PinTypeTimer
                0x0000000000000000        0x4 ../../../../driverlib/gcc/lib/Release/libdriver.a(pin.o)
 .text.PinTypeI2S
                0x0000000000000000        0x4 ../../../../driverlib/gcc/lib/Release/libdriver.a(pin.o)
 .text.PinTypeSPI
                0x0000000000000000        0x4 ../../../../driverlib/gcc/lib/Release/libdriver.a(pin.o)
 .text.PinTypeADC
                0x0000000000000000        0xa ../../../../driverlib/gcc/lib/Release/libdriver.a(pin.o)
 .text          0x0000000000000000        0x0 ../../../../driverlib/gcc/lib/Release/libdriver.a(prcm.o)
 .data          0x0000000000000000        0x0 ../../../../driverlib/gcc/lib/Release/libdriver.a(prcm.o)
 .bss           0x0000000000000000        0x0 ../../../../driverlib/gcc/lib/Release/libdriver.a(prcm.o)
 .text.IsRTCUsed
                0x0000000000000000       0x18 ../../../../driverlib/gcc/lib/Release/libdriver.a(prcm.o)
 .text.PRCMMCUReset
                0x0000000000000000       0x14 ../../../../driverlib/gcc/lib/Release/libdriver.a(prcm.o)
 .text.PRCMPeripheralClockGet
                0x0000000000000000       0x48 ../../../../driverlib/gcc/lib/Release/libdriver.a(prcm.o)
 .text.PRCMI2SClockFreqSet
                0x0000000000000000       0x20 ../../../../driverlib/gcc/lib/Release/libdriver.a(prcm.o)
 .text.PRCMLPDSRestoreInfoSet
                0x0000000000000000        0xc ../../../../driverlib/gcc/lib/Release/libdriver.a(prcm.o)
 .text.PRCMLPDSEnter
                0x0000000000000000       0x38 ../../../../driverlib/gcc/lib/Release/libdriver.a(prcm.o)
 .text.PRCMLPDSEnterKeepDebugIf
                0x0000000000000000       0x30 ../../../../driverlib/gcc/lib/Release/libdriver.a(prcm.o)
 .text.PRCMLPDSWakeupSourceEnable
                0x0000000000000000       0x14 ../../../../driverlib/gcc/lib/Release/libdriver.a(prcm.o)
 .text.PRCMLPDSWakeupSourceDisable
                0x0000000000000000       0x10 ../../../../driverlib/gcc/lib/Release/libdriver.a(prcm.o)
 .text.PRCMLPDSWakeupCauseGet
                0x0000000000000000        0xc ../../../../driverlib/gcc/lib/Release/libdriver.a(prcm.o)
 .text.PRCMLPDSIntervalSet
                0x0000000000000000       0x18 ../../../../driverlib/gcc/lib/Release/libdriver.a(prcm.o)
 .text.PRCMLPDSWakeUpGPIOSelect
                0x0000000000000000       0x24 ../../../../driverlib/gcc/lib/Release/libdriver.a(prcm.o)
 .text.PRCMSleepEnter
                0x0000000000000000        0x4 ../../../../driverlib/gcc/lib/Release/libdriver.a(prcm.o)
 .text.PRCMSRAMRetentionEnable
                0x0000000000000000       0x14 ../../../../driverlib/gcc/lib/Release/libdriver.a(prcm.o)
 .text.PRCMSRAMRetentionDisable
                0x0000000000000000       0x18 ../../../../driverlib/gcc/lib/Release/libdriver.a(prcm.o)
 .text.PRCMHibernateWakeupSourceDisable
                0x0000000000000000       0x4c ../../../../driverlib/gcc/lib/Release/libdriver.a(prcm.o)
 .text.PRCMHibernateWakeupCauseGet
                0x0000000000000000       0x18 ../../../../driverlib/gcc/lib/Release/libdriver.a(prcm.o)
 .text.PRCMHibernateWakeUpGPIOSelect
                0x0000000000000000       0x50 ../../../../driverlib/gcc/lib/Release/libdriver.a(prcm.o)
 .text.PRCMSlowClkCtrGet
                0x0000000000000000       0x40 ../../../../driverlib/gcc/lib/Release/libdriver.a(prcm.o)
 .text.PRCMSlowClkCtrFastGet
                0x0000000000000000       0x20 ../../../../driverlib/gcc/lib/Release/libdriver.a(prcm.o)
 .text.PRCMSlowClkCtrMatchSet
                0x0000000000000000       0x28 ../../../../driverlib/gcc/lib/Release/libdriver.a(prcm.o)
 .text.PRCMSlowClkCtrMatchGet
                0x0000000000000000       0x30 ../../../../driverlib/gcc/lib/Release/libdriver.a(prcm.o)
 .text.PRCMOCRRegisterWrite
                0x0000000000000000       0x14 ../../../../driverlib/gcc/lib/Release/libdriver.a(prcm.o)
 .text.PRCMOCRRegisterRead
                0x0000000000000000       0x18 ../../../../driverlib/gcc/lib/Release/libdriver.a(prcm.o)
 .text.PRCMIntRegister
                0x0000000000000000       0x14 ../../../../driverlib/gcc/lib/Release/libdriver.a(prcm.o)
 .text.PRCMIntUnregister
                0x0000000000000000       0x12 ../../../../driverlib/gcc/lib/Release/libdriver.a(prcm.o)
 .text.PRCMIntEnable
                0x0000000000000000       0x38 ../../../../driverlib/gcc/lib/Release/libdriver.a(prcm.o)
 .text.PRCMIntDisable
                0x0000000000000000       0x38 ../../../../driverlib/gcc/lib/Release/libdriver.a(prcm.o)
 .text.PRCMIntStatus
                0x0000000000000000        0xc ../../../../driverlib/gcc/lib/Release/libdriver.a(prcm.o)
 .text.PRCMRTCInUseSet
                0x0000000000000000       0x20 ../../../../driverlib/gcc/lib/Release/libdriver.a(prcm.o)
 .text.PRCMRTCInUseGet
                0x0000000000000000        0xe ../../../../driverlib/gcc/lib/Release/libdriver.a(prcm.o)
 .text.PRCMRTCSet
                0x0000000000000000       0x60 ../../../../driverlib/gcc/lib/Release/libdriver.a(prcm.o)
 .text.PRCMRTCGet
                0x0000000000000000       0x64 ../../../../driverlib/gcc/lib/Release/libdriver.a(prcm.o)
 .text.PRCMRTCMatchSet
                0x0000000000000000       0x68 ../../../../driverlib/gcc/lib/Release/libdriver.a(prcm.o)
 .text.PRCMRTCMatchGet
                0x0000000000000000       0x6c ../../../../driverlib/gcc/lib/Release/libdriver.a(prcm.o)
 .text.PRCMHIBRegRead
                0x0000000000000000       0x10 ../../../../driverlib/gcc/lib/Release/libdriver.a(prcm.o)
 .text.PRCMHIBRegWrite
                0x0000000000000000        0xa ../../../../driverlib/gcc/lib/Release/libdriver.a(prcm.o)
 .text.PRCMCameraFreqSet
                0x0000000000000000       0x28 ../../../../driverlib/gcc/lib/Release/libdriver.a(prcm.o)
 .text          0x0000000000000000        0x0 ../../../../driverlib/gcc/lib/Release/libdriver.a(spi.o)
 .data          0x0000000000000000        0x0 ../../../../driverlib/gcc/lib/Release/libdriver.a(spi.o)
 .bss           0x0000000000000000        0x0 ../../../../driverlib/gcc/lib/Release/libdriver.a(spi.o)
 .text.SPIDmaMaskGet
                0x0000000000000000       0x38 ../../../../driverlib/gcc/lib/Release/libdriver.a(spi.o)
 .text.SPIEnable
                0x0000000000000000        0xe ../../../../driverlib/gcc/lib/Release/libdriver.a(spi.o)
 .text.SPIDisable
                0x0000000000000000        0xe ../../../../driverlib/gcc/lib/Release/libdriver.a(spi.o)
 .text.SPIReset
                0x0000000000000000       0x16 ../../../../driverlib/gcc/lib/Release/libdriver.a(spi.o)
 .text.SPIDataGetNonBlocking
                0x0000000000000000       0x16 ../../../../driverlib/gcc/lib/Release/libdriver.a(spi.o)
 .text.SPIDataGet
                0x0000000000000000       0x10 ../../../../driverlib/gcc/lib/Release/libdriver.a(spi.o)
 .text.SPIDataPutNonBlocking
                0x0000000000000000       0x14 ../../../../driverlib/gcc/lib/Release/libdriver.a(spi.o)
 .text.SPIDataPut
                0x0000000000000000        0xe ../../../../driverlib/gcc/lib/Release/libdriver.a(spi.o)
 .text.SPIFIFOEnable
                0x0000000000000000        0xc ../../../../driverlib/gcc/lib/Release/libdriver.a(spi.o)
 .text.SPIDmaEnable
                0x0000000000000000        0x4 ../../../../driverlib/gcc/lib/Release/libdriver.a(spi.o)
 .text.SPIFIFOLevelSet
                0x0000000000000000       0x18 ../../../../driverlib/gcc/lib/Release/libdriver.a(spi.o)
 .text.SPIFIFOLevelGet
                0x0000000000000000       0x10 ../../../../driverlib/gcc/lib/Release/libdriver.a(spi.o)
 .text.SPIWordCountSet
                0x0000000000000000       0x10 ../../../../driverlib/gcc/lib/Release/libdriver.a(spi.o)
 .text.SPIIntRegister
                0x0000000000000000       0x4c ../../../../driverlib/gcc/lib/Release/libdriver.a(spi.o)
 .text.SPIIntUnregister
                0x0000000000000000       0x4c ../../../../driverlib/gcc/lib/Release/libdriver.a(spi.o)
 .text.SPIIntEnable
                0x0000000000000000       0x38 ../../../../driverlib/gcc/lib/Release/libdriver.a(spi.o)
 .text.SPIIntDisable
                0x0000000000000000       0x3c ../../../../driverlib/gcc/lib/Release/libdriver.a(spi.o)
 .text.SPIIntStatus
                0x0000000000000000       0x44 ../../../../driverlib/gcc/lib/Release/libdriver.a(spi.o)
 .text.SPIIntClear
                0x0000000000000000       0x34 ../../../../driverlib/gcc/lib/Release/libdriver.a(spi.o)
 .text.SPICSEnable
                0x0000000000000000        0xe ../../../../driverlib/gcc/lib/Release/libdriver.a(spi.o)
 .text.SPICSDisable
                0x0000000000000000        0xe ../../../../driverlib/gcc/lib/Release/libdriver.a(spi.o)
 .text.SPITransfer
                0x0000000000000000      0x180 ../../../../driverlib/gcc/lib/Release/libdriver.a(spi.o)
 .rodata.g_ppulSPIIntMap
                0x0000000000000000       0x24 ../../../../driverlib/gcc/lib/Release/libdriver.a(spi.o)
 .rodata.g_ulSPIDmaMaskMap
                0x0000000000000000       0x18 ../../../../driverlib/gcc/lib/Release/libdriver.a(spi.o)
 .text          0x0000000000000000        0x0 ../../../../driverlib/gcc/lib/Release/libdriver.a(systick.o)
 .data          0x0000000000000000        0x0 ../../../../driverlib/gcc/lib/Release/libdriver.a(systick.o)
 .bss           0x0000000000000000        0x0 ../../../../driverlib/gcc/lib/Release/libdriver.a(systick.o)
 .text.SysTickDisable
                0x0000000000000000       0x10 ../../../../driverlib/gcc/lib/Release/libdriver.a(systick.o)
 .text.SysTickIntUnregister
                0x0000000000000000       0x14 ../../../../driverlib/gcc/lib/Release/libdriver.a(systick.o)
 .text.SysTickIntEnable
                0x0000000000000000       0x10 ../../../../driverlib/gcc/lib/Release/libdriver.a(systick.o)
 .text.SysTickIntDisable
                0x0000000000000000       0x10 ../../../../driverlib/gcc/lib/Release/libdriver.a(systick.o)
 .text.SysTickPeriodGet
                0x0000000000000000        0xc ../../../../driverlib/gcc/lib/Release/libdriver.a(systick.o)
 .text.SysTickValueGet
                0x0000000000000000        0xc ../../../../driverlib/gcc/lib/Release/libdriver.a(systick.o)
 .text          0x0000000000000000        0x0 ../../../../driverlib/gcc/lib/Release/libdriver.a(timer.o)
 .data          0x0000000000000000        0x0 ../../../../driverlib/gcc/lib/Release/libdriver.a(timer.o)
 .bss           0x0000000000000000        0x0 ../../../../driverlib/gcc/lib/Release/libdriver.a(timer.o)
 .text.TimerEnable
                0x0000000000000000       0x10 ../../../../driverlib/gcc/lib/Release/libdriver.a(timer.o)
 .text.TimerDisable
                0x0000000000000000       0x12 ../../../../driverlib/gcc/lib/Release/libdriver.a(timer.o)
 .text.TimerControlLevel
                0x0000000000000000       0x1c ../../../../driverlib/gcc/lib/Release/libdriver.a(timer.o)
 .text.TimerControlEvent
                0x0000000000000000       0x1e ../../../../driverlib/gcc/lib/Release/libdriver.a(timer.o)
 .text.TimerControlStall
                0x0000000000000000       0x1c ../../../../driverlib/gcc/lib/Release/libdriver.a(timer.o)
 .text.TimerPrescaleSet
                0x0000000000000000       0x12 ../../../../driverlib/gcc/lib/Release/libdriver.a(timer.o)
 .text.TimerPrescaleGet
                0x0000000000000000        0xa ../../../../driverlib/gcc/lib/Release/libdriver.a(timer.o)
 .text.TimerPrescaleMatchSet
                0x0000000000000000       0x12 ../../../../driverlib/gcc/lib/Release/libdriver.a(timer.o)
 .text.TimerPrescaleMatchGet
                0x0000000000000000        0xa ../../../../driverlib/gcc/lib/Release/libdriver.a(timer.o)
 .text.TimerLoadSet
                0x0000000000000000       0x12 ../../../../driverlib/gcc/lib/Release/libdriver.a(timer.o)
 .text.TimerLoadGet
                0x0000000000000000        0xa ../../../../driverlib/gcc/lib/Release/libdriver.a(timer.o)
 .text.TimerValueGet
                0x0000000000000000        0xa ../../../../driverlib/gcc/lib/Release/libdriver.a(timer.o)
 .text.TimerValueSet
                0x0000000000000000        0xa ../../../../driverlib/gcc/lib/Release/libdriver.a(timer.o)
 .text.TimerMatchSet
                0x0000000000000000       0x12 ../../../../driverlib/gcc/lib/Release/libdriver.a(timer.o)
 .text.TimerMatchGet
                0x0000000000000000        0xa ../../../../driverlib/gcc/lib/Release/libdriver.a(timer.o)
 .text.TimerIntRegister
                0x0000000000000000       0x60 ../../../../driverlib/gcc/lib/Release/libdriver.a(timer.o)
 .text.TimerIntUnregister
                0x0000000000000000       0x58 ../../../../driverlib/gcc/lib/Release/libdriver.a(timer.o)
 .text.TimerIntEnable
                0x0000000000000000        0x8 ../../../../driverlib/gcc/lib/Release/libdriver.a(timer.o)
 .text.TimerIntDisable
                0x0000000000000000        0xa ../../../../driverlib/gcc/lib/Release/libdriver.a(timer.o)
 .text.TimerIntStatus
                0x0000000000000000        0xa ../../../../driverlib/gcc/lib/Release/libdriver.a(timer.o)
 .text.TimerIntClear
                0x0000000000000000        0x4 ../../../../driverlib/gcc/lib/Release/libdriver.a(timer.o)
 .text.TimerDMAEventSet
                0x0000000000000000        0x4 ../../../../driverlib/gcc/lib/Release/libdriver.a(timer.o)
 .text.TimerDMAEventGet
                0x0000000000000000        0x4 ../../../../driverlib/gcc/lib/Release/libdriver.a(timer.o)
 .text          0x0000000000000000        0x0 ../../../../driverlib/gcc/lib/Release/libdriver.a(utils.o)
 .data          0x0000000000000000        0x0 ../../../../driverlib/gcc/lib/Release/libdriver.a(utils.o)
 .bss           0x0000000000000000        0x0 ../../../../driverlib/gcc/lib/Release/libdriver.a(utils.o)
 .text          0x0000000000000000        0x0 ../../../../driverlib/gcc/lib/Release/libdriver.a(cpu.o)
 .data          0x0000000000000000        0x0 ../../../../driverlib/gcc/lib/Release/libdriver.a(cpu.o)
 .bss           0x0000000000000000        0x0 ../../../../driverlib/gcc/lib/Release/libdriver.a(cpu.o)
 .text.CPUcpsid
                0x0000000000000000       0x10 ../../../../driverlib/gcc/lib/Release/libdriver.a(cpu.o)
 .text.CPUprimask
                0x0000000000000000        0x6 ../../../../driverlib/gcc/lib/Release/libdriver.a(cpu.o)
 .text.CPUcpsie
                0x0000000000000000       0x10 ../../../../driverlib/gcc/lib/Release/libdriver.a(cpu.o)
 .text.CPUwfi   0x0000000000000000        0xc ../../../../driverlib/gcc/lib/Release/libdriver.a(cpu.o)
 .text.CPUbasepriSet
                0x0000000000000000        0xe ../../../../driverlib/gcc/lib/Release/libdriver.a(cpu.o)
 .text.CPUbasepriGet
                0x0000000000000000        0x6 ../../../../driverlib/gcc/lib/Release/libdriver.a(cpu.o)
 .debug_info    0x0000000000000000       0xfe ../../../../driverlib/gcc/lib/Release/libdriver.a(cpu.o)
 .debug_abbrev  0x0000000000000000       0xb4 ../../../../driverlib/gcc/lib/Release/libdriver.a(cpu.o)
 .debug_aranges
                0x0000000000000000       0x48 ../../../../driverlib/gcc/lib/Release/libdriver.a(cpu.o)
 .debug_ranges  0x0000000000000000       0x38 ../../../../driverlib/gcc/lib/Release/libdriver.a(cpu.o)
 .debug_line    0x0000000000000000       0x9d ../../../../driverlib/gcc/lib/Release/libdriver.a(cpu.o)
 .debug_str     0x0000000000000000      0x109 ../../../../driverlib/gcc/lib/Release/libdriver.a(cpu.o)
 .comment       0x0000000000000000       0x22 ../../../../driverlib/gcc/lib/Release/libdriver.a(cpu.o)
 .ARM.attributes
                0x0000000000000000       0x33 ../../../../driverlib/gcc/lib/Release/libdriver.a(cpu.o)
 .debug_frame   0x0000000000000000       0x70 ../../../../driverlib/gcc/lib/Release/libdriver.a(cpu.o)
 .text          0x0000000000000000        0x0 ../../../../driverlib/gcc/lib/Release/libdriver.a(flash.o)
 .data          0x0000000000000000        0x0 ../../../../driverlib/gcc/lib/Release/libdriver.a(flash.o)
 .bss           0x0000000000000000        0x0 ../../../../driverlib/gcc/lib/Release/libdriver.a(flash.o)
 .text.FlashDisable
                0x0000000000000000       0x48 ../../../../driverlib/gcc/lib/Release/libdriver.a(flash.o)
 .text.FlashErase
                0x0000000000000000       0x38 ../../../../driverlib/gcc/lib/Release/libdriver.a(flash.o)
 .text.FlashEraseNonBlocking
                0x0000000000000000       0x1c ../../../../driverlib/gcc/lib/Release/libdriver.a(flash.o)
 .text.FlashMassErase
                0x0000000000000000       0x34 ../../../../driverlib/gcc/lib/Release/libdriver.a(flash.o)
 .text.FlashMassEraseNonBlocking
                0x0000000000000000       0x18 ../../../../driverlib/gcc/lib/Release/libdriver.a(flash.o)
 .text.FlashProgram
                0x0000000000000000       0x80 ../../../../driverlib/gcc/lib/Release/libdriver.a(flash.o)
 .text.FlashProgramNonBlocking
                0x0000000000000000       0x70 ../../../../driverlib/gcc/lib/Release/libdriver.a(flash.o)
 .text.FlashProtectGet
                0x0000000000000000       0x44 ../../../../driverlib/gcc/lib/Release/libdriver.a(flash.o)
 .text.FlashIntRegister
                0x0000000000000000       0x14 ../../../../driverlib/gcc/lib/Release/libdriver.a(flash.o)
 .text.FlashIntUnregister
                0x0000000000000000       0x12 ../../../../driverlib/gcc/lib/Release/libdriver.a(flash.o)
 .text.FlashIntEnable
                0x0000000000000000       0x10 ../../../../driverlib/gcc/lib/Release/libdriver.a(flash.o)
 .text.FlashIntDisable
                0x0000000000000000       0x10 ../../../../driverlib/gcc/lib/Release/libdriver.a(flash.o)
 .text.FlashIntStatus
                0x0000000000000000       0x14 ../../../../driverlib/gcc/lib/Release/libdriver.a(flash.o)
 .text.FlashIntClear
                0x0000000000000000        0xc ../../../../driverlib/gcc/lib/Release/libdriver.a(flash.o)
 .rodata.g_pulFMPPERegs
                0x0000000000000000       0x40 ../../../../driverlib/gcc/lib/Release/libdriver.a(flash.o)
 .rodata.g_pulFMPRERegs
                0x0000000000000000       0x40 ../../../../driverlib/gcc/lib/Release/libdriver.a(flash.o)
 .debug_info    0x0000000000000000      0x3d8 ../../../../driverlib/gcc/lib/Release/libdriver.a(flash.o)
 .debug_abbrev  0x0000000000000000      0x19d ../../../../driverlib/gcc/lib/Release/libdriver.a(flash.o)
 .debug_loc     0x0000000000000000      0x282 ../../../../driverlib/gcc/lib/Release/libdriver.a(flash.o)
 .debug_aranges
                0x0000000000000000       0x88 ../../../../driverlib/gcc/lib/Release/libdriver.a(flash.o)
 .debug_ranges  0x0000000000000000       0x78 ../../../../driverlib/gcc/lib/Release/libdriver.a(flash.o)
 .debug_line    0x0000000000000000      0x201 ../../../../driverlib/gcc/lib/Release/libdriver.a(flash.o)
 .debug_str     0x0000000000000000      0x2b3 ../../../../driverlib/gcc/lib/Release/libdriver.a(flash.o)
 .comment       0x0000000000000000       0x22 ../../../../driverlib/gcc/lib/Release/libdriver.a(flash.o)
 .ARM.attributes
                0x0000000000000000       0x33 ../../../../driverlib/gcc/lib/Release/libdriver.a(flash.o)
 .debug_frame   0x0000000000000000      0x134 ../../../../driverlib/gcc/lib/Release/libdriver.a(flash.o)
 .text          0x0000000000000000        0x0 /usr/lib/gcc/arm-none-eabi/5.2.0/../../../../arm-none-eabi/lib/armv7e-m/libc_nano.a(lib_a-atol.o)
 .data          0x0000000000000000        0x0 /usr/lib/gcc/arm-none-eabi/5.2.0/../../../../arm-none-eabi/lib/armv7e-m/libc_nano.a(lib_a-atol.o)
 .bss           0x0000000000000000        0x0 /usr/lib/gcc/arm-none-eabi/5.2.0/../../../../arm-none-eabi/lib/armv7e-m/libc_nano.a(lib_a-atol.o)
 .text._atol_r  0x0000000000000000        0x8 /usr/lib/gcc/arm-none-eabi/5.2.0/../../../../arm-none-eabi/lib/armv7e-m/libc_nano.a(lib_a-atol.o)
 .text          0x0000000000000000        0x0 /usr/lib/gcc/arm-none-eabi/5.2.0/../../../../arm-none-eabi/lib/armv7e-m/libc_nano.a(lib_a-malloc.o)
 .data          0x0000000000000000        0x0 /usr/lib/gcc/arm-none-eabi/5.2.0/../../../../arm-none-eabi/lib/armv7e-m/libc_nano.a(lib_a-malloc.o)
 .bss           0x0000000000000000        0x0 /usr/lib/gcc/arm-none-eabi/5.2.0/../../../../arm-none-eabi/lib/armv7e-m/libc_nano.a(lib_a-malloc.o)
 .text          0x0000000000000000        0x0 /usr/lib/gcc/arm-none-eabi/5.2.0/../../../../arm-none-eabi/lib/armv7e-m/libc_nano.a(lib_a-memcpy.o)
 .data          0x0000000000000000        0x0 /usr/lib/gcc/arm-none-eabi/5.2.0/../../../../arm-none-eabi/lib/armv7e-m/libc_nano.a(lib_a-memcpy.o)
 .bss           0x0000000000000000        0x0 /usr/lib/gcc/arm-none-eabi/5.2.0/../../../../arm-none-eabi/lib/armv7e-m/libc_nano.a(lib_a-memcpy.o)
 .text          0x0000000000000000        0x0 /usr/lib/gcc/arm-none-eabi/5.2.0/../../../../arm-none-eabi/lib/armv7e-m/libc_nano.a(lib_a-memmove.o)
 .data          0x0000000000000000        0x0 /usr/lib/gcc/arm-none-eabi/5.2.0/../../../../arm-none-eabi/lib/armv7e-m/libc_nano.a(lib_a-memmove.o)
 .bss           0x0000000000000000        0x0 /usr/lib/gcc/arm-none-eabi/5.2.0/../../../../arm-none-eabi/lib/armv7e-m/libc_nano.a(lib_a-memmove.o)
 .text          0x0000000000000000        0x0 /usr/lib/gcc/arm-none-eabi/5.2.0/../../../../arm-none-eabi/lib/armv7e-m/libc_nano.a(lib_a-memset.o)
 .data          0x0000000000000000        0x0 /usr/lib/gcc/arm-none-eabi/5.2.0/../../../../arm-none-eabi/lib/armv7e-m/libc_nano.a(lib_a-memset.o)
 .bss           0x0000000000000000        0x0 /usr/lib/gcc/arm-none-eabi/5.2.0/../../../../arm-none-eabi/lib/armv7e-m/libc_nano.a(lib_a-memset.o)
 .text          0x0000000000000000        0x0 /usr/lib/gcc/arm-none-eabi/5.2.0/../../../../arm-none-eabi/lib/armv7e-m/libc_nano.a(lib_a-nano-freer.o)
 .data          0x0000000000000000        0x0 /usr/lib/gcc/arm-none-eabi/5.2.0/../../../../arm-none-eabi/lib/armv7e-m/libc_nano.a(lib_a-nano-freer.o)
 .bss           0x0000000000000000        0x0 /usr/lib/gcc/arm-none-eabi/5.2.0/../../../../arm-none-eabi/lib/armv7e-m/libc_nano.a(lib_a-nano-freer.o)
 .text          0x0000000000000000        0x0 /usr/lib/gcc/arm-none-eabi/5.2.0/../../../../arm-none-eabi/lib/armv7e-m/libc_nano.a(lib_a-nano-mallocr.o)
 .data          0x0000000000000000        0x0 /usr/lib/gcc/arm-none-eabi/5.2.0/../../../../arm-none-eabi/lib/armv7e-m/libc_nano.a(lib_a-nano-mallocr.o)
 .bss           0x0000000000000000        0x0 /usr/lib/gcc/arm-none-eabi/5.2.0/../../../../arm-none-eabi/lib/armv7e-m/libc_nano.a(lib_a-nano-mallocr.o)
 .text          0x0000000000000000        0x0 /usr/lib/gcc/arm-none-eabi/5.2.0/../../../../arm-none-eabi/lib/armv7e-m/libc_nano.a(lib_a-realloc.o)
 .data          0x0000000000000000        0x0 /usr/lib/gcc/arm-none-eabi/5.2.0/../../../../arm-none-eabi/lib/armv7e-m/libc_nano.a(lib_a-realloc.o)
 .bss           0x0000000000000000        0x0 /usr/lib/gcc/arm-none-eabi/5.2.0/../../../../arm-none-eabi/lib/armv7e-m/libc_nano.a(lib_a-realloc.o)
 .text          0x0000000000000000        0x0 /usr/lib/gcc/arm-none-eabi/5.2.0/../../../../arm-none-eabi/lib/armv7e-m/libc_nano.a(lib_a-sbrkr.o)
 .data          0x0000000000000000        0x0 /usr/lib/gcc/arm-none-eabi/5.2.0/../../../../arm-none-eabi/lib/armv7e-m/libc_nano.a(lib_a-sbrkr.o)
 .bss           0x0000000000000000        0x0 /usr/lib/gcc/arm-none-eabi/5.2.0/../../../../arm-none-eabi/lib/armv7e-m/libc_nano.a(lib_a-sbrkr.o)
 .text          0x0000000000000000        0x0 /usr/lib/gcc/arm-none-eabi/5.2.0/../../../../arm-none-eabi/lib/armv7e-m/libc_nano.a(lib_a-snprintf.o)
 .data          0x0000000000000000        0x0 /usr/lib/gcc/arm-none-eabi/5.2.0/../../../../arm-none-eabi/lib/armv7e-m/libc_nano.a(lib_a-snprintf.o)
 .bss           0x0000000000000000        0x0 /usr/lib/gcc/arm-none-eabi/5.2.0/../../../../arm-none-eabi/lib/armv7e-m/libc_nano.a(lib_a-snprintf.o)
 .text._snprintf_r
                0x0000000000000000       0x5c /usr/lib/gcc/arm-none-eabi/5.2.0/../../../../arm-none-eabi/lib/armv7e-m/libc_nano.a(lib_a-snprintf.o)
 .text          0x0000000000000000        0x0 /usr/lib/gcc/arm-none-eabi/5.2.0/../../../../arm-none-eabi/lib/armv7e-m/libc_nano.a(lib_a-sprintf.o)
 .data          0x0000000000000000        0x0 /usr/lib/gcc/arm-none-eabi/5.2.0/../../../../arm-none-eabi/lib/armv7e-m/libc_nano.a(lib_a-sprintf.o)
 .bss           0x0000000000000000        0x0 /usr/lib/gcc/arm-none-eabi/5.2.0/../../../../arm-none-eabi/lib/armv7e-m/libc_nano.a(lib_a-sprintf.o)
 .text._sprintf_r
                0x0000000000000000       0x40 /usr/lib/gcc/arm-none-eabi/5.2.0/../../../../arm-none-eabi/lib/armv7e-m/libc_nano.a(lib_a-sprintf.o)
 .text          0x0000000000000000        0x0 /usr/lib/gcc/arm-none-eabi/5.2.0/../../../../arm-none-eabi/lib/armv7e-m/libc_nano.a(lib_a-strcat.o)
 .data          0x0000000000000000        0x0 /usr/lib/gcc/arm-none-eabi/5.2.0/../../../../arm-none-eabi/lib/armv7e-m/libc_nano.a(lib_a-strcat.o)
 .bss           0x0000000000000000        0x0 /usr/lib/gcc/arm-none-eabi/5.2.0/../../../../arm-none-eabi/lib/armv7e-m/libc_nano.a(lib_a-strcat.o)
 .text          0x0000000000000000        0x0 /usr/lib/gcc/arm-none-eabi/5.2.0/../../../../arm-none-eabi/lib/armv7e-m/libc_nano.a(lib_a-strchr.o)
 .data          0x0000000000000000        0x0 /usr/lib/gcc/arm-none-eabi/5.2.0/../../../../arm-none-eabi/lib/armv7e-m/libc_nano.a(lib_a-strchr.o)
 .bss           0x0000000000000000        0x0 /usr/lib/gcc/arm-none-eabi/5.2.0/../../../../arm-none-eabi/lib/armv7e-m/libc_nano.a(lib_a-strchr.o)
 .data          0x0000000000000000        0x0 /usr/lib/gcc/arm-none-eabi/5.2.0/../../../../arm-none-eabi/lib/armv7e-m/libc_nano.a(lib_a-strcmp.o)
 .bss           0x0000000000000000        0x0 /usr/lib/gcc/arm-none-eabi/5.2.0/../../../../arm-none-eabi/lib/armv7e-m/libc_nano.a(lib_a-strcmp.o)
 .eh_frame      0x0000000000000000       0x28 /usr/lib/gcc/arm-none-eabi/5.2.0/../../../../arm-none-eabi/lib/armv7e-m/libc_nano.a(lib_a-strcmp.o)
 .text          0x0000000000000000        0x0 /usr/lib/gcc/arm-none-eabi/5.2.0/../../../../arm-none-eabi/lib/armv7e-m/libc_nano.a(lib_a-strcpy.o)
 .data          0x0000000000000000        0x0 /usr/lib/gcc/arm-none-eabi/5.2.0/../../../../arm-none-eabi/lib/armv7e-m/libc_nano.a(lib_a-strcpy.o)
 .bss           0x0000000000000000        0x0 /usr/lib/gcc/arm-none-eabi/5.2.0/../../../../arm-none-eabi/lib/armv7e-m/libc_nano.a(lib_a-strcpy.o)
 .text          0x0000000000000000        0x0 /usr/lib/gcc/arm-none-eabi/5.2.0/../../../../arm-none-eabi/lib/armv7e-m/libc_nano.a(lib_a-strlen.o)
 .data          0x0000000000000000        0x0 /usr/lib/gcc/arm-none-eabi/5.2.0/../../../../arm-none-eabi/lib/armv7e-m/libc_nano.a(lib_a-strlen.o)
 .bss           0x0000000000000000        0x0 /usr/lib/gcc/arm-none-eabi/5.2.0/../../../../arm-none-eabi/lib/armv7e-m/libc_nano.a(lib_a-strlen.o)
 .text          0x0000000000000000        0x0 /usr/lib/gcc/arm-none-eabi/5.2.0/../../../../arm-none-eabi/lib/armv7e-m/libc_nano.a(lib_a-strncmp.o)
 .data          0x0000000000000000        0x0 /usr/lib/gcc/arm-none-eabi/5.2.0/../../../../arm-none-eabi/lib/armv7e-m/libc_nano.a(lib_a-strncmp.o)
 .bss           0x0000000000000000        0x0 /usr/lib/gcc/arm-none-eabi/5.2.0/../../../../arm-none-eabi/lib/armv7e-m/libc_nano.a(lib_a-strncmp.o)
 .text          0x0000000000000000        0x0 /usr/lib/gcc/arm-none-eabi/5.2.0/../../../../arm-none-eabi/lib/armv7e-m/libc_nano.a(lib_a-strncpy.o)
 .data          0x0000000000000000        0x0 /usr/lib/gcc/arm-none-eabi/5.2.0/../../../../arm-none-eabi/lib/armv7e-m/libc_nano.a(lib_a-strncpy.o)
 .bss           0x0000000000000000        0x0 /usr/lib/gcc/arm-none-eabi/5.2.0/../../../../arm-none-eabi/lib/armv7e-m/libc_nano.a(lib_a-strncpy.o)
 .text          0x0000000000000000        0x0 /usr/lib/gcc/arm-none-eabi/5.2.0/../../../../arm-none-eabi/lib/armv7e-m/libc_nano.a(lib_a-strstr.o)
 .data          0x0000000000000000        0x0 /usr/lib/gcc/arm-none-eabi/5.2.0/../../../../arm-none-eabi/lib/armv7e-m/libc_nano.a(lib_a-strstr.o)
 .bss           0x0000000000000000        0x0 /usr/lib/gcc/arm-none-eabi/5.2.0/../../../../arm-none-eabi/lib/armv7e-m/libc_nano.a(lib_a-strstr.o)
 .text          0x0000000000000000        0x0 /usr/lib/gcc/arm-none-eabi/5.2.0/../../../../arm-none-eabi/lib/armv7e-m/libc_nano.a(lib_a-strtol.o)
 .data          0x0000000000000000        0x0 /usr/lib/gcc/arm-none-eabi/5.2.0/../../../../arm-none-eabi/lib/armv7e-m/libc_nano.a(lib_a-strtol.o)
 .bss           0x0000000000000000        0x0 /usr/lib/gcc/arm-none-eabi/5.2.0/../../../../arm-none-eabi/lib/armv7e-m/libc_nano.a(lib_a-strtol.o)
 .text          0x0000000000000000        0x0 /usr/lib/gcc/arm-none-eabi/5.2.0/../../../../arm-none-eabi/lib/armv7e-m/libc_nano.a(lib_a-vsnprintf.o)
 .data          0x0000000000000000        0x0 /usr/lib/gcc/arm-none-eabi/5.2.0/../../../../arm-none-eabi/lib/armv7e-m/libc_nano.a(lib_a-vsnprintf.o)
 .bss           0x0000000000000000        0x0 /usr/lib/gcc/arm-none-eabi/5.2.0/../../../../arm-none-eabi/lib/armv7e-m/libc_nano.a(lib_a-vsnprintf.o)
 .text          0x0000000000000000        0x0 /usr/lib/gcc/arm-none-eabi/5.2.0/../../../../arm-none-eabi/lib/armv7e-m/libc_nano.a(lib_a-ctype_.o)
 .data          0x0000000000000000        0x0 /usr/lib/gcc/arm-none-eabi/5.2.0/../../../../arm-none-eabi/lib/armv7e-m/libc_nano.a(lib_a-ctype_.o)
 .bss           0x0000000000000000        0x0 /usr/lib/gcc/arm-none-eabi/5.2.0/../../../../arm-none-eabi/lib/armv7e-m/libc_nano.a(lib_a-ctype_.o)
 .text          0x0000000000000000        0x0 /usr/lib/gcc/arm-none-eabi/5.2.0/../../../../arm-none-eabi/lib/armv7e-m/libc_nano.a(lib_a-impure.o)
 .data          0x0000000000000000        0x0 /usr/lib/gcc/arm-none-eabi/5.2.0/../../../../arm-none-eabi/lib/armv7e-m/libc_nano.a(lib_a-impure.o)
 .bss           0x0000000000000000        0x0 /usr/lib/gcc/arm-none-eabi/5.2.0/../../../../arm-none-eabi/lib/armv7e-m/libc_nano.a(lib_a-impure.o)
 .rodata._global_impure_ptr
                0x0000000000000000        0x4 /usr/lib/gcc/arm-none-eabi/5.2.0/../../../../arm-none-eabi/lib/armv7e-m/libc_nano.a(lib_a-impure.o)
 .text          0x0000000000000000        0x0 /usr/lib/gcc/arm-none-eabi/5.2.0/../../../../arm-none-eabi/lib/armv7e-m/libc_nano.a(lib_a-nano-reallocr.o)
 .data          0x0000000000000000        0x0 /usr/lib/gcc/arm-none-eabi/5.2.0/../../../../arm-none-eabi/lib/armv7e-m/libc_nano.a(lib_a-nano-reallocr.o)
 .bss           0x0000000000000000        0x0 /usr/lib/gcc/arm-none-eabi/5.2.0/../../../../arm-none-eabi/lib/armv7e-m/libc_nano.a(lib_a-nano-reallocr.o)
 .text          0x0000000000000000        0x0 /usr/lib/gcc/arm-none-eabi/5.2.0/../../../../arm-none-eabi/lib/armv7e-m/libc_nano.a(lib_a-nano-svfprintf.o)
 .data          0x0000000000000000        0x0 /usr/lib/gcc/arm-none-eabi/5.2.0/../../../../arm-none-eabi/lib/armv7e-m/libc_nano.a(lib_a-nano-svfprintf.o)
 .bss           0x0000000000000000        0x0 /usr/lib/gcc/arm-none-eabi/5.2.0/../../../../arm-none-eabi/lib/armv7e-m/libc_nano.a(lib_a-nano-svfprintf.o)
 .text.__ssprint_r
                0x0000000000000000       0xfe /usr/lib/gcc/arm-none-eabi/5.2.0/../../../../arm-none-eabi/lib/armv7e-m/libc_nano.a(lib_a-nano-svfprintf.o)
 .text          0x0000000000000000        0x0 /usr/lib/gcc/arm-none-eabi/5.2.0/../../../../arm-none-eabi/lib/armv7e-m/libc_nano.a(lib_a-nano-vfprintf_i.o)
 .data          0x0000000000000000        0x0 /usr/lib/gcc/arm-none-eabi/5.2.0/../../../../arm-none-eabi/lib/armv7e-m/libc_nano.a(lib_a-nano-vfprintf_i.o)
 .bss           0x0000000000000000        0x0 /usr/lib/gcc/arm-none-eabi/5.2.0/../../../../arm-none-eabi/lib/armv7e-m/libc_nano.a(lib_a-nano-vfprintf_i.o)
 .text          0x0000000000000000        0x0 /usr/lib/gcc/arm-none-eabi/5.2.0/../../../../arm-none-eabi/lib/armv7e-m/libc_nano.a(lib_a-reent.o)
 .data          0x0000000000000000        0x0 /usr/lib/gcc/arm-none-eabi/5.2.0/../../../../arm-none-eabi/lib/armv7e-m/libc_nano.a(lib_a-reent.o)
 .bss           0x0000000000000000        0x0 /usr/lib/gcc/arm-none-eabi/5.2.0/../../../../arm-none-eabi/lib/armv7e-m/libc_nano.a(lib_a-reent.o)
 .text.cleanup_glue
                0x0000000000000000       0x1a /usr/lib/gcc/arm-none-eabi/5.2.0/../../../../arm-none-eabi/lib/armv7e-m/libc_nano.a(lib_a-reent.o)
 .text._reclaim_reent
                0x0000000000000000       0xb4 /usr/lib/gcc/arm-none-eabi/5.2.0/../../../../arm-none-eabi/lib/armv7e-m/libc_nano.a(lib_a-reent.o)
 .text          0x0000000000000000        0x0 /usr/lib/gcc/arm-none-eabi/5.2.0/../../../../arm-none-eabi/lib/armv7e-m/libc_nano.a(lib_a-memchr.o)
 .data          0x0000000000000000        0x0 /usr/lib/gcc/arm-none-eabi/5.2.0/../../../../arm-none-eabi/lib/armv7e-m/libc_nano.a(lib_a-memchr.o)
 .bss           0x0000000000000000        0x0 /usr/lib/gcc/arm-none-eabi/5.2.0/../../../../arm-none-eabi/lib/armv7e-m/libc_nano.a(lib_a-memchr.o)
 .text          0x0000000000000000        0x0 /usr/lib/gcc/arm-none-eabi/5.2.0/../../../../arm-none-eabi/lib/armv7e-m/libc_nano.a(lib_a-nano-msizer.o)
 .data          0x0000000000000000        0x0 /usr/lib/gcc/arm-none-eabi/5.2.0/../../../../arm-none-eabi/lib/armv7e-m/libc_nano.a(lib_a-nano-msizer.o)
 .bss           0x0000000000000000        0x0 /usr/lib/gcc/arm-none-eabi/5.2.0/../../../../arm-none-eabi/lib/armv7e-m/libc_nano.a(lib_a-nano-msizer.o)
 .text          0x0000000000000000       0x30 /usr/lib/gcc/arm-none-eabi/5.2.0/armv7e-m/libgcc.a(_aeabi_uldivmod.o)
 .data          0x0000000000000000        0x0 /usr/lib/gcc/arm-none-eabi/5.2.0/armv7e-m/libgcc.a(_aeabi_uldivmod.o)
 .bss           0x0000000000000000        0x0 /usr/lib/gcc/arm-none-eabi/5.2.0/armv7e-m/libgcc.a(_aeabi_uldivmod.o)
 .debug_line    0x0000000000000000       0x64 /usr/lib/gcc/arm-none-eabi/5.2.0/armv7e-m/libgcc.a(_aeabi_uldivmod.o)
 .debug_info    0x0000000000000000       0xb7 /usr/lib/gcc/arm-none-eabi/5.2.0/armv7e-m/libgcc.a(_aeabi_uldivmod.o)
 .debug_abbrev  0x0000000000000000       0x14 /usr/lib/gcc/arm-none-eabi/5.2.0/armv7e-m/libgcc.a(_aeabi_uldivmod.o)
 .debug_aranges
                0x0000000000000000       0x20 /usr/lib/gcc/arm-none-eabi/5.2.0/armv7e-m/libgcc.a(_aeabi_uldivmod.o)
 .debug_frame   0x0000000000000000       0x2c /usr/lib/gcc/arm-none-eabi/5.2.0/armv7e-m/libgcc.a(_aeabi_uldivmod.o)
 .ARM.attributes
                0x0000000000000000       0x1e /usr/lib/gcc/arm-none-eabi/5.2.0/armv7e-m/libgcc.a(_aeabi_uldivmod.o)
 .text          0x0000000000000000      0x2e4 /usr/lib/gcc/arm-none-eabi/5.2.0/armv7e-m/libgcc.a(_udivmoddi4.o)
 .data          0x0000000000000000        0x0 /usr/lib/gcc/arm-none-eabi/5.2.0/armv7e-m/libgcc.a(_udivmoddi4.o)
 .bss           0x0000000000000000        0x0 /usr/lib/gcc/arm-none-eabi/5.2.0/armv7e-m/libgcc.a(_udivmoddi4.o)
 .ARM.extab     0x0000000000000000        0x0 /usr/lib/gcc/arm-none-eabi/5.2.0/armv7e-m/libgcc.a(_udivmoddi4.o)
 .ARM.exidx     0x0000000000000000        0x8 /usr/lib/gcc/arm-none-eabi/5.2.0/armv7e-m/libgcc.a(_udivmoddi4.o)
 .debug_info    0x0000000000000000      0x441 /usr/lib/gcc/arm-none-eabi/5.2.0/armv7e-m/libgcc.a(_udivmoddi4.o)
 .debug_abbrev  0x0000000000000000      0x101 /usr/lib/gcc/arm-none-eabi/5.2.0/armv7e-m/libgcc.a(_udivmoddi4.o)
 .debug_loc     0x0000000000000000      0xe94 /usr/lib/gcc/arm-none-eabi/5.2.0/armv7e-m/libgcc.a(_udivmoddi4.o)
 .debug_aranges
                0x0000000000000000       0x20 /usr/lib/gcc/arm-none-eabi/5.2.0/armv7e-m/libgcc.a(_udivmoddi4.o)
 .debug_ranges  0x0000000000000000       0xd8 /usr/lib/gcc/arm-none-eabi/5.2.0/armv7e-m/libgcc.a(_udivmoddi4.o)
 .debug_line    0x0000000000000000      0x1ad /usr/lib/gcc/arm-none-eabi/5.2.0/armv7e-m/libgcc.a(_udivmoddi4.o)
 .debug_str     0x0000000000000000      0x243 /usr/lib/gcc/arm-none-eabi/5.2.0/armv7e-m/libgcc.a(_udivmoddi4.o)
 .comment       0x0000000000000000       0x22 /usr/lib/gcc/arm-none-eabi/5.2.0/armv7e-m/libgcc.a(_udivmoddi4.o)
 .debug_frame   0x0000000000000000       0x34 /usr/lib/gcc/arm-none-eabi/5.2.0/armv7e-m/libgcc.a(_udivmoddi4.o)
 .ARM.attributes
                0x0000000000000000       0x2e /usr/lib/gcc/arm-none-eabi/5.2.0/armv7e-m/libgcc.a(_udivmoddi4.o)
 .text          0x0000000000000000        0x4 /usr/lib/gcc/arm-none-eabi/5.2.0/armv7e-m/libgcc.a(_dvmd_tls.o)
 .data          0x0000000000000000        0x0 /usr/lib/gcc/arm-none-eabi/5.2.0/armv7e-m/libgcc.a(_dvmd_tls.o)
 .bss           0x0000000000000000        0x0 /usr/lib/gcc/arm-none-eabi/5.2.0/armv7e-m/libgcc.a(_dvmd_tls.o)
 .debug_line    0x0000000000000000       0x64 /usr/lib/gcc/arm-none-eabi/5.2.0/armv7e-m/libgcc.a(_dvmd_tls.o)
 .debug_info    0x0000000000000000       0xbb /usr/lib/gcc/arm-none-eabi/5.2.0/armv7e-m/libgcc.a(_dvmd_tls.o)
 .debug_abbrev  0x0000000000000000       0x14 /usr/lib/gcc/arm-none-eabi/5.2.0/armv7e-m/libgcc.a(_dvmd_tls.o)
 .debug_aranges
                0x0000000000000000       0x20 /usr/lib/gcc/arm-none-eabi/5.2.0/armv7e-m/libgcc.a(_dvmd_tls.o)
 .ARM.attributes
                0x0000000000000000       0x1e /usr/lib/gcc/arm-none-eabi/5.2.0/armv7e-m/libgcc.a(_dvmd_tls.o)

Memory Configuration

Name             Origin             Length             Attributes
SRAM             0x0000000020000000 0x0000000000040000 xrw
*default*        0x0000000000000000 0xffffffffffffffff

Linker script and memory map

                0x0000000000004000                BOOTLOADER_SIZE = 0x4000

.bootloader     0x0000000020000000     0x4000
                0x0000000020000000                _heap2 = .
                0x0000000020004000                . = (. + BOOTLOADER_SIZE)
 *fill*         0x0000000020000000     0x4000 
                0x0000000020004000                . = ALIGN (0x8)
                0x0000000020004000                _eheap2 = .

.text           0x0000000020004000     0x7160
                0x0000000020004000                _text = .
 *(.intvecs)
 .intvecs       0x0000000020004000      0x400 obj/Release/startup_gcc.o
                0x0000000020004000                g_pfnVectors
 *(.text*)
 .text.TimeToString
                0x0000000020004400      0x104 obj/Release/main.o
 .text.OnPressSW3Handler
                0x0000000020004504        0xc obj/Release/main.o
 .text.OnPressSW2Handler
                0x0000000020004510        0xc obj/Release/main.o
 .text.NonOSMainLoopTask
                0x000000002000451c        0xa obj/Release/main.o
                0x000000002000451c                NonOSMainLoopTask
 *fill*         0x0000000020004526        0x2 
 .text.FactoryResetTask
                0x0000000020004528       0xa8 obj/Release/main.o
 .text.DisplayTask
                0x00000000200045d0      0x180 obj/Release/main.o
                0x00000000200045d0                DisplayTask
 .text.GetSNTPTime
                0x0000000020004750       0xc8 obj/Release/main.o
                0x0000000020004750                GetSNTPTime
 .text.DisplayRefresh
                0x0000000020004818        0xc obj/Release/main.o
                0x0000000020004818                DisplayRefresh
 .text.GetNTPTimeTask
                0x0000000020004824      0x214 obj/Release/main.o
                0x0000000020004824                GetNTPTimeTask
 .text.OTAServerInfoSet
                0x0000000020004a38       0xa8 obj/Release/main.o
                0x0000000020004a38                OTAServerInfoSet
 .text.OTAUpdateTask
                0x0000000020004ae0      0x114 obj/Release/main.o
                0x0000000020004ae0                OTAUpdateTask
 .text.startup.main
                0x0000000020004bf4      0x108 obj/Release/main.o
                0x0000000020004bf4                main
 .text.PinMuxConfig
                0x0000000020004cfc       0x60 obj/Release/pinmux.o
                0x0000000020004cfc                PinMuxConfig
 .text.SimpleLinkWlanEventHandler
                0x0000000020004d5c       0x5c obj/Release/net.o
                0x0000000020004d5c                SimpleLinkWlanEventHandler
 .text.SimpleLinkNetAppEventHandler
                0x0000000020004db8       0x2c obj/Release/net.o
                0x0000000020004db8                SimpleLinkNetAppEventHandler
 .text.SimpleLinkHttpServerCallback
                0x0000000020004de4        0x2 obj/Release/net.o
                0x0000000020004de4                SimpleLinkHttpServerCallback
 .text.SimpleLinkGeneralEventHandler
                0x0000000020004de6        0x2 obj/Release/net.o
                0x0000000020004de6                SimpleLinkGeneralEventHandler
 .text.SimpleLinkSockEventHandler
                0x0000000020004de8        0x2 obj/Release/net.o
                0x0000000020004de8                SimpleLinkSockEventHandler
 *fill*         0x0000000020004dea        0x2 
 .text.NetStartDefaultState
                0x0000000020004dec      0x13c obj/Release/net.o
                0x0000000020004dec                NetStartDefaultState
 .text.NetStop  0x0000000020004f28       0x40 obj/Release/net.o
                0x0000000020004f28                NetStop
 .text.NetWlanConnect
                0x0000000020004f68       0x38 obj/Release/net.o
                0x0000000020004f68                NetWlanConnect
 .text.NetGetHostIP
                0x0000000020004fa0       0x18 obj/Release/net.o
                0x0000000020004fa0                NetGetHostIP
 .text.NetMACAddressGet
                0x0000000020004fb8       0x1a obj/Release/net.o
                0x0000000020004fb8                NetMACAddressGet
 .text.NetFwInfoGet
                0x0000000020004fd2       0x22 obj/Release/net.o
                0x0000000020004fd2                NetFwInfoGet
 .text.NetIsConnectedToAP
                0x0000000020004ff4       0x10 obj/Release/net.o
                0x0000000020004ff4                NetIsConnectedToAP
 .text.SysTickIntHandler
                0x0000000020005004       0x1c obj/Release/task.o
 .text.TaskCreate
                0x0000000020005020       0x44 obj/Release/task.o
                0x0000000020005020                TaskCreate
 .text.TaskSyncObjCreate
                0x0000000020005064       0x10 obj/Release/task.o
                0x0000000020005064                TaskSyncObjCreate
 .text.TaskSyncObjWait
                0x0000000020005074       0x1c obj/Release/task.o
                0x0000000020005074                TaskSyncObjWait
 .text.TaskSyncObjSignal
                0x0000000020005090        0xe obj/Release/task.o
                0x0000000020005090                TaskSyncObjSignal
 *fill*         0x000000002000509e        0x2 
 .text.TaskSleep
                0x00000000200050a0        0xc obj/Release/task.o
                0x00000000200050a0                TaskSleep
 .text.TaskMainLoopStart
                0x00000000200050ac       0x4c obj/Release/task.o
                0x00000000200050ac                TaskMainLoopStart
 .text.InitTerm
                0x00000000200050f8       0x34 obj/Release/uart_if.o
                0x00000000200050f8                InitTerm
 .text.Message  0x000000002000512c       0x20 obj/Release/uart_if.o
                0x000000002000512c                Message
 .text.Report   0x000000002000514c       0x68 obj/Release/uart_if.o
                0x000000002000514c                Report
 .text.Button_IF_Init
                0x00000000200051b4       0xa8 obj/Release/button_if.o
                0x00000000200051b4                Button_IF_Init
 .text.Button_IF_EnableInterrupt
                0x000000002000525c       0x70 obj/Release/button_if.o
                0x000000002000525c                Button_IF_EnableInterrupt
 .text.Button_IF_DisableInterrupt
                0x00000000200052cc       0x58 obj/Release/button_if.o
                0x00000000200052cc                Button_IF_DisableInterrupt
 .text.GPIOs3IntHandler
                0x0000000020005324       0x28 obj/Release/button_if.o
                0x0000000020005324                GPIOs3IntHandler
 .text.GPIOs2IntHandler
                0x000000002000534c       0x28 obj/Release/button_if.o
                0x000000002000534c                GPIOs2IntHandler
 .text.DmaSwIntHandler
                0x0000000020005374       0x20 obj/Release/udma_if.o
                0x0000000020005374                DmaSwIntHandler
 .text.DmaErrorIntHandler
                0x0000000020005394       0x16 obj/Release/udma_if.o
                0x0000000020005394                DmaErrorIntHandler
 *fill*         0x00000000200053aa        0x2 
 .text.UDMAInit
                0x00000000200053ac       0x7c obj/Release/udma_if.o
                0x00000000200053ac                UDMAInit
 .text.NmiSR    0x0000000020005428        0x2 obj/Release/startup_gcc.o
 .text.FaultISR
                0x000000002000542a        0x2 obj/Release/startup_gcc.o
 .text.BusFaultHandler
                0x000000002000542c        0x2 obj/Release/startup_gcc.o
 .text.IntDefaultHandler
                0x000000002000542e        0x2 obj/Release/startup_gcc.o
 .text.ResetISR
                0x0000000020005430       0x5c obj/Release/startup_gcc.o
                0x0000000020005430                ResetISR
 .text._sbrk    0x000000002000548c       0x3c obj/Release/startup_gcc.o
                0x000000002000548c                _sbrk
 .text.sl_extLib_OtaInit
                0x00000000200054c8       0x78 ../../../../simplelink_extlib/ota/gcc/lib/Release/ota.a(OtaApp.o)
                0x00000000200054c8                sl_extLib_OtaInit
 .text.sl_extLib_OtaGet
                0x0000000020005540       0x26 ../../../../simplelink_extlib/ota/gcc/lib/Release/ota.a(OtaApp.o)
                0x0000000020005540                sl_extLib_OtaGet
 .text._OtaCleanToIdle
                0x0000000020005566       0x1e ../../../../simplelink_extlib/ota/gcc/lib/Release/ota.a(OtaApp.o)
                0x0000000020005566                _OtaCleanToIdle
 .text.sl_extLib_OtaSet
                0x0000000020005584       0x74 ../../../../simplelink_extlib/ota/gcc/lib/Release/ota.a(OtaApp.o)
                0x0000000020005584                sl_extLib_OtaSet
 .text._WriteStatFile
                0x00000000200055f8       0x50 ../../../../simplelink_extlib/ota/gcc/lib/Release/ota.a(OtaApp.o)
                0x00000000200055f8                _WriteStatFile
 .text._ReadStatFile
                0x0000000020005648       0x48 ../../../../simplelink_extlib/ota/gcc/lib/Release/ota.a(OtaApp.o)
                0x0000000020005648                _ReadStatFile
 .text.sl_extLib_OtaRun
                0x0000000020005690      0x1f4 ../../../../simplelink_extlib/ota/gcc/lib/Release/ota.a(OtaApp.o)
                0x0000000020005690                sl_extLib_OtaRun
 .text.OtaClient_Init
                0x0000000020005884       0x34 ../../../../simplelink_extlib/ota/gcc/lib/Release/ota.a(OtaClient.o)
                0x0000000020005884                OtaClient_Init
 .text.OtaClient_ConnectServer
                0x00000000200058b8       0x38 ../../../../simplelink_extlib/ota/gcc/lib/Release/ota.a(OtaClient.o)
                0x00000000200058b8                OtaClient_ConnectServer
 .text.HttpClient_SendReq
                0x00000000200058f0       0x98 ../../../../simplelink_extlib/ota/gcc/lib/Release/ota.a(OtaClient.o)
                0x00000000200058f0                HttpClient_SendReq
 .text.CdnDropboxV2_SendReqDir
                0x0000000020005988       0x5c ../../../../simplelink_extlib/ota/gcc/lib/Release/ota.a(OtaClient.o)
                0x0000000020005988                CdnDropboxV2_SendReqDir
 .text.CdnDropboxV2_SendReqFileUrl
                0x00000000200059e4       0x5c ../../../../simplelink_extlib/ota/gcc/lib/Release/ota.a(OtaClient.o)
                0x00000000200059e4                CdnDropboxV2_SendReqFileUrl
 .text.OtaClient_UpdateCheck
                0x0000000020005a40       0x86 ../../../../simplelink_extlib/ota/gcc/lib/Release/ota.a(OtaClient.o)
                0x0000000020005a40                OtaClient_UpdateCheck
 .text.OtaClient_GetNextUpdate
                0x0000000020005ac6       0x28 ../../../../simplelink_extlib/ota/gcc/lib/Release/ota.a(OtaClient.o)
                0x0000000020005ac6                OtaClient_GetNextUpdate
 *fill*         0x0000000020005aee        0x2 
 .text.OtaClient_ResourceNameConvert
                0x0000000020005af0      0x1a8 ../../../../simplelink_extlib/ota/gcc/lib/Release/ota.a(OtaClient.o)
                0x0000000020005af0                OtaClient_ResourceNameConvert
 .text.OtaClient_ResourceMetadata
                0x0000000020005c98       0xb6 ../../../../simplelink_extlib/ota/gcc/lib/Release/ota.a(OtaClient.o)
                0x0000000020005c98                OtaClient_ResourceMetadata
 .text.OtaClient_CloseServer
                0x0000000020005d4e       0x18 ../../../../simplelink_extlib/ota/gcc/lib/Release/ota.a(OtaClient.o)
                0x0000000020005d4e                OtaClient_CloseServer
 *fill*         0x0000000020005d66        0x2 
 .text.http_send_buf
                0x0000000020005d68        0x8 ../../../../simplelink_extlib/ota/gcc/lib/Release/ota.a(OtaHttp.o)
                0x0000000020005d68                http_send_buf
 .text.http_recv_buf
                0x0000000020005d70        0x8 ../../../../simplelink_extlib/ota/gcc/lib/Release/ota.a(OtaHttp.o)
                0x0000000020005d70                http_recv_buf
 .text.http_build_request
                0x0000000020005d78       0x7c ../../../../simplelink_extlib/ota/gcc/lib/Release/ota.a(OtaHttp.o)
                0x0000000020005d78                http_build_request
 .text.http_extract_domain_by_url
                0x0000000020005df4       0x4c ../../../../simplelink_extlib/ota/gcc/lib/Release/ota.a(OtaHttp.o)
                0x0000000020005df4                http_extract_domain_by_url
 .text.sl_Recv_eagain
                0x0000000020005e40       0x2a ../../../../simplelink_extlib/ota/gcc/lib/Release/ota.a(OtaHttp.o)
                0x0000000020005e40                sl_Recv_eagain
 *fill*         0x0000000020005e6a        0x2 
 .text.http_skip_headers
                0x0000000020005e6c       0xc8 ../../../../simplelink_extlib/ota/gcc/lib/Release/ota.a(OtaHttp.o)
                0x0000000020005e6c                http_skip_headers
 .text.json_parse_dropbox_media_url
                0x0000000020005f34       0x44 ../../../../simplelink_extlib/ota/gcc/lib/Release/ota.a(OtaHttp.o)
                0x0000000020005f34                json_parse_dropbox_media_url
 .text.json_parse_dropbox_metadata
                0x0000000020005f78      0x158 ../../../../simplelink_extlib/ota/gcc/lib/Release/ota.a(OtaHttp.o)
                0x0000000020005f78                json_parse_dropbox_metadata
 .text.http_connect_server
                0x00000000200060d0       0xd4 ../../../../simplelink_extlib/ota/gcc/lib/Release/ota.a(OtaHttp.o)
                0x00000000200060d0                http_connect_server
 .text.CdnClient_Init
                0x00000000200061a4       0x28 ../../../../simplelink_extlib/ota/gcc/lib/Release/ota.a(CdnClient.o)
                0x00000000200061a4                CdnClient_Init
 .text._ReadFileHeaders
                0x00000000200061cc       0x54 ../../../../simplelink_extlib/ota/gcc/lib/Release/ota.a(CdnClient.o)
                0x00000000200061cc                _ReadFileHeaders
 .text._RecvFileChunk
                0x0000000020006220        0xe ../../../../simplelink_extlib/ota/gcc/lib/Release/ota.a(CdnClient.o)
                0x0000000020006220                _RecvFileChunk
 .text._readSignature
                0x000000002000622e       0x56 ../../../../simplelink_extlib/ota/gcc/lib/Release/ota.a(CdnClient.o)
                0x000000002000622e                _readSignature
 .text._OpenStorageFile
                0x0000000020006284       0x54 ../../../../simplelink_extlib/ota/gcc/lib/Release/ota.a(CdnClient.o)
                0x0000000020006284                _OpenStorageFile
 .text.CdnClient_CloseServer
                0x00000000200062d8       0x1e ../../../../simplelink_extlib/ota/gcc/lib/Release/ota.a(CdnClient.o)
                0x00000000200062d8                CdnClient_CloseServer
 *fill*         0x00000000200062f6        0x2 
 .text.CdnClient_ConnectByUrl
                0x00000000200062f8       0xac ../../../../simplelink_extlib/ota/gcc/lib/Release/ota.a(CdnClient.o)
                0x00000000200062f8                CdnClient_ConnectByUrl
 .text.CdnClient_Run
                0x00000000200063a4      0x130 ../../../../simplelink_extlib/ota/gcc/lib/Release/ota.a(CdnClient.o)
                0x00000000200063a4                CdnClient_Run
 .text.CdnClient_SetFileInfo
                0x00000000200064d4        0x8 ../../../../simplelink_extlib/ota/gcc/lib/Release/ota.a(CdnClient.o)
                0x00000000200064d4                CdnClient_SetFileInfo
 .text.LogClient_Init
                0x00000000200064dc       0x14 ../../../../simplelink_extlib/ota/gcc/lib/Release/ota.a(LogClient.o)
                0x00000000200064dc                LogClient_Init
 .text.LogClient_ConnectServer
                0x00000000200064f0       0x38 ../../../../simplelink_extlib/ota/gcc/lib/Release/ota.a(LogClient.o)
                0x00000000200064f0                LogClient_ConnectServer
 .text.LogClient_Print
                0x0000000020006528      0x164 ../../../../simplelink_extlib/ota/gcc/lib/Release/ota.a(LogClient.o)
                0x0000000020006528                LogClient_Print
 .text.LogClient_Close
                0x000000002000668c       0x18 ../../../../simplelink_extlib/ota/gcc/lib/Release/ota.a(LogClient.o)
                0x000000002000668c                LogClient_Close
 .text.LogClient_ConnectAndPrint
                0x00000000200066a4       0x5c ../../../../simplelink_extlib/ota/gcc/lib/Release/ota.a(LogClient.o)
                0x00000000200066a4                LogClient_ConnectAndPrint
 .text._ReadBootInfo.constprop.0
                0x0000000020006700       0x48 ../../../../simplelink_extlib/flc/gcc/lib/Release/flc.a(flc.o)
 .text._WriteBootInfo.constprop.1
                0x0000000020006748       0x4c ../../../../simplelink_extlib/flc/gcc/lib/Release/flc.a(flc.o)
 .text.sl_extlib_FlcCommit
                0x0000000020006794       0x3c ../../../../simplelink_extlib/flc/gcc/lib/Release/flc.a(flc.o)
                0x0000000020006794                sl_extlib_FlcCommit
 .text.sl_extlib_FlcTest
                0x00000000200067d0       0x30 ../../../../simplelink_extlib/flc/gcc/lib/Release/flc.a(flc.o)
                0x00000000200067d0                sl_extlib_FlcTest
 .text.sl_extlib_FlcIsPendingCommit
                0x0000000020006800       0x1c ../../../../simplelink_extlib/flc/gcc/lib/Release/flc.a(flc.o)
                0x0000000020006800                sl_extlib_FlcIsPendingCommit
 .text.sl_extlib_FlcOpenFile
                0x000000002000681c       0x50 ../../../../simplelink_extlib/flc/gcc/lib/Release/flc.a(flc.o)
                0x000000002000681c                sl_extlib_FlcOpenFile
 .text.sl_extlib_FlcWriteFile
                0x000000002000686c        0x4 ../../../../simplelink_extlib/flc/gcc/lib/Release/flc.a(flc.o)
                0x000000002000686c                sl_extlib_FlcWriteFile
 .text.sl_extlib_FlcReadFile
                0x0000000020006870        0x4 ../../../../simplelink_extlib/flc/gcc/lib/Release/flc.a(flc.o)
                0x0000000020006870                sl_extlib_FlcReadFile
 .text.sl_extlib_FlcCloseFile
                0x0000000020006874        0xe ../../../../simplelink_extlib/flc/gcc/lib/Release/flc.a(flc.o)
                0x0000000020006874                sl_extlib_FlcCloseFile
 .text.sl_extlib_FlcAbortFile
                0x0000000020006882       0x18 ../../../../simplelink_extlib/flc/gcc/lib/Release/flc.a(flc.o)
                0x0000000020006882                sl_extlib_FlcAbortFile
 *fill*         0x000000002000689a        0x2 
 .text.sl_Start
                0x000000002000689c       0xcc ../../../../simplelink/gcc/lib/nonos/Release/libsimplelink.a(device.o)
                0x000000002000689c                sl_Start
 .text._sl_HandleAsync_InitComplete
                0x0000000020006968       0x6c ../../../../simplelink/gcc/lib/nonos/Release/libsimplelink.a(device.o)
                0x0000000020006968                _sl_HandleAsync_InitComplete
 .text._sl_HandleAsync_Stop
                0x00000000200069d4       0x38 ../../../../simplelink/gcc/lib/nonos/Release/libsimplelink.a(device.o)
                0x00000000200069d4                _sl_HandleAsync_Stop
 .text.sl_Stop  0x0000000020006a0c       0xa0 ../../../../simplelink/gcc/lib/nonos/Release/libsimplelink.a(device.o)
                0x0000000020006a0c                sl_Stop
 .text.sl_DevGet
                0x0000000020006aac       0x8c ../../../../simplelink/gcc/lib/nonos/Release/libsimplelink.a(device.o)
                0x0000000020006aac                sl_DevGet
 .text._SlDrvDeviceEventHandler
                0x0000000020006b38       0x66 ../../../../simplelink/gcc/lib/nonos/Release/libsimplelink.a(device.o)
                0x0000000020006b38                _SlDrvDeviceEventHandler
 *fill*         0x0000000020006b9e        0x2 
 .text._SlAsyncEventGenericHandler
                0x0000000020006ba0       0x54 ../../../../simplelink/gcc/lib/nonos/Release/libsimplelink.a(driver.o)
 .text._SlRemoveFromList
                0x0000000020006bf4       0x44 ../../../../simplelink/gcc/lib/nonos/Release/libsimplelink.a(driver.o)
 .text._SlFindAndSetActiveObj
                0x0000000020006c38       0x94 ../../../../simplelink/gcc/lib/nonos/Release/libsimplelink.a(driver.o)
 .text._SlDrvObjGlobalLockWaitForever
                0x0000000020006ccc       0x30 ../../../../simplelink/gcc/lib/nonos/Release/libsimplelink.a(driver.o)
 .text._SlDrvMsgWrite
                0x0000000020006cfc      0x108 ../../../../simplelink/gcc/lib/nonos/Release/libsimplelink.a(driver.o)
 .text._SlDrvDriverCBDeinit
                0x0000000020006e04       0xac ../../../../simplelink/gcc/lib/nonos/Release/libsimplelink.a(driver.o)
                0x0000000020006e04                _SlDrvDriverCBDeinit
 .text._SlDrvRxIrqHandler
                0x0000000020006eb0       0x44 ../../../../simplelink/gcc/lib/nonos/Release/libsimplelink.a(driver.o)
                0x0000000020006eb0                _SlDrvRxIrqHandler
 .text._SlDrvCmdSend
                0x0000000020006ef4       0x74 ../../../../simplelink/gcc/lib/nonos/Release/libsimplelink.a(driver.o)
                0x0000000020006ef4                _SlDrvCmdSend
 .text._SlDrvDispatchHttpServerEvents
                0x0000000020006f68        0x4 ../../../../simplelink/gcc/lib/nonos/Release/libsimplelink.a(driver.o)
                0x0000000020006f68                _SlDrvDispatchHttpServerEvents
 .text._SlDrvSyncObjSignal
                0x0000000020006f6c        0xa ../../../../simplelink/gcc/lib/nonos/Release/libsimplelink.a(driver.o)
                0x0000000020006f6c                _SlDrvSyncObjSignal
 .text._SlDrvObjLockWaitForever
                0x0000000020006f76       0x10 ../../../../simplelink/gcc/lib/nonos/Release/libsimplelink.a(driver.o)
                0x0000000020006f76                _SlDrvObjLockWaitForever
 *fill*         0x0000000020006f86        0x2 
 .text._SlDrvProtectionObjLockWaitForever
                0x0000000020006f88       0x1c ../../../../simplelink/gcc/lib/nonos/Release/libsimplelink.a(driver.o)
                0x0000000020006f88                _SlDrvProtectionObjLockWaitForever
 .text._SlDrvObjUnLock
                0x0000000020006fa4        0xa ../../../../simplelink/gcc/lib/nonos/Release/libsimplelink.a(driver.o)
                0x0000000020006fa4                _SlDrvObjUnLock
 *fill*         0x0000000020006fae        0x2 
 .text._SlDrvProtectionObjUnLock
                0x0000000020006fb0       0x14 ../../../../simplelink/gcc/lib/nonos/Release/libsimplelink.a(driver.o)
                0x0000000020006fb0                _SlDrvProtectionObjUnLock
 .text._SlDrvReleasePoolObj
                0x0000000020006fc4       0xc0 ../../../../simplelink/gcc/lib/nonos/Release/libsimplelink.a(driver.o)
                0x0000000020006fc4                _SlDrvReleasePoolObj
 .text._SlDrvGlobalObjUnLock
                0x0000000020007084       0x14 ../../../../simplelink/gcc/lib/nonos/Release/libsimplelink.a(driver.o)
                0x0000000020007084                _SlDrvGlobalObjUnLock
 .text._SlDrvMemZero
                0x0000000020007098        0x8 ../../../../simplelink/gcc/lib/nonos/Release/libsimplelink.a(driver.o)
                0x0000000020007098                _SlDrvMemZero
 .text._SlDrvDriverCBInit
                0x00000000200070a0       0xfc ../../../../simplelink/gcc/lib/nonos/Release/libsimplelink.a(driver.o)
                0x00000000200070a0                _SlDrvDriverCBInit
 .text._SlDrvResetCmdExt
                0x000000002000719c        0x6 ../../../../simplelink/gcc/lib/nonos/Release/libsimplelink.a(driver.o)
                0x000000002000719c                _SlDrvResetCmdExt
 *fill*         0x00000000200071a2        0x2 
 .text._SlDrvSyncObjWaitForever
                0x00000000200071a4       0x24 ../../../../simplelink/gcc/lib/nonos/Release/libsimplelink.a(driver.o)
                0x00000000200071a4                _SlDrvSyncObjWaitForever
 .text._SlDrvDataWriteOp
                0x00000000200071c8       0xe4 ../../../../simplelink/gcc/lib/nonos/Release/libsimplelink.a(driver.o)
                0x00000000200071c8                _SlDrvDataWriteOp
 .text._SlDrvWaitForPoolObj
                0x00000000200072ac       0xc8 ../../../../simplelink/gcc/lib/nonos/Release/libsimplelink.a(driver.o)
                0x00000000200072ac                _SlDrvWaitForPoolObj
 .text._SlDrvProtectAsyncRespSetting
                0x0000000020007374       0x30 ../../../../simplelink/gcc/lib/nonos/Release/libsimplelink.a(driver.o)
                0x0000000020007374                _SlDrvProtectAsyncRespSetting
 .text._SlDriverHandleError
                0x00000000200073a4       0x68 ../../../../simplelink/gcc/lib/nonos/Release/libsimplelink.a(driver.o)
                0x00000000200073a4                _SlDriverHandleError
 .text._SlDrvSyncObjWaitTimeout
                0x000000002000740c       0x38 ../../../../simplelink/gcc/lib/nonos/Release/libsimplelink.a(driver.o)
                0x000000002000740c                _SlDrvSyncObjWaitTimeout
 .text._SlDrvDataReadOp
                0x0000000020007444      0x12c ../../../../simplelink/gcc/lib/nonos/Release/libsimplelink.a(driver.o)
                0x0000000020007444                _SlDrvDataReadOp
 .text._SlDrvStartMeasureTimeout
                0x0000000020007570       0x14 ../../../../simplelink/gcc/lib/nonos/Release/libsimplelink.a(driver.o)
                0x0000000020007570                _SlDrvStartMeasureTimeout
 .text._SlDrvIsTimeoutExpired
                0x0000000020007584       0x48 ../../../../simplelink/gcc/lib/nonos/Release/libsimplelink.a(driver.o)
                0x0000000020007584                _SlDrvIsTimeoutExpired
 .text._SlDrvMsgRead
                0x00000000200075cc      0x520 ../../../../simplelink/gcc/lib/nonos/Release/libsimplelink.a(driver.o)
 .text._SlDrvCmdOp
                0x0000000020007aec      0x160 ../../../../simplelink/gcc/lib/nonos/Release/libsimplelink.a(driver.o)
                0x0000000020007aec                _SlDrvCmdOp
 .text._SlDrvBasicCmd
                0x0000000020007c4c       0x32 ../../../../simplelink/gcc/lib/nonos/Release/libsimplelink.a(driver.o)
                0x0000000020007c4c                _SlDrvBasicCmd
 *fill*         0x0000000020007c7e        0x2 
 .text._SlDrvMsgReadSpawnCtx
                0x0000000020007c80       0x78 ../../../../simplelink/gcc/lib/nonos/Release/libsimplelink.a(driver.o)
                0x0000000020007c80                _SlDrvMsgReadSpawnCtx
 .text.sl_NetAppMDNSRegisterUnregisterService
                0x0000000020007cf8       0x98 ../../../../simplelink/gcc/lib/nonos/Release/libsimplelink.a(netapp.o)
                0x0000000020007cf8                sl_NetAppMDNSRegisterUnregisterService
 .text.sl_NetAppMDNSUnRegisterService
                0x0000000020007d90       0x38 ../../../../simplelink/gcc/lib/nonos/Release/libsimplelink.a(netapp.o)
                0x0000000020007d90                sl_NetAppMDNSUnRegisterService
 .text._sl_HandleAsync_DnsGetHostByService
                0x0000000020007dc8       0x5c ../../../../simplelink/gcc/lib/nonos/Release/libsimplelink.a(netapp.o)
                0x0000000020007dc8                _sl_HandleAsync_DnsGetHostByService
 .text.sl_NetAppDnsGetHostByName
                0x0000000020007e24       0xcc ../../../../simplelink/gcc/lib/nonos/Release/libsimplelink.a(netapp.o)
                0x0000000020007e24                sl_NetAppDnsGetHostByName
 .text._sl_HandleAsync_DnsGetHostByName
                0x0000000020007ef0       0x5c ../../../../simplelink/gcc/lib/nonos/Release/libsimplelink.a(netapp.o)
                0x0000000020007ef0                _sl_HandleAsync_DnsGetHostByName
 .text._sl_HandleAsync_PingResponse
                0x0000000020007f4c       0x7c ../../../../simplelink/gcc/lib/nonos/Release/libsimplelink.a(netapp.o)
                0x0000000020007f4c                _sl_HandleAsync_PingResponse
 .text._sl_NetAppSendTokenValue
                0x0000000020007fc8       0x50 ../../../../simplelink/gcc/lib/nonos/Release/libsimplelink.a(netapp.o)
                0x0000000020007fc8                _sl_NetAppSendTokenValue
 .text._SlDrvNetAppEventHandler
                0x0000000020008018       0xdc ../../../../simplelink/gcc/lib/nonos/Release/libsimplelink.a(netapp.o)
                0x0000000020008018                _SlDrvNetAppEventHandler
 .text.sl_NetCfgSet
                0x00000000200080f4       0x64 ../../../../simplelink/gcc/lib/nonos/Release/libsimplelink.a(netcfg.o)
                0x00000000200080f4                sl_NetCfgSet
 .text.sl_NetCfgGet
                0x0000000020008158       0x94 ../../../../simplelink/gcc/lib/nonos/Release/libsimplelink.a(netcfg.o)
                0x0000000020008158                sl_NetCfgGet
 .text._SlNonOsSemSet
                0x00000000200081ec        0x6 ../../../../simplelink/gcc/lib/nonos/Release/libsimplelink.a(nonos.o)
                0x00000000200081ec                _SlNonOsSemSet
 *fill*         0x00000000200081f2        0x2 
 .text._SlNonOsSpawn
                0x00000000200081f4       0x28 ../../../../simplelink/gcc/lib/nonos/Release/libsimplelink.a(nonos.o)
                0x00000000200081f4                _SlNonOsSpawn
 .text._SlNonOsMainLoopTask
                0x000000002000821c       0x34 ../../../../simplelink/gcc/lib/nonos/Release/libsimplelink.a(nonos.o)
                0x000000002000821c                _SlNonOsMainLoopTask
 .text._SlNonOsSemGet
                0x0000000020008250       0x70 ../../../../simplelink/gcc/lib/nonos/Release/libsimplelink.a(nonos.o)
                0x0000000020008250                _SlNonOsSemGet
 .text._sl_Strlen
                0x00000000200082c0       0x18 ../../../../simplelink/gcc/lib/nonos/Release/libsimplelink.a(fs.o)
 .text._sl_GetCreateFsMode
                0x00000000200082d8       0x58 ../../../../simplelink/gcc/lib/nonos/Release/libsimplelink.a(fs.o)
                0x00000000200082d8                _sl_GetCreateFsMode
 .text.sl_FsOpen
                0x0000000020008330       0x78 ../../../../simplelink/gcc/lib/nonos/Release/libsimplelink.a(fs.o)
                0x0000000020008330                sl_FsOpen
 .text.sl_FsClose
                0x00000000200083a8       0x80 ../../../../simplelink/gcc/lib/nonos/Release/libsimplelink.a(fs.o)
                0x00000000200083a8                sl_FsClose
 .text.sl_FsRead
                0x0000000020008428       0xa0 ../../../../simplelink/gcc/lib/nonos/Release/libsimplelink.a(fs.o)
                0x0000000020008428                sl_FsRead
 .text.sl_FsWrite
                0x00000000200084c8       0xa0 ../../../../simplelink/gcc/lib/nonos/Release/libsimplelink.a(fs.o)
                0x00000000200084c8                sl_FsWrite
 .text.sl_FsDel
                0x0000000020008568       0x5c ../../../../simplelink/gcc/lib/nonos/Release/libsimplelink.a(fs.o)
                0x0000000020008568                sl_FsDel
 .text._sl_BuildAddress
                0x00000000200085c4       0x28 ../../../../simplelink/gcc/lib/nonos/Release/libsimplelink.a(socket.o)
 .text.sl_Socket
                0x00000000200085ec       0x50 ../../../../simplelink/gcc/lib/nonos/Release/libsimplelink.a(socket.o)
                0x00000000200085ec                sl_Socket
 .text.sl_Close
                0x000000002000863c       0x40 ../../../../simplelink/gcc/lib/nonos/Release/libsimplelink.a(socket.o)
                0x000000002000863c                sl_Close
 .text.sl_SendTo
                0x000000002000867c       0xe8 ../../../../simplelink/gcc/lib/nonos/Release/libsimplelink.a(socket.o)
                0x000000002000867c                sl_SendTo
 .text.sl_Connect
                0x0000000020008764       0xf8 ../../../../simplelink/gcc/lib/nonos/Release/libsimplelink.a(socket.o)
                0x0000000020008764                sl_Connect
 .text._sl_HandleAsync_Connect
                0x000000002000885c       0x54 ../../../../simplelink/gcc/lib/nonos/Release/libsimplelink.a(socket.o)
                0x000000002000885c                _sl_HandleAsync_Connect
 .text.sl_Send  0x00000000200088b0       0xd8 ../../../../simplelink/gcc/lib/nonos/Release/libsimplelink.a(socket.o)
                0x00000000200088b0                sl_Send
 .text.sl_Htonl
                0x0000000020008988       0x22 ../../../../simplelink/gcc/lib/nonos/Release/libsimplelink.a(socket.o)
                0x0000000020008988                sl_Htonl
 .text.sl_Htons
                0x00000000200089aa       0x14 ../../../../simplelink/gcc/lib/nonos/Release/libsimplelink.a(socket.o)
                0x00000000200089aa                sl_Htons
 *fill*         0x00000000200089be        0x2 
 .text._sl_HandleAsync_Accept
                0x00000000200089c0       0x54 ../../../../simplelink/gcc/lib/nonos/Release/libsimplelink.a(socket.o)
                0x00000000200089c0                _sl_HandleAsync_Accept
 .text._sl_HandleAsync_Select
                0x0000000020008a14       0x40 ../../../../simplelink/gcc/lib/nonos/Release/libsimplelink.a(socket.o)
                0x0000000020008a14                _sl_HandleAsync_Select
 .text.sl_Recv  0x0000000020008a54       0x64 ../../../../simplelink/gcc/lib/nonos/Release/libsimplelink.a(socket.o)
                0x0000000020008a54                sl_Recv
 .text.sl_SetSockOpt
                0x0000000020008ab8       0x6c ../../../../simplelink/gcc/lib/nonos/Release/libsimplelink.a(socket.o)
                0x0000000020008ab8                sl_SetSockOpt
 .text.sl_WlanConnect
                0x0000000020008b24      0x1c0 ../../../../simplelink/gcc/lib/nonos/Release/libsimplelink.a(wlan.o)
                0x0000000020008b24                sl_WlanConnect
 .text.sl_WlanDisconnect
                0x0000000020008ce4       0x28 ../../../../simplelink/gcc/lib/nonos/Release/libsimplelink.a(wlan.o)
                0x0000000020008ce4                sl_WlanDisconnect
 .text.sl_WlanPolicySet
                0x0000000020008d0c       0x5c ../../../../simplelink/gcc/lib/nonos/Release/libsimplelink.a(wlan.o)
                0x0000000020008d0c                sl_WlanPolicySet
 .text.sl_WlanProfileDel
                0x0000000020008d68       0x40 ../../../../simplelink/gcc/lib/nonos/Release/libsimplelink.a(wlan.o)
                0x0000000020008d68                sl_WlanProfileDel
 .text.sl_WlanRxFilterSet
                0x0000000020008da8       0x58 ../../../../simplelink/gcc/lib/nonos/Release/libsimplelink.a(wlan.o)
                0x0000000020008da8                sl_WlanRxFilterSet
 .text.sl_WlanSetMode
                0x0000000020008e00       0x40 ../../../../simplelink/gcc/lib/nonos/Release/libsimplelink.a(wlan.o)
                0x0000000020008e00                sl_WlanSetMode
 .text.sl_WlanSet
                0x0000000020008e40       0x64 ../../../../simplelink/gcc/lib/nonos/Release/libsimplelink.a(wlan.o)
                0x0000000020008e40                sl_WlanSet
 .text.DmaSpiSwIntHandler
                0x0000000020008ea4       0x2c ../../../../simplelink/gcc/lib/nonos/Release/libsimplelink.a(cc_pal.o)
                0x0000000020008ea4                DmaSpiSwIntHandler
 .text.cc_UDMAChannelSelect.part.0
                0x0000000020008ed0       0x1c ../../../../simplelink/gcc/lib/nonos/Release/libsimplelink.a(cc_pal.o)
 .text.cc_SetupTransfer.constprop.1
                0x0000000020008eec       0x48 ../../../../simplelink/gcc/lib/nonos/Release/libsimplelink.a(cc_pal.o)
 .text.SetupDMAReceive
                0x0000000020008f34       0x5c ../../../../simplelink/gcc/lib/nonos/Release/libsimplelink.a(cc_pal.o)
 .text.spi_Open
                0x0000000020008f90      0x144 ../../../../simplelink/gcc/lib/nonos/Release/libsimplelink.a(cc_pal.o)
                0x0000000020008f90                spi_Open
 .text.spi_Close
                0x00000000200090d4       0x84 ../../../../simplelink/gcc/lib/nonos/Release/libsimplelink.a(cc_pal.o)
                0x00000000200090d4                spi_Close
 .text.spi_Read
                0x0000000020009158      0x114 ../../../../simplelink/gcc/lib/nonos/Release/libsimplelink.a(cc_pal.o)
                0x0000000020009158                spi_Read
 .text.spi_Write
                0x000000002000926c       0xec ../../../../simplelink/gcc/lib/nonos/Release/libsimplelink.a(cc_pal.o)
                0x000000002000926c                spi_Write
 .text.NwpRegisterInterruptHandler
                0x0000000020009358       0x46 ../../../../simplelink/gcc/lib/nonos/Release/libsimplelink.a(cc_pal.o)
                0x0000000020009358                NwpRegisterInterruptHandler
 *fill*         0x000000002000939e        0x2 
 .text.NwpMaskInterrupt
                0x00000000200093a0        0xc ../../../../simplelink/gcc/lib/nonos/Release/libsimplelink.a(cc_pal.o)
                0x00000000200093a0                NwpMaskInterrupt
 .text.NwpUnMaskInterrupt
                0x00000000200093ac        0xc ../../../../simplelink/gcc/lib/nonos/Release/libsimplelink.a(cc_pal.o)
                0x00000000200093ac                NwpUnMaskInterrupt
 .text.NwpPowerOn
                0x00000000200093b8       0x38 ../../../../simplelink/gcc/lib/nonos/Release/libsimplelink.a(cc_pal.o)
                0x00000000200093b8                NwpPowerOn
 .text.NwpPowerOff
                0x00000000200093f0       0x3c ../../../../simplelink/gcc/lib/nonos/Release/libsimplelink.a(cc_pal.o)
                0x00000000200093f0                NwpPowerOff
 .text.NwpPowerOnPreamble
                0x000000002000942c       0x60 ../../../../simplelink/gcc/lib/nonos/Release/libsimplelink.a(cc_pal.o)
                0x000000002000942c                NwpPowerOnPreamble
 .text.NwpPrePowerOffTimout0
                0x000000002000948c       0x20 ../../../../simplelink/gcc/lib/nonos/Release/libsimplelink.a(cc_pal.o)
                0x000000002000948c                NwpPrePowerOffTimout0
 .text.simplelink_timerA2_start
                0x00000000200094ac       0x4c ../../../../simplelink/gcc/lib/nonos/Release/libsimplelink.a(cc_pal.o)
                0x00000000200094ac                simplelink_timerA2_start
 .text.TimerGetCurrentTimestamp
                0x00000000200094f8       0x24 ../../../../simplelink/gcc/lib/nonos/Release/libsimplelink.a(cc_pal.o)
                0x00000000200094f8                TimerGetCurrentTimestamp
 .text.GPIODirModeSet
                0x000000002000951c       0x18 ../../../../driverlib/gcc/lib/Release/libdriver.a(gpio.o)
                0x000000002000951c                GPIODirModeSet
 .text.GPIOIntStatus
                0x0000000020009534        0xe ../../../../driverlib/gcc/lib/Release/libdriver.a(gpio.o)
                0x0000000020009534                GPIOIntStatus
 *fill*         0x0000000020009542        0x2 
 .text.IntRegister
                0x0000000020009544       0x10 ../../../../driverlib/gcc/lib/Release/libdriver.a(interrupt.o)
                0x0000000020009544                IntRegister
 .text.IntEnable
                0x0000000020009554       0x68 ../../../../driverlib/gcc/lib/Release/libdriver.a(interrupt.o)
                0x0000000020009554                IntEnable
 .text.IntDisable
                0x00000000200095bc       0x68 ../../../../driverlib/gcc/lib/Release/libdriver.a(interrupt.o)
                0x00000000200095bc                IntDisable
 .text.PinModeSet
                0x0000000020009624       0x28 ../../../../driverlib/gcc/lib/Release/libdriver.a(pin.o)
                0x0000000020009624                PinModeSet
 .text.PinConfigSet
                0x000000002000964c       0x5c ../../../../driverlib/gcc/lib/Release/libdriver.a(pin.o)
                0x000000002000964c                PinConfigSet
 .text.PinTypeGPIO
                0x00000000200096a8       0x1c ../../../../driverlib/gcc/lib/Release/libdriver.a(pin.o)
                0x00000000200096a8                PinTypeGPIO
 .text.PinTypeSDHost
                0x00000000200096c4       0x16 ../../../../driverlib/gcc/lib/Release/libdriver.a(pin.o)
                0x00000000200096c4                PinTypeSDHost
 .text.PinTypeUART
                0x00000000200096da        0x4 ../../../../driverlib/gcc/lib/Release/libdriver.a(pin.o)
                0x00000000200096da                PinTypeUART
 *fill*         0x00000000200096de        0x2 
 .text.PRCMSysResetCauseGet
                0x00000000200096e0       0x2c ../../../../driverlib/gcc/lib/Release/libdriver.a(prcm.o)
                0x00000000200096e0                PRCMSysResetCauseGet
 .text.PRCMPeripheralClkEnable
                0x000000002000970c       0x2c ../../../../driverlib/gcc/lib/Release/libdriver.a(prcm.o)
                0x000000002000970c                PRCMPeripheralClkEnable
 .text.PRCMPeripheralClkDisable
                0x0000000020009738       0x1c ../../../../driverlib/gcc/lib/Release/libdriver.a(prcm.o)
                0x0000000020009738                PRCMPeripheralClkDisable
 .text.PRCMPeripheralReset
                0x0000000020009754       0x40 ../../../../driverlib/gcc/lib/Release/libdriver.a(prcm.o)
                0x0000000020009754                PRCMPeripheralReset
 .text.PRCMPeripheralStatusGet
                0x0000000020009794       0x1c ../../../../driverlib/gcc/lib/Release/libdriver.a(prcm.o)
                0x0000000020009794                PRCMPeripheralStatusGet
 .text.PRCMHibernateWakeupSourceEnable
                0x00000000200097b0       0x48 ../../../../driverlib/gcc/lib/Release/libdriver.a(prcm.o)
                0x00000000200097b0                PRCMHibernateWakeupSourceEnable
 .text.PRCMHibernateIntervalSet
                0x00000000200097f8       0x70 ../../../../driverlib/gcc/lib/Release/libdriver.a(prcm.o)
                0x00000000200097f8                PRCMHibernateIntervalSet
 .text.PRCMHibernateEnter
                0x0000000020009868       0x18 ../../../../driverlib/gcc/lib/Release/libdriver.a(prcm.o)
                0x0000000020009868                PRCMHibernateEnter
 .text.PRCMCC3200MCUInit
                0x0000000020009880      0x150 ../../../../driverlib/gcc/lib/Release/libdriver.a(prcm.o)
                0x0000000020009880                PRCMCC3200MCUInit
 .text.SPIConfigSetExpClk
                0x00000000200099d0       0x5a ../../../../driverlib/gcc/lib/Release/libdriver.a(spi.o)
                0x00000000200099d0                SPIConfigSetExpClk
 .text.SPIFIFODisable
                0x0000000020009a2a        0xe ../../../../driverlib/gcc/lib/Release/libdriver.a(spi.o)
                0x0000000020009a2a                SPIFIFODisable
 .text.SPIDmaDisable
                0x0000000020009a38        0x4 ../../../../driverlib/gcc/lib/Release/libdriver.a(spi.o)
                0x0000000020009a38                SPIDmaDisable
 .text.SysTickEnable
                0x0000000020009a3c       0x10 ../../../../driverlib/gcc/lib/Release/libdriver.a(systick.o)
                0x0000000020009a3c                SysTickEnable
 .text.SysTickIntRegister
                0x0000000020009a4c       0x1c ../../../../driverlib/gcc/lib/Release/libdriver.a(systick.o)
                0x0000000020009a4c                SysTickIntRegister
 .text.SysTickPeriodSet
                0x0000000020009a68        0xc ../../../../driverlib/gcc/lib/Release/libdriver.a(systick.o)
                0x0000000020009a68                SysTickPeriodSet
 .text.TimerConfigure
                0x0000000020009a74       0x28 ../../../../driverlib/gcc/lib/Release/libdriver.a(timer.o)
                0x0000000020009a74                TimerConfigure
 .text.UtilsDelay
                0x0000000020009a9c        0x8 ../../../../driverlib/gcc/lib/Release/libdriver.a(utils.o)
                0x0000000020009a9c                UtilsDelay
 .text.atol     0x0000000020009aa4        0x8 /usr/lib/gcc/arm-none-eabi/5.2.0/../../../../arm-none-eabi/lib/armv7e-m/libc_nano.a(lib_a-atol.o)
                0x0000000020009aa4                atol
 .text.malloc   0x0000000020009aac       0x10 /usr/lib/gcc/arm-none-eabi/5.2.0/../../../../arm-none-eabi/lib/armv7e-m/libc_nano.a(lib_a-malloc.o)
                0x0000000020009aac                malloc
 .text.free     0x0000000020009abc       0x10 /usr/lib/gcc/arm-none-eabi/5.2.0/../../../../arm-none-eabi/lib/armv7e-m/libc_nano.a(lib_a-malloc.o)
                0x0000000020009abc                free
 .text.memcpy   0x0000000020009acc       0x16 /usr/lib/gcc/arm-none-eabi/5.2.0/../../../../arm-none-eabi/lib/armv7e-m/libc_nano.a(lib_a-memcpy.o)
                0x0000000020009acc                memcpy
 .text.memmove  0x0000000020009ae2       0x36 /usr/lib/gcc/arm-none-eabi/5.2.0/../../../../arm-none-eabi/lib/armv7e-m/libc_nano.a(lib_a-memmove.o)
                0x0000000020009ae2                memmove
 .text.memset   0x0000000020009b18       0x10 /usr/lib/gcc/arm-none-eabi/5.2.0/../../../../arm-none-eabi/lib/armv7e-m/libc_nano.a(lib_a-memset.o)
                0x0000000020009b18                memset
 .text._free_r  0x0000000020009b28       0x8c /usr/lib/gcc/arm-none-eabi/5.2.0/../../../../arm-none-eabi/lib/armv7e-m/libc_nano.a(lib_a-nano-freer.o)
                0x0000000020009b28                _free_r
 .text._malloc_r
                0x0000000020009bb4       0xa8 /usr/lib/gcc/arm-none-eabi/5.2.0/../../../../arm-none-eabi/lib/armv7e-m/libc_nano.a(lib_a-nano-mallocr.o)
                0x0000000020009bb4                _malloc_r
 .text.realloc  0x0000000020009c5c       0x10 /usr/lib/gcc/arm-none-eabi/5.2.0/../../../../arm-none-eabi/lib/armv7e-m/libc_nano.a(lib_a-realloc.o)
                0x0000000020009c5c                realloc
 .text._sbrk_r  0x0000000020009c6c       0x20 /usr/lib/gcc/arm-none-eabi/5.2.0/../../../../arm-none-eabi/lib/armv7e-m/libc_nano.a(lib_a-sbrkr.o)
                0x0000000020009c6c                _sbrk_r
 .text.snprintf
                0x0000000020009c8c       0x64 /usr/lib/gcc/arm-none-eabi/5.2.0/../../../../arm-none-eabi/lib/armv7e-m/libc_nano.a(lib_a-snprintf.o)
                0x0000000020009c8c                snprintf
                0x0000000020009c8c                sniprintf
 .text.sprintf  0x0000000020009cf0       0x48 /usr/lib/gcc/arm-none-eabi/5.2.0/../../../../arm-none-eabi/lib/armv7e-m/libc_nano.a(lib_a-sprintf.o)
                0x0000000020009cf0                sprintf
                0x0000000020009cf0                siprintf
 .text.strcat   0x0000000020009d38       0x1e /usr/lib/gcc/arm-none-eabi/5.2.0/../../../../arm-none-eabi/lib/armv7e-m/libc_nano.a(lib_a-strcat.o)
                0x0000000020009d38                strcat
 .text.strchr   0x0000000020009d56       0x1c /usr/lib/gcc/arm-none-eabi/5.2.0/../../../../arm-none-eabi/lib/armv7e-m/libc_nano.a(lib_a-strchr.o)
                0x0000000020009d56                strchr
 .text          0x0000000020009d72       0x14 /usr/lib/gcc/arm-none-eabi/5.2.0/../../../../arm-none-eabi/lib/armv7e-m/libc_nano.a(lib_a-strcmp.o)
                0x0000000020009d72                strcmp
 .text.strcpy   0x0000000020009d86       0x10 /usr/lib/gcc/arm-none-eabi/5.2.0/../../../../arm-none-eabi/lib/armv7e-m/libc_nano.a(lib_a-strcpy.o)
                0x0000000020009d86                strcpy
 .text.strlen   0x0000000020009d96       0x10 /usr/lib/gcc/arm-none-eabi/5.2.0/../../../../arm-none-eabi/lib/armv7e-m/libc_nano.a(lib_a-strlen.o)
                0x0000000020009d96                strlen
 .text.strncmp  0x0000000020009da6       0x2a /usr/lib/gcc/arm-none-eabi/5.2.0/../../../../arm-none-eabi/lib/armv7e-m/libc_nano.a(lib_a-strncmp.o)
                0x0000000020009da6                strncmp
 .text.strncpy  0x0000000020009dd0       0x26 /usr/lib/gcc/arm-none-eabi/5.2.0/../../../../arm-none-eabi/lib/armv7e-m/libc_nano.a(lib_a-strncpy.o)
                0x0000000020009dd0                strncpy
 .text.strstr   0x0000000020009df6       0x34 /usr/lib/gcc/arm-none-eabi/5.2.0/../../../../arm-none-eabi/lib/armv7e-m/libc_nano.a(lib_a-strstr.o)
                0x0000000020009df6                strstr
 *fill*         0x0000000020009e2a        0x2 
 .text._strtol_r
                0x0000000020009e2c      0x10c /usr/lib/gcc/arm-none-eabi/5.2.0/../../../../arm-none-eabi/lib/armv7e-m/libc_nano.a(lib_a-strtol.o)
                0x0000000020009e2c                _strtol_r
 .text.strtol   0x0000000020009f38       0x14 /usr/lib/gcc/arm-none-eabi/5.2.0/../../../../arm-none-eabi/lib/armv7e-m/libc_nano.a(lib_a-strtol.o)
                0x0000000020009f38                strtol
 .text._vsnprintf_r
                0x0000000020009f4c       0x56 /usr/lib/gcc/arm-none-eabi/5.2.0/../../../../arm-none-eabi/lib/armv7e-m/libc_nano.a(lib_a-vsnprintf.o)
                0x0000000020009f4c                _vsnprintf_r
                0x0000000020009f4c                _vsniprintf_r
 *fill*         0x0000000020009fa2        0x2 
 .text.vsnprintf
                0x0000000020009fa4       0x1c /usr/lib/gcc/arm-none-eabi/5.2.0/../../../../arm-none-eabi/lib/armv7e-m/libc_nano.a(lib_a-vsnprintf.o)
                0x0000000020009fa4                vsnprintf
                0x0000000020009fa4                vsniprintf
 .text._realloc_r
                0x0000000020009fc0       0x4c /usr/lib/gcc/arm-none-eabi/5.2.0/../../../../arm-none-eabi/lib/armv7e-m/libc_nano.a(lib_a-nano-reallocr.o)
                0x0000000020009fc0                _realloc_r
 .text.__ssputs_r
                0x000000002000a00c       0xb2 /usr/lib/gcc/arm-none-eabi/5.2.0/../../../../arm-none-eabi/lib/armv7e-m/libc_nano.a(lib_a-nano-svfprintf.o)
                0x000000002000a00c                __ssputs_r
 *fill*         0x000000002000a0be        0x2 
 .text._svfprintf_r
                0x000000002000a0c0      0x1e8 /usr/lib/gcc/arm-none-eabi/5.2.0/../../../../arm-none-eabi/lib/armv7e-m/libc_nano.a(lib_a-nano-svfprintf.o)
                0x000000002000a0c0                _svfprintf_r
                0x000000002000a0c0                _svfiprintf_r
 .text._printf_common
                0x000000002000a2a8       0xec /usr/lib/gcc/arm-none-eabi/5.2.0/../../../../arm-none-eabi/lib/armv7e-m/libc_nano.a(lib_a-nano-vfprintf_i.o)
                0x000000002000a2a8                _printf_common
 .text._printf_i
                0x000000002000a394      0x24c /usr/lib/gcc/arm-none-eabi/5.2.0/../../../../arm-none-eabi/lib/armv7e-m/libc_nano.a(lib_a-nano-vfprintf_i.o)
                0x000000002000a394                _printf_i
 .text.memchr   0x000000002000a5e0       0x1e /usr/lib/gcc/arm-none-eabi/5.2.0/../../../../arm-none-eabi/lib/armv7e-m/libc_nano.a(lib_a-memchr.o)
                0x000000002000a5e0                memchr
 .text._malloc_usable_size_r
                0x000000002000a5fe       0x14 /usr/lib/gcc/arm-none-eabi/5.2.0/../../../../arm-none-eabi/lib/armv7e-m/libc_nano.a(lib_a-nano-msizer.o)
                0x000000002000a5fe                _malloc_usable_size_r
 *(.rodata*)
 .rodata.g_acDaysOfWeek2013
                0x000000002000a612       0x15 obj/Release/main.o
                0x000000002000a612                g_acDaysOfWeek2013
 .rodata.str1.1
                0x000000002000a627      0x349 obj/Release/main.o
                                        0x367 (size before relaxing)
 .rodata.g_acNumOfDaysPerMonth
                0x000000002000a970        0xc obj/Release/main.o
                0x000000002000a970                g_acNumOfDaysPerMonth
 .rodata.g_acSNTPserver
                0x000000002000a97c       0xf0 obj/Release/main.o
                0x000000002000a97c                g_acSNTPserver
 .rodata.g_acMonthOfYear
                0x000000002000aa6c       0x24 obj/Release/main.o
                0x000000002000aa6c                g_acMonthOfYear
 .rodata.str1.1
                0x000000002000aa90       0x24 obj/Release/uart_if.o
                                         0x27 (size before relaxing)
 .rodata.str1.1
                0x000000002000aab4       0x1d ../../../../simplelink_extlib/ota/gcc/lib/Release/ota.a(OtaApp.o)
 .rodata        0x000000002000aad1        0x4 ../../../../simplelink_extlib/ota/gcc/lib/Release/ota.a(OtaClient.o)
 .rodata.str1.1
                0x000000002000aad5       0xe8 ../../../../simplelink_extlib/ota/gcc/lib/Release/ota.a(OtaClient.o)
                                        0x103 (size before relaxing)
 .rodata.str1.1
                0x000000002000abbd       0x39 ../../../../simplelink_extlib/ota/gcc/lib/Release/ota.a(OtaHttp.o)
                                         0x56 (size before relaxing)
 .rodata.str1.1
                0x000000002000abf6        0x5 ../../../../simplelink_extlib/ota/gcc/lib/Release/ota.a(CdnClient.o)
 .rodata.str1.1
                0x000000002000abfb      0x11e ../../../../simplelink_extlib/ota/gcc/lib/Release/ota.a(LogClient.o)
                                        0x126 (size before relaxing)
 .rodata.str1.1
                0x000000002000ad19        0xd ../../../../simplelink_extlib/flc/gcc/lib/Release/flc.a(flc.o)
                                         0x22 (size before relaxing)
 .rodata._SlDeviceGetCmdCtrl
                0x000000002000ad26        0x4 ../../../../simplelink/gcc/lib/nonos/Release/libsimplelink.a(device.o)
 .rodata._SlStopCmdCtrl
                0x000000002000ad2a        0x4 ../../../../simplelink/gcc/lib/nonos/Release/libsimplelink.a(device.o)
 .rodata.StartResponseLUT
                0x000000002000ad2e        0x8 ../../../../simplelink/gcc/lib/nonos/Release/libsimplelink.a(device.o)
 *fill*         0x000000002000ad36        0x2 
 .rodata.g_H2NSyncPattern
                0x000000002000ad38        0x8 ../../../../simplelink/gcc/lib/nonos/Release/libsimplelink.a(driver.o)
 .rodata.g_H2NCnysPattern
                0x000000002000ad40        0x8 ../../../../simplelink/gcc/lib/nonos/Release/libsimplelink.a(driver.o)
 .rodata._SlActionLookupTable
                0x000000002000ad48       0x38 ../../../../simplelink/gcc/lib/nonos/Release/libsimplelink.a(driver.o)
                0x000000002000ad48                _SlActionLookupTable
 .rodata.OpcodeTranslateTable
                0x000000002000ad80       0x3c ../../../../simplelink/gcc/lib/nonos/Release/libsimplelink.a(driver.o)
                0x000000002000ad80                OpcodeTranslateTable
 .rodata.RxMsgClassLUT
                0x000000002000adbc       0x20 ../../../../simplelink/gcc/lib/nonos/Release/libsimplelink.a(driver.o)
 .rodata._SlGetHostByNameCtrl
                0x000000002000addc        0x4 ../../../../simplelink/gcc/lib/nonos/Release/libsimplelink.a(netapp.o)
 .rodata._SlNetAppSendTokenValueCmdCtrl
                0x000000002000ade0        0x4 ../../../../simplelink/gcc/lib/nonos/Release/libsimplelink.a(netapp.o)
                0x000000002000ade0                _SlNetAppSendTokenValueCmdCtrl
 .rodata._SlRegisterServiceCtrl
                0x000000002000ade4        0x4 ../../../../simplelink/gcc/lib/nonos/Release/libsimplelink.a(netapp.o)
 .rodata._SlNetCfgGetCmdCtrl
                0x000000002000ade8        0x4 ../../../../simplelink/gcc/lib/nonos/Release/libsimplelink.a(netcfg.o)
 .rodata._SlNetCfgSetCmdCtrl
                0x000000002000adec        0x4 ../../../../simplelink/gcc/lib/nonos/Release/libsimplelink.a(netcfg.o)
 .rodata        0x000000002000adf0       0x14 ../../../../simplelink/gcc/lib/nonos/Release/libsimplelink.a(fs.o)
 .rodata._SlFsDeleteCmdCtrl
                0x000000002000ae04        0x4 ../../../../simplelink/gcc/lib/nonos/Release/libsimplelink.a(fs.o)
 .rodata._SlFsReadCmdCtrl
                0x000000002000ae08        0x4 ../../../../simplelink/gcc/lib/nonos/Release/libsimplelink.a(fs.o)
 .rodata._SlFsWriteCmdCtrl
                0x000000002000ae0c        0x4 ../../../../simplelink/gcc/lib/nonos/Release/libsimplelink.a(fs.o)
 .rodata._SlFsCloseCmdCtrl
                0x000000002000ae10        0x4 ../../../../simplelink/gcc/lib/nonos/Release/libsimplelink.a(fs.o)
 .rodata._SlFsOpenCmdCtrl
                0x000000002000ae14        0x4 ../../../../simplelink/gcc/lib/nonos/Release/libsimplelink.a(fs.o)
 .rodata._SlSendCmdCtrl
                0x000000002000ae18        0x4 ../../../../simplelink/gcc/lib/nonos/Release/libsimplelink.a(socket.o)
 .rodata._SlSockSocketCmdCtrl
                0x000000002000ae1c        0x4 ../../../../simplelink/gcc/lib/nonos/Release/libsimplelink.a(socket.o)
 .rodata._SlPayloadByProtocolLUT
                0x000000002000ae20       0x10 ../../../../simplelink/gcc/lib/nonos/Release/libsimplelink.a(socket.o)
 .rodata._SlSockCloseCmdCtrl
                0x000000002000ae30        0x4 ../../../../simplelink/gcc/lib/nonos/Release/libsimplelink.a(socket.o)
 .rodata._SlRecvCmdCtrl
                0x000000002000ae34        0x4 ../../../../simplelink/gcc/lib/nonos/Release/libsimplelink.a(socket.o)
 .rodata._SlSetSockOptCmdCtrl
                0x000000002000ae38        0x4 ../../../../simplelink/gcc/lib/nonos/Release/libsimplelink.a(socket.o)
 .rodata._SlWlanCfgSetCmdCtrl
                0x000000002000ae3c        0x4 ../../../../simplelink/gcc/lib/nonos/Release/libsimplelink.a(wlan.o)
 .rodata._SlProfileDelCmdCtrl
                0x000000002000ae40        0x4 ../../../../simplelink/gcc/lib/nonos/Release/libsimplelink.a(wlan.o)
 .rodata._SlWlanSetModeCmdCtrl
                0x000000002000ae44        0x4 ../../../../simplelink/gcc/lib/nonos/Release/libsimplelink.a(wlan.o)
 .rodata._SlRxFilterSetCmdCtrl
                0x000000002000ae48        0x4 ../../../../simplelink/gcc/lib/nonos/Release/libsimplelink.a(wlan.o)
 .rodata._SlPolicySetCmdCtrl
                0x000000002000ae4c        0x4 ../../../../simplelink/gcc/lib/nonos/Release/libsimplelink.a(wlan.o)
 .rodata.g_pulEnRegs
                0x000000002000ae50       0x18 ../../../../driverlib/gcc/lib/Release/libdriver.a(interrupt.o)
 .rodata.g_pulDisRegs
                0x000000002000ae68       0x18 ../../../../driverlib/gcc/lib/Release/libdriver.a(interrupt.o)
 .rodata.g_ulPinToPadMap
                0x000000002000ae80      0x100 ../../../../driverlib/gcc/lib/Release/libdriver.a(pin.o)
 .rodata.PRCM_PeriphRegsList
                0x000000002000af80       0xa8 ../../../../driverlib/gcc/lib/Release/libdriver.a(prcm.o)
 .rodata._ctype_
                0x000000002000b028      0x101 /usr/lib/gcc/arm-none-eabi/5.2.0/../../../../arm-none-eabi/lib/armv7e-m/libc_nano.a(lib_a-ctype_.o)
                0x000000002000b028                _ctype_
 .rodata.str1.1
                0x000000002000b129        0x2 /usr/lib/gcc/arm-none-eabi/5.2.0/../../../../arm-none-eabi/lib/armv7e-m/libc_nano.a(lib_a-impure.o)
 .rodata.str1.1
                0x000000002000b12b       0x11 /usr/lib/gcc/arm-none-eabi/5.2.0/../../../../arm-none-eabi/lib/armv7e-m/libc_nano.a(lib_a-nano-svfprintf.o)
 .rodata.str1.1
                0x000000002000b13c       0x22 /usr/lib/gcc/arm-none-eabi/5.2.0/../../../../arm-none-eabi/lib/armv7e-m/libc_nano.a(lib_a-nano-vfprintf_i.o)
 *(.ARM.extab* .gnu.linkonce.armextab.*)
                0x000000002000b160                . = ALIGN (0x8)
 *fill*         0x000000002000b15e        0x2 
                0x000000002000b160                _etext = .

.glue_7         0x000000002000b160        0x0
 .glue_7        0x0000000000000000        0x0 linker stubs

.glue_7t        0x000000002000b160        0x0
 .glue_7t       0x0000000000000000        0x0 linker stubs

.vfp11_veneer   0x000000002000b160        0x0
 .vfp11_veneer  0x0000000000000000        0x0 linker stubs

.v4_bx          0x000000002000b160        0x0
 .v4_bx         0x0000000000000000        0x0 linker stubs

.iplt           0x000000002000b160        0x0
 .iplt          0x0000000000000000        0x0 obj/Release/main.o

.rel.dyn        0x000000002000b160        0x0
 .rel.iplt      0x0000000000000000        0x0 obj/Release/main.o

.ARM            0x000000002000b160        0x0
                0x000000002000b160                __exidx_start = .
 *(.ARM.exidx*)
                0x000000002000b160                __exidx_end = .
                0x000000002000b160                __init_data = .

.data           0x000000002000b160       0x68
                0x000000002000b160                _data = .
 *(.data*)
 .data.__ctype_ptr__
                0x000000002000b160        0x4 /usr/lib/gcc/arm-none-eabi/5.2.0/../../../../arm-none-eabi/lib/armv7e-m/libc_nano.a(lib_a-ctype_.o)
                0x000000002000b160                __ctype_ptr__
 .data.impure_data
                0x000000002000b164       0x60 /usr/lib/gcc/arm-none-eabi/5.2.0/../../../../arm-none-eabi/lib/armv7e-m/libc_nano.a(lib_a-impure.o)
 .data._impure_ptr
                0x000000002000b1c4        0x4 /usr/lib/gcc/arm-none-eabi/5.2.0/../../../../arm-none-eabi/lib/armv7e-m/libc_nano.a(lib_a-impure.o)
                0x000000002000b1c4                _impure_ptr
                0x000000002000b1c8                . = ALIGN (0x8)
                0x000000002000b1c8                _edata = .

.igot.plt       0x000000002000b1c8        0x0
 .igot.plt      0x0000000000000000        0x0 obj/Release/main.o

.bss            0x000000002000b400     0x31cc
                0x000000002000b400                _bss = .
 *(.bss*)
 .bss.pvOtaApp  0x000000002000b400        0x4 obj/Release/main.o
 .bss.cTaskOwnState.6845
                0x000000002000b404        0x1 obj/Release/main.o
 *fill*         0x000000002000b405        0x3 
 .bss.g_otaOptServerInfo
                0x000000002000b408      0x240 obj/Release/main.o
 .bss.g_ulSysState
                0x000000002000b648        0x4 obj/Release/main.o
 .bss.g_DispRefreshSyncObj
                0x000000002000b64c        0x4 obj/Release/main.o
 .bss.ucTaskOwnState.6905
                0x000000002000b650        0x1 obj/Release/main.o
 *fill*         0x000000002000b651        0x3 
 .bss.g_FactResetSyncObj
                0x000000002000b654        0x4 obj/Release/main.o
 .bss.g_OTAStatSyncObj
                0x000000002000b658        0x4 obj/Release/main.o
 .bss.sGetTime.6846
                0x000000002000b65c        0xc obj/Release/main.o
 .bss.sDisplayInfo
                0x000000002000b668       0xdc obj/Release/main.o
 .bss.cTaskOwnState.6892
                0x000000002000b744        0x1 obj/Release/main.o
 *fill*         0x000000002000b745        0x3 
 .bss.g_NetStatSyncObj
                0x000000002000b748        0x4 obj/Release/main.o
 .bss.g_TaskList
                0x000000002000b74c       0x50 obj/Release/task.o
 .bss.g_psCurrentTask
                0x000000002000b79c        0x4 obj/Release/task.o
 .bss.ulNxtTask.4409
                0x000000002000b7a0        0x4 obj/Release/task.o
 .bss.__Errorlog
                0x000000002000b7a4        0x4 obj/Release/uart_if.o
 .bss.pui32Stack
                0x000000002000b7a8     0x1000 obj/Release/startup_gcc.o
 .bss.heap_end  0x000000002000c7a8        0x4 obj/Release/startup_gcc.o
 .bss.heap2_end
                0x000000002000c7ac        0x4 obj/Release/startup_gcc.o
 .bss.g_ConsecutiveNetAccessNetErrors
                0x000000002000c7b0        0x4 ../../../../simplelink_extlib/ota/gcc/lib/Release/ota.a(OtaHttp.o)
                0x000000002000c7b0                g_ConsecutiveNetAccessNetErrors
 .bss.send_buf  0x000000002000c7b4      0x200 ../../../../simplelink_extlib/ota/gcc/lib/Release/ota.a(OtaHttp.o)
 .bss.recv_buf  0x000000002000c9b4      0x5a0 ../../../../simplelink_extlib/ota/gcc/lib/Release/ota.a(OtaHttp.o)
 .bss.sBootInfo
                0x000000002000cf54        0x8 ../../../../simplelink_extlib/flc/gcc/lib/Release/flc.a(flc.o)
 .bss.g_StatMem
                0x000000002000cf5c      0x168 ../../../../simplelink/gcc/lib/nonos/Release/libsimplelink.a(driver.o)
 .bss.g_SlDeviceStatus
                0x000000002000d0c4        0x2 ../../../../simplelink/gcc/lib/nonos/Release/libsimplelink.a(driver.o)
                0x000000002000d0c4                g_SlDeviceStatus
 .bss.gFirstCmdMode
                0x000000002000d0c6        0x1 ../../../../simplelink/gcc/lib/nonos/Release/libsimplelink.a(driver.o)
 *fill*         0x000000002000d0c7        0x1 
 .bss.pPingCallBackFunc
                0x000000002000d0c8        0x4 ../../../../simplelink/gcc/lib/nonos/Release/libsimplelink.a(driver.o)
                0x000000002000d0c8                pPingCallBackFunc
 .bss.g_pCB     0x000000002000d0cc        0x4 ../../../../simplelink/gcc/lib/nonos/Release/libsimplelink.a(driver.o)
                0x000000002000d0cc                g_pCB
 .bss.g__SlNonOsCB
                0x000000002000d0d0       0x3c ../../../../simplelink/gcc/lib/nonos/Release/libsimplelink.a(nonos.o)
                0x000000002000d0d0                g__SlNonOsCB
 .bss.g_SpiFd   0x000000002000d10c        0x4 ../../../../simplelink/gcc/lib/nonos/Release/libsimplelink.a(cc_pal.o)
                0x000000002000d10c                g_SpiFd
 .bss.g_ucDMAEnabled
                0x000000002000d110        0x1 ../../../../simplelink/gcc/lib/nonos/Release/libsimplelink.a(cc_pal.o)
                0x000000002000d110                g_ucDMAEnabled
 *fill*         0x000000002000d111        0x3 
 .bss.__malloc_sbrk_start
                0x000000002000d114        0x4 /usr/lib/gcc/arm-none-eabi/5.2.0/../../../../arm-none-eabi/lib/armv7e-m/libc_nano.a(lib_a-nano-mallocr.o)
                0x000000002000d114                __malloc_sbrk_start
 .bss.__malloc_free_list
                0x000000002000d118        0x4 /usr/lib/gcc/arm-none-eabi/5.2.0/../../../../arm-none-eabi/lib/armv7e-m/libc_nano.a(lib_a-nano-mallocr.o)
                0x000000002000d118                __malloc_free_list
 *(COMMON)
 COMMON         0x000000002000d11c       0x35 obj/Release/net.o
                0x000000002000d11c                g_ulIpAddr
                0x000000002000d120                g_ucSimplelinkstarted
                0x000000002000d121                g_ucConnectionBSSID
                0x000000002000d128                g_ulGatewayIP
                0x000000002000d12c                g_ulStatus
                0x000000002000d130                g_ucConnectionSSID
 *fill*         0x000000002000d151        0x3 
 COMMON         0x000000002000d154        0x8 obj/Release/button_if.o
                0x000000002000d154                g_S3InterruptHdl
                0x000000002000d158                g_S2InterruptHdl
 *fill*         0x000000002000d15c      0x2a4 
 COMMON         0x000000002000d400      0x800 obj/Release/udma_if.o
                0x000000002000d400                gfpAppCallbackHndl
                0x000000002000d500                iDone
                0x000000002000d800                gpCtlTbl
 COMMON         0x000000002000dc00       0xac ../../../../simplelink_extlib/ota/gcc/lib/Release/ota.a(OtaApp.o)
                0x000000002000dc00                g_OtaApp_statistics
                0x000000002000dc4c                g_FlcSflashCb
                0x000000002000dc60                g_OtaApp
 COMMON         0x000000002000dcac      0x848 ../../../../simplelink_extlib/ota/gcc/lib/Release/ota.a(OtaClient.o)
                0x000000002000dcac                g_OtaCheckUpdateResponse
                0x000000002000e0f8                g_OtaFileMetadata
                0x000000002000e4d0                g_OtaClient
 COMMON         0x000000002000e4f4       0x74 ../../../../simplelink_extlib/ota/gcc/lib/Release/ota.a(CdnClient.o)
                0x000000002000e4f4                g_CdnClient
 COMMON         0x000000002000e568        0x8 ../../../../simplelink_extlib/ota/gcc/lib/Release/ota.a(LogClient.o)
                0x000000002000e568                g_LogClient
 COMMON         0x000000002000e570        0x2 ../../../../simplelink/gcc/lib/nonos/Release/libsimplelink.a(driver.o)
                0x000000002000e570                g_bDeviceRestartIsRequired
                0x000000002000e571                RxIrqCnt
 *fill*         0x000000002000e572        0x2 
 COMMON         0x000000002000e574       0x54 ../../../../simplelink/gcc/lib/nonos/Release/libsimplelink.a(cc_pal.o)
                0x000000002000e574                g_cDummy
                0x000000002000e578                g_ucDinDout
 COMMON         0x000000002000e5c8        0x4 /usr/lib/gcc/arm-none-eabi/5.2.0/../../../../arm-none-eabi/lib/armv7e-m/libc_nano.a(lib_a-reent.o)
                0x000000002000e5c8                errno
                0x000000002000e5cc                _ebss = .

.heap           0x000000002000e5cc    0x31a34
                0x000000002000e5cc                _heap = .
                0x000000002003fe38                . = (((((((. + 0x40000) - SIZEOF (.bss)) - SIZEOF (.data)) - SIZEOF (.ARM)) - SIZEOF (.text)) - SIZEOF (.bootloader)) - 0x400)
 *fill*         0x000000002000e5cc    0x3186c 
                0x0000000020040000                . = ALIGN (0x400)
 *fill*         0x000000002003fe38      0x1c8 
                0x0000000020040000                _eheap = .
LOAD obj/Release/main.o
LOAD obj/Release/pinmux.o
LOAD obj/Release/net.o
LOAD obj/Release/task.o
LOAD obj/Release/uart_if.o
LOAD obj/Release/button_if.o
LOAD obj/Release/udma_if.o
LOAD obj/Release/startup_gcc.o
LOAD ../../../../simplelink_extlib/ota/gcc/lib/Release/ota.a
LOAD ../../../../simplelink_extlib/flc/gcc/lib/Release/flc.a
LOAD ../../../../simplelink/gcc/lib/nonos/Release/libsimplelink.a
LOAD ../../../../driverlib/gcc/lib/Release/libdriver.a
LOAD /usr/lib/gcc/arm-none-eabi/5.2.0/../../../../arm-none-eabi/lib/armv7e-m/libc_nano.a
LOAD /usr/lib/gcc/arm-none-eabi/5.2.0/../../../../arm-none-eabi/lib/armv7e-m/libm.a
LOAD /usr/lib/gcc/arm-none-eabi/5.2.0/armv7e-m/libgcc.a
LOAD /usr/lib/gcc/arm-none-eabi/5.2.0/../../../../arm-none-eabi/lib/armv7e-m/libnosys.a
OUTPUT(bin/Release/ota_update_nonos.elf elf32-littlearm)

.debug_info     0x0000000000000000    0x210cb
 .debug_info    0x0000000000000000     0x1833 obj/Release/main.o
 .debug_info    0x0000000000001833      0x16a obj/Release/pinmux.o
 .debug_info    0x000000000000199d      0xfab obj/Release/net.o
 .debug_info    0x0000000000002948      0x2fc obj/Release/task.o
 .debug_info    0x0000000000002c44      0x512 obj/Release/uart_if.o
 .debug_info    0x0000000000003156      0x48f obj/Release/button_if.o
 .debug_info    0x00000000000035e5      0x60f obj/Release/udma_if.o
 .debug_info    0x0000000000003bf4      0x221 obj/Release/startup_gcc.o
 .debug_info    0x0000000000003e15      0xe41 ../../../../simplelink_extlib/ota/gcc/lib/Release/ota.a(OtaApp.o)
 .debug_info    0x0000000000004c56      0xefd ../../../../simplelink_extlib/ota/gcc/lib/Release/ota.a(OtaClient.o)
 .debug_info    0x0000000000005b53     0x109a ../../../../simplelink_extlib/ota/gcc/lib/Release/ota.a(OtaHttp.o)
 .debug_info    0x0000000000006bed      0xaff ../../../../simplelink_extlib/ota/gcc/lib/Release/ota.a(CdnClient.o)
 .debug_info    0x00000000000076ec      0x816 ../../../../simplelink_extlib/ota/gcc/lib/Release/ota.a(LogClient.o)
 .debug_info    0x0000000000007f02      0x6ea ../../../../simplelink_extlib/flc/gcc/lib/Release/flc.a(flc.o)
 .debug_info    0x00000000000085ec     0x1366 ../../../../simplelink/gcc/lib/nonos/Release/libsimplelink.a(device.o)
 .debug_info    0x0000000000009952     0x2810 ../../../../simplelink/gcc/lib/nonos/Release/libsimplelink.a(driver.o)
 .debug_info    0x000000000000c162     0x1e63 ../../../../simplelink/gcc/lib/nonos/Release/libsimplelink.a(netapp.o)
 .debug_info    0x000000000000dfc5      0x42d ../../../../simplelink/gcc/lib/nonos/Release/libsimplelink.a(netcfg.o)
 .debug_info    0x000000000000e3f2      0x6e1 ../../../../simplelink/gcc/lib/nonos/Release/libsimplelink.a(nonos.o)
 .debug_info    0x000000000000ead3      0xac3 ../../../../simplelink/gcc/lib/nonos/Release/libsimplelink.a(fs.o)
 .debug_info    0x000000000000f596     0x1ecd ../../../../simplelink/gcc/lib/nonos/Release/libsimplelink.a(socket.o)
 .debug_info    0x0000000000011463     0x1f99 ../../../../simplelink/gcc/lib/nonos/Release/libsimplelink.a(wlan.o)
 .debug_info    0x00000000000133fc      0xfd7 ../../../../simplelink/gcc/lib/nonos/Release/libsimplelink.a(cc_pal.o)
 .debug_info    0x00000000000143d3      0x444 ../../../../driverlib/gcc/lib/Release/libdriver.a(gpio.o)
 .debug_info    0x0000000000014817      0x3ea ../../../../driverlib/gcc/lib/Release/libdriver.a(interrupt.o)
 .debug_info    0x0000000000014c01      0x421 ../../../../driverlib/gcc/lib/Release/libdriver.a(pin.o)
 .debug_info    0x0000000000015022     0x1648 ../../../../driverlib/gcc/lib/Release/libdriver.a(prcm.o)
 .debug_info    0x000000000001666a      0xb9e ../../../../driverlib/gcc/lib/Release/libdriver.a(spi.o)
 .debug_info    0x0000000000017208      0x145 ../../../../driverlib/gcc/lib/Release/libdriver.a(systick.o)
 .debug_info    0x000000000001734d      0x67d ../../../../driverlib/gcc/lib/Release/libdriver.a(timer.o)
 .debug_info    0x00000000000179ca       0x50 ../../../../driverlib/gcc/lib/Release/libdriver.a(utils.o)
 .debug_info    0x0000000000017a1a      0x7c5 /usr/lib/gcc/arm-none-eabi/5.2.0/../../../../arm-none-eabi/lib/armv7e-m/libc_nano.a(lib_a-atol.o)
 .debug_info    0x00000000000181df      0x7b2 /usr/lib/gcc/arm-none-eabi/5.2.0/../../../../arm-none-eabi/lib/armv7e-m/libc_nano.a(lib_a-malloc.o)
 .debug_info    0x0000000000018991      0x115 /usr/lib/gcc/arm-none-eabi/5.2.0/../../../../arm-none-eabi/lib/armv7e-m/libc_nano.a(lib_a-memcpy.o)
 .debug_info    0x0000000000018aa6      0x109 /usr/lib/gcc/arm-none-eabi/5.2.0/../../../../arm-none-eabi/lib/armv7e-m/libc_nano.a(lib_a-memmove.o)
 .debug_info    0x0000000000018baf       0xda /usr/lib/gcc/arm-none-eabi/5.2.0/../../../../arm-none-eabi/lib/armv7e-m/libc_nano.a(lib_a-memset.o)
 .debug_info    0x0000000000018c89      0x821 /usr/lib/gcc/arm-none-eabi/5.2.0/../../../../arm-none-eabi/lib/armv7e-m/libc_nano.a(lib_a-nano-freer.o)
 .debug_info    0x00000000000194aa      0x8ec /usr/lib/gcc/arm-none-eabi/5.2.0/../../../../arm-none-eabi/lib/armv7e-m/libc_nano.a(lib_a-nano-mallocr.o)
 .debug_info    0x0000000000019d96      0x786 /usr/lib/gcc/arm-none-eabi/5.2.0/../../../../arm-none-eabi/lib/armv7e-m/libc_nano.a(lib_a-realloc.o)
 .debug_info    0x000000000001a51c      0x7a1 /usr/lib/gcc/arm-none-eabi/5.2.0/../../../../arm-none-eabi/lib/armv7e-m/libc_nano.a(lib_a-sbrkr.o)
 .debug_info    0x000000000001acbd      0x8bd /usr/lib/gcc/arm-none-eabi/5.2.0/../../../../arm-none-eabi/lib/armv7e-m/libc_nano.a(lib_a-snprintf.o)
 .debug_info    0x000000000001b57a      0x88c /usr/lib/gcc/arm-none-eabi/5.2.0/../../../../arm-none-eabi/lib/armv7e-m/libc_nano.a(lib_a-sprintf.o)
 .debug_info    0x000000000001be06       0xdd /usr/lib/gcc/arm-none-eabi/5.2.0/../../../../arm-none-eabi/lib/armv7e-m/libc_nano.a(lib_a-strcat.o)
 .debug_info    0x000000000001bee3       0xea /usr/lib/gcc/arm-none-eabi/5.2.0/../../../../arm-none-eabi/lib/armv7e-m/libc_nano.a(lib_a-strchr.o)
 .debug_info    0x000000000001bfcd       0xc4 /usr/lib/gcc/arm-none-eabi/5.2.0/../../../../arm-none-eabi/lib/armv7e-m/libc_nano.a(lib_a-strcmp.o)
 .debug_info    0x000000000001c091       0xc4 /usr/lib/gcc/arm-none-eabi/5.2.0/../../../../arm-none-eabi/lib/armv7e-m/libc_nano.a(lib_a-strcpy.o)
 .debug_info    0x000000000001c155       0xd4 /usr/lib/gcc/arm-none-eabi/5.2.0/../../../../arm-none-eabi/lib/armv7e-m/libc_nano.a(lib_a-strlen.o)
 .debug_info    0x000000000001c229       0xd6 /usr/lib/gcc/arm-none-eabi/5.2.0/../../../../arm-none-eabi/lib/armv7e-m/libc_nano.a(lib_a-strncmp.o)
 .debug_info    0x000000000001c2ff      0x10a /usr/lib/gcc/arm-none-eabi/5.2.0/../../../../arm-none-eabi/lib/armv7e-m/libc_nano.a(lib_a-strncpy.o)
 .debug_info    0x000000000001c409       0xde /usr/lib/gcc/arm-none-eabi/5.2.0/../../../../arm-none-eabi/lib/armv7e-m/libc_nano.a(lib_a-strstr.o)
 .debug_info    0x000000000001c4e7      0x864 /usr/lib/gcc/arm-none-eabi/5.2.0/../../../../arm-none-eabi/lib/armv7e-m/libc_nano.a(lib_a-strtol.o)
 .debug_info    0x000000000001cd4b      0x892 /usr/lib/gcc/arm-none-eabi/5.2.0/../../../../arm-none-eabi/lib/armv7e-m/libc_nano.a(lib_a-vsnprintf.o)
 .debug_info    0x000000000001d5dd       0x6f /usr/lib/gcc/arm-none-eabi/5.2.0/../../../../arm-none-eabi/lib/armv7e-m/libc_nano.a(lib_a-ctype_.o)
 .debug_info    0x000000000001d64c      0x7da /usr/lib/gcc/arm-none-eabi/5.2.0/../../../../arm-none-eabi/lib/armv7e-m/libc_nano.a(lib_a-impure.o)
 .debug_info    0x000000000001de26      0x878 /usr/lib/gcc/arm-none-eabi/5.2.0/../../../../arm-none-eabi/lib/armv7e-m/libc_nano.a(lib_a-nano-reallocr.o)
 .debug_info    0x000000000001e69e      0xd40 /usr/lib/gcc/arm-none-eabi/5.2.0/../../../../arm-none-eabi/lib/armv7e-m/libc_nano.a(lib_a-nano-svfprintf.o)
 .debug_info    0x000000000001f3de      0xb33 /usr/lib/gcc/arm-none-eabi/5.2.0/../../../../arm-none-eabi/lib/armv7e-m/libc_nano.a(lib_a-nano-vfprintf_i.o)
 .debug_info    0x000000000001ff11      0x8fb /usr/lib/gcc/arm-none-eabi/5.2.0/../../../../arm-none-eabi/lib/armv7e-m/libc_nano.a(lib_a-reent.o)
 .debug_info    0x000000000002080c       0xff /usr/lib/gcc/arm-none-eabi/5.2.0/../../../../arm-none-eabi/lib/armv7e-m/libc_nano.a(lib_a-memchr.o)
 .debug_info    0x000000000002090b      0x7c0 /usr/lib/gcc/arm-none-eabi/5.2.0/../../../../arm-none-eabi/lib/armv7e-m/libc_nano.a(lib_a-nano-msizer.o)

.debug_abbrev   0x0000000000000000     0x6110
 .debug_abbrev  0x0000000000000000      0x37a obj/Release/main.o
 .debug_abbrev  0x000000000000037a       0x71 obj/Release/pinmux.o
 .debug_abbrev  0x00000000000003eb      0x314 obj/Release/net.o
 .debug_abbrev  0x00000000000006ff      0x179 obj/Release/task.o
 .debug_abbrev  0x0000000000000878      0x1d0 obj/Release/uart_if.o
 .debug_abbrev  0x0000000000000a48      0x17d obj/Release/button_if.o
 .debug_abbrev  0x0000000000000bc5      0x1d2 obj/Release/udma_if.o
 .debug_abbrev  0x0000000000000d97      0x149 obj/Release/startup_gcc.o
 .debug_abbrev  0x0000000000000ee0      0x211 ../../../../simplelink_extlib/ota/gcc/lib/Release/ota.a(OtaApp.o)
 .debug_abbrev  0x00000000000010f1      0x206 ../../../../simplelink_extlib/ota/gcc/lib/Release/ota.a(OtaClient.o)
 .debug_abbrev  0x00000000000012f7      0x227 ../../../../simplelink_extlib/ota/gcc/lib/Release/ota.a(OtaHttp.o)
 .debug_abbrev  0x000000000000151e      0x25d ../../../../simplelink_extlib/ota/gcc/lib/Release/ota.a(CdnClient.o)
 .debug_abbrev  0x000000000000177b      0x165 ../../../../simplelink_extlib/ota/gcc/lib/Release/ota.a(LogClient.o)
 .debug_abbrev  0x00000000000018e0      0x1fb ../../../../simplelink_extlib/flc/gcc/lib/Release/flc.a(flc.o)
 .debug_abbrev  0x0000000000001adb      0x327 ../../../../simplelink/gcc/lib/nonos/Release/libsimplelink.a(device.o)
 .debug_abbrev  0x0000000000001e02      0x3ca ../../../../simplelink/gcc/lib/nonos/Release/libsimplelink.a(driver.o)
 .debug_abbrev  0x00000000000021cc      0x34a ../../../../simplelink/gcc/lib/nonos/Release/libsimplelink.a(netapp.o)
 .debug_abbrev  0x0000000000002516      0x17b ../../../../simplelink/gcc/lib/nonos/Release/libsimplelink.a(netcfg.o)
 .debug_abbrev  0x0000000000002691      0x1f1 ../../../../simplelink/gcc/lib/nonos/Release/libsimplelink.a(nonos.o)
 .debug_abbrev  0x0000000000002882      0x262 ../../../../simplelink/gcc/lib/nonos/Release/libsimplelink.a(fs.o)
 .debug_abbrev  0x0000000000002ae4      0x3a5 ../../../../simplelink/gcc/lib/nonos/Release/libsimplelink.a(socket.o)
 .debug_abbrev  0x0000000000002e89      0x291 ../../../../simplelink/gcc/lib/nonos/Release/libsimplelink.a(wlan.o)
 .debug_abbrev  0x000000000000311a      0x2eb ../../../../simplelink/gcc/lib/nonos/Release/libsimplelink.a(cc_pal.o)
 .debug_abbrev  0x0000000000003405      0x163 ../../../../driverlib/gcc/lib/Release/libdriver.a(gpio.o)
 .debug_abbrev  0x0000000000003568      0x178 ../../../../driverlib/gcc/lib/Release/libdriver.a(interrupt.o)
 .debug_abbrev  0x00000000000036e0      0x11f ../../../../driverlib/gcc/lib/Release/libdriver.a(pin.o)
 .debug_abbrev  0x00000000000037ff      0x31a ../../../../driverlib/gcc/lib/Release/libdriver.a(prcm.o)
 .debug_abbrev  0x0000000000003b19      0x1f4 ../../../../driverlib/gcc/lib/Release/libdriver.a(spi.o)
 .debug_abbrev  0x0000000000003d0d       0xda ../../../../driverlib/gcc/lib/Release/libdriver.a(systick.o)
 .debug_abbrev  0x0000000000003de7      0x100 ../../../../driverlib/gcc/lib/Release/libdriver.a(timer.o)
 .debug_abbrev  0x0000000000003ee7       0x48 ../../../../driverlib/gcc/lib/Release/libdriver.a(utils.o)
 .debug_abbrev  0x0000000000003f2f      0x15f /usr/lib/gcc/arm-none-eabi/5.2.0/../../../../arm-none-eabi/lib/armv7e-m/libc_nano.a(lib_a-atol.o)
 .debug_abbrev  0x000000000000408e      0x18a /usr/lib/gcc/arm-none-eabi/5.2.0/../../../../arm-none-eabi/lib/armv7e-m/libc_nano.a(lib_a-malloc.o)
 .debug_abbrev  0x0000000000004218       0xab /usr/lib/gcc/arm-none-eabi/5.2.0/../../../../arm-none-eabi/lib/armv7e-m/libc_nano.a(lib_a-memcpy.o)
 .debug_abbrev  0x00000000000042c3       0x9c /usr/lib/gcc/arm-none-eabi/5.2.0/../../../../arm-none-eabi/lib/armv7e-m/libc_nano.a(lib_a-memmove.o)
 .debug_abbrev  0x000000000000435f       0x8e /usr/lib/gcc/arm-none-eabi/5.2.0/../../../../arm-none-eabi/lib/armv7e-m/libc_nano.a(lib_a-memset.o)
 .debug_abbrev  0x00000000000043ed      0x1b6 /usr/lib/gcc/arm-none-eabi/5.2.0/../../../../arm-none-eabi/lib/armv7e-m/libc_nano.a(lib_a-nano-freer.o)
 .debug_abbrev  0x00000000000045a3      0x24e /usr/lib/gcc/arm-none-eabi/5.2.0/../../../../arm-none-eabi/lib/armv7e-m/libc_nano.a(lib_a-nano-mallocr.o)
 .debug_abbrev  0x00000000000047f1      0x17f /usr/lib/gcc/arm-none-eabi/5.2.0/../../../../arm-none-eabi/lib/armv7e-m/libc_nano.a(lib_a-realloc.o)
 .debug_abbrev  0x0000000000004970      0x1a0 /usr/lib/gcc/arm-none-eabi/5.2.0/../../../../arm-none-eabi/lib/armv7e-m/libc_nano.a(lib_a-sbrkr.o)
 .debug_abbrev  0x0000000000004b10      0x1c2 /usr/lib/gcc/arm-none-eabi/5.2.0/../../../../arm-none-eabi/lib/armv7e-m/libc_nano.a(lib_a-snprintf.o)
 .debug_abbrev  0x0000000000004cd2      0x1c0 /usr/lib/gcc/arm-none-eabi/5.2.0/../../../../arm-none-eabi/lib/armv7e-m/libc_nano.a(lib_a-sprintf.o)
 .debug_abbrev  0x0000000000004e92       0x7b /usr/lib/gcc/arm-none-eabi/5.2.0/../../../../arm-none-eabi/lib/armv7e-m/libc_nano.a(lib_a-strcat.o)
 .debug_abbrev  0x0000000000004f0d       0x83 /usr/lib/gcc/arm-none-eabi/5.2.0/../../../../arm-none-eabi/lib/armv7e-m/libc_nano.a(lib_a-strchr.o)
 .debug_abbrev  0x0000000000004f90       0x14 /usr/lib/gcc/arm-none-eabi/5.2.0/../../../../arm-none-eabi/lib/armv7e-m/libc_nano.a(lib_a-strcmp.o)
 .debug_abbrev  0x0000000000004fa4       0x72 /usr/lib/gcc/arm-none-eabi/5.2.0/../../../../arm-none-eabi/lib/armv7e-m/libc_nano.a(lib_a-strcpy.o)
 .debug_abbrev  0x0000000000005016       0x8c /usr/lib/gcc/arm-none-eabi/5.2.0/../../../../arm-none-eabi/lib/armv7e-m/libc_nano.a(lib_a-strlen.o)
 .debug_abbrev  0x00000000000050a2       0x70 /usr/lib/gcc/arm-none-eabi/5.2.0/../../../../arm-none-eabi/lib/armv7e-m/libc_nano.a(lib_a-strncmp.o)
 .debug_abbrev  0x0000000000005112       0x97 /usr/lib/gcc/arm-none-eabi/5.2.0/../../../../arm-none-eabi/lib/armv7e-m/libc_nano.a(lib_a-strncpy.o)
 .debug_abbrev  0x00000000000051a9       0x93 /usr/lib/gcc/arm-none-eabi/5.2.0/../../../../arm-none-eabi/lib/armv7e-m/libc_nano.a(lib_a-strstr.o)
 .debug_abbrev  0x000000000000523c      0x1b3 /usr/lib/gcc/arm-none-eabi/5.2.0/../../../../arm-none-eabi/lib/armv7e-m/libc_nano.a(lib_a-strtol.o)
 .debug_abbrev  0x00000000000053ef      0x1bd /usr/lib/gcc/arm-none-eabi/5.2.0/../../../../arm-none-eabi/lib/armv7e-m/libc_nano.a(lib_a-vsnprintf.o)
 .debug_abbrev  0x00000000000055ac       0x4e /usr/lib/gcc/arm-none-eabi/5.2.0/../../../../arm-none-eabi/lib/armv7e-m/libc_nano.a(lib_a-ctype_.o)
 .debug_abbrev  0x00000000000055fa      0x136 /usr/lib/gcc/arm-none-eabi/5.2.0/../../../../arm-none-eabi/lib/armv7e-m/libc_nano.a(lib_a-impure.o)
 .debug_abbrev  0x0000000000005730      0x1af /usr/lib/gcc/arm-none-eabi/5.2.0/../../../../arm-none-eabi/lib/armv7e-m/libc_nano.a(lib_a-nano-reallocr.o)
 .debug_abbrev  0x00000000000058df      0x23f /usr/lib/gcc/arm-none-eabi/5.2.0/../../../../arm-none-eabi/lib/armv7e-m/libc_nano.a(lib_a-nano-svfprintf.o)
 .debug_abbrev  0x0000000000005b1e      0x1f4 /usr/lib/gcc/arm-none-eabi/5.2.0/../../../../arm-none-eabi/lib/armv7e-m/libc_nano.a(lib_a-nano-vfprintf_i.o)
 .debug_abbrev  0x0000000000005d12      0x1f2 /usr/lib/gcc/arm-none-eabi/5.2.0/../../../../arm-none-eabi/lib/armv7e-m/libc_nano.a(lib_a-reent.o)
 .debug_abbrev  0x0000000000005f04       0xab /usr/lib/gcc/arm-none-eabi/5.2.0/../../../../arm-none-eabi/lib/armv7e-m/libc_nano.a(lib_a-memchr.o)
 .debug_abbrev  0x0000000000005faf      0x161 /usr/lib/gcc/arm-none-eabi/5.2.0/../../../../arm-none-eabi/lib/armv7e-m/libc_nano.a(lib_a-nano-msizer.o)

.debug_loc      0x0000000000000000     0xe4bc
 .debug_loc     0x0000000000000000      0x68d obj/Release/main.o
 .debug_loc     0x000000000000068d      0x2ca obj/Release/net.o
 .debug_loc     0x0000000000000957      0x146 obj/Release/task.o
 .debug_loc     0x0000000000000a9d      0x2be obj/Release/uart_if.o
 .debug_loc     0x0000000000000d5b      0x11b obj/Release/button_if.o
 .debug_loc     0x0000000000000e76      0x357 obj/Release/udma_if.o
 .debug_loc     0x00000000000011cd       0x65 obj/Release/startup_gcc.o
 .debug_loc     0x0000000000001232      0x70f ../../../../simplelink_extlib/ota/gcc/lib/Release/ota.a(OtaApp.o)
 .debug_loc     0x0000000000001941      0x774 ../../../../simplelink_extlib/ota/gcc/lib/Release/ota.a(OtaClient.o)
 .debug_loc     0x00000000000020b5      0xb7b ../../../../simplelink_extlib/ota/gcc/lib/Release/ota.a(OtaHttp.o)
 .debug_loc     0x0000000000002c30      0x6c0 ../../../../simplelink_extlib/ota/gcc/lib/Release/ota.a(CdnClient.o)
 .debug_loc     0x00000000000032f0      0x335 ../../../../simplelink_extlib/ota/gcc/lib/Release/ota.a(LogClient.o)
 .debug_loc     0x0000000000003625      0x3fb ../../../../simplelink_extlib/flc/gcc/lib/Release/flc.a(flc.o)
 .debug_loc     0x0000000000003a20      0x79f ../../../../simplelink/gcc/lib/nonos/Release/libsimplelink.a(device.o)
 .debug_loc     0x00000000000041bf     0x16b1 ../../../../simplelink/gcc/lib/nonos/Release/libsimplelink.a(driver.o)
 .debug_loc     0x0000000000005870     0x119e ../../../../simplelink/gcc/lib/nonos/Release/libsimplelink.a(netapp.o)
 .debug_loc     0x0000000000006a0e      0x203 ../../../../simplelink/gcc/lib/nonos/Release/libsimplelink.a(netcfg.o)
 .debug_loc     0x0000000000006c11      0x1aa ../../../../simplelink/gcc/lib/nonos/Release/libsimplelink.a(nonos.o)
 .debug_loc     0x0000000000006dbb      0x6df ../../../../simplelink/gcc/lib/nonos/Release/libsimplelink.a(fs.o)
 .debug_loc     0x000000000000749a      0xfab ../../../../simplelink/gcc/lib/nonos/Release/libsimplelink.a(socket.o)
 .debug_loc     0x0000000000008445      0xf55 ../../../../simplelink/gcc/lib/nonos/Release/libsimplelink.a(wlan.o)
 .debug_loc     0x000000000000939a      0x8e9 ../../../../simplelink/gcc/lib/nonos/Release/libsimplelink.a(cc_pal.o)
 .debug_loc     0x0000000000009c83      0x31c ../../../../driverlib/gcc/lib/Release/libdriver.a(gpio.o)
 .debug_loc     0x0000000000009f9f      0x165 ../../../../driverlib/gcc/lib/Release/libdriver.a(interrupt.o)
 .debug_loc     0x000000000000a104      0x514 ../../../../driverlib/gcc/lib/Release/libdriver.a(pin.o)
 .debug_loc     0x000000000000a618      0xfa1 ../../../../driverlib/gcc/lib/Release/libdriver.a(prcm.o)
 .debug_loc     0x000000000000b5b9      0xbbe ../../../../driverlib/gcc/lib/Release/libdriver.a(spi.o)
 .debug_loc     0x000000000000c177       0x4c ../../../../driverlib/gcc/lib/Release/libdriver.a(systick.o)
 .debug_loc     0x000000000000c1c3      0x465 ../../../../driverlib/gcc/lib/Release/libdriver.a(timer.o)
 .debug_loc     0x000000000000c628       0x63 /usr/lib/gcc/arm-none-eabi/5.2.0/../../../../arm-none-eabi/lib/armv7e-m/libc_nano.a(lib_a-atol.o)
 .debug_loc     0x000000000000c68b       0x58 /usr/lib/gcc/arm-none-eabi/5.2.0/../../../../arm-none-eabi/lib/armv7e-m/libc_nano.a(lib_a-malloc.o)
 .debug_loc     0x000000000000c6e3       0x87 /usr/lib/gcc/arm-none-eabi/5.2.0/../../../../arm-none-eabi/lib/armv7e-m/libc_nano.a(lib_a-memcpy.o)
 .debug_loc     0x000000000000c76a       0xde /usr/lib/gcc/arm-none-eabi/5.2.0/../../../../arm-none-eabi/lib/armv7e-m/libc_nano.a(lib_a-memmove.o)
 .debug_loc     0x000000000000c848       0x57 /usr/lib/gcc/arm-none-eabi/5.2.0/../../../../arm-none-eabi/lib/armv7e-m/libc_nano.a(lib_a-memset.o)
 .debug_loc     0x000000000000c89f      0x172 /usr/lib/gcc/arm-none-eabi/5.2.0/../../../../arm-none-eabi/lib/armv7e-m/libc_nano.a(lib_a-nano-freer.o)
 .debug_loc     0x000000000000ca11      0x311 /usr/lib/gcc/arm-none-eabi/5.2.0/../../../../arm-none-eabi/lib/armv7e-m/libc_nano.a(lib_a-nano-mallocr.o)
 .debug_loc     0x000000000000cd22       0x58 /usr/lib/gcc/arm-none-eabi/5.2.0/../../../../arm-none-eabi/lib/armv7e-m/libc_nano.a(lib_a-realloc.o)
 .debug_loc     0x000000000000cd7a       0x4d /usr/lib/gcc/arm-none-eabi/5.2.0/../../../../arm-none-eabi/lib/armv7e-m/libc_nano.a(lib_a-sbrkr.o)
 .debug_loc     0x000000000000cdc7      0x146 /usr/lib/gcc/arm-none-eabi/5.2.0/../../../../arm-none-eabi/lib/armv7e-m/libc_nano.a(lib_a-snprintf.o)
 .debug_loc     0x000000000000cf0d       0x95 /usr/lib/gcc/arm-none-eabi/5.2.0/../../../../arm-none-eabi/lib/armv7e-m/libc_nano.a(lib_a-sprintf.o)
 .debug_loc     0x000000000000cfa2       0x54 /usr/lib/gcc/arm-none-eabi/5.2.0/../../../../arm-none-eabi/lib/armv7e-m/libc_nano.a(lib_a-strcat.o)
 .debug_loc     0x000000000000cff6       0x6b /usr/lib/gcc/arm-none-eabi/5.2.0/../../../../arm-none-eabi/lib/armv7e-m/libc_nano.a(lib_a-strchr.o)
 .debug_loc     0x000000000000d061       0x21 /usr/lib/gcc/arm-none-eabi/5.2.0/../../../../arm-none-eabi/lib/armv7e-m/libc_nano.a(lib_a-strcpy.o)
 .debug_loc     0x000000000000d082       0x21 /usr/lib/gcc/arm-none-eabi/5.2.0/../../../../arm-none-eabi/lib/armv7e-m/libc_nano.a(lib_a-strlen.o)
 .debug_loc     0x000000000000d0a3       0x80 /usr/lib/gcc/arm-none-eabi/5.2.0/../../../../arm-none-eabi/lib/armv7e-m/libc_nano.a(lib_a-strncmp.o)
 .debug_loc     0x000000000000d123       0xdb /usr/lib/gcc/arm-none-eabi/5.2.0/../../../../arm-none-eabi/lib/armv7e-m/libc_nano.a(lib_a-strncpy.o)
 .debug_loc     0x000000000000d1fe       0x42 /usr/lib/gcc/arm-none-eabi/5.2.0/../../../../arm-none-eabi/lib/armv7e-m/libc_nano.a(lib_a-strstr.o)
 .debug_loc     0x000000000000d240      0x32b /usr/lib/gcc/arm-none-eabi/5.2.0/../../../../arm-none-eabi/lib/armv7e-m/libc_nano.a(lib_a-strtol.o)
 .debug_loc     0x000000000000d56b      0x163 /usr/lib/gcc/arm-none-eabi/5.2.0/../../../../arm-none-eabi/lib/armv7e-m/libc_nano.a(lib_a-vsnprintf.o)
 .debug_loc     0x000000000000d6ce      0x11b /usr/lib/gcc/arm-none-eabi/5.2.0/../../../../arm-none-eabi/lib/armv7e-m/libc_nano.a(lib_a-nano-reallocr.o)
 .debug_loc     0x000000000000d7e9      0x54e /usr/lib/gcc/arm-none-eabi/5.2.0/../../../../arm-none-eabi/lib/armv7e-m/libc_nano.a(lib_a-nano-svfprintf.o)
 .debug_loc     0x000000000000dd37      0x52c /usr/lib/gcc/arm-none-eabi/5.2.0/../../../../arm-none-eabi/lib/armv7e-m/libc_nano.a(lib_a-nano-vfprintf_i.o)
 .debug_loc     0x000000000000e263       0xfa /usr/lib/gcc/arm-none-eabi/5.2.0/../../../../arm-none-eabi/lib/armv7e-m/libc_nano.a(lib_a-reent.o)
 .debug_loc     0x000000000000e35d       0xaa /usr/lib/gcc/arm-none-eabi/5.2.0/../../../../arm-none-eabi/lib/armv7e-m/libc_nano.a(lib_a-memchr.o)
 .debug_loc     0x000000000000e407       0xb5 /usr/lib/gcc/arm-none-eabi/5.2.0/../../../../arm-none-eabi/lib/armv7e-m/libc_nano.a(lib_a-nano-msizer.o)

.debug_aranges  0x0000000000000000     0x1310
 .debug_aranges
                0x0000000000000000       0x78 obj/Release/main.o
 .debug_aranges
                0x0000000000000078       0x20 obj/Release/pinmux.o
 .debug_aranges
                0x0000000000000098       0x70 obj/Release/net.o
 .debug_aranges
                0x0000000000000108       0x50 obj/Release/task.o
 .debug_aranges
                0x0000000000000158       0x50 obj/Release/uart_if.o
 .debug_aranges
                0x00000000000001a8       0x40 obj/Release/button_if.o
 .debug_aranges
                0x00000000000001e8       0x68 obj/Release/udma_if.o
 .debug_aranges
                0x0000000000000250       0x48 obj/Release/startup_gcc.o
 .debug_aranges
                0x0000000000000298       0x58 ../../../../simplelink_extlib/ota/gcc/lib/Release/ota.a(OtaApp.o)
 .debug_aranges
                0x00000000000002f0       0x68 ../../../../simplelink_extlib/ota/gcc/lib/Release/ota.a(OtaClient.o)
 .debug_aranges
                0x0000000000000358       0x70 ../../../../simplelink_extlib/ota/gcc/lib/Release/ota.a(OtaHttp.o)
 .debug_aranges
                0x00000000000003c8       0x60 ../../../../simplelink_extlib/ota/gcc/lib/Release/ota.a(CdnClient.o)
 .debug_aranges
                0x0000000000000428       0x40 ../../../../simplelink_extlib/ota/gcc/lib/Release/ota.a(LogClient.o)
 .debug_aranges
                0x0000000000000468       0x68 ../../../../simplelink_extlib/flc/gcc/lib/Release/flc.a(flc.o)
 .debug_aranges
                0x00000000000004d0       0x70 ../../../../simplelink/gcc/lib/nonos/Release/libsimplelink.a(device.o)
 .debug_aranges
                0x0000000000000540      0x118 ../../../../simplelink/gcc/lib/nonos/Release/libsimplelink.a(driver.o)
 .debug_aranges
                0x0000000000000658       0xa0 ../../../../simplelink/gcc/lib/nonos/Release/libsimplelink.a(netapp.o)
 .debug_aranges
                0x00000000000006f8       0x28 ../../../../simplelink/gcc/lib/nonos/Release/libsimplelink.a(netcfg.o)
 .debug_aranges
                0x0000000000000720       0x38 ../../../../simplelink/gcc/lib/nonos/Release/libsimplelink.a(nonos.o)
 .debug_aranges
                0x0000000000000758       0x58 ../../../../simplelink/gcc/lib/nonos/Release/libsimplelink.a(fs.o)
 .debug_aranges
                0x00000000000007b0       0xd8 ../../../../simplelink/gcc/lib/nonos/Release/libsimplelink.a(socket.o)
 .debug_aranges
                0x0000000000000888       0xb0 ../../../../simplelink/gcc/lib/nonos/Release/libsimplelink.a(wlan.o)
 .debug_aranges
                0x0000000000000938       0xa8 ../../../../simplelink/gcc/lib/nonos/Release/libsimplelink.a(cc_pal.o)
 .debug_aranges
                0x00000000000009e0       0x90 ../../../../driverlib/gcc/lib/Release/libdriver.a(gpio.o)
 .debug_aranges
                0x0000000000000a70       0x98 ../../../../driverlib/gcc/lib/Release/libdriver.a(interrupt.o)
 .debug_aranges
                0x0000000000000b08       0x70 ../../../../driverlib/gcc/lib/Release/libdriver.a(pin.o)
 .debug_aranges
                0x0000000000000b78      0x190 ../../../../driverlib/gcc/lib/Release/libdriver.a(prcm.o)
 .debug_aranges
                0x0000000000000d08       0xd0 ../../../../driverlib/gcc/lib/Release/libdriver.a(spi.o)
 .debug_aranges
                0x0000000000000dd8       0x60 ../../../../driverlib/gcc/lib/Release/libdriver.a(systick.o)
 .debug_aranges
                0x0000000000000e38       0xd8 ../../../../driverlib/gcc/lib/Release/libdriver.a(timer.o)
 .debug_aranges
                0x0000000000000f10       0x20 ../../../../driverlib/gcc/lib/Release/libdriver.a(utils.o)
 .debug_aranges
                0x0000000000000f30       0x28 /usr/lib/gcc/arm-none-eabi/5.2.0/../../../../arm-none-eabi/lib/armv7e-m/libc_nano.a(lib_a-atol.o)
 .debug_aranges
                0x0000000000000f58       0x28 /usr/lib/gcc/arm-none-eabi/5.2.0/../../../../arm-none-eabi/lib/armv7e-m/libc_nano.a(lib_a-malloc.o)
 .debug_aranges
                0x0000000000000f80       0x20 /usr/lib/gcc/arm-none-eabi/5.2.0/../../../../arm-none-eabi/lib/armv7e-m/libc_nano.a(lib_a-memcpy.o)
 .debug_aranges
                0x0000000000000fa0       0x20 /usr/lib/gcc/arm-none-eabi/5.2.0/../../../../arm-none-eabi/lib/armv7e-m/libc_nano.a(lib_a-memmove.o)
 .debug_aranges
                0x0000000000000fc0       0x20 /usr/lib/gcc/arm-none-eabi/5.2.0/../../../../arm-none-eabi/lib/armv7e-m/libc_nano.a(lib_a-memset.o)
 .debug_aranges
                0x0000000000000fe0       0x20 /usr/lib/gcc/arm-none-eabi/5.2.0/../../../../arm-none-eabi/lib/armv7e-m/libc_nano.a(lib_a-nano-freer.o)
 .debug_aranges
                0x0000000000001000       0x20 /usr/lib/gcc/arm-none-eabi/5.2.0/../../../../arm-none-eabi/lib/armv7e-m/libc_nano.a(lib_a-nano-mallocr.o)
 .debug_aranges
                0x0000000000001020       0x20 /usr/lib/gcc/arm-none-eabi/5.2.0/../../../../arm-none-eabi/lib/armv7e-m/libc_nano.a(lib_a-realloc.o)
 .debug_aranges
                0x0000000000001040       0x20 /usr/lib/gcc/arm-none-eabi/5.2.0/../../../../arm-none-eabi/lib/armv7e-m/libc_nano.a(lib_a-sbrkr.o)
 .debug_aranges
                0x0000000000001060       0x28 /usr/lib/gcc/arm-none-eabi/5.2.0/../../../../arm-none-eabi/lib/armv7e-m/libc_nano.a(lib_a-snprintf.o)
 .debug_aranges
                0x0000000000001088       0x28 /usr/lib/gcc/arm-none-eabi/5.2.0/../../../../arm-none-eabi/lib/armv7e-m/libc_nano.a(lib_a-sprintf.o)
 .debug_aranges
                0x00000000000010b0       0x20 /usr/lib/gcc/arm-none-eabi/5.2.0/../../../../arm-none-eabi/lib/armv7e-m/libc_nano.a(lib_a-strcat.o)
 .debug_aranges
                0x00000000000010d0       0x20 /usr/lib/gcc/arm-none-eabi/5.2.0/../../../../arm-none-eabi/lib/armv7e-m/libc_nano.a(lib_a-strchr.o)
 .debug_aranges
                0x00000000000010f0       0x20 /usr/lib/gcc/arm-none-eabi/5.2.0/../../../../arm-none-eabi/lib/armv7e-m/libc_nano.a(lib_a-strcmp.o)
 .debug_aranges
                0x0000000000001110       0x20 /usr/lib/gcc/arm-none-eabi/5.2.0/../../../../arm-none-eabi/lib/armv7e-m/libc_nano.a(lib_a-strcpy.o)
 .debug_aranges
                0x0000000000001130       0x20 /usr/lib/gcc/arm-none-eabi/5.2.0/../../../../arm-none-eabi/lib/armv7e-m/libc_nano.a(lib_a-strlen.o)
 .debug_aranges
                0x0000000000001150       0x20 /usr/lib/gcc/arm-none-eabi/5.2.0/../../../../arm-none-eabi/lib/armv7e-m/libc_nano.a(lib_a-strncmp.o)
 .debug_aranges
                0x0000000000001170       0x20 /usr/lib/gcc/arm-none-eabi/5.2.0/../../../../arm-none-eabi/lib/armv7e-m/libc_nano.a(lib_a-strncpy.o)
 .debug_aranges
                0x0000000000001190       0x20 /usr/lib/gcc/arm-none-eabi/5.2.0/../../../../arm-none-eabi/lib/armv7e-m/libc_nano.a(lib_a-strstr.o)
 .debug_aranges
                0x00000000000011b0       0x28 /usr/lib/gcc/arm-none-eabi/5.2.0/../../../../arm-none-eabi/lib/armv7e-m/libc_nano.a(lib_a-strtol.o)
 .debug_aranges
                0x00000000000011d8       0x28 /usr/lib/gcc/arm-none-eabi/5.2.0/../../../../arm-none-eabi/lib/armv7e-m/libc_nano.a(lib_a-vsnprintf.o)
 .debug_aranges
                0x0000000000001200       0x18 /usr/lib/gcc/arm-none-eabi/5.2.0/../../../../arm-none-eabi/lib/armv7e-m/libc_nano.a(lib_a-ctype_.o)
 .debug_aranges
                0x0000000000001218       0x18 /usr/lib/gcc/arm-none-eabi/5.2.0/../../../../arm-none-eabi/lib/armv7e-m/libc_nano.a(lib_a-impure.o)
 .debug_aranges
                0x0000000000001230       0x20 /usr/lib/gcc/arm-none-eabi/5.2.0/../../../../arm-none-eabi/lib/armv7e-m/libc_nano.a(lib_a-nano-reallocr.o)
 .debug_aranges
                0x0000000000001250       0x30 /usr/lib/gcc/arm-none-eabi/5.2.0/../../../../arm-none-eabi/lib/armv7e-m/libc_nano.a(lib_a-nano-svfprintf.o)
 .debug_aranges
                0x0000000000001280       0x28 /usr/lib/gcc/arm-none-eabi/5.2.0/../../../../arm-none-eabi/lib/armv7e-m/libc_nano.a(lib_a-nano-vfprintf_i.o)
 .debug_aranges
                0x00000000000012a8       0x28 /usr/lib/gcc/arm-none-eabi/5.2.0/../../../../arm-none-eabi/lib/armv7e-m/libc_nano.a(lib_a-reent.o)
 .debug_aranges
                0x00000000000012d0       0x20 /usr/lib/gcc/arm-none-eabi/5.2.0/../../../../arm-none-eabi/lib/armv7e-m/libc_nano.a(lib_a-memchr.o)
 .debug_aranges
                0x00000000000012f0       0x20 /usr/lib/gcc/arm-none-eabi/5.2.0/../../../../arm-none-eabi/lib/armv7e-m/libc_nano.a(lib_a-nano-msizer.o)

.debug_ranges   0x0000000000000000     0x18b8
 .debug_ranges  0x0000000000000000       0x88 obj/Release/main.o
 .debug_ranges  0x0000000000000088       0x10 obj/Release/pinmux.o
 .debug_ranges  0x0000000000000098       0x60 obj/Release/net.o
 .debug_ranges  0x00000000000000f8       0x40 obj/Release/task.o
 .debug_ranges  0x0000000000000138       0x40 obj/Release/uart_if.o
 .debug_ranges  0x0000000000000178       0x78 obj/Release/button_if.o
 .debug_ranges  0x00000000000001f0       0x58 obj/Release/udma_if.o
 .debug_ranges  0x0000000000000248       0x38 obj/Release/startup_gcc.o
 .debug_ranges  0x0000000000000280       0x48 ../../../../simplelink_extlib/ota/gcc/lib/Release/ota.a(OtaApp.o)
 .debug_ranges  0x00000000000002c8       0x58 ../../../../simplelink_extlib/ota/gcc/lib/Release/ota.a(OtaClient.o)
 .debug_ranges  0x0000000000000320       0x78 ../../../../simplelink_extlib/ota/gcc/lib/Release/ota.a(OtaHttp.o)
 .debug_ranges  0x0000000000000398       0x50 ../../../../simplelink_extlib/ota/gcc/lib/Release/ota.a(CdnClient.o)
 .debug_ranges  0x00000000000003e8       0x30 ../../../../simplelink_extlib/ota/gcc/lib/Release/ota.a(LogClient.o)
 .debug_ranges  0x0000000000000418       0x58 ../../../../simplelink_extlib/flc/gcc/lib/Release/flc.a(flc.o)
 .debug_ranges  0x0000000000000470       0xe8 ../../../../simplelink/gcc/lib/nonos/Release/libsimplelink.a(device.o)
 .debug_ranges  0x0000000000000558      0x2b8 ../../../../simplelink/gcc/lib/nonos/Release/libsimplelink.a(driver.o)
 .debug_ranges  0x0000000000000810      0x128 ../../../../simplelink/gcc/lib/nonos/Release/libsimplelink.a(netapp.o)
 .debug_ranges  0x0000000000000938       0x30 ../../../../simplelink/gcc/lib/nonos/Release/libsimplelink.a(netcfg.o)
 .debug_ranges  0x0000000000000968       0x58 ../../../../simplelink/gcc/lib/nonos/Release/libsimplelink.a(nonos.o)
 .debug_ranges  0x00000000000009c0       0x78 ../../../../simplelink/gcc/lib/nonos/Release/libsimplelink.a(fs.o)
 .debug_ranges  0x0000000000000a38      0x150 ../../../../simplelink/gcc/lib/nonos/Release/libsimplelink.a(socket.o)
 .debug_ranges  0x0000000000000b88      0x180 ../../../../simplelink/gcc/lib/nonos/Release/libsimplelink.a(wlan.o)
 .debug_ranges  0x0000000000000d08       0xf8 ../../../../simplelink/gcc/lib/nonos/Release/libsimplelink.a(cc_pal.o)
 .debug_ranges  0x0000000000000e00       0x80 ../../../../driverlib/gcc/lib/Release/libdriver.a(gpio.o)
 .debug_ranges  0x0000000000000e80       0x88 ../../../../driverlib/gcc/lib/Release/libdriver.a(interrupt.o)
 .debug_ranges  0x0000000000000f08       0x60 ../../../../driverlib/gcc/lib/Release/libdriver.a(pin.o)
 .debug_ranges  0x0000000000000f68      0x480 ../../../../driverlib/gcc/lib/Release/libdriver.a(prcm.o)
 .debug_ranges  0x00000000000013e8       0xf0 ../../../../driverlib/gcc/lib/Release/libdriver.a(spi.o)
 .debug_ranges  0x00000000000014d8       0x50 ../../../../driverlib/gcc/lib/Release/libdriver.a(systick.o)
 .debug_ranges  0x0000000000001528       0xc8 ../../../../driverlib/gcc/lib/Release/libdriver.a(timer.o)
 .debug_ranges  0x00000000000015f0       0x10 ../../../../driverlib/gcc/lib/Release/libdriver.a(utils.o)
 .debug_ranges  0x0000000000001600       0x18 /usr/lib/gcc/arm-none-eabi/5.2.0/../../../../arm-none-eabi/lib/armv7e-m/libc_nano.a(lib_a-atol.o)
 .debug_ranges  0x0000000000001618       0x18 /usr/lib/gcc/arm-none-eabi/5.2.0/../../../../arm-none-eabi/lib/armv7e-m/libc_nano.a(lib_a-malloc.o)
 .debug_ranges  0x0000000000001630       0x10 /usr/lib/gcc/arm-none-eabi/5.2.0/../../../../arm-none-eabi/lib/armv7e-m/libc_nano.a(lib_a-memcpy.o)
 .debug_ranges  0x0000000000001640       0x10 /usr/lib/gcc/arm-none-eabi/5.2.0/../../../../arm-none-eabi/lib/armv7e-m/libc_nano.a(lib_a-memmove.o)
 .debug_ranges  0x0000000000001650       0x10 /usr/lib/gcc/arm-none-eabi/5.2.0/../../../../arm-none-eabi/lib/armv7e-m/libc_nano.a(lib_a-memset.o)
 .debug_ranges  0x0000000000001660       0x28 /usr/lib/gcc/arm-none-eabi/5.2.0/../../../../arm-none-eabi/lib/armv7e-m/libc_nano.a(lib_a-nano-freer.o)
 .debug_ranges  0x0000000000001688       0x28 /usr/lib/gcc/arm-none-eabi/5.2.0/../../../../arm-none-eabi/lib/armv7e-m/libc_nano.a(lib_a-nano-mallocr.o)
 .debug_ranges  0x00000000000016b0       0x10 /usr/lib/gcc/arm-none-eabi/5.2.0/../../../../arm-none-eabi/lib/armv7e-m/libc_nano.a(lib_a-realloc.o)
 .debug_ranges  0x00000000000016c0       0x10 /usr/lib/gcc/arm-none-eabi/5.2.0/../../../../arm-none-eabi/lib/armv7e-m/libc_nano.a(lib_a-sbrkr.o)
 .debug_ranges  0x00000000000016d0       0x18 /usr/lib/gcc/arm-none-eabi/5.2.0/../../../../arm-none-eabi/lib/armv7e-m/libc_nano.a(lib_a-snprintf.o)
 .debug_ranges  0x00000000000016e8       0x18 /usr/lib/gcc/arm-none-eabi/5.2.0/../../../../arm-none-eabi/lib/armv7e-m/libc_nano.a(lib_a-sprintf.o)
 .debug_ranges  0x0000000000001700       0x10 /usr/lib/gcc/arm-none-eabi/5.2.0/../../../../arm-none-eabi/lib/armv7e-m/libc_nano.a(lib_a-strcat.o)
 .debug_ranges  0x0000000000001710       0x10 /usr/lib/gcc/arm-none-eabi/5.2.0/../../../../arm-none-eabi/lib/armv7e-m/libc_nano.a(lib_a-strchr.o)
 .debug_ranges  0x0000000000001720       0x10 /usr/lib/gcc/arm-none-eabi/5.2.0/../../../../arm-none-eabi/lib/armv7e-m/libc_nano.a(lib_a-strcpy.o)
 .debug_ranges  0x0000000000001730       0x10 /usr/lib/gcc/arm-none-eabi/5.2.0/../../../../arm-none-eabi/lib/armv7e-m/libc_nano.a(lib_a-strlen.o)
 .debug_ranges  0x0000000000001740       0x10 /usr/lib/gcc/arm-none-eabi/5.2.0/../../../../arm-none-eabi/lib/armv7e-m/libc_nano.a(lib_a-strncmp.o)
 .debug_ranges  0x0000000000001750       0x10 /usr/lib/gcc/arm-none-eabi/5.2.0/../../../../arm-none-eabi/lib/armv7e-m/libc_nano.a(lib_a-strncpy.o)
 .debug_ranges  0x0000000000001760       0x28 /usr/lib/gcc/arm-none-eabi/5.2.0/../../../../arm-none-eabi/lib/armv7e-m/libc_nano.a(lib_a-strstr.o)
 .debug_ranges  0x0000000000001788       0x18 /usr/lib/gcc/arm-none-eabi/5.2.0/../../../../arm-none-eabi/lib/armv7e-m/libc_nano.a(lib_a-strtol.o)
 .debug_ranges  0x00000000000017a0       0x18 /usr/lib/gcc/arm-none-eabi/5.2.0/../../../../arm-none-eabi/lib/armv7e-m/libc_nano.a(lib_a-vsnprintf.o)
 .debug_ranges  0x00000000000017b8       0x10 /usr/lib/gcc/arm-none-eabi/5.2.0/../../../../arm-none-eabi/lib/armv7e-m/libc_nano.a(lib_a-nano-reallocr.o)
 .debug_ranges  0x00000000000017c8       0x50 /usr/lib/gcc/arm-none-eabi/5.2.0/../../../../arm-none-eabi/lib/armv7e-m/libc_nano.a(lib_a-nano-svfprintf.o)
 .debug_ranges  0x0000000000001818       0x68 /usr/lib/gcc/arm-none-eabi/5.2.0/../../../../arm-none-eabi/lib/armv7e-m/libc_nano.a(lib_a-nano-vfprintf_i.o)
 .debug_ranges  0x0000000000001880       0x18 /usr/lib/gcc/arm-none-eabi/5.2.0/../../../../arm-none-eabi/lib/armv7e-m/libc_nano.a(lib_a-reent.o)
 .debug_ranges  0x0000000000001898       0x10 /usr/lib/gcc/arm-none-eabi/5.2.0/../../../../arm-none-eabi/lib/armv7e-m/libc_nano.a(lib_a-memchr.o)
 .debug_ranges  0x00000000000018a8       0x10 /usr/lib/gcc/arm-none-eabi/5.2.0/../../../../arm-none-eabi/lib/armv7e-m/libc_nano.a(lib_a-nano-msizer.o)

.debug_line     0x0000000000000000     0x6d40
 .debug_line    0x0000000000000000      0x481 obj/Release/main.o
 .debug_line    0x0000000000000481       0x79 obj/Release/pinmux.o
 .debug_line    0x00000000000004fa      0x272 obj/Release/net.o
 .debug_line    0x000000000000076c      0x109 obj/Release/task.o
 .debug_line    0x0000000000000875      0x1d4 obj/Release/uart_if.o
 .debug_line    0x0000000000000a49      0x112 obj/Release/button_if.o
 .debug_line    0x0000000000000b5b      0x172 obj/Release/udma_if.o
 .debug_line    0x0000000000000ccd      0x12a obj/Release/startup_gcc.o
 .debug_line    0x0000000000000df7      0x244 ../../../../simplelink_extlib/ota/gcc/lib/Release/ota.a(OtaApp.o)
 .debug_line    0x000000000000103b      0x23e ../../../../simplelink_extlib/ota/gcc/lib/Release/ota.a(OtaClient.o)
 .debug_line    0x0000000000001279      0x294 ../../../../simplelink_extlib/ota/gcc/lib/Release/ota.a(OtaHttp.o)
 .debug_line    0x000000000000150d      0x208 ../../../../simplelink_extlib/ota/gcc/lib/Release/ota.a(CdnClient.o)
 .debug_line    0x0000000000001715      0x151 ../../../../simplelink_extlib/ota/gcc/lib/Release/ota.a(LogClient.o)
 .debug_line    0x0000000000001866      0x163 ../../../../simplelink_extlib/flc/gcc/lib/Release/flc.a(flc.o)
 .debug_line    0x00000000000019c9      0x2a3 ../../../../simplelink/gcc/lib/nonos/Release/libsimplelink.a(device.o)
 .debug_line    0x0000000000001c6c      0x6e8 ../../../../simplelink/gcc/lib/nonos/Release/libsimplelink.a(driver.o)
 .debug_line    0x0000000000002354      0x426 ../../../../simplelink/gcc/lib/nonos/Release/libsimplelink.a(netapp.o)
 .debug_line    0x000000000000277a       0xdb ../../../../simplelink/gcc/lib/nonos/Release/libsimplelink.a(netcfg.o)
 .debug_line    0x0000000000002855      0x13d ../../../../simplelink/gcc/lib/nonos/Release/libsimplelink.a(nonos.o)
 .debug_line    0x0000000000002992      0x206 ../../../../simplelink/gcc/lib/nonos/Release/libsimplelink.a(fs.o)
 .debug_line    0x0000000000002b98      0x51c ../../../../simplelink/gcc/lib/nonos/Release/libsimplelink.a(socket.o)
 .debug_line    0x00000000000030b4      0x477 ../../../../simplelink/gcc/lib/nonos/Release/libsimplelink.a(wlan.o)
 .debug_line    0x000000000000352b      0x38f ../../../../simplelink/gcc/lib/nonos/Release/libsimplelink.a(cc_pal.o)
 .debug_line    0x00000000000038ba      0x1bf ../../../../driverlib/gcc/lib/Release/libdriver.a(gpio.o)
 .debug_line    0x0000000000003a79      0x1b7 ../../../../driverlib/gcc/lib/Release/libdriver.a(interrupt.o)
 .debug_line    0x0000000000003c30      0x13c ../../../../driverlib/gcc/lib/Release/libdriver.a(pin.o)
 .debug_line    0x0000000000003d6c      0x686 ../../../../driverlib/gcc/lib/Release/libdriver.a(prcm.o)
 .debug_line    0x00000000000043f2      0x336 ../../../../driverlib/gcc/lib/Release/libdriver.a(spi.o)
 .debug_line    0x0000000000004728       0xdb ../../../../driverlib/gcc/lib/Release/libdriver.a(systick.o)
 .debug_line    0x0000000000004803      0x2ac ../../../../driverlib/gcc/lib/Release/libdriver.a(timer.o)
 .debug_line    0x0000000000004aaf       0x3c ../../../../driverlib/gcc/lib/Release/libdriver.a(utils.o)
 .debug_line    0x0000000000004aeb      0x144 /usr/lib/gcc/arm-none-eabi/5.2.0/../../../../arm-none-eabi/lib/armv7e-m/libc_nano.a(lib_a-atol.o)
 .debug_line    0x0000000000004c2f      0x148 /usr/lib/gcc/arm-none-eabi/5.2.0/../../../../arm-none-eabi/lib/armv7e-m/libc_nano.a(lib_a-malloc.o)
 .debug_line    0x0000000000004d77       0xdc /usr/lib/gcc/arm-none-eabi/5.2.0/../../../../arm-none-eabi/lib/armv7e-m/libc_nano.a(lib_a-memcpy.o)
 .debug_line    0x0000000000004e53       0xe9 /usr/lib/gcc/arm-none-eabi/5.2.0/../../../../arm-none-eabi/lib/armv7e-m/libc_nano.a(lib_a-memmove.o)
 .debug_line    0x0000000000004f3c       0xdd /usr/lib/gcc/arm-none-eabi/5.2.0/../../../../arm-none-eabi/lib/armv7e-m/libc_nano.a(lib_a-memset.o)
 .debug_line    0x0000000000005019      0x13b /usr/lib/gcc/arm-none-eabi/5.2.0/../../../../arm-none-eabi/lib/armv7e-m/libc_nano.a(lib_a-nano-freer.o)
 .debug_line    0x0000000000005154      0x175 /usr/lib/gcc/arm-none-eabi/5.2.0/../../../../arm-none-eabi/lib/armv7e-m/libc_nano.a(lib_a-nano-mallocr.o)
 .debug_line    0x00000000000052c9      0x137 /usr/lib/gcc/arm-none-eabi/5.2.0/../../../../arm-none-eabi/lib/armv7e-m/libc_nano.a(lib_a-realloc.o)
 .debug_line    0x0000000000005400      0x140 /usr/lib/gcc/arm-none-eabi/5.2.0/../../../../arm-none-eabi/lib/armv7e-m/libc_nano.a(lib_a-sbrkr.o)
 .debug_line    0x0000000000005540      0x197 /usr/lib/gcc/arm-none-eabi/5.2.0/../../../../arm-none-eabi/lib/armv7e-m/libc_nano.a(lib_a-snprintf.o)
 .debug_line    0x00000000000056d7      0x190 /usr/lib/gcc/arm-none-eabi/5.2.0/../../../../arm-none-eabi/lib/armv7e-m/libc_nano.a(lib_a-sprintf.o)
 .debug_line    0x0000000000005867       0xac /usr/lib/gcc/arm-none-eabi/5.2.0/../../../../arm-none-eabi/lib/armv7e-m/libc_nano.a(lib_a-strcat.o)
 .debug_line    0x0000000000005913       0xaf /usr/lib/gcc/arm-none-eabi/5.2.0/../../../../arm-none-eabi/lib/armv7e-m/libc_nano.a(lib_a-strchr.o)
 .debug_line    0x00000000000059c2       0x75 /usr/lib/gcc/arm-none-eabi/5.2.0/../../../../arm-none-eabi/lib/armv7e-m/libc_nano.a(lib_a-strcmp.o)
 .debug_line    0x0000000000005a37       0xab /usr/lib/gcc/arm-none-eabi/5.2.0/../../../../arm-none-eabi/lib/armv7e-m/libc_nano.a(lib_a-strcpy.o)
 .debug_line    0x0000000000005ae2       0xe4 /usr/lib/gcc/arm-none-eabi/5.2.0/../../../../arm-none-eabi/lib/armv7e-m/libc_nano.a(lib_a-strlen.o)
 .debug_line    0x0000000000005bc6       0xeb /usr/lib/gcc/arm-none-eabi/5.2.0/../../../../arm-none-eabi/lib/armv7e-m/libc_nano.a(lib_a-strncmp.o)
 .debug_line    0x0000000000005cb1       0xe3 /usr/lib/gcc/arm-none-eabi/5.2.0/../../../../arm-none-eabi/lib/armv7e-m/libc_nano.a(lib_a-strncpy.o)
 .debug_line    0x0000000000005d94       0xe3 /usr/lib/gcc/arm-none-eabi/5.2.0/../../../../arm-none-eabi/lib/armv7e-m/libc_nano.a(lib_a-strstr.o)
 .debug_line    0x0000000000005e77      0x1c3 /usr/lib/gcc/arm-none-eabi/5.2.0/../../../../arm-none-eabi/lib/armv7e-m/libc_nano.a(lib_a-strtol.o)
 .debug_line    0x000000000000603a      0x17d /usr/lib/gcc/arm-none-eabi/5.2.0/../../../../arm-none-eabi/lib/armv7e-m/libc_nano.a(lib_a-vsnprintf.o)
 .debug_line    0x00000000000061b7       0x61 /usr/lib/gcc/arm-none-eabi/5.2.0/../../../../arm-none-eabi/lib/armv7e-m/libc_nano.a(lib_a-ctype_.o)
 .debug_line    0x0000000000006218       0xe0 /usr/lib/gcc/arm-none-eabi/5.2.0/../../../../arm-none-eabi/lib/armv7e-m/libc_nano.a(lib_a-impure.o)
 .debug_line    0x00000000000062f8      0x15c /usr/lib/gcc/arm-none-eabi/5.2.0/../../../../arm-none-eabi/lib/armv7e-m/libc_nano.a(lib_a-nano-reallocr.o)
 .debug_line    0x0000000000006454      0x2ad /usr/lib/gcc/arm-none-eabi/5.2.0/../../../../arm-none-eabi/lib/armv7e-m/libc_nano.a(lib_a-nano-svfprintf.o)
 .debug_line    0x0000000000006701      0x2e9 /usr/lib/gcc/arm-none-eabi/5.2.0/../../../../arm-none-eabi/lib/armv7e-m/libc_nano.a(lib_a-nano-vfprintf_i.o)
 .debug_line    0x00000000000069ea      0x17b /usr/lib/gcc/arm-none-eabi/5.2.0/../../../../arm-none-eabi/lib/armv7e-m/libc_nano.a(lib_a-reent.o)
 .debug_line    0x0000000000006b65       0xdf /usr/lib/gcc/arm-none-eabi/5.2.0/../../../../arm-none-eabi/lib/armv7e-m/libc_nano.a(lib_a-memchr.o)
 .debug_line    0x0000000000006c44       0xfc /usr/lib/gcc/arm-none-eabi/5.2.0/../../../../arm-none-eabi/lib/armv7e-m/libc_nano.a(lib_a-nano-msizer.o)

.debug_str      0x0000000000000000     0x7a2d
 .debug_str     0x0000000000000000      0xa0f obj/Release/main.o
                                        0xade (size before relaxing)
 .debug_str     0x0000000000000a0f       0x4b obj/Release/pinmux.o
                                        0x122 (size before relaxing)
 .debug_str     0x0000000000000a5a      0x955 obj/Release/net.o
                                        0xc41 (size before relaxing)
 .debug_str     0x00000000000013af       0x82 obj/Release/task.o
                                        0x271 (size before relaxing)
 .debug_str     0x0000000000001431       0xde obj/Release/uart_if.o
                                        0x278 (size before relaxing)
 .debug_str     0x000000000000150f       0x9b obj/Release/button_if.o
                                        0x254 (size before relaxing)
 .debug_str     0x00000000000015aa      0x1e6 obj/Release/udma_if.o
                                        0x361 (size before relaxing)
 .debug_str     0x0000000000001790       0xde obj/Release/startup_gcc.o
                                        0x244 (size before relaxing)
 .debug_str     0x000000000000186e      0x6cb ../../../../simplelink_extlib/ota/gcc/lib/Release/ota.a(OtaApp.o)
                                        0xad4 (size before relaxing)
 .debug_str     0x0000000000001f39      0x201 ../../../../simplelink_extlib/ota/gcc/lib/Release/ota.a(OtaClient.o)
                                        0x721 (size before relaxing)
 .debug_str     0x000000000000213a      0x236 ../../../../simplelink_extlib/ota/gcc/lib/Release/ota.a(OtaHttp.o)
                                        0x534 (size before relaxing)
 .debug_str     0x0000000000002370      0x202 ../../../../simplelink_extlib/ota/gcc/lib/Release/ota.a(CdnClient.o)
                                        0x686 (size before relaxing)
 .debug_str     0x0000000000002572       0x98 ../../../../simplelink_extlib/ota/gcc/lib/Release/ota.a(LogClient.o)
                                        0x501 (size before relaxing)
 .debug_str     0x000000000000260a      0x16a ../../../../simplelink_extlib/flc/gcc/lib/Release/flc.a(flc.o)
                                        0x46f (size before relaxing)
 .debug_str     0x0000000000002774      0xd47 ../../../../simplelink/gcc/lib/nonos/Release/libsimplelink.a(device.o)
                                        0xf51 (size before relaxing)
 .debug_str     0x00000000000034bb      0x78e ../../../../simplelink/gcc/lib/nonos/Release/libsimplelink.a(driver.o)
                                       0x145b (size before relaxing)
 .debug_str     0x0000000000003c49      0x91f ../../../../simplelink/gcc/lib/nonos/Release/libsimplelink.a(netapp.o)
                                       0x1423 (size before relaxing)
 .debug_str     0x0000000000004568       0x83 ../../../../simplelink/gcc/lib/nonos/Release/libsimplelink.a(netcfg.o)
                                        0x428 (size before relaxing)
 .debug_str     0x00000000000045eb       0x4d ../../../../simplelink/gcc/lib/nonos/Release/libsimplelink.a(nonos.o)
                                        0x5ed (size before relaxing)
 .debug_str     0x0000000000004638      0x314 ../../../../simplelink/gcc/lib/nonos/Release/libsimplelink.a(fs.o)
                                        0x680 (size before relaxing)
 .debug_str     0x000000000000494c      0x554 ../../../../simplelink/gcc/lib/nonos/Release/libsimplelink.a(socket.o)
                                        0xf02 (size before relaxing)
 .debug_str     0x0000000000004ea0      0xcac ../../../../simplelink/gcc/lib/nonos/Release/libsimplelink.a(wlan.o)
                                       0x10a5 (size before relaxing)
 .debug_str     0x0000000000005b4c      0x263 ../../../../simplelink/gcc/lib/nonos/Release/libsimplelink.a(cc_pal.o)
                                        0x546 (size before relaxing)
 .debug_str     0x0000000000005daf      0x17d ../../../../driverlib/gcc/lib/Release/libdriver.a(gpio.o)
                                        0x268 (size before relaxing)
 .debug_str     0x0000000000005f2c      0x1ad ../../../../driverlib/gcc/lib/Release/libdriver.a(interrupt.o)
                                        0x2c4 (size before relaxing)
 .debug_str     0x00000000000060d9       0xd2 ../../../../driverlib/gcc/lib/Release/libdriver.a(pin.o)
                                        0x1cb (size before relaxing)
 .debug_str     0x00000000000061ab      0x561 ../../../../driverlib/gcc/lib/Release/libdriver.a(prcm.o)
                                        0x778 (size before relaxing)
 .debug_str     0x000000000000670c      0x29c ../../../../driverlib/gcc/lib/Release/libdriver.a(spi.o)
                                        0x42f (size before relaxing)
 .debug_str     0x00000000000069a8       0x7e ../../../../driverlib/gcc/lib/Release/libdriver.a(systick.o)
                                        0x190 (size before relaxing)
 .debug_str     0x0000000000006a26      0x1a6 ../../../../driverlib/gcc/lib/Release/libdriver.a(timer.o)
                                        0x2de (size before relaxing)
 .debug_str     0x0000000000006bcc        0xb ../../../../driverlib/gcc/lib/Release/libdriver.a(utils.o)
                                         0xcb (size before relaxing)
 .debug_str     0x0000000000006bd7      0x428 /usr/lib/gcc/arm-none-eabi/5.2.0/../../../../arm-none-eabi/lib/armv7e-m/libc_nano.a(lib_a-atol.o)
                                        0x50a (size before relaxing)
 .debug_str     0x0000000000006fff       0x4c /usr/lib/gcc/arm-none-eabi/5.2.0/../../../../arm-none-eabi/lib/armv7e-m/libc_nano.a(lib_a-malloc.o)
                                        0x52b (size before relaxing)
 .debug_str     0x000000000000704b       0x9c /usr/lib/gcc/arm-none-eabi/5.2.0/../../../../arm-none-eabi/lib/armv7e-m/libc_nano.a(lib_a-memcpy.o)
                                        0x1c2 (size before relaxing)
 .debug_str     0x00000000000070e7       0x41 /usr/lib/gcc/arm-none-eabi/5.2.0/../../../../arm-none-eabi/lib/armv7e-m/libc_nano.a(lib_a-memmove.o)
                                        0x1c9 (size before relaxing)
 .debug_str     0x0000000000007128       0x2e /usr/lib/gcc/arm-none-eabi/5.2.0/../../../../arm-none-eabi/lib/armv7e-m/libc_nano.a(lib_a-memset.o)
                                        0x1ae (size before relaxing)
 .debug_str     0x0000000000007156       0x90 /usr/lib/gcc/arm-none-eabi/5.2.0/../../../../arm-none-eabi/lib/armv7e-m/libc_nano.a(lib_a-nano-freer.o)
                                        0x56f (size before relaxing)
 .debug_str     0x00000000000071e6       0x46 /usr/lib/gcc/arm-none-eabi/5.2.0/../../../../arm-none-eabi/lib/armv7e-m/libc_nano.a(lib_a-nano-mallocr.o)
                                        0x59a (size before relaxing)
 .debug_str     0x000000000000722c       0x3a /usr/lib/gcc/arm-none-eabi/5.2.0/../../../../arm-none-eabi/lib/armv7e-m/libc_nano.a(lib_a-realloc.o)
                                        0x51c (size before relaxing)
 .debug_str     0x0000000000007266       0x8f /usr/lib/gcc/arm-none-eabi/5.2.0/../../../../arm-none-eabi/lib/armv7e-m/libc_nano.a(lib_a-sbrkr.o)
                                        0x50e (size before relaxing)
 .debug_str     0x00000000000072f5       0xa1 /usr/lib/gcc/arm-none-eabi/5.2.0/../../../../arm-none-eabi/lib/armv7e-m/libc_nano.a(lib_a-snprintf.o)
                                        0x553 (size before relaxing)
 .debug_str     0x0000000000007396       0x39 /usr/lib/gcc/arm-none-eabi/5.2.0/../../../../arm-none-eabi/lib/armv7e-m/libc_nano.a(lib_a-sprintf.o)
                                        0x544 (size before relaxing)
 .debug_str     0x00000000000073cf       0x2e /usr/lib/gcc/arm-none-eabi/5.2.0/../../../../arm-none-eabi/lib/armv7e-m/libc_nano.a(lib_a-strcat.o)
                                        0x1a7 (size before relaxing)
 .debug_str     0x00000000000073fd       0x2e /usr/lib/gcc/arm-none-eabi/5.2.0/../../../../arm-none-eabi/lib/armv7e-m/libc_nano.a(lib_a-strchr.o)
                                        0x1a7 (size before relaxing)
 .debug_str     0x000000000000742b       0x95 /usr/lib/gcc/arm-none-eabi/5.2.0/../../../../arm-none-eabi/lib/armv7e-m/libc_nano.a(lib_a-strcpy.o)
                                        0x1b4 (size before relaxing)
 .debug_str     0x00000000000074c0       0x3e /usr/lib/gcc/arm-none-eabi/5.2.0/../../../../arm-none-eabi/lib/armv7e-m/libc_nano.a(lib_a-strlen.o)
                                        0x1c3 (size before relaxing)
 .debug_str     0x00000000000074fe       0x2f /usr/lib/gcc/arm-none-eabi/5.2.0/../../../../arm-none-eabi/lib/armv7e-m/libc_nano.a(lib_a-strncmp.o)
                                        0x1b0 (size before relaxing)
 .debug_str     0x000000000000752d       0x3b /usr/lib/gcc/arm-none-eabi/5.2.0/../../../../arm-none-eabi/lib/armv7e-m/libc_nano.a(lib_a-strncpy.o)
                                        0x1cc (size before relaxing)
 .debug_str     0x0000000000007568       0x3f /usr/lib/gcc/arm-none-eabi/5.2.0/../../../../arm-none-eabi/lib/armv7e-m/libc_nano.a(lib_a-strstr.o)
                                        0x1bf (size before relaxing)
 .debug_str     0x00000000000075a7       0x5b /usr/lib/gcc/arm-none-eabi/5.2.0/../../../../arm-none-eabi/lib/armv7e-m/libc_nano.a(lib_a-strtol.o)
                                        0x53d (size before relaxing)
 .debug_str     0x0000000000007602       0x3d /usr/lib/gcc/arm-none-eabi/5.2.0/../../../../arm-none-eabi/lib/armv7e-m/libc_nano.a(lib_a-vsnprintf.o)
                                        0x556 (size before relaxing)
 .debug_str     0x000000000000763f       0x8e /usr/lib/gcc/arm-none-eabi/5.2.0/../../../../arm-none-eabi/lib/armv7e-m/libc_nano.a(lib_a-ctype_.o)
                                        0x124 (size before relaxing)
 .debug_str     0x00000000000076cd       0x8b /usr/lib/gcc/arm-none-eabi/5.2.0/../../../../arm-none-eabi/lib/armv7e-m/libc_nano.a(lib_a-impure.o)
                                        0x556 (size before relaxing)
 .debug_str     0x0000000000007758       0x23 /usr/lib/gcc/arm-none-eabi/5.2.0/../../../../arm-none-eabi/lib/armv7e-m/libc_nano.a(lib_a-nano-reallocr.o)
                                        0x577 (size before relaxing)
 .debug_str     0x000000000000777b      0x18f /usr/lib/gcc/arm-none-eabi/5.2.0/../../../../arm-none-eabi/lib/armv7e-m/libc_nano.a(lib_a-nano-svfprintf.o)
                                        0x677 (size before relaxing)
 .debug_str     0x000000000000790a       0x8e /usr/lib/gcc/arm-none-eabi/5.2.0/../../../../arm-none-eabi/lib/armv7e-m/libc_nano.a(lib_a-nano-vfprintf_i.o)
                                        0x616 (size before relaxing)
 .debug_str     0x0000000000007998       0x58 /usr/lib/gcc/arm-none-eabi/5.2.0/../../../../arm-none-eabi/lib/armv7e-m/libc_nano.a(lib_a-reent.o)
                                        0x536 (size before relaxing)
 .debug_str     0x00000000000079f0       0x2e /usr/lib/gcc/arm-none-eabi/5.2.0/../../../../arm-none-eabi/lib/armv7e-m/libc_nano.a(lib_a-memchr.o)
                                        0x1be (size before relaxing)
 .debug_str     0x0000000000007a1e        0xf /usr/lib/gcc/arm-none-eabi/5.2.0/../../../../arm-none-eabi/lib/armv7e-m/libc_nano.a(lib_a-nano-msizer.o)
                                        0x555 (size before relaxing)

.comment        0x0000000000000000       0x42
 .comment       0x0000000000000000       0x21 obj/Release/main.o
                                         0x22 (size before relaxing)
 .comment       0x0000000000000000       0x22 obj/Release/pinmux.o
 .comment       0x0000000000000000       0x22 obj/Release/net.o
 .comment       0x0000000000000000       0x22 obj/Release/task.o
 .comment       0x0000000000000000       0x22 obj/Release/uart_if.o
 .comment       0x0000000000000000       0x22 obj/Release/button_if.o
 .comment       0x0000000000000000       0x22 obj/Release/udma_if.o
 .comment       0x0000000000000000       0x22 obj/Release/startup_gcc.o
 .comment       0x0000000000000000       0x22 ../../../../simplelink_extlib/ota/gcc/lib/Release/ota.a(OtaApp.o)
 .comment       0x0000000000000000       0x22 ../../../../simplelink_extlib/ota/gcc/lib/Release/ota.a(OtaClient.o)
 .comment       0x0000000000000000       0x22 ../../../../simplelink_extlib/ota/gcc/lib/Release/ota.a(OtaHttp.o)
 .comment       0x0000000000000000       0x22 ../../../../simplelink_extlib/ota/gcc/lib/Release/ota.a(CdnClient.o)
 .comment       0x0000000000000000       0x22 ../../../../simplelink_extlib/ota/gcc/lib/Release/ota.a(LogClient.o)
 .comment       0x0000000000000000       0x22 ../../../../simplelink_extlib/flc/gcc/lib/Release/flc.a(flc.o)
 .comment       0x0000000000000000       0x22 ../../../../simplelink/gcc/lib/nonos/Release/libsimplelink.a(device.o)
 .comment       0x0000000000000000       0x22 ../../../../simplelink/gcc/lib/nonos/Release/libsimplelink.a(driver.o)
 .comment       0x0000000000000000       0x22 ../../../../simplelink/gcc/lib/nonos/Release/libsimplelink.a(netapp.o)
 .comment       0x0000000000000000       0x22 ../../../../simplelink/gcc/lib/nonos/Release/libsimplelink.a(netcfg.o)
 .comment       0x0000000000000000       0x22 ../../../../simplelink/gcc/lib/nonos/Release/libsimplelink.a(nonos.o)
 .comment       0x0000000000000000       0x22 ../../../../simplelink/gcc/lib/nonos/Release/libsimplelink.a(fs.o)
 .comment       0x0000000000000000       0x22 ../../../../simplelink/gcc/lib/nonos/Release/libsimplelink.a(socket.o)
 .comment       0x0000000000000000       0x22 ../../../../simplelink/gcc/lib/nonos/Release/libsimplelink.a(wlan.o)
 .comment       0x0000000000000000       0x22 ../../../../simplelink/gcc/lib/nonos/Release/libsimplelink.a(cc_pal.o)
 .comment       0x0000000000000000       0x22 ../../../../driverlib/gcc/lib/Release/libdriver.a(gpio.o)
 .comment       0x0000000000000000       0x22 ../../../../driverlib/gcc/lib/Release/libdriver.a(interrupt.o)
 .comment       0x0000000000000000       0x22 ../../../../driverlib/gcc/lib/Release/libdriver.a(pin.o)
 .comment       0x0000000000000000       0x22 ../../../../driverlib/gcc/lib/Release/libdriver.a(prcm.o)
 .comment       0x0000000000000000       0x22 ../../../../driverlib/gcc/lib/Release/libdriver.a(spi.o)
 .comment       0x0000000000000000       0x22 ../../../../driverlib/gcc/lib/Release/libdriver.a(systick.o)
 .comment       0x0000000000000000       0x22 ../../../../driverlib/gcc/lib/Release/libdriver.a(timer.o)
 .comment       0x0000000000000000       0x22 ../../../../driverlib/gcc/lib/Release/libdriver.a(utils.o)
 .comment       0x0000000000000021       0x21 /usr/lib/gcc/arm-none-eabi/5.2.0/../../../../arm-none-eabi/lib/armv7e-m/libc_nano.a(lib_a-atol.o)
                                         0x22 (size before relaxing)
 .comment       0x0000000000000000       0x22 /usr/lib/gcc/arm-none-eabi/5.2.0/../../../../arm-none-eabi/lib/armv7e-m/libc_nano.a(lib_a-malloc.o)
 .comment       0x0000000000000000       0x22 /usr/lib/gcc/arm-none-eabi/5.2.0/../../../../arm-none-eabi/lib/armv7e-m/libc_nano.a(lib_a-memcpy.o)
 .comment       0x0000000000000000       0x22 /usr/lib/gcc/arm-none-eabi/5.2.0/../../../../arm-none-eabi/lib/armv7e-m/libc_nano.a(lib_a-memmove.o)
 .comment       0x0000000000000000       0x22 /usr/lib/gcc/arm-none-eabi/5.2.0/../../../../arm-none-eabi/lib/armv7e-m/libc_nano.a(lib_a-memset.o)
 .comment       0x0000000000000000       0x22 /usr/lib/gcc/arm-none-eabi/5.2.0/../../../../arm-none-eabi/lib/armv7e-m/libc_nano.a(lib_a-nano-freer.o)
 .comment       0x0000000000000000       0x22 /usr/lib/gcc/arm-none-eabi/5.2.0/../../../../arm-none-eabi/lib/armv7e-m/libc_nano.a(lib_a-nano-mallocr.o)
 .comment       0x0000000000000000       0x22 /usr/lib/gcc/arm-none-eabi/5.2.0/../../../../arm-none-eabi/lib/armv7e-m/libc_nano.a(lib_a-realloc.o)
 .comment       0x0000000000000000       0x22 /usr/lib/gcc/arm-none-eabi/5.2.0/../../../../arm-none-eabi/lib/armv7e-m/libc_nano.a(lib_a-sbrkr.o)
 .comment       0x0000000000000000       0x22 /usr/lib/gcc/arm-none-eabi/5.2.0/../../../../arm-none-eabi/lib/armv7e-m/libc_nano.a(lib_a-snprintf.o)
 .comment       0x0000000000000000       0x22 /usr/lib/gcc/arm-none-eabi/5.2.0/../../../../arm-none-eabi/lib/armv7e-m/libc_nano.a(lib_a-sprintf.o)
 .comment       0x0000000000000000       0x22 /usr/lib/gcc/arm-none-eabi/5.2.0/../../../../arm-none-eabi/lib/armv7e-m/libc_nano.a(lib_a-strcat.o)
 .comment       0x0000000000000000       0x22 /usr/lib/gcc/arm-none-eabi/5.2.0/../../../../arm-none-eabi/lib/armv7e-m/libc_nano.a(lib_a-strchr.o)
 .comment       0x0000000000000000       0x22 /usr/lib/gcc/arm-none-eabi/5.2.0/../../../../arm-none-eabi/lib/armv7e-m/libc_nano.a(lib_a-strcpy.o)
 .comment       0x0000000000000000       0x22 /usr/lib/gcc/arm-none-eabi/5.2.0/../../../../arm-none-eabi/lib/armv7e-m/libc_nano.a(lib_a-strlen.o)
 .comment       0x0000000000000000       0x22 /usr/lib/gcc/arm-none-eabi/5.2.0/../../../../arm-none-eabi/lib/armv7e-m/libc_nano.a(lib_a-strncmp.o)
 .comment       0x0000000000000000       0x22 /usr/lib/gcc/arm-none-eabi/5.2.0/../../../../arm-none-eabi/lib/armv7e-m/libc_nano.a(lib_a-strncpy.o)
 .comment       0x0000000000000000       0x22 /usr/lib/gcc/arm-none-eabi/5.2.0/../../../../arm-none-eabi/lib/armv7e-m/libc_nano.a(lib_a-strstr.o)
 .comment       0x0000000000000000       0x22 /usr/lib/gcc/arm-none-eabi/5.2.0/../../../../arm-none-eabi/lib/armv7e-m/libc_nano.a(lib_a-strtol.o)
 .comment       0x0000000000000000       0x22 /usr/lib/gcc/arm-none-eabi/5.2.0/../../../../arm-none-eabi/lib/armv7e-m/libc_nano.a(lib_a-vsnprintf.o)
 .comment       0x0000000000000000       0x22 /usr/lib/gcc/arm-none-eabi/5.2.0/../../../../arm-none-eabi/lib/armv7e-m/libc_nano.a(lib_a-ctype_.o)
 .comment       0x0000000000000000       0x22 /usr/lib/gcc/arm-none-eabi/5.2.0/../../../../arm-none-eabi/lib/armv7e-m/libc_nano.a(lib_a-impure.o)
 .comment       0x0000000000000000       0x22 /usr/lib/gcc/arm-none-eabi/5.2.0/../../../../arm-none-eabi/lib/armv7e-m/libc_nano.a(lib_a-nano-reallocr.o)
 .comment       0x0000000000000000       0x22 /usr/lib/gcc/arm-none-eabi/5.2.0/../../../../arm-none-eabi/lib/armv7e-m/libc_nano.a(lib_a-nano-svfprintf.o)
 .comment       0x0000000000000000       0x22 /usr/lib/gcc/arm-none-eabi/5.2.0/../../../../arm-none-eabi/lib/armv7e-m/libc_nano.a(lib_a-nano-vfprintf_i.o)
 .comment       0x0000000000000000       0x22 /usr/lib/gcc/arm-none-eabi/5.2.0/../../../../arm-none-eabi/lib/armv7e-m/libc_nano.a(lib_a-reent.o)
 .comment       0x0000000000000000       0x22 /usr/lib/gcc/arm-none-eabi/5.2.0/../../../../arm-none-eabi/lib/armv7e-m/libc_nano.a(lib_a-memchr.o)
 .comment       0x0000000000000000       0x22 /usr/lib/gcc/arm-none-eabi/5.2.0/../../../../arm-none-eabi/lib/armv7e-m/libc_nano.a(lib_a-nano-msizer.o)

.ARM.attributes
                0x0000000000000000       0x31
 .ARM.attributes
                0x0000000000000000       0x33 obj/Release/main.o
 .ARM.attributes
                0x0000000000000033       0x33 obj/Release/pinmux.o
 .ARM.attributes
                0x0000000000000066       0x33 obj/Release/net.o
 .ARM.attributes
                0x0000000000000099       0x33 obj/Release/task.o
 .ARM.attributes
                0x00000000000000cc       0x33 obj/Release/uart_if.o
 .ARM.attributes
                0x00000000000000ff       0x33 obj/Release/button_if.o
 .ARM.attributes
                0x0000000000000132       0x33 obj/Release/udma_if.o
 .ARM.attributes
                0x0000000000000165       0x33 obj/Release/startup_gcc.o
 .ARM.attributes
                0x0000000000000198       0x33 ../../../../simplelink_extlib/ota/gcc/lib/Release/ota.a(OtaApp.o)
 .ARM.attributes
                0x00000000000001cb       0x33 ../../../../simplelink_extlib/ota/gcc/lib/Release/ota.a(OtaClient.o)
 .ARM.attributes
                0x00000000000001fe       0x33 ../../../../simplelink_extlib/ota/gcc/lib/Release/ota.a(OtaHttp.o)
 .ARM.attributes
                0x0000000000000231       0x33 ../../../../simplelink_extlib/ota/gcc/lib/Release/ota.a(CdnClient.o)
 .ARM.attributes
                0x0000000000000264       0x33 ../../../../simplelink_extlib/ota/gcc/lib/Release/ota.a(LogClient.o)
 .ARM.attributes
                0x0000000000000297       0x33 ../../../../simplelink_extlib/flc/gcc/lib/Release/flc.a(flc.o)
 .ARM.attributes
                0x00000000000002ca       0x33 ../../../../simplelink/gcc/lib/nonos/Release/libsimplelink.a(device.o)
 .ARM.attributes
                0x00000000000002fd       0x33 ../../../../simplelink/gcc/lib/nonos/Release/libsimplelink.a(driver.o)
 .ARM.attributes
                0x0000000000000330       0x33 ../../../../simplelink/gcc/lib/nonos/Release/libsimplelink.a(netapp.o)
 .ARM.attributes
                0x0000000000000363       0x33 ../../../../simplelink/gcc/lib/nonos/Release/libsimplelink.a(netcfg.o)
 .ARM.attributes
                0x0000000000000396       0x33 ../../../../simplelink/gcc/lib/nonos/Release/libsimplelink.a(nonos.o)
 .ARM.attributes
                0x00000000000003c9       0x33 ../../../../simplelink/gcc/lib/nonos/Release/libsimplelink.a(fs.o)
 .ARM.attributes
                0x00000000000003fc       0x33 ../../../../simplelink/gcc/lib/nonos/Release/libsimplelink.a(socket.o)
 .ARM.attributes
                0x000000000000042f       0x33 ../../../../simplelink/gcc/lib/nonos/Release/libsimplelink.a(wlan.o)
 .ARM.attributes
                0x0000000000000462       0x33 ../../../../simplelink/gcc/lib/nonos/Release/libsimplelink.a(cc_pal.o)
 .ARM.attributes
                0x0000000000000495       0x33 ../../../../driverlib/gcc/lib/Release/libdriver.a(gpio.o)
 .ARM.attributes
                0x00000000000004c8       0x33 ../../../../driverlib/gcc/lib/Release/libdriver.a(interrupt.o)
 .ARM.attributes
                0x00000000000004fb       0x33 ../../../../driverlib/gcc/lib/Release/libdriver.a(pin.o)
 .ARM.attributes
                0x000000000000052e       0x33 ../../../../driverlib/gcc/lib/Release/libdriver.a(prcm.o)
 .ARM.attributes
                0x0000000000000561       0x33 ../../../../driverlib/gcc/lib/Release/libdriver.a(spi.o)
 .ARM.attributes
                0x0000000000000594       0x33 ../../../../driverlib/gcc/lib/Release/libdriver.a(systick.o)
 .ARM.attributes
                0x00000000000005c7       0x33 ../../../../driverlib/gcc/lib/Release/libdriver.a(timer.o)
 .ARM.attributes
                0x00000000000005fa       0x33 ../../../../driverlib/gcc/lib/Release/libdriver.a(utils.o)
 .ARM.attributes
                0x000000000000062d       0x2e /usr/lib/gcc/arm-none-eabi/5.2.0/../../../../arm-none-eabi/lib/armv7e-m/libc_nano.a(lib_a-atol.o)
 .ARM.attributes
                0x000000000000065b       0x2e /usr/lib/gcc/arm-none-eabi/5.2.0/../../../../arm-none-eabi/lib/armv7e-m/libc_nano.a(lib_a-malloc.o)
 .ARM.attributes
                0x0000000000000689       0x2e /usr/lib/gcc/arm-none-eabi/5.2.0/../../../../arm-none-eabi/lib/armv7e-m/libc_nano.a(lib_a-memcpy.o)
 .ARM.attributes
                0x00000000000006b7       0x2e /usr/lib/gcc/arm-none-eabi/5.2.0/../../../../arm-none-eabi/lib/armv7e-m/libc_nano.a(lib_a-memmove.o)
 .ARM.attributes
                0x00000000000006e5       0x2e /usr/lib/gcc/arm-none-eabi/5.2.0/../../../../arm-none-eabi/lib/armv7e-m/libc_nano.a(lib_a-memset.o)
 .ARM.attributes
                0x0000000000000713       0x2e /usr/lib/gcc/arm-none-eabi/5.2.0/../../../../arm-none-eabi/lib/armv7e-m/libc_nano.a(lib_a-nano-freer.o)
 .ARM.attributes
                0x0000000000000741       0x2e /usr/lib/gcc/arm-none-eabi/5.2.0/../../../../arm-none-eabi/lib/armv7e-m/libc_nano.a(lib_a-nano-mallocr.o)
 .ARM.attributes
                0x000000000000076f       0x2e /usr/lib/gcc/arm-none-eabi/5.2.0/../../../../arm-none-eabi/lib/armv7e-m/libc_nano.a(lib_a-realloc.o)
 .ARM.attributes
                0x000000000000079d       0x2e /usr/lib/gcc/arm-none-eabi/5.2.0/../../../../arm-none-eabi/lib/armv7e-m/libc_nano.a(lib_a-sbrkr.o)
 .ARM.attributes
                0x00000000000007cb       0x2e /usr/lib/gcc/arm-none-eabi/5.2.0/../../../../arm-none-eabi/lib/armv7e-m/libc_nano.a(lib_a-snprintf.o)
 .ARM.attributes
                0x00000000000007f9       0x2e /usr/lib/gcc/arm-none-eabi/5.2.0/../../../../arm-none-eabi/lib/armv7e-m/libc_nano.a(lib_a-sprintf.o)
 .ARM.attributes
                0x0000000000000827       0x2e /usr/lib/gcc/arm-none-eabi/5.2.0/../../../../arm-none-eabi/lib/armv7e-m/libc_nano.a(lib_a-strcat.o)
 .ARM.attributes
                0x0000000000000855       0x2e /usr/lib/gcc/arm-none-eabi/5.2.0/../../../../arm-none-eabi/lib/armv7e-m/libc_nano.a(lib_a-strchr.o)
 .ARM.attributes
                0x0000000000000883       0x1c /usr/lib/gcc/arm-none-eabi/5.2.0/../../../../arm-none-eabi/lib/armv7e-m/libc_nano.a(lib_a-strcmp.o)
 .ARM.attributes
                0x000000000000089f       0x2e /usr/lib/gcc/arm-none-eabi/5.2.0/../../../../arm-none-eabi/lib/armv7e-m/libc_nano.a(lib_a-strcpy.o)
 .ARM.attributes
                0x00000000000008cd       0x2e /usr/lib/gcc/arm-none-eabi/5.2.0/../../../../arm-none-eabi/lib/armv7e-m/libc_nano.a(lib_a-strlen.o)
 .ARM.attributes
                0x00000000000008fb       0x2e /usr/lib/gcc/arm-none-eabi/5.2.0/../../../../arm-none-eabi/lib/armv7e-m/libc_nano.a(lib_a-strncmp.o)
 .ARM.attributes
                0x0000000000000929       0x2e /usr/lib/gcc/arm-none-eabi/5.2.0/../../../../arm-none-eabi/lib/armv7e-m/libc_nano.a(lib_a-strncpy.o)
 .ARM.attributes
                0x0000000000000957       0x2e /usr/lib/gcc/arm-none-eabi/5.2.0/../../../../arm-none-eabi/lib/armv7e-m/libc_nano.a(lib_a-strstr.o)
 .ARM.attributes
                0x0000000000000985       0x2e /usr/lib/gcc/arm-none-eabi/5.2.0/../../../../arm-none-eabi/lib/armv7e-m/libc_nano.a(lib_a-strtol.o)
 .ARM.attributes
                0x00000000000009b3       0x2e /usr/lib/gcc/arm-none-eabi/5.2.0/../../../../arm-none-eabi/lib/armv7e-m/libc_nano.a(lib_a-vsnprintf.o)
 .ARM.attributes
                0x00000000000009e1       0x2e /usr/lib/gcc/arm-none-eabi/5.2.0/../../../../arm-none-eabi/lib/armv7e-m/libc_nano.a(lib_a-ctype_.o)
 .ARM.attributes
                0x0000000000000a0f       0x2e /usr/lib/gcc/arm-none-eabi/5.2.0/../../../../arm-none-eabi/lib/armv7e-m/libc_nano.a(lib_a-impure.o)
 .ARM.attributes
                0x0000000000000a3d       0x2e /usr/lib/gcc/arm-none-eabi/5.2.0/../../../../arm-none-eabi/lib/armv7e-m/libc_nano.a(lib_a-nano-reallocr.o)
 .ARM.attributes
                0x0000000000000a6b       0x2e /usr/lib/gcc/arm-none-eabi/5.2.0/../../../../arm-none-eabi/lib/armv7e-m/libc_nano.a(lib_a-nano-svfprintf.o)
 .ARM.attributes
                0x0000000000000a99       0x2e /usr/lib/gcc/arm-none-eabi/5.2.0/../../../../arm-none-eabi/lib/armv7e-m/libc_nano.a(lib_a-nano-vfprintf_i.o)
 .ARM.attributes
                0x0000000000000ac7       0x2e /usr/lib/gcc/arm-none-eabi/5.2.0/../../../../arm-none-eabi/lib/armv7e-m/libc_nano.a(lib_a-reent.o)
 .ARM.attributes
                0x0000000000000af5       0x2e /usr/lib/gcc/arm-none-eabi/5.2.0/../../../../arm-none-eabi/lib/armv7e-m/libc_nano.a(lib_a-memchr.o)
 .ARM.attributes
                0x0000000000000b23       0x2e /usr/lib/gcc/arm-none-eabi/5.2.0/../../../../arm-none-eabi/lib/armv7e-m/libc_nano.a(lib_a-nano-msizer.o)

.debug_frame    0x0000000000000000     0x305c
 .debug_frame   0x0000000000000000      0x164 obj/Release/main.o
 .debug_frame   0x0000000000000164       0x2c obj/Release/pinmux.o
 .debug_frame   0x0000000000000190      0x118 obj/Release/net.o
 .debug_frame   0x00000000000002a8       0xa0 obj/Release/task.o
 .debug_frame   0x0000000000000348      0x110 obj/Release/uart_if.o
 .debug_frame   0x0000000000000458       0xc8 obj/Release/button_if.o
 .debug_frame   0x0000000000000520      0x138 obj/Release/udma_if.o
 .debug_frame   0x0000000000000658       0x78 obj/Release/startup_gcc.o
 .debug_frame   0x00000000000006d0       0xe4 ../../../../simplelink_extlib/ota/gcc/lib/Release/ota.a(OtaApp.o)
 .debug_frame   0x00000000000007b4      0x164 ../../../../simplelink_extlib/ota/gcc/lib/Release/ota.a(OtaClient.o)
 .debug_frame   0x0000000000000918      0x174 ../../../../simplelink_extlib/ota/gcc/lib/Release/ota.a(OtaHttp.o)
 .debug_frame   0x0000000000000a8c      0x120 ../../../../simplelink_extlib/ota/gcc/lib/Release/ota.a(CdnClient.o)
 .debug_frame   0x0000000000000bac       0xa4 ../../../../simplelink_extlib/ota/gcc/lib/Release/ota.a(LogClient.o)
 .debug_frame   0x0000000000000c50      0x108 ../../../../simplelink_extlib/flc/gcc/lib/Release/flc.a(flc.o)
 .debug_frame   0x0000000000000d58      0x158 ../../../../simplelink/gcc/lib/nonos/Release/libsimplelink.a(device.o)
 .debug_frame   0x0000000000000eb0      0x3cc ../../../../simplelink/gcc/lib/nonos/Release/libsimplelink.a(driver.o)
 .debug_frame   0x000000000000127c      0x230 ../../../../simplelink/gcc/lib/nonos/Release/libsimplelink.a(netapp.o)
 .debug_frame   0x00000000000014ac       0x58 ../../../../simplelink/gcc/lib/nonos/Release/libsimplelink.a(netcfg.o)
 .debug_frame   0x0000000000001504       0x80 ../../../../simplelink/gcc/lib/nonos/Release/libsimplelink.a(nonos.o)
 .debug_frame   0x0000000000001584      0x120 ../../../../simplelink/gcc/lib/nonos/Release/libsimplelink.a(fs.o)
 .debug_frame   0x00000000000016a4      0x2bc ../../../../simplelink/gcc/lib/nonos/Release/libsimplelink.a(socket.o)
 .debug_frame   0x0000000000001960      0x260 ../../../../simplelink/gcc/lib/nonos/Release/libsimplelink.a(wlan.o)
 .debug_frame   0x0000000000001bc0      0x230 ../../../../simplelink/gcc/lib/nonos/Release/libsimplelink.a(cc_pal.o)
 .debug_frame   0x0000000000001df0      0x12c ../../../../driverlib/gcc/lib/Release/libdriver.a(gpio.o)
 .debug_frame   0x0000000000001f1c      0x128 ../../../../driverlib/gcc/lib/Release/libdriver.a(interrupt.o)
 .debug_frame   0x0000000000002044      0x14c ../../../../driverlib/gcc/lib/Release/libdriver.a(pin.o)
 .debug_frame   0x0000000000002190      0x48c ../../../../driverlib/gcc/lib/Release/libdriver.a(prcm.o)
 .debug_frame   0x000000000000261c      0x1f8 ../../../../driverlib/gcc/lib/Release/libdriver.a(spi.o)
 .debug_frame   0x0000000000002814       0xa8 ../../../../driverlib/gcc/lib/Release/libdriver.a(systick.o)
 .debug_frame   0x00000000000028bc      0x1c0 ../../../../driverlib/gcc/lib/Release/libdriver.a(timer.o)
 .debug_frame   0x0000000000002a7c       0x20 ../../../../driverlib/gcc/lib/Release/libdriver.a(utils.o)
 .debug_frame   0x0000000000002a9c       0x30 /usr/lib/gcc/arm-none-eabi/5.2.0/../../../../arm-none-eabi/lib/armv7e-m/libc_nano.a(lib_a-atol.o)
 .debug_frame   0x0000000000002acc       0x30 /usr/lib/gcc/arm-none-eabi/5.2.0/../../../../arm-none-eabi/lib/armv7e-m/libc_nano.a(lib_a-malloc.o)
 .debug_frame   0x0000000000002afc       0x28 /usr/lib/gcc/arm-none-eabi/5.2.0/../../../../arm-none-eabi/lib/armv7e-m/libc_nano.a(lib_a-memcpy.o)
 .debug_frame   0x0000000000002b24       0x28 /usr/lib/gcc/arm-none-eabi/5.2.0/../../../../arm-none-eabi/lib/armv7e-m/libc_nano.a(lib_a-memmove.o)
 .debug_frame   0x0000000000002b4c       0x20 /usr/lib/gcc/arm-none-eabi/5.2.0/../../../../arm-none-eabi/lib/armv7e-m/libc_nano.a(lib_a-memset.o)
 .debug_frame   0x0000000000002b6c       0x2c /usr/lib/gcc/arm-none-eabi/5.2.0/../../../../arm-none-eabi/lib/armv7e-m/libc_nano.a(lib_a-nano-freer.o)
 .debug_frame   0x0000000000002b98       0x2c /usr/lib/gcc/arm-none-eabi/5.2.0/../../../../arm-none-eabi/lib/armv7e-m/libc_nano.a(lib_a-nano-mallocr.o)
 .debug_frame   0x0000000000002bc4       0x20 /usr/lib/gcc/arm-none-eabi/5.2.0/../../../../arm-none-eabi/lib/armv7e-m/libc_nano.a(lib_a-realloc.o)
 .debug_frame   0x0000000000002be4       0x2c /usr/lib/gcc/arm-none-eabi/5.2.0/../../../../arm-none-eabi/lib/armv7e-m/libc_nano.a(lib_a-sbrkr.o)
 .debug_frame   0x0000000000002c10       0x74 /usr/lib/gcc/arm-none-eabi/5.2.0/../../../../arm-none-eabi/lib/armv7e-m/libc_nano.a(lib_a-snprintf.o)
 .debug_frame   0x0000000000002c84       0x70 /usr/lib/gcc/arm-none-eabi/5.2.0/../../../../arm-none-eabi/lib/armv7e-m/libc_nano.a(lib_a-sprintf.o)
 .debug_frame   0x0000000000002cf4       0x28 /usr/lib/gcc/arm-none-eabi/5.2.0/../../../../arm-none-eabi/lib/armv7e-m/libc_nano.a(lib_a-strcat.o)
 .debug_frame   0x0000000000002d1c       0x20 /usr/lib/gcc/arm-none-eabi/5.2.0/../../../../arm-none-eabi/lib/armv7e-m/libc_nano.a(lib_a-strchr.o)
 .debug_frame   0x0000000000002d3c       0x20 /usr/lib/gcc/arm-none-eabi/5.2.0/../../../../arm-none-eabi/lib/armv7e-m/libc_nano.a(lib_a-strcpy.o)
 .debug_frame   0x0000000000002d5c       0x20 /usr/lib/gcc/arm-none-eabi/5.2.0/../../../../arm-none-eabi/lib/armv7e-m/libc_nano.a(lib_a-strlen.o)
 .debug_frame   0x0000000000002d7c       0x2c /usr/lib/gcc/arm-none-eabi/5.2.0/../../../../arm-none-eabi/lib/armv7e-m/libc_nano.a(lib_a-strncmp.o)
 .debug_frame   0x0000000000002da8       0x28 /usr/lib/gcc/arm-none-eabi/5.2.0/../../../../arm-none-eabi/lib/armv7e-m/libc_nano.a(lib_a-strncpy.o)
 .debug_frame   0x0000000000002dd0       0x30 /usr/lib/gcc/arm-none-eabi/5.2.0/../../../../arm-none-eabi/lib/armv7e-m/libc_nano.a(lib_a-strstr.o)
 .debug_frame   0x0000000000002e00       0x44 /usr/lib/gcc/arm-none-eabi/5.2.0/../../../../arm-none-eabi/lib/armv7e-m/libc_nano.a(lib_a-strtol.o)
 .debug_frame   0x0000000000002e44       0x48 /usr/lib/gcc/arm-none-eabi/5.2.0/../../../../arm-none-eabi/lib/armv7e-m/libc_nano.a(lib_a-vsnprintf.o)
 .debug_frame   0x0000000000002e8c       0x3c /usr/lib/gcc/arm-none-eabi/5.2.0/../../../../arm-none-eabi/lib/armv7e-m/libc_nano.a(lib_a-nano-reallocr.o)
 .debug_frame   0x0000000000002ec8       0x90 /usr/lib/gcc/arm-none-eabi/5.2.0/../../../../arm-none-eabi/lib/armv7e-m/libc_nano.a(lib_a-nano-svfprintf.o)
 .debug_frame   0x0000000000002f58       0x60 /usr/lib/gcc/arm-none-eabi/5.2.0/../../../../arm-none-eabi/lib/armv7e-m/libc_nano.a(lib_a-nano-vfprintf_i.o)
 .debug_frame   0x0000000000002fb8       0x5c /usr/lib/gcc/arm-none-eabi/5.2.0/../../../../arm-none-eabi/lib/armv7e-m/libc_nano.a(lib_a-reent.o)
 .debug_frame   0x0000000000003014       0x28 /usr/lib/gcc/arm-none-eabi/5.2.0/../../../../arm-none-eabi/lib/armv7e-m/libc_nano.a(lib_a-memchr.o)
 .debug_frame   0x000000000000303c       0x20 /usr/lib/gcc/arm-none-eabi/5.2.0/../../../../arm-none-eabi/lib/armv7e-m/libc_nano.a(lib_a-nano-msizer.o)
