Archive member included to satisfy reference by file (symbol)

../../../simplelink/gcc/lib/os_PM/Release/libsimplelink.a(device.o)
                              obj/Release/main.o (sl_Start)
../../../simplelink/gcc/lib/os_PM/Release/libsimplelink.a(driver.o)
                              ../../../simplelink/gcc/lib/os_PM/Release/libsimplelink.a(device.o) (g_bDeviceRestartIsRequired)
../../../simplelink/gcc/lib/os_PM/Release/libsimplelink.a(netapp.o)
                              ../../../simplelink/gcc/lib/os_PM/Release/libsimplelink.a(driver.o) (_sl_HandleAsync_DnsGetHostByService)
../../../simplelink/gcc/lib/os_PM/Release/libsimplelink.a(socket.o)
                              obj/Release/main.o (sl_Socket)
../../../simplelink/gcc/lib/os_PM/Release/libsimplelink.a(wlan.o)
                              obj/Release/main.o (sl_WlanConnect)
../../../simplelink/gcc/lib/os_PM/Release/libsimplelink.a(cc_pal_pm.o)
                              ../../../simplelink/gcc/lib/os_PM/Release/libsimplelink.a(device.o) (spi_Open)
../../../middleware/gcc/lib/Release/middleware.a(dma_hal.o)
                              obj/Release/lp3p0_board.o (cc_dma_init)
../../../middleware/gcc/lib/Release/middleware.a(gpio_hal.o)
                              obj/Release/lp3p0_board.o (cc_gpio_init)
../../../middleware/gcc/lib/Release/middleware.a(hw_timer32.o)
                              obj/Release/lp3p0_board.o (cc_hwt32_init)
../../../middleware/gcc/lib/Release/middleware.a(interrupt_hal.o)
                              obj/Release/lp3p0_board.o (register_isr)
../../../middleware/gcc/lib/Release/middleware.a(rtc_hal.o)
                              obj/Release/main.o (cc_rtc_set)
../../../middleware/gcc/lib/Release/middleware.a(util64.o)
                              ../../../middleware/gcc/lib/Release/middleware.a(rtc_hal.o) (util_u64_time_add)
../../../middleware/gcc/lib/Release/middleware.a(spi_drv.o)
                              obj/Release/lp3p0_board.o (spi_driver_load)
../../../middleware/gcc/lib/Release/middleware.a(uart_drv.o)
                              obj/Release/lp3p0_board.o (uart_driver_load)
../../../middleware/gcc/lib/Release/middleware.a(cc_pm.o)
                              obj/Release/main.o (cc_idle_task_pm)
../../../middleware/gcc/lib/Release/middleware.a(cc_timer.o)
                              obj/Release/main.o (cc_timer_start)
../../../middleware/gcc/lib/Release/middleware.a(cc_io_park.o)
                              obj/Release/lp3p0_plat_ops.o (cc_io_park_safe)
../../../middleware/gcc/lib/Release/middleware.a(cc_pm_ops.o)
                              obj/Release/lp3p0_plat_ops.o (cc_set_up_wkup_srcs)
../../../middleware/gcc/lib/Release/middleware.a(spi_hal.o)
                              ../../../middleware/gcc/lib/Release/middleware.a(spi_drv.o) (cc_spi_init)
../../../middleware/gcc/lib/Release/middleware.a(uart_hal.o)
                              ../../../middleware/gcc/lib/Release/middleware.a(uart_drv.o) (cc_uart_deinit)
../../../oslib/gcc/free_rtos/Release/free_rtos.a(osi_freertos.o)
                              obj/Release/wdt_if.o (osi_InterruptRegister)
../../../oslib/gcc/free_rtos/Release/free_rtos.a(queue.o)
                              ../../../oslib/gcc/free_rtos/Release/free_rtos.a(osi_freertos.o) (xQueueGenericCreate)
../../../oslib/gcc/free_rtos/Release/free_rtos.a(tasks.o)
                              ../../../oslib/gcc/free_rtos/Release/free_rtos.a(osi_freertos.o) (xTaskGenericCreate)
../../../oslib/gcc/free_rtos/Release/free_rtos.a(port.o)
                              ../../../oslib/gcc/free_rtos/Release/free_rtos.a(tasks.o) (pxPortInitialiseStack)
../../../oslib/gcc/free_rtos/Release/free_rtos.a(timers.o)
                              ../../../oslib/gcc/free_rtos/Release/free_rtos.a(tasks.o) (xTimerCreateTimerTask)
../../../oslib/gcc/free_rtos/Release/free_rtos.a(heap_3.o)
                              ../../../oslib/gcc/free_rtos/Release/free_rtos.a(osi_freertos.o) (pvPortMalloc)
../../../oslib/gcc/free_rtos/Release/free_rtos.a(list.o)
                              ../../../oslib/gcc/free_rtos/Release/free_rtos.a(queue.o) (vListInitialise)
../../../driverlib/gcc/lib/Release/libdriver.a(cpu.o)
                              ../../../middleware/gcc/lib/Release/middleware.a(cc_pm_ops.o) (CPUcpsid)
../../../driverlib/gcc/lib/Release/libdriver.a(interrupt.o)
                              obj/Release/main.o (IntVTableBaseSet)
../../../driverlib/gcc/lib/Release/libdriver.a(pin.o)
                              ../../../middleware/gcc/lib/Release/middleware.a(cc_io_park.o) (PinConfigSet)
../../../driverlib/gcc/lib/Release/libdriver.a(prcm.o)
                              obj/Release/main.o (PRCMPeripheralClkEnable)
../../../driverlib/gcc/lib/Release/libdriver.a(spi.o)
                              obj/Release/utils_if.o (SPIConfigSetExpClk)
../../../driverlib/gcc/lib/Release/libdriver.a(timer.o)
                              ../../../simplelink/gcc/lib/os_PM/Release/libsimplelink.a(cc_pal_pm.o) (TimerConfigure)
../../../driverlib/gcc/lib/Release/libdriver.a(utils.o)
                              ../../../simplelink/gcc/lib/os_PM/Release/libsimplelink.a(cc_pal_pm.o) (UtilsDelay)
../../../driverlib/gcc/lib/Release/libdriver.a(flash.o)
                              ../../../driverlib/gcc/lib/Release/libdriver.a(prcm.o) (FlashDisable)
/usr/lib/gcc/arm-none-eabi/5.2.0/../../../../arm-none-eabi/lib/armv7e-m/libc_nano.a(lib_a-malloc.o)
                              ../../../oslib/gcc/free_rtos/Release/free_rtos.a(heap_3.o) (malloc)
/usr/lib/gcc/arm-none-eabi/5.2.0/../../../../arm-none-eabi/lib/armv7e-m/libc_nano.a(lib_a-memcmp.o)
                              ../../../oslib/gcc/free_rtos/Release/free_rtos.a(tasks.o) (memcmp)
/usr/lib/gcc/arm-none-eabi/5.2.0/../../../../arm-none-eabi/lib/armv7e-m/libc_nano.a(lib_a-memcpy.o)
                              ../../../simplelink/gcc/lib/os_PM/Release/libsimplelink.a(driver.o) (memcpy)
/usr/lib/gcc/arm-none-eabi/5.2.0/../../../../arm-none-eabi/lib/armv7e-m/libc_nano.a(lib_a-memset.o)
                              obj/Release/lp3p0_board.o (memset)
/usr/lib/gcc/arm-none-eabi/5.2.0/../../../../arm-none-eabi/lib/armv7e-m/libc_nano.a(lib_a-nano-freer.o)
                              /usr/lib/gcc/arm-none-eabi/5.2.0/../../../../arm-none-eabi/lib/armv7e-m/libc_nano.a(lib_a-malloc.o) (_free_r)
/usr/lib/gcc/arm-none-eabi/5.2.0/../../../../arm-none-eabi/lib/armv7e-m/libc_nano.a(lib_a-nano-mallocr.o)
                              /usr/lib/gcc/arm-none-eabi/5.2.0/../../../../arm-none-eabi/lib/armv7e-m/libc_nano.a(lib_a-malloc.o) (_malloc_r)
/usr/lib/gcc/arm-none-eabi/5.2.0/../../../../arm-none-eabi/lib/armv7e-m/libc_nano.a(lib_a-sbrkr.o)
                              /usr/lib/gcc/arm-none-eabi/5.2.0/../../../../arm-none-eabi/lib/armv7e-m/libc_nano.a(lib_a-nano-mallocr.o) (_sbrk_r)
/usr/lib/gcc/arm-none-eabi/5.2.0/../../../../arm-none-eabi/lib/armv7e-m/libc_nano.a(lib_a-snprintf.o)
                              obj/Release/main.o (snprintf)
/usr/lib/gcc/arm-none-eabi/5.2.0/../../../../arm-none-eabi/lib/armv7e-m/libc_nano.a(lib_a-sprintf.o)
                              obj/Release/main.o (sprintf)
/usr/lib/gcc/arm-none-eabi/5.2.0/../../../../arm-none-eabi/lib/armv7e-m/libc_nano.a(lib_a-strcpy.o)
                              ../../../oslib/gcc/free_rtos/Release/free_rtos.a(tasks.o) (strcpy)
/usr/lib/gcc/arm-none-eabi/5.2.0/../../../../arm-none-eabi/lib/armv7e-m/libc_nano.a(lib_a-strlen.o)
                              obj/Release/main.o (strlen)
/usr/lib/gcc/arm-none-eabi/5.2.0/../../../../arm-none-eabi/lib/armv7e-m/libc_nano.a(lib_a-impure.o)
                              /usr/lib/gcc/arm-none-eabi/5.2.0/../../../../arm-none-eabi/lib/armv7e-m/libc_nano.a(lib_a-malloc.o) (_impure_ptr)
/usr/lib/gcc/arm-none-eabi/5.2.0/../../../../arm-none-eabi/lib/armv7e-m/libc_nano.a(lib_a-nano-svfprintf.o)
                              /usr/lib/gcc/arm-none-eabi/5.2.0/../../../../arm-none-eabi/lib/armv7e-m/libc_nano.a(lib_a-snprintf.o) (_svfprintf_r)
/usr/lib/gcc/arm-none-eabi/5.2.0/../../../../arm-none-eabi/lib/armv7e-m/libc_nano.a(lib_a-nano-vfprintf_i.o)
                              /usr/lib/gcc/arm-none-eabi/5.2.0/../../../../arm-none-eabi/lib/armv7e-m/libc_nano.a(lib_a-nano-svfprintf.o) (_printf_i)
/usr/lib/gcc/arm-none-eabi/5.2.0/../../../../arm-none-eabi/lib/armv7e-m/libc_nano.a(lib_a-reent.o)
                              /usr/lib/gcc/arm-none-eabi/5.2.0/../../../../arm-none-eabi/lib/armv7e-m/libc_nano.a(lib_a-sbrkr.o) (errno)
/usr/lib/gcc/arm-none-eabi/5.2.0/../../../../arm-none-eabi/lib/armv7e-m/libc_nano.a(lib_a-memchr.o)
                              /usr/lib/gcc/arm-none-eabi/5.2.0/../../../../arm-none-eabi/lib/armv7e-m/libc_nano.a(lib_a-nano-svfprintf.o) (memchr)
/usr/lib/gcc/arm-none-eabi/5.2.0/../../../../arm-none-eabi/lib/armv7e-m/libc_nano.a(lib_a-memmove.o)
                              /usr/lib/gcc/arm-none-eabi/5.2.0/../../../../arm-none-eabi/lib/armv7e-m/libc_nano.a(lib_a-nano-svfprintf.o) (memmove)
/usr/lib/gcc/arm-none-eabi/5.2.0/../../../../arm-none-eabi/lib/armv7e-m/libc_nano.a(lib_a-nano-reallocr.o)
                              /usr/lib/gcc/arm-none-eabi/5.2.0/../../../../arm-none-eabi/lib/armv7e-m/libc_nano.a(lib_a-nano-svfprintf.o) (_realloc_r)
/usr/lib/gcc/arm-none-eabi/5.2.0/../../../../arm-none-eabi/lib/armv7e-m/libc_nano.a(lib_a-nano-msizer.o)
                              /usr/lib/gcc/arm-none-eabi/5.2.0/../../../../arm-none-eabi/lib/armv7e-m/libc_nano.a(lib_a-nano-reallocr.o) (_malloc_usable_size_r)
/usr/lib/gcc/arm-none-eabi/5.2.0/armv7e-m/libgcc.a(_aeabi_uldivmod.o)
                              ../../../middleware/gcc/lib/Release/middleware.a(cc_timer.o) (__aeabi_uldivmod)
/usr/lib/gcc/arm-none-eabi/5.2.0/armv7e-m/libgcc.a(_udivmoddi4.o)
                              /usr/lib/gcc/arm-none-eabi/5.2.0/armv7e-m/libgcc.a(_aeabi_uldivmod.o) (__udivmoddi4)
/usr/lib/gcc/arm-none-eabi/5.2.0/armv7e-m/libgcc.a(_dvmd_tls.o)
                              /usr/lib/gcc/arm-none-eabi/5.2.0/armv7e-m/libgcc.a(_aeabi_uldivmod.o) (__aeabi_ldiv0)

Allocating common symbols
Common symbol       size              file

nvic_reg_store      0x110             ../../../middleware/gcc/lib/Release/middleware.a(cc_pm_ops.o)
dma_ctrl_table      0x400             obj/Release/lp3p0_board.o
g_bDeviceRestartIsRequired
                    0x1               ../../../simplelink/gcc/lib/os_PM/Release/libsimplelink.a(driver.o)
g_tConnectionFlag   0x4               obj/Release/main.o
errno               0x4               /usr/lib/gcc/arm-none-eabi/5.2.0/../../../../arm-none-eabi/lib/armv7e-m/libc_nano.a(lib_a-reent.o)
g_cBuffer           0x5c0             obj/Release/main.o
isr_handler_list    0x800             ../../../middleware/gcc/lib/Release/middleware.a(interrupt_hal.o)
spi_ctrl            0xf0              ../../../middleware/gcc/lib/Release/middleware.a(spi_hal.o)
xQueueRegistry      0x50              ../../../oslib/gcc/free_rtos/Release/free_rtos.a(queue.o)
RxIrqCnt            0x1               ../../../simplelink/gcc/lib/os_PM/Release/libsimplelink.a(driver.o)
g_tWkupSignalQueue  0x4               obj/Release/main.o
g_tUartHndl         0x4               obj/Release/main.o
i                   0x4               ../../../middleware/gcc/lib/Release/middleware.a(dma_hal.o)
user_sel_power_mode
                    0x4               obj/Release/lp3p0_plat_ops.o
gpio_control        0x6c              ../../../middleware/gcc/lib/Release/middleware.a(gpio_hal.o)
spi_rtos_drv        0x9c              ../../../middleware/gcc/lib/Release/middleware.a(spi_drv.o)
g_cErrBuff          0x64              obj/Release/main.o
uart_rtos_drv       0x68              ../../../middleware/gcc/lib/Release/middleware.a(uart_drv.o)
timer_hndl          0x4               obj/Release/lp3p0_board.o
vault_arm_registers
                    0x1c              ../../../middleware/gcc/lib/Release/middleware.a(cc_pm.o)
uart_state          0xb0              ../../../middleware/gcc/lib/Release/middleware.a(uart_hal.o)

Discarded input sections

 .text          0x0000000000000000        0x0 obj/Release/main.o
 .data          0x0000000000000000        0x0 obj/Release/main.o
 .bss           0x0000000000000000        0x0 obj/Release/main.o
 .text.vApplicationTickHook
                0x0000000000000000        0x2 obj/Release/main.o
 .text          0x0000000000000000        0x0 obj/Release/pinmux.o
 .data          0x0000000000000000        0x0 obj/Release/pinmux.o
 .bss           0x0000000000000000        0x0 obj/Release/pinmux.o
 .text          0x0000000000000000        0x0 obj/Release/lp3p0_board.o
 .data          0x0000000000000000        0x0 obj/Release/lp3p0_board.o
 .bss           0x0000000000000000        0x0 obj/Release/lp3p0_board.o
 .text          0x0000000000000000        0x0 obj/Release/lp3p0_plat_ops.o
 .data          0x0000000000000000        0x0 obj/Release/lp3p0_plat_ops.o
 .bss           0x0000000000000000        0x0 obj/Release/lp3p0_plat_ops.o
 .text          0x0000000000000000        0x0 obj/Release/wdt_if.o
 .data          0x0000000000000000        0x0 obj/Release/wdt_if.o
 .bss           0x0000000000000000        0x0 obj/Release/wdt_if.o
 .text          0x0000000000000000        0x0 obj/Release/utils_if.o
 .data          0x0000000000000000        0x0 obj/Release/utils_if.o
 .bss           0x0000000000000000        0x0 obj/Release/utils_if.o
 .text.Utils_TriggerHibCycle
                0x0000000000000000       0x1a obj/Release/utils_if.o
 .text          0x0000000000000000        0x0 obj/Release/startup_gcc.o
 .data          0x0000000000000000        0x0 obj/Release/startup_gcc.o
 .bss           0x0000000000000000        0x0 obj/Release/startup_gcc.o
 .text          0x0000000000000000        0x0 ../../../simplelink/gcc/lib/os_PM/Release/libsimplelink.a(device.o)
 .data          0x0000000000000000        0x0 ../../../simplelink/gcc/lib/os_PM/Release/libsimplelink.a(device.o)
 .bss           0x0000000000000000        0x0 ../../../simplelink/gcc/lib/os_PM/Release/libsimplelink.a(device.o)
 .text.sl_Stop_WithNwpLpdsPoll
                0x0000000000000000       0x98 ../../../simplelink/gcc/lib/os_PM/Release/libsimplelink.a(device.o)
 .text.sl_EventMaskSet
                0x0000000000000000       0x40 ../../../simplelink/gcc/lib/os_PM/Release/libsimplelink.a(device.o)
 .text.sl_EventMaskGet
                0x0000000000000000       0x40 ../../../simplelink/gcc/lib/os_PM/Release/libsimplelink.a(device.o)
 .text.sl_DevGet
                0x0000000000000000       0x8c ../../../simplelink/gcc/lib/os_PM/Release/libsimplelink.a(device.o)
 .text.sl_DevSet
                0x0000000000000000       0x64 ../../../simplelink/gcc/lib/os_PM/Release/libsimplelink.a(device.o)
 .rodata._SlEventMaskGetCmdCtrl
                0x0000000000000000        0x4 ../../../simplelink/gcc/lib/os_PM/Release/libsimplelink.a(device.o)
 .rodata._SlDeviceGetCmdCtrl
                0x0000000000000000        0x4 ../../../simplelink/gcc/lib/os_PM/Release/libsimplelink.a(device.o)
 .rodata._SlEventMaskSetCmdCtrl
                0x0000000000000000        0x4 ../../../simplelink/gcc/lib/os_PM/Release/libsimplelink.a(device.o)
 .rodata._SlDeviceSetCmdCtrl
                0x0000000000000000        0x4 ../../../simplelink/gcc/lib/os_PM/Release/libsimplelink.a(device.o)
 .text          0x0000000000000000        0x0 ../../../simplelink/gcc/lib/os_PM/Release/libsimplelink.a(driver.o)
 .data          0x0000000000000000        0x0 ../../../simplelink/gcc/lib/os_PM/Release/libsimplelink.a(driver.o)
 .bss           0x0000000000000000        0x0 ../../../simplelink/gcc/lib/os_PM/Release/libsimplelink.a(driver.o)
 .text._SlDrvDataWriteOp
                0x0000000000000000       0xe0 ../../../simplelink/gcc/lib/os_PM/Release/libsimplelink.a(driver.o)
 .text._SlDrvStartMeasureTimeout
                0x0000000000000000       0x14 ../../../simplelink/gcc/lib/os_PM/Release/libsimplelink.a(driver.o)
 .text          0x0000000000000000        0x0 ../../../simplelink/gcc/lib/os_PM/Release/libsimplelink.a(netapp.o)
 .data          0x0000000000000000        0x0 ../../../simplelink/gcc/lib/os_PM/Release/libsimplelink.a(netapp.o)
 .bss           0x0000000000000000        0x0 ../../../simplelink/gcc/lib/os_PM/Release/libsimplelink.a(netapp.o)
 .text.sl_NetAppStart
                0x0000000000000000       0x40 ../../../simplelink/gcc/lib/os_PM/Release/libsimplelink.a(netapp.o)
 .text.sl_NetAppStop
                0x0000000000000000       0x40 ../../../simplelink/gcc/lib/os_PM/Release/libsimplelink.a(netapp.o)
 .text.sl_NetAppGetServiceList
                0x0000000000000000       0x90 ../../../simplelink/gcc/lib/os_PM/Release/libsimplelink.a(netapp.o)
 .text.sl_NetAppMDNSRegisterUnregisterService
                0x0000000000000000       0x98 ../../../simplelink/gcc/lib/os_PM/Release/libsimplelink.a(netapp.o)
 .text.sl_NetAppMDNSRegisterService
                0x0000000000000000       0x38 ../../../simplelink/gcc/lib/os_PM/Release/libsimplelink.a(netapp.o)
 .text.sl_NetAppMDNSUnRegisterService
                0x0000000000000000       0x38 ../../../simplelink/gcc/lib/os_PM/Release/libsimplelink.a(netapp.o)
 .text.sl_NetAppDnsGetHostByService
                0x0000000000000000       0xc0 ../../../simplelink/gcc/lib/os_PM/Release/libsimplelink.a(netapp.o)
 .text._sl_HandleAsync_DnsGetHostByAddr
                0x0000000000000000        0x4 ../../../simplelink/gcc/lib/os_PM/Release/libsimplelink.a(netapp.o)
 .text.sl_NetAppDnsGetHostByName
                0x0000000000000000       0xcc ../../../simplelink/gcc/lib/os_PM/Release/libsimplelink.a(netapp.o)
 .text.sl_NetAppPingStart
                0x0000000000000000      0x158 ../../../simplelink/gcc/lib/os_PM/Release/libsimplelink.a(netapp.o)
 .text.sl_NetAppSet
                0x0000000000000000       0x64 ../../../simplelink/gcc/lib/os_PM/Release/libsimplelink.a(netapp.o)
 .text.sl_NetAppGet
                0x0000000000000000       0x7c ../../../simplelink/gcc/lib/os_PM/Release/libsimplelink.a(netapp.o)
 .rodata        0x0000000000000000        0x4 ../../../simplelink/gcc/lib/os_PM/Release/libsimplelink.a(netapp.o)
 .rodata._SlNetAppStopCtrl
                0x0000000000000000        0x4 ../../../simplelink/gcc/lib/os_PM/Release/libsimplelink.a(netapp.o)
 .rodata._SlGetServiceListeCtrl
                0x0000000000000000        0x4 ../../../simplelink/gcc/lib/os_PM/Release/libsimplelink.a(netapp.o)
 .rodata._SlGetHostByServiceCtrl
                0x0000000000000000        0x4 ../../../simplelink/gcc/lib/os_PM/Release/libsimplelink.a(netapp.o)
 .rodata._SlGetHostByNameCtrl
                0x0000000000000000        0x4 ../../../simplelink/gcc/lib/os_PM/Release/libsimplelink.a(netapp.o)
 .rodata._SlNetAppGetCmdCtrl
                0x0000000000000000        0x4 ../../../simplelink/gcc/lib/os_PM/Release/libsimplelink.a(netapp.o)
 .rodata._SlNetAppStartCtrl
                0x0000000000000000        0x4 ../../../simplelink/gcc/lib/os_PM/Release/libsimplelink.a(netapp.o)
 .rodata._SlRegisterServiceCtrl
                0x0000000000000000        0x4 ../../../simplelink/gcc/lib/os_PM/Release/libsimplelink.a(netapp.o)
 .rodata._SlNetAppSetCmdCtrl
                0x0000000000000000        0x4 ../../../simplelink/gcc/lib/os_PM/Release/libsimplelink.a(netapp.o)
 .rodata.CSWTCH.35
                0x0000000000000000        0x6 ../../../simplelink/gcc/lib/os_PM/Release/libsimplelink.a(netapp.o)
 .text          0x0000000000000000        0x0 ../../../simplelink/gcc/lib/os_PM/Release/libsimplelink.a(socket.o)
 .data          0x0000000000000000        0x0 ../../../simplelink/gcc/lib/os_PM/Release/libsimplelink.a(socket.o)
 .bss           0x0000000000000000        0x0 ../../../simplelink/gcc/lib/os_PM/Release/libsimplelink.a(socket.o)
 .text._sl_ParseAddress
                0x0000000000000000       0x30 ../../../simplelink/gcc/lib/os_PM/Release/libsimplelink.a(socket.o)
 .text.sl_Close
                0x0000000000000000       0x40 ../../../simplelink/gcc/lib/os_PM/Release/libsimplelink.a(socket.o)
 .text.sl_SendTo
                0x0000000000000000       0xe8 ../../../simplelink/gcc/lib/os_PM/Release/libsimplelink.a(socket.o)
 .text.sl_Connect
                0x0000000000000000       0xf8 ../../../simplelink/gcc/lib/os_PM/Release/libsimplelink.a(socket.o)
 .text.sl_Send  0x0000000000000000       0xd8 ../../../simplelink/gcc/lib/os_PM/Release/libsimplelink.a(socket.o)
 .text.sl_Listen
                0x0000000000000000       0x44 ../../../simplelink/gcc/lib/os_PM/Release/libsimplelink.a(socket.o)
 .text.sl_Accept
                0x0000000000000000      0x114 ../../../simplelink/gcc/lib/os_PM/Release/libsimplelink.a(socket.o)
 .text.sl_Htonl
                0x0000000000000000       0x22 ../../../simplelink/gcc/lib/os_PM/Release/libsimplelink.a(socket.o)
 .text.sl_Recv  0x0000000000000000       0x64 ../../../simplelink/gcc/lib/os_PM/Release/libsimplelink.a(socket.o)
 .text.sl_SetSockOpt
                0x0000000000000000       0x6c ../../../simplelink/gcc/lib/os_PM/Release/libsimplelink.a(socket.o)
 .text.sl_GetSockOpt
                0x0000000000000000       0x94 ../../../simplelink/gcc/lib/os_PM/Release/libsimplelink.a(socket.o)
 .text.sl_Select
                0x0000000000000000       0xf4 ../../../simplelink/gcc/lib/os_PM/Release/libsimplelink.a(socket.o)
 .text.SL_FD_SET
                0x0000000000000000       0x12 ../../../simplelink/gcc/lib/os_PM/Release/libsimplelink.a(socket.o)
 .text.SL_FD_CLR
                0x0000000000000000       0x14 ../../../simplelink/gcc/lib/os_PM/Release/libsimplelink.a(socket.o)
 .text.SL_FD_ISSET
                0x0000000000000000       0x16 ../../../simplelink/gcc/lib/os_PM/Release/libsimplelink.a(socket.o)
 .text.SL_FD_ZERO
                0x0000000000000000        0x6 ../../../simplelink/gcc/lib/os_PM/Release/libsimplelink.a(socket.o)
 .rodata._SlSelectCmdCtrl
                0x0000000000000000        0x4 ../../../simplelink/gcc/lib/os_PM/Release/libsimplelink.a(socket.o)
 .rodata._SlSendCmdCtrl
                0x0000000000000000        0x4 ../../../simplelink/gcc/lib/os_PM/Release/libsimplelink.a(socket.o)
 .rodata._SlPayloadByProtocolLUT
                0x0000000000000000       0x10 ../../../simplelink/gcc/lib/os_PM/Release/libsimplelink.a(socket.o)
 .rodata._SlListenCmdCtrl
                0x0000000000000000        0x4 ../../../simplelink/gcc/lib/os_PM/Release/libsimplelink.a(socket.o)
 .rodata._SlSockCloseCmdCtrl
                0x0000000000000000        0x4 ../../../simplelink/gcc/lib/os_PM/Release/libsimplelink.a(socket.o)
 .rodata._SlRecvCmdCtrl
                0x0000000000000000        0x4 ../../../simplelink/gcc/lib/os_PM/Release/libsimplelink.a(socket.o)
 .rodata._SlAcceptCmdCtrl
                0x0000000000000000        0x4 ../../../simplelink/gcc/lib/os_PM/Release/libsimplelink.a(socket.o)
 .rodata._SlGetSockOptCmdCtrl
                0x0000000000000000        0x4 ../../../simplelink/gcc/lib/os_PM/Release/libsimplelink.a(socket.o)
 .rodata._SlSetSockOptCmdCtrl
                0x0000000000000000        0x4 ../../../simplelink/gcc/lib/os_PM/Release/libsimplelink.a(socket.o)
 .text          0x0000000000000000        0x0 ../../../simplelink/gcc/lib/os_PM/Release/libsimplelink.a(wlan.o)
 .data          0x0000000000000000        0x0 ../../../simplelink/gcc/lib/os_PM/Release/libsimplelink.a(wlan.o)
 .bss           0x0000000000000000        0x0 ../../../simplelink/gcc/lib/os_PM/Release/libsimplelink.a(wlan.o)
 .text.sl_WlanPolicyGet
                0x0000000000000000       0xa8 ../../../simplelink/gcc/lib/os_PM/Release/libsimplelink.a(wlan.o)
 .text.sl_WlanProfileAdd
                0x0000000000000000      0x1b8 ../../../simplelink/gcc/lib/os_PM/Release/libsimplelink.a(wlan.o)
 .text.sl_WlanProfileGet
                0x0000000000000000       0xd4 ../../../simplelink/gcc/lib/os_PM/Release/libsimplelink.a(wlan.o)
 .text.sl_WlanProfileDel
                0x0000000000000000       0x40 ../../../simplelink/gcc/lib/os_PM/Release/libsimplelink.a(wlan.o)
 .text.sl_WlanGetNetworkList
                0x0000000000000000       0x68 ../../../simplelink/gcc/lib/os_PM/Release/libsimplelink.a(wlan.o)
 .text.sl_WlanRxFilterAdd
                0x0000000000000000       0x80 ../../../simplelink/gcc/lib/os_PM/Release/libsimplelink.a(wlan.o)
 .text.sl_WlanRxFilterSet
                0x0000000000000000       0x58 ../../../simplelink/gcc/lib/os_PM/Release/libsimplelink.a(wlan.o)
 .text.sl_WlanRxFilterGet
                0x0000000000000000       0x70 ../../../simplelink/gcc/lib/os_PM/Release/libsimplelink.a(wlan.o)
 .text.sl_WlanRxStatStart
                0x0000000000000000       0x28 ../../../simplelink/gcc/lib/os_PM/Release/libsimplelink.a(wlan.o)
 .text.sl_WlanRxStatStop
                0x0000000000000000       0x28 ../../../simplelink/gcc/lib/os_PM/Release/libsimplelink.a(wlan.o)
 .text.sl_WlanRxStatGet
                0x0000000000000000       0x44 ../../../simplelink/gcc/lib/os_PM/Release/libsimplelink.a(wlan.o)
 .text.sl_WlanSmartConfigStop
                0x0000000000000000       0x28 ../../../simplelink/gcc/lib/os_PM/Release/libsimplelink.a(wlan.o)
 .text.sl_WlanSmartConfigStart
                0x0000000000000000       0x84 ../../../simplelink/gcc/lib/os_PM/Release/libsimplelink.a(wlan.o)
 .text.sl_WlanSet
                0x0000000000000000       0x64 ../../../simplelink/gcc/lib/os_PM/Release/libsimplelink.a(wlan.o)
 .text.sl_WlanGet
                0x0000000000000000       0x94 ../../../simplelink/gcc/lib/os_PM/Release/libsimplelink.a(wlan.o)
 .rodata        0x0000000000000000        0x4 ../../../simplelink/gcc/lib/os_PM/Release/libsimplelink.a(wlan.o)
 .rodata._SlWlanCfgSetCmdCtrl
                0x0000000000000000        0x4 ../../../simplelink/gcc/lib/os_PM/Release/libsimplelink.a(wlan.o)
 .rodata._SlSmartConfigStartCmdCtrl
                0x0000000000000000        0x4 ../../../simplelink/gcc/lib/os_PM/Release/libsimplelink.a(wlan.o)
 .rodata._SlProfileDelCmdCtrl
                0x0000000000000000        0x4 ../../../simplelink/gcc/lib/os_PM/Release/libsimplelink.a(wlan.o)
 .rodata._SlRxFilterGetCmdCtrl
                0x0000000000000000        0x4 ../../../simplelink/gcc/lib/os_PM/Release/libsimplelink.a(wlan.o)
 .rodata._SlWlanGetNetworkListCtrl
                0x0000000000000000        0x4 ../../../simplelink/gcc/lib/os_PM/Release/libsimplelink.a(wlan.o)
 .rodata._SlRxFilterSetCmdCtrl
                0x0000000000000000        0x4 ../../../simplelink/gcc/lib/os_PM/Release/libsimplelink.a(wlan.o)
 .rodata._SlRxFilterAddtCmdCtrl
                0x0000000000000000        0x4 ../../../simplelink/gcc/lib/os_PM/Release/libsimplelink.a(wlan.o)
 .rodata._SlPolicyGetCmdCtrl
                0x0000000000000000        0x4 ../../../simplelink/gcc/lib/os_PM/Release/libsimplelink.a(wlan.o)
 .rodata._SlProfileGetCmdCtrl
                0x0000000000000000        0x4 ../../../simplelink/gcc/lib/os_PM/Release/libsimplelink.a(wlan.o)
 .rodata._SlWlanCfgGetCmdCtrl
                0x0000000000000000        0x4 ../../../simplelink/gcc/lib/os_PM/Release/libsimplelink.a(wlan.o)
 .text          0x0000000000000000        0x0 ../../../simplelink/gcc/lib/os_PM/Release/libsimplelink.a(cc_pal_pm.o)
 .data          0x0000000000000000        0x0 ../../../simplelink/gcc/lib/os_PM/Release/libsimplelink.a(cc_pal_pm.o)
 .bss           0x0000000000000000        0x0 ../../../simplelink/gcc/lib/os_PM/Release/libsimplelink.a(cc_pal_pm.o)
 .text.NwpPowerOff_WithNwpLpdsPoll
                0x0000000000000000       0x5c ../../../simplelink/gcc/lib/os_PM/Release/libsimplelink.a(cc_pal_pm.o)
 .bss.g_pHostIntHdl
                0x0000000000000000        0x4 ../../../simplelink/gcc/lib/os_PM/Release/libsimplelink.a(cc_pal_pm.o)
 .text          0x0000000000000000        0x0 ../../../middleware/gcc/lib/Release/middleware.a(dma_hal.o)
 .data          0x0000000000000000        0x0 ../../../middleware/gcc/lib/Release/middleware.a(dma_hal.o)
 .bss           0x0000000000000000        0x0 ../../../middleware/gcc/lib/Release/middleware.a(dma_hal.o)
 .text.submit_sg_bvec
                0x0000000000000000       0x94 ../../../middleware/gcc/lib/Release/middleware.a(dma_hal.o)
 .text.cc_dma_exit
                0x0000000000000000        0xa ../../../middleware/gcc/lib/Release/middleware.a(dma_hal.o)
 .text.cc_dma_free
                0x0000000000000000        0x8 ../../../middleware/gcc/lib/Release/middleware.a(dma_hal.o)
 .text.cc_dma_submit_pp_endp
                0x0000000000000000       0x30 ../../../middleware/gcc/lib/Release/middleware.a(dma_hal.o)
 .text.cc_dma_prep_sg_elem_ctlw
                0x0000000000000000       0xa4 ../../../middleware/gcc/lib/Release/middleware.a(dma_hal.o)
 .text.cc_dma_submit_sg_bvec
                0x0000000000000000       0x44 ../../../middleware/gcc/lib/Release/middleware.a(dma_hal.o)
 .text.cc_dma_done
                0x0000000000000000       0x2c ../../../middleware/gcc/lib/Release/middleware.a(dma_hal.o)
 .text          0x0000000000000000        0x0 ../../../middleware/gcc/lib/Release/middleware.a(gpio_hal.o)
 .data          0x0000000000000000        0x0 ../../../middleware/gcc/lib/Release/middleware.a(gpio_hal.o)
 .bss           0x0000000000000000        0x0 ../../../middleware/gcc/lib/Release/middleware.a(gpio_hal.o)
 .text.cc_gpio_close
                0x0000000000000000       0x48 ../../../middleware/gcc/lib/Release/middleware.a(gpio_hal.o)
 .text.cc_gpio_read
                0x0000000000000000       0x7c ../../../middleware/gcc/lib/Release/middleware.a(gpio_hal.o)
 .text.cc_gpio_write
                0x0000000000000000       0x6c ../../../middleware/gcc/lib/Release/middleware.a(gpio_hal.o)
 .text.cc_gpio_toggle
                0x0000000000000000       0x7c ../../../middleware/gcc/lib/Release/middleware.a(gpio_hal.o)
 .text.cc_gpio_disable_notification
                0x0000000000000000       0x70 ../../../middleware/gcc/lib/Release/middleware.a(gpio_hal.o)
 .text.cc_gpio_get_callback
                0x0000000000000000        0xc ../../../middleware/gcc/lib/Release/middleware.a(gpio_hal.o)
 .text.cc_gpio_save_context
                0x0000000000000000        0x2 ../../../middleware/gcc/lib/Release/middleware.a(gpio_hal.o)
 .text          0x0000000000000000        0x0 ../../../middleware/gcc/lib/Release/middleware.a(hw_timer32.o)
 .data          0x0000000000000000        0x0 ../../../middleware/gcc/lib/Release/middleware.a(hw_timer32.o)
 .bss           0x0000000000000000        0x0 ../../../middleware/gcc/lib/Release/middleware.a(hw_timer32.o)
 .text          0x0000000000000000        0x0 ../../../middleware/gcc/lib/Release/middleware.a(interrupt_hal.o)
 .data          0x0000000000000000        0x0 ../../../middleware/gcc/lib/Release/middleware.a(interrupt_hal.o)
 .bss           0x0000000000000000        0x0 ../../../middleware/gcc/lib/Release/middleware.a(interrupt_hal.o)
 .text          0x0000000000000000        0x0 ../../../middleware/gcc/lib/Release/middleware.a(rtc_hal.o)
 .data          0x0000000000000000        0x0 ../../../middleware/gcc/lib/Release/middleware.a(rtc_hal.o)
 .bss           0x0000000000000000        0x0 ../../../middleware/gcc/lib/Release/middleware.a(rtc_hal.o)
 .text.cc_rtc_set_alarm
                0x0000000000000000       0x28 ../../../middleware/gcc/lib/Release/middleware.a(rtc_hal.o)
 .text.cc_rtc_clr_alarm
                0x0000000000000000       0x24 ../../../middleware/gcc/lib/Release/middleware.a(rtc_hal.o)
 .text.cc_rtc_time_to_alarm
                0x0000000000000000       0x28 ../../../middleware/gcc/lib/Release/middleware.a(rtc_hal.o)
 .text.cc_rtc_get
                0x0000000000000000       0x12 ../../../middleware/gcc/lib/Release/middleware.a(rtc_hal.o)
 .text          0x0000000000000000        0x0 ../../../middleware/gcc/lib/Release/middleware.a(util64.o)
 .data          0x0000000000000000        0x0 ../../../middleware/gcc/lib/Release/middleware.a(util64.o)
 .bss           0x0000000000000000        0x0 ../../../middleware/gcc/lib/Release/middleware.a(util64.o)
 .text.util_u64_time_sub
                0x0000000000000000       0x30 ../../../middleware/gcc/lib/Release/middleware.a(util64.o)
 .text.util_u32_data_cmp
                0x0000000000000000       0x14 ../../../middleware/gcc/lib/Release/middleware.a(util64.o)
 .text          0x0000000000000000        0x0 ../../../middleware/gcc/lib/Release/middleware.a(spi_drv.o)
 .data          0x0000000000000000        0x0 ../../../middleware/gcc/lib/Release/middleware.a(spi_drv.o)
 .bss           0x0000000000000000        0x0 ../../../middleware/gcc/lib/Release/middleware.a(spi_drv.o)
 .text.spi_write_read
                0x0000000000000000       0x76 ../../../middleware/gcc/lib/Release/middleware.a(spi_drv.o)
 .text          0x0000000000000000        0x0 ../../../middleware/gcc/lib/Release/middleware.a(uart_drv.o)
 .data          0x0000000000000000        0x0 ../../../middleware/gcc/lib/Release/middleware.a(uart_drv.o)
 .bss           0x0000000000000000        0x0 ../../../middleware/gcc/lib/Release/middleware.a(uart_drv.o)
 .text.uart_close
                0x0000000000000000       0x22 ../../../middleware/gcc/lib/Release/middleware.a(uart_drv.o)
 .text.uart_read
                0x0000000000000000       0x9a ../../../middleware/gcc/lib/Release/middleware.a(uart_drv.o)
 .text          0x0000000000000000        0x0 ../../../middleware/gcc/lib/Release/middleware.a(cc_pm.o)
 .data          0x0000000000000000        0x0 ../../../middleware/gcc/lib/Release/middleware.a(cc_pm.o)
 .bss           0x0000000000000000        0x0 ../../../middleware/gcc/lib/Release/middleware.a(cc_pm.o)
 .text.cc_app_putoff_pm
                0x0000000000000000       0x24 ../../../middleware/gcc/lib/Release/middleware.a(cc_pm.o)
 .text.cc_app_resume_pm
                0x0000000000000000       0x24 ../../../middleware/gcc/lib/Release/middleware.a(cc_pm.o)
 .bss.idle_trace
                0x0000000000000000        0x4 ../../../middleware/gcc/lib/Release/middleware.a(cc_pm.o)
 .text          0x0000000000000000        0x0 ../../../middleware/gcc/lib/Release/middleware.a(cc_timer.o)
 .data          0x0000000000000000        0x0 ../../../middleware/gcc/lib/Release/middleware.a(cc_timer.o)
 .bss           0x0000000000000000        0x0 ../../../middleware/gcc/lib/Release/middleware.a(cc_timer.o)
 .text.cc_timer_stop
                0x0000000000000000       0x64 ../../../middleware/gcc/lib/Release/middleware.a(cc_timer.o)
 .text.cc_timer_delete
                0x0000000000000000       0x48 ../../../middleware/gcc/lib/Release/middleware.a(cc_timer.o)
 .text          0x0000000000000000        0x0 ../../../middleware/gcc/lib/Release/middleware.a(cc_io_park.o)
 .data          0x0000000000000000        0x0 ../../../middleware/gcc/lib/Release/middleware.a(cc_io_park.o)
 .bss           0x0000000000000000        0x0 ../../../middleware/gcc/lib/Release/middleware.a(cc_io_park.o)
 .text.cc_set_default
                0x0000000000000000       0x4a ../../../middleware/gcc/lib/Release/middleware.a(cc_io_park.o)
 .text          0x0000000000000000        0x0 ../../../middleware/gcc/lib/Release/middleware.a(cc_pm_ops.o)
 .data          0x0000000000000000        0x0 ../../../middleware/gcc/lib/Release/middleware.a(cc_pm_ops.o)
 .bss           0x0000000000000000        0x0 ../../../middleware/gcc/lib/Release/middleware.a(cc_pm_ops.o)
 .text.cc_dsbl_sys_irq
                0x0000000000000000       0x14 ../../../middleware/gcc/lib/Release/middleware.a(cc_pm_ops.o)
 .text.cc_enbl_sys_irq
                0x0000000000000000       0x18 ../../../middleware/gcc/lib/Release/middleware.a(cc_pm_ops.o)
 .bss.debug     0x0000000000000000        0x4 ../../../middleware/gcc/lib/Release/middleware.a(cc_pm_ops.o)
 .text          0x0000000000000000        0x0 ../../../middleware/gcc/lib/Release/middleware.a(spi_hal.o)
 .data          0x0000000000000000        0x0 ../../../middleware/gcc/lib/Release/middleware.a(spi_hal.o)
 .bss           0x0000000000000000        0x0 ../../../middleware/gcc/lib/Release/middleware.a(spi_hal.o)
 .text.cc_spi_rw_submit
                0x0000000000000000       0x54 ../../../middleware/gcc/lib/Release/middleware.a(spi_hal.o)
 .text          0x0000000000000000        0x0 ../../../middleware/gcc/lib/Release/middleware.a(uart_hal.o)
 .data          0x0000000000000000        0x0 ../../../middleware/gcc/lib/Release/middleware.a(uart_hal.o)
 .bss           0x0000000000000000        0x0 ../../../middleware/gcc/lib/Release/middleware.a(uart_hal.o)
 .text.cc_uart_rd_submit
                0x0000000000000000       0xac ../../../middleware/gcc/lib/Release/middleware.a(uart_hal.o)
 .text          0x0000000000000000        0x0 ../../../oslib/gcc/free_rtos/Release/free_rtos.a(osi_freertos.o)
 .data          0x0000000000000000        0x0 ../../../oslib/gcc/free_rtos/Release/free_rtos.a(osi_freertos.o)
 .bss           0x0000000000000000        0x0 ../../../oslib/gcc/free_rtos/Release/free_rtos.a(osi_freertos.o)
 .text.osi_TaskDelete
                0x0000000000000000        0x6 ../../../oslib/gcc/free_rtos/Release/free_rtos.a(osi_freertos.o)
 .text.osi_SyncObjClear
                0x0000000000000000       0x1a ../../../oslib/gcc/free_rtos/Release/free_rtos.a(osi_freertos.o)
 .text.VDeleteSimpleLinkSpawnTask
                0x0000000000000000       0x28 ../../../oslib/gcc/free_rtos/Release/free_rtos.a(osi_freertos.o)
 .text.mem_Malloc
                0x0000000000000000        0x4 ../../../oslib/gcc/free_rtos/Release/free_rtos.a(osi_freertos.o)
 .text.mem_Free
                0x0000000000000000        0x4 ../../../oslib/gcc/free_rtos/Release/free_rtos.a(osi_freertos.o)
 .text.mem_set  0x0000000000000000        0x4 ../../../oslib/gcc/free_rtos/Release/free_rtos.a(osi_freertos.o)
 .text.mem_copy
                0x0000000000000000        0x4 ../../../oslib/gcc/free_rtos/Release/free_rtos.a(osi_freertos.o)
 .text.osi_Sleep
                0x0000000000000000        0x4 ../../../oslib/gcc/free_rtos/Release/free_rtos.a(osi_freertos.o)
 .text.osi_TaskDisable
                0x0000000000000000        0xa ../../../oslib/gcc/free_rtos/Release/free_rtos.a(osi_freertos.o)
 .text.osi_TaskEnable
                0x0000000000000000        0x4 ../../../oslib/gcc/free_rtos/Release/free_rtos.a(osi_freertos.o)
 .text.osi_ContextSave
                0x0000000000000000        0x2 ../../../oslib/gcc/free_rtos/Release/free_rtos.a(osi_freertos.o)
 .text.osi_ContextRestore
                0x0000000000000000        0x2 ../../../oslib/gcc/free_rtos/Release/free_rtos.a(osi_freertos.o)
 .text          0x0000000000000000        0x0 ../../../oslib/gcc/free_rtos/Release/free_rtos.a(queue.o)
 .data          0x0000000000000000        0x0 ../../../oslib/gcc/free_rtos/Release/free_rtos.a(queue.o)
 .bss           0x0000000000000000        0x0 ../../../oslib/gcc/free_rtos/Release/free_rtos.a(queue.o)
 .text.xQueueCreateCountingSemaphore
                0x0000000000000000       0x44 ../../../oslib/gcc/free_rtos/Release/free_rtos.a(queue.o)
 .text.xQueueReceiveFromISR
                0x0000000000000000       0x7c ../../../oslib/gcc/free_rtos/Release/free_rtos.a(queue.o)
 .text.xQueuePeekFromISR
                0x0000000000000000       0x64 ../../../oslib/gcc/free_rtos/Release/free_rtos.a(queue.o)
 .text.uxQueueMessagesWaiting
                0x0000000000000000       0x24 ../../../oslib/gcc/free_rtos/Release/free_rtos.a(queue.o)
 .text.uxQueueSpacesAvailable
                0x0000000000000000       0x28 ../../../oslib/gcc/free_rtos/Release/free_rtos.a(queue.o)
 .text.uxQueueMessagesWaitingFromISR
                0x0000000000000000       0x18 ../../../oslib/gcc/free_rtos/Release/free_rtos.a(queue.o)
 .text.uxQueueGetQueueNumber
                0x0000000000000000        0x4 ../../../oslib/gcc/free_rtos/Release/free_rtos.a(queue.o)
 .text.vQueueSetQueueNumber
                0x0000000000000000        0x4 ../../../oslib/gcc/free_rtos/Release/free_rtos.a(queue.o)
 .text.ucQueueGetQueueType
                0x0000000000000000        0x6 ../../../oslib/gcc/free_rtos/Release/free_rtos.a(queue.o)
 .text.xQueueIsQueueEmptyFromISR
                0x0000000000000000       0x20 ../../../oslib/gcc/free_rtos/Release/free_rtos.a(queue.o)
 .text.xQueueIsQueueFullFromISR
                0x0000000000000000       0x20 ../../../oslib/gcc/free_rtos/Release/free_rtos.a(queue.o)
 .text.xQueueCreateSet
                0x0000000000000000        0x8 ../../../oslib/gcc/free_rtos/Release/free_rtos.a(queue.o)
 .text.xQueueAddToSet
                0x0000000000000000       0x22 ../../../oslib/gcc/free_rtos/Release/free_rtos.a(queue.o)
 .text.xQueueRemoveFromSet
                0x0000000000000000       0x20 ../../../oslib/gcc/free_rtos/Release/free_rtos.a(queue.o)
 .text.xQueueSelectFromSet
                0x0000000000000000       0x18 ../../../oslib/gcc/free_rtos/Release/free_rtos.a(queue.o)
 .text.xQueueSelectFromSetFromISR
                0x0000000000000000       0x16 ../../../oslib/gcc/free_rtos/Release/free_rtos.a(queue.o)
 .text          0x0000000000000000        0x0 ../../../oslib/gcc/free_rtos/Release/free_rtos.a(tasks.o)
 .data          0x0000000000000000        0x0 ../../../oslib/gcc/free_rtos/Release/free_rtos.a(tasks.o)
 .bss           0x0000000000000000        0x0 ../../../oslib/gcc/free_rtos/Release/free_rtos.a(tasks.o)
 .text.prvTaskIsTaskSuspended
                0x0000000000000000       0x38 ../../../oslib/gcc/free_rtos/Release/free_rtos.a(tasks.o)
 .text.prvListTaskWithinSingleList
                0x0000000000000000       0x98 ../../../oslib/gcc/free_rtos/Release/free_rtos.a(tasks.o)
 .text.vTaskDelete
                0x0000000000000000       0xb8 ../../../oslib/gcc/free_rtos/Release/free_rtos.a(tasks.o)
 .text.eTaskGetState
                0x0000000000000000       0x70 ../../../oslib/gcc/free_rtos/Release/free_rtos.a(tasks.o)
 .text.uxTaskPriorityGet
                0x0000000000000000       0x1c ../../../oslib/gcc/free_rtos/Release/free_rtos.a(tasks.o)
 .text.uxTaskPriorityGetFromISR
                0x0000000000000000       0x20 ../../../oslib/gcc/free_rtos/Release/free_rtos.a(tasks.o)
 .text.vTaskPrioritySet
                0x0000000000000000       0xc4 ../../../oslib/gcc/free_rtos/Release/free_rtos.a(tasks.o)
 .text.vTaskResume
                0x0000000000000000       0x78 ../../../oslib/gcc/free_rtos/Release/free_rtos.a(tasks.o)
 .text.xTaskResumeFromISR
                0x0000000000000000       0x94 ../../../oslib/gcc/free_rtos/Release/free_rtos.a(tasks.o)
 .text.vTaskEndScheduler
                0x0000000000000000       0x18 ../../../oslib/gcc/free_rtos/Release/free_rtos.a(tasks.o)
 .text.xTaskGetTickCountFromISR
                0x0000000000000000       0x10 ../../../oslib/gcc/free_rtos/Release/free_rtos.a(tasks.o)
 .text.uxTaskGetNumberOfTasks
                0x0000000000000000        0xc ../../../oslib/gcc/free_rtos/Release/free_rtos.a(tasks.o)
 .text.pcTaskGetTaskName
                0x0000000000000000       0x24 ../../../oslib/gcc/free_rtos/Release/free_rtos.a(tasks.o)
 .text.xTaskGetIdleTaskHandle
                0x0000000000000000       0x20 ../../../oslib/gcc/free_rtos/Release/free_rtos.a(tasks.o)
 .text.vTaskDelayUntil
                0x0000000000000000       0xa4 ../../../oslib/gcc/free_rtos/Release/free_rtos.a(tasks.o)
 .text.vTaskDelay
                0x0000000000000000       0x6c ../../../oslib/gcc/free_rtos/Release/free_rtos.a(tasks.o)
 .text.uxTaskGetSystemState
                0x0000000000000000       0xa0 ../../../oslib/gcc/free_rtos/Release/free_rtos.a(tasks.o)
 .text.vTaskSuspend
                0x0000000000000000       0xbc ../../../oslib/gcc/free_rtos/Release/free_rtos.a(tasks.o)
 .text.vTaskPlaceOnUnorderedEventList
                0x0000000000000000       0x8c ../../../oslib/gcc/free_rtos/Release/free_rtos.a(tasks.o)
 .text.xTaskRemoveFromUnorderedEventList
                0x0000000000000000       0x84 ../../../oslib/gcc/free_rtos/Release/free_rtos.a(tasks.o)
 .text.uxTaskGetTaskNumber
                0x0000000000000000        0x6 ../../../oslib/gcc/free_rtos/Release/free_rtos.a(tasks.o)
 .text.vTaskSetTaskNumber
                0x0000000000000000        0x6 ../../../oslib/gcc/free_rtos/Release/free_rtos.a(tasks.o)
 .text.uxTaskGetStackHighWaterMark
                0x0000000000000000       0x20 ../../../oslib/gcc/free_rtos/Release/free_rtos.a(tasks.o)
 .text.xTaskGetCurrentTaskHandle
                0x0000000000000000        0xc ../../../oslib/gcc/free_rtos/Release/free_rtos.a(tasks.o)
 .text.vTaskList
                0x0000000000000000       0xc8 ../../../oslib/gcc/free_rtos/Release/free_rtos.a(tasks.o)
 .text.uxTaskResetEventItemValue
                0x0000000000000000       0x18 ../../../oslib/gcc/free_rtos/Release/free_rtos.a(tasks.o)
 .text.ulTaskNotifyTake
                0x0000000000000000       0x98 ../../../oslib/gcc/free_rtos/Release/free_rtos.a(tasks.o)
 .text.xTaskNotifyWait
                0x0000000000000000       0xc0 ../../../oslib/gcc/free_rtos/Release/free_rtos.a(tasks.o)
 .text.xTaskGenericNotify
                0x0000000000000000       0xb0 ../../../oslib/gcc/free_rtos/Release/free_rtos.a(tasks.o)
 .text.xTaskNotifyFromISR
                0x0000000000000000       0xdc ../../../oslib/gcc/free_rtos/Release/free_rtos.a(tasks.o)
 .text.vTaskNotifyGiveFromISR
                0x0000000000000000       0xac ../../../oslib/gcc/free_rtos/Release/free_rtos.a(tasks.o)
 .rodata.CSWTCH.287
                0x0000000000000000        0x4 ../../../oslib/gcc/free_rtos/Release/free_rtos.a(tasks.o)
 .text          0x0000000000000000        0x0 ../../../oslib/gcc/free_rtos/Release/free_rtos.a(port.o)
 .data          0x0000000000000000        0x0 ../../../oslib/gcc/free_rtos/Release/free_rtos.a(port.o)
 .bss           0x0000000000000000        0x0 ../../../oslib/gcc/free_rtos/Release/free_rtos.a(port.o)
 .text.vPortEndScheduler
                0x0000000000000000       0x20 ../../../oslib/gcc/free_rtos/Release/free_rtos.a(port.o)
 .text          0x0000000000000000        0x0 ../../../oslib/gcc/free_rtos/Release/free_rtos.a(timers.o)
 .data          0x0000000000000000        0x0 ../../../oslib/gcc/free_rtos/Release/free_rtos.a(timers.o)
 .bss           0x0000000000000000        0x0 ../../../oslib/gcc/free_rtos/Release/free_rtos.a(timers.o)
 .text.xTimerCreate
                0x0000000000000000       0x48 ../../../oslib/gcc/free_rtos/Release/free_rtos.a(timers.o)
 .text.xTimerGetTimerDaemonTaskHandle
                0x0000000000000000       0x20 ../../../oslib/gcc/free_rtos/Release/free_rtos.a(timers.o)
 .text.pcTimerGetTimerName
                0x0000000000000000        0x4 ../../../oslib/gcc/free_rtos/Release/free_rtos.a(timers.o)
 .text.xTimerIsTimerActive
                0x0000000000000000       0x18 ../../../oslib/gcc/free_rtos/Release/free_rtos.a(timers.o)
 .text.pvTimerGetTimerID
                0x0000000000000000       0x24 ../../../oslib/gcc/free_rtos/Release/free_rtos.a(timers.o)
 .text.vTimerSetTimerID
                0x0000000000000000       0x24 ../../../oslib/gcc/free_rtos/Release/free_rtos.a(timers.o)
 .text.xTimerPendFunctionCallFromISR
                0x0000000000000000       0x28 ../../../oslib/gcc/free_rtos/Release/free_rtos.a(timers.o)
 .text.xTimerPendFunctionCall
                0x0000000000000000       0x44 ../../../oslib/gcc/free_rtos/Release/free_rtos.a(timers.o)
 .text          0x0000000000000000        0x0 ../../../oslib/gcc/free_rtos/Release/free_rtos.a(heap_3.o)
 .data          0x0000000000000000        0x0 ../../../oslib/gcc/free_rtos/Release/free_rtos.a(heap_3.o)
 .bss           0x0000000000000000        0x0 ../../../oslib/gcc/free_rtos/Release/free_rtos.a(heap_3.o)
 .text          0x0000000000000000        0x0 ../../../oslib/gcc/free_rtos/Release/free_rtos.a(list.o)
 .data          0x0000000000000000        0x0 ../../../oslib/gcc/free_rtos/Release/free_rtos.a(list.o)
 .bss           0x0000000000000000        0x0 ../../../oslib/gcc/free_rtos/Release/free_rtos.a(list.o)
 .text          0x0000000000000000        0x0 ../../../driverlib/gcc/lib/Release/libdriver.a(cpu.o)
 .data          0x0000000000000000        0x0 ../../../driverlib/gcc/lib/Release/libdriver.a(cpu.o)
 .bss           0x0000000000000000        0x0 ../../../driverlib/gcc/lib/Release/libdriver.a(cpu.o)
 .text.CPUcpsid
                0x0000000000000000       0x10 ../../../driverlib/gcc/lib/Release/libdriver.a(cpu.o)
 .text.CPUprimask
                0x0000000000000000        0x6 ../../../driverlib/gcc/lib/Release/libdriver.a(cpu.o)
 .text.CPUcpsie
                0x0000000000000000       0x10 ../../../driverlib/gcc/lib/Release/libdriver.a(cpu.o)
 .text.CPUwfi   0x0000000000000000        0xc ../../../driverlib/gcc/lib/Release/libdriver.a(cpu.o)
 .text.CPUbasepriSet
                0x0000000000000000        0xe ../../../driverlib/gcc/lib/Release/libdriver.a(cpu.o)
 .text.CPUbasepriGet
                0x0000000000000000        0x6 ../../../driverlib/gcc/lib/Release/libdriver.a(cpu.o)
 .debug_info    0x0000000000000000       0xfe ../../../driverlib/gcc/lib/Release/libdriver.a(cpu.o)
 .debug_abbrev  0x0000000000000000       0xb4 ../../../driverlib/gcc/lib/Release/libdriver.a(cpu.o)
 .debug_aranges
                0x0000000000000000       0x48 ../../../driverlib/gcc/lib/Release/libdriver.a(cpu.o)
 .debug_ranges  0x0000000000000000       0x38 ../../../driverlib/gcc/lib/Release/libdriver.a(cpu.o)
 .debug_line    0x0000000000000000       0x9d ../../../driverlib/gcc/lib/Release/libdriver.a(cpu.o)
 .debug_str     0x0000000000000000      0x109 ../../../driverlib/gcc/lib/Release/libdriver.a(cpu.o)
 .comment       0x0000000000000000       0x22 ../../../driverlib/gcc/lib/Release/libdriver.a(cpu.o)
 .ARM.attributes
                0x0000000000000000       0x33 ../../../driverlib/gcc/lib/Release/libdriver.a(cpu.o)
 .debug_frame   0x0000000000000000       0x70 ../../../driverlib/gcc/lib/Release/libdriver.a(cpu.o)
 .text          0x0000000000000000        0x0 ../../../driverlib/gcc/lib/Release/libdriver.a(interrupt.o)
 .data          0x0000000000000000        0x0 ../../../driverlib/gcc/lib/Release/libdriver.a(interrupt.o)
 .bss           0x0000000000000000        0x0 ../../../driverlib/gcc/lib/Release/libdriver.a(interrupt.o)
 .text.IntDefaultHandler
                0x0000000000000000        0x2 ../../../driverlib/gcc/lib/Release/libdriver.a(interrupt.o)
 .text.IntMasterEnable
                0x0000000000000000        0xa ../../../driverlib/gcc/lib/Release/libdriver.a(interrupt.o)
 .text.IntMasterDisable
                0x0000000000000000        0xa ../../../driverlib/gcc/lib/Release/libdriver.a(interrupt.o)
 .text.IntRegister
                0x0000000000000000       0x10 ../../../driverlib/gcc/lib/Release/libdriver.a(interrupt.o)
 .text.IntUnregister
                0x0000000000000000       0x14 ../../../driverlib/gcc/lib/Release/libdriver.a(interrupt.o)
 .text.IntPriorityGroupingSet
                0x0000000000000000       0x1c ../../../driverlib/gcc/lib/Release/libdriver.a(interrupt.o)
 .text.IntPriorityGroupingGet
                0x0000000000000000       0x24 ../../../driverlib/gcc/lib/Release/libdriver.a(interrupt.o)
 .text.IntPrioritySet
                0x0000000000000000       0x28 ../../../driverlib/gcc/lib/Release/libdriver.a(interrupt.o)
 .text.IntPriorityGet
                0x0000000000000000       0x1c ../../../driverlib/gcc/lib/Release/libdriver.a(interrupt.o)
 .text.IntPendClear
                0x0000000000000000       0x40 ../../../driverlib/gcc/lib/Release/libdriver.a(interrupt.o)
 .text.IntPriorityMaskSet
                0x0000000000000000        0x4 ../../../driverlib/gcc/lib/Release/libdriver.a(interrupt.o)
 .text.IntPriorityMaskGet
                0x0000000000000000        0x4 ../../../driverlib/gcc/lib/Release/libdriver.a(interrupt.o)
 .rodata.g_pulUnpendRegs
                0x0000000000000000       0x18 ../../../driverlib/gcc/lib/Release/libdriver.a(interrupt.o)
 .rodata.g_pulPriority
                0x0000000000000000       0x20 ../../../driverlib/gcc/lib/Release/libdriver.a(interrupt.o)
 .rodata.g_pulRegs
                0x0000000000000000       0xd4 ../../../driverlib/gcc/lib/Release/libdriver.a(interrupt.o)
 .text          0x0000000000000000        0x0 ../../../driverlib/gcc/lib/Release/libdriver.a(pin.o)
 .data          0x0000000000000000        0x0 ../../../driverlib/gcc/lib/Release/libdriver.a(pin.o)
 .bss           0x0000000000000000        0x0 ../../../driverlib/gcc/lib/Release/libdriver.a(pin.o)
 .text.PinModeSet
                0x0000000000000000       0x28 ../../../driverlib/gcc/lib/Release/libdriver.a(pin.o)
 .text.PinModeGet
                0x0000000000000000       0x20 ../../../driverlib/gcc/lib/Release/libdriver.a(pin.o)
 .text.PinDirModeSet
                0x0000000000000000       0x24 ../../../driverlib/gcc/lib/Release/libdriver.a(pin.o)
 .text.PinDirModeGet
                0x0000000000000000       0x20 ../../../driverlib/gcc/lib/Release/libdriver.a(pin.o)
 .text.PinConfigGet
                0x0000000000000000       0x2c ../../../driverlib/gcc/lib/Release/libdriver.a(pin.o)
 .text.PinTypeI2C
                0x0000000000000000       0x18 ../../../driverlib/gcc/lib/Release/libdriver.a(pin.o)
 .text.PinTypeCamera
                0x0000000000000000       0x16 ../../../driverlib/gcc/lib/Release/libdriver.a(pin.o)
 .text.PinTypeTimer
                0x0000000000000000        0x4 ../../../driverlib/gcc/lib/Release/libdriver.a(pin.o)
 .text.PinTypeI2S
                0x0000000000000000        0x4 ../../../driverlib/gcc/lib/Release/libdriver.a(pin.o)
 .text.PinTypeSPI
                0x0000000000000000        0x4 ../../../driverlib/gcc/lib/Release/libdriver.a(pin.o)
 .text.PinTypeGPIO
                0x0000000000000000       0x1c ../../../driverlib/gcc/lib/Release/libdriver.a(pin.o)
 .text.PinTypeADC
                0x0000000000000000        0xa ../../../driverlib/gcc/lib/Release/libdriver.a(pin.o)
 .text.PinTypeSDHost
                0x0000000000000000       0x16 ../../../driverlib/gcc/lib/Release/libdriver.a(pin.o)
 .text.PinTypeUART
                0x0000000000000000        0x4 ../../../driverlib/gcc/lib/Release/libdriver.a(pin.o)
 .text          0x0000000000000000        0x0 ../../../driverlib/gcc/lib/Release/libdriver.a(prcm.o)
 .data          0x0000000000000000        0x0 ../../../driverlib/gcc/lib/Release/libdriver.a(prcm.o)
 .bss           0x0000000000000000        0x0 ../../../driverlib/gcc/lib/Release/libdriver.a(prcm.o)
 .text.PRCMMCUReset
                0x0000000000000000       0x14 ../../../driverlib/gcc/lib/Release/libdriver.a(prcm.o)
 .text.PRCMI2SClockFreqSet
                0x0000000000000000       0x20 ../../../driverlib/gcc/lib/Release/libdriver.a(prcm.o)
 .text.PRCMLPDSRestoreInfoSet
                0x0000000000000000        0xc ../../../driverlib/gcc/lib/Release/libdriver.a(prcm.o)
 .text.PRCMLPDSEnterKeepDebugIf
                0x0000000000000000       0x30 ../../../driverlib/gcc/lib/Release/libdriver.a(prcm.o)
 .text.PRCMLPDSWakeupSourceEnable
                0x0000000000000000       0x14 ../../../driverlib/gcc/lib/Release/libdriver.a(prcm.o)
 .text.PRCMLPDSWakeupSourceDisable
                0x0000000000000000       0x10 ../../../driverlib/gcc/lib/Release/libdriver.a(prcm.o)
 .text.PRCMLPDSWakeupCauseGet
                0x0000000000000000        0xc ../../../driverlib/gcc/lib/Release/libdriver.a(prcm.o)
 .text.PRCMLPDSIntervalSet
                0x0000000000000000       0x18 ../../../driverlib/gcc/lib/Release/libdriver.a(prcm.o)
 .text.PRCMSleepEnter
                0x0000000000000000        0x4 ../../../driverlib/gcc/lib/Release/libdriver.a(prcm.o)
 .text.PRCMSRAMRetentionDisable
                0x0000000000000000       0x18 ../../../driverlib/gcc/lib/Release/libdriver.a(prcm.o)
 .text.PRCMHibernateWakeupCauseGet
                0x0000000000000000       0x18 ../../../driverlib/gcc/lib/Release/libdriver.a(prcm.o)
 .text.PRCMOCRRegisterWrite
                0x0000000000000000       0x14 ../../../driverlib/gcc/lib/Release/libdriver.a(prcm.o)
 .text.PRCMOCRRegisterRead
                0x0000000000000000       0x18 ../../../driverlib/gcc/lib/Release/libdriver.a(prcm.o)
 .text.PRCMIntRegister
                0x0000000000000000       0x14 ../../../driverlib/gcc/lib/Release/libdriver.a(prcm.o)
 .text.PRCMIntUnregister
                0x0000000000000000       0x12 ../../../driverlib/gcc/lib/Release/libdriver.a(prcm.o)
 .text.PRCMIntStatus
                0x0000000000000000        0xc ../../../driverlib/gcc/lib/Release/libdriver.a(prcm.o)
 .text.PRCMRTCInUseGet
                0x0000000000000000        0xe ../../../driverlib/gcc/lib/Release/libdriver.a(prcm.o)
 .text.PRCMHIBRegRead
                0x0000000000000000       0x10 ../../../driverlib/gcc/lib/Release/libdriver.a(prcm.o)
 .text.PRCMHIBRegWrite
                0x0000000000000000        0xa ../../../driverlib/gcc/lib/Release/libdriver.a(prcm.o)
 .text.PRCMCameraFreqSet
                0x0000000000000000       0x28 ../../../driverlib/gcc/lib/Release/libdriver.a(prcm.o)
 .text          0x0000000000000000        0x0 ../../../driverlib/gcc/lib/Release/libdriver.a(spi.o)
 .data          0x0000000000000000        0x0 ../../../driverlib/gcc/lib/Release/libdriver.a(spi.o)
 .bss           0x0000000000000000        0x0 ../../../driverlib/gcc/lib/Release/libdriver.a(spi.o)
 .text.SPIDmaMaskGet
                0x0000000000000000       0x38 ../../../driverlib/gcc/lib/Release/libdriver.a(spi.o)
 .text.SPIEnable
                0x0000000000000000        0xe ../../../driverlib/gcc/lib/Release/libdriver.a(spi.o)
 .text.SPIDisable
                0x0000000000000000        0xe ../../../driverlib/gcc/lib/Release/libdriver.a(spi.o)
 .text.SPIReset
                0x0000000000000000       0x16 ../../../driverlib/gcc/lib/Release/libdriver.a(spi.o)
 .text.SPIDataGetNonBlocking
                0x0000000000000000       0x16 ../../../driverlib/gcc/lib/Release/libdriver.a(spi.o)
 .text.SPIDataGet
                0x0000000000000000       0x10 ../../../driverlib/gcc/lib/Release/libdriver.a(spi.o)
 .text.SPIDataPutNonBlocking
                0x0000000000000000       0x14 ../../../driverlib/gcc/lib/Release/libdriver.a(spi.o)
 .text.SPIDataPut
                0x0000000000000000        0xe ../../../driverlib/gcc/lib/Release/libdriver.a(spi.o)
 .text.SPIFIFOEnable
                0x0000000000000000        0xc ../../../driverlib/gcc/lib/Release/libdriver.a(spi.o)
 .text.SPIDmaEnable
                0x0000000000000000        0x4 ../../../driverlib/gcc/lib/Release/libdriver.a(spi.o)
 .text.SPIFIFODisable
                0x0000000000000000        0xe ../../../driverlib/gcc/lib/Release/libdriver.a(spi.o)
 .text.SPIDmaDisable
                0x0000000000000000        0x4 ../../../driverlib/gcc/lib/Release/libdriver.a(spi.o)
 .text.SPIFIFOLevelSet
                0x0000000000000000       0x18 ../../../driverlib/gcc/lib/Release/libdriver.a(spi.o)
 .text.SPIFIFOLevelGet
                0x0000000000000000       0x10 ../../../driverlib/gcc/lib/Release/libdriver.a(spi.o)
 .text.SPIWordCountSet
                0x0000000000000000       0x10 ../../../driverlib/gcc/lib/Release/libdriver.a(spi.o)
 .text.SPIIntRegister
                0x0000000000000000       0x4c ../../../driverlib/gcc/lib/Release/libdriver.a(spi.o)
 .text.SPIIntUnregister
                0x0000000000000000       0x4c ../../../driverlib/gcc/lib/Release/libdriver.a(spi.o)
 .text.SPIIntEnable
                0x0000000000000000       0x38 ../../../driverlib/gcc/lib/Release/libdriver.a(spi.o)
 .text.SPIIntDisable
                0x0000000000000000       0x3c ../../../driverlib/gcc/lib/Release/libdriver.a(spi.o)
 .text.SPIIntStatus
                0x0000000000000000       0x44 ../../../driverlib/gcc/lib/Release/libdriver.a(spi.o)
 .text.SPIIntClear
                0x0000000000000000       0x34 ../../../driverlib/gcc/lib/Release/libdriver.a(spi.o)
 .text.SPICSEnable
                0x0000000000000000        0xe ../../../driverlib/gcc/lib/Release/libdriver.a(spi.o)
 .text.SPICSDisable
                0x0000000000000000        0xe ../../../driverlib/gcc/lib/Release/libdriver.a(spi.o)
 .text.SPITransfer
                0x0000000000000000      0x180 ../../../driverlib/gcc/lib/Release/libdriver.a(spi.o)
 .rodata.g_ppulSPIIntMap
                0x0000000000000000       0x24 ../../../driverlib/gcc/lib/Release/libdriver.a(spi.o)
 .rodata.g_ulSPIDmaMaskMap
                0x0000000000000000       0x18 ../../../driverlib/gcc/lib/Release/libdriver.a(spi.o)
 .text          0x0000000000000000        0x0 ../../../driverlib/gcc/lib/Release/libdriver.a(timer.o)
 .data          0x0000000000000000        0x0 ../../../driverlib/gcc/lib/Release/libdriver.a(timer.o)
 .bss           0x0000000000000000        0x0 ../../../driverlib/gcc/lib/Release/libdriver.a(timer.o)
 .text.TimerEnable
                0x0000000000000000       0x10 ../../../driverlib/gcc/lib/Release/libdriver.a(timer.o)
 .text.TimerDisable
                0x0000000000000000       0x12 ../../../driverlib/gcc/lib/Release/libdriver.a(timer.o)
 .text.TimerControlLevel
                0x0000000000000000       0x1c ../../../driverlib/gcc/lib/Release/libdriver.a(timer.o)
 .text.TimerControlEvent
                0x0000000000000000       0x1e ../../../driverlib/gcc/lib/Release/libdriver.a(timer.o)
 .text.TimerControlStall
                0x0000000000000000       0x1c ../../../driverlib/gcc/lib/Release/libdriver.a(timer.o)
 .text.TimerPrescaleSet
                0x0000000000000000       0x12 ../../../driverlib/gcc/lib/Release/libdriver.a(timer.o)
 .text.TimerPrescaleGet
                0x0000000000000000        0xa ../../../driverlib/gcc/lib/Release/libdriver.a(timer.o)
 .text.TimerPrescaleMatchSet
                0x0000000000000000       0x12 ../../../driverlib/gcc/lib/Release/libdriver.a(timer.o)
 .text.TimerPrescaleMatchGet
                0x0000000000000000        0xa ../../../driverlib/gcc/lib/Release/libdriver.a(timer.o)
 .text.TimerLoadSet
                0x0000000000000000       0x12 ../../../driverlib/gcc/lib/Release/libdriver.a(timer.o)
 .text.TimerLoadGet
                0x0000000000000000        0xa ../../../driverlib/gcc/lib/Release/libdriver.a(timer.o)
 .text.TimerValueGet
                0x0000000000000000        0xa ../../../driverlib/gcc/lib/Release/libdriver.a(timer.o)
 .text.TimerMatchSet
                0x0000000000000000       0x12 ../../../driverlib/gcc/lib/Release/libdriver.a(timer.o)
 .text.TimerMatchGet
                0x0000000000000000        0xa ../../../driverlib/gcc/lib/Release/libdriver.a(timer.o)
 .text.TimerIntRegister
                0x0000000000000000       0x60 ../../../driverlib/gcc/lib/Release/libdriver.a(timer.o)
 .text.TimerIntUnregister
                0x0000000000000000       0x58 ../../../driverlib/gcc/lib/Release/libdriver.a(timer.o)
 .text.TimerIntEnable
                0x0000000000000000        0x8 ../../../driverlib/gcc/lib/Release/libdriver.a(timer.o)
 .text.TimerIntDisable
                0x0000000000000000        0xa ../../../driverlib/gcc/lib/Release/libdriver.a(timer.o)
 .text.TimerIntStatus
                0x0000000000000000        0xa ../../../driverlib/gcc/lib/Release/libdriver.a(timer.o)
 .text.TimerIntClear
                0x0000000000000000        0x4 ../../../driverlib/gcc/lib/Release/libdriver.a(timer.o)
 .text.TimerDMAEventSet
                0x0000000000000000        0x4 ../../../driverlib/gcc/lib/Release/libdriver.a(timer.o)
 .text.TimerDMAEventGet
                0x0000000000000000        0x4 ../../../driverlib/gcc/lib/Release/libdriver.a(timer.o)
 .text          0x0000000000000000        0x0 ../../../driverlib/gcc/lib/Release/libdriver.a(utils.o)
 .data          0x0000000000000000        0x0 ../../../driverlib/gcc/lib/Release/libdriver.a(utils.o)
 .bss           0x0000000000000000        0x0 ../../../driverlib/gcc/lib/Release/libdriver.a(utils.o)
 .text          0x0000000000000000        0x0 ../../../driverlib/gcc/lib/Release/libdriver.a(flash.o)
 .data          0x0000000000000000        0x0 ../../../driverlib/gcc/lib/Release/libdriver.a(flash.o)
 .bss           0x0000000000000000        0x0 ../../../driverlib/gcc/lib/Release/libdriver.a(flash.o)
 .text.FlashErase
                0x0000000000000000       0x38 ../../../driverlib/gcc/lib/Release/libdriver.a(flash.o)
 .text.FlashEraseNonBlocking
                0x0000000000000000       0x1c ../../../driverlib/gcc/lib/Release/libdriver.a(flash.o)
 .text.FlashMassErase
                0x0000000000000000       0x34 ../../../driverlib/gcc/lib/Release/libdriver.a(flash.o)
 .text.FlashMassEraseNonBlocking
                0x0000000000000000       0x18 ../../../driverlib/gcc/lib/Release/libdriver.a(flash.o)
 .text.FlashProgram
                0x0000000000000000       0x80 ../../../driverlib/gcc/lib/Release/libdriver.a(flash.o)
 .text.FlashProgramNonBlocking
                0x0000000000000000       0x70 ../../../driverlib/gcc/lib/Release/libdriver.a(flash.o)
 .text.FlashProtectGet
                0x0000000000000000       0x44 ../../../driverlib/gcc/lib/Release/libdriver.a(flash.o)
 .text.FlashIntRegister
                0x0000000000000000       0x14 ../../../driverlib/gcc/lib/Release/libdriver.a(flash.o)
 .text.FlashIntUnregister
                0x0000000000000000       0x12 ../../../driverlib/gcc/lib/Release/libdriver.a(flash.o)
 .text.FlashIntEnable
                0x0000000000000000       0x10 ../../../driverlib/gcc/lib/Release/libdriver.a(flash.o)
 .text.FlashIntDisable
                0x0000000000000000       0x10 ../../../driverlib/gcc/lib/Release/libdriver.a(flash.o)
 .text.FlashIntStatus
                0x0000000000000000       0x14 ../../../driverlib/gcc/lib/Release/libdriver.a(flash.o)
 .text.FlashIntClear
                0x0000000000000000        0xc ../../../driverlib/gcc/lib/Release/libdriver.a(flash.o)
 .rodata.g_pulFMPPERegs
                0x0000000000000000       0x40 ../../../driverlib/gcc/lib/Release/libdriver.a(flash.o)
 .rodata.g_pulFMPRERegs
                0x0000000000000000       0x40 ../../../driverlib/gcc/lib/Release/libdriver.a(flash.o)
 .text          0x0000000000000000        0x0 /usr/lib/gcc/arm-none-eabi/5.2.0/../../../../arm-none-eabi/lib/armv7e-m/libc_nano.a(lib_a-malloc.o)
 .data          0x0000000000000000        0x0 /usr/lib/gcc/arm-none-eabi/5.2.0/../../../../arm-none-eabi/lib/armv7e-m/libc_nano.a(lib_a-malloc.o)
 .bss           0x0000000000000000        0x0 /usr/lib/gcc/arm-none-eabi/5.2.0/../../../../arm-none-eabi/lib/armv7e-m/libc_nano.a(lib_a-malloc.o)
 .text          0x0000000000000000        0x0 /usr/lib/gcc/arm-none-eabi/5.2.0/../../../../arm-none-eabi/lib/armv7e-m/libc_nano.a(lib_a-memcmp.o)
 .data          0x0000000000000000        0x0 /usr/lib/gcc/arm-none-eabi/5.2.0/../../../../arm-none-eabi/lib/armv7e-m/libc_nano.a(lib_a-memcmp.o)
 .bss           0x0000000000000000        0x0 /usr/lib/gcc/arm-none-eabi/5.2.0/../../../../arm-none-eabi/lib/armv7e-m/libc_nano.a(lib_a-memcmp.o)
 .text          0x0000000000000000        0x0 /usr/lib/gcc/arm-none-eabi/5.2.0/../../../../arm-none-eabi/lib/armv7e-m/libc_nano.a(lib_a-memcpy.o)
 .data          0x0000000000000000        0x0 /usr/lib/gcc/arm-none-eabi/5.2.0/../../../../arm-none-eabi/lib/armv7e-m/libc_nano.a(lib_a-memcpy.o)
 .bss           0x0000000000000000        0x0 /usr/lib/gcc/arm-none-eabi/5.2.0/../../../../arm-none-eabi/lib/armv7e-m/libc_nano.a(lib_a-memcpy.o)
 .text          0x0000000000000000        0x0 /usr/lib/gcc/arm-none-eabi/5.2.0/../../../../arm-none-eabi/lib/armv7e-m/libc_nano.a(lib_a-memset.o)
 .data          0x0000000000000000        0x0 /usr/lib/gcc/arm-none-eabi/5.2.0/../../../../arm-none-eabi/lib/armv7e-m/libc_nano.a(lib_a-memset.o)
 .bss           0x0000000000000000        0x0 /usr/lib/gcc/arm-none-eabi/5.2.0/../../../../arm-none-eabi/lib/armv7e-m/libc_nano.a(lib_a-memset.o)
 .text          0x0000000000000000        0x0 /usr/lib/gcc/arm-none-eabi/5.2.0/../../../../arm-none-eabi/lib/armv7e-m/libc_nano.a(lib_a-nano-freer.o)
 .data          0x0000000000000000        0x0 /usr/lib/gcc/arm-none-eabi/5.2.0/../../../../arm-none-eabi/lib/armv7e-m/libc_nano.a(lib_a-nano-freer.o)
 .bss           0x0000000000000000        0x0 /usr/lib/gcc/arm-none-eabi/5.2.0/../../../../arm-none-eabi/lib/armv7e-m/libc_nano.a(lib_a-nano-freer.o)
 .text          0x0000000000000000        0x0 /usr/lib/gcc/arm-none-eabi/5.2.0/../../../../arm-none-eabi/lib/armv7e-m/libc_nano.a(lib_a-nano-mallocr.o)
 .data          0x0000000000000000        0x0 /usr/lib/gcc/arm-none-eabi/5.2.0/../../../../arm-none-eabi/lib/armv7e-m/libc_nano.a(lib_a-nano-mallocr.o)
 .bss           0x0000000000000000        0x0 /usr/lib/gcc/arm-none-eabi/5.2.0/../../../../arm-none-eabi/lib/armv7e-m/libc_nano.a(lib_a-nano-mallocr.o)
 .text          0x0000000000000000        0x0 /usr/lib/gcc/arm-none-eabi/5.2.0/../../../../arm-none-eabi/lib/armv7e-m/libc_nano.a(lib_a-sbrkr.o)
 .data          0x0000000000000000        0x0 /usr/lib/gcc/arm-none-eabi/5.2.0/../../../../arm-none-eabi/lib/armv7e-m/libc_nano.a(lib_a-sbrkr.o)
 .bss           0x0000000000000000        0x0 /usr/lib/gcc/arm-none-eabi/5.2.0/../../../../arm-none-eabi/lib/armv7e-m/libc_nano.a(lib_a-sbrkr.o)
 .text          0x0000000000000000        0x0 /usr/lib/gcc/arm-none-eabi/5.2.0/../../../../arm-none-eabi/lib/armv7e-m/libc_nano.a(lib_a-snprintf.o)
 .data          0x0000000000000000        0x0 /usr/lib/gcc/arm-none-eabi/5.2.0/../../../../arm-none-eabi/lib/armv7e-m/libc_nano.a(lib_a-snprintf.o)
 .bss           0x0000000000000000        0x0 /usr/lib/gcc/arm-none-eabi/5.2.0/../../../../arm-none-eabi/lib/armv7e-m/libc_nano.a(lib_a-snprintf.o)
 .text._snprintf_r
                0x0000000000000000       0x5c /usr/lib/gcc/arm-none-eabi/5.2.0/../../../../arm-none-eabi/lib/armv7e-m/libc_nano.a(lib_a-snprintf.o)
 .text          0x0000000000000000        0x0 /usr/lib/gcc/arm-none-eabi/5.2.0/../../../../arm-none-eabi/lib/armv7e-m/libc_nano.a(lib_a-sprintf.o)
 .data          0x0000000000000000        0x0 /usr/lib/gcc/arm-none-eabi/5.2.0/../../../../arm-none-eabi/lib/armv7e-m/libc_nano.a(lib_a-sprintf.o)
 .bss           0x0000000000000000        0x0 /usr/lib/gcc/arm-none-eabi/5.2.0/../../../../arm-none-eabi/lib/armv7e-m/libc_nano.a(lib_a-sprintf.o)
 .text._sprintf_r
                0x0000000000000000       0x40 /usr/lib/gcc/arm-none-eabi/5.2.0/../../../../arm-none-eabi/lib/armv7e-m/libc_nano.a(lib_a-sprintf.o)
 .text          0x0000000000000000        0x0 /usr/lib/gcc/arm-none-eabi/5.2.0/../../../../arm-none-eabi/lib/armv7e-m/libc_nano.a(lib_a-strcpy.o)
 .data          0x0000000000000000        0x0 /usr/lib/gcc/arm-none-eabi/5.2.0/../../../../arm-none-eabi/lib/armv7e-m/libc_nano.a(lib_a-strcpy.o)
 .bss           0x0000000000000000        0x0 /usr/lib/gcc/arm-none-eabi/5.2.0/../../../../arm-none-eabi/lib/armv7e-m/libc_nano.a(lib_a-strcpy.o)
 .text.strcpy   0x0000000000000000       0x10 /usr/lib/gcc/arm-none-eabi/5.2.0/../../../../arm-none-eabi/lib/armv7e-m/libc_nano.a(lib_a-strcpy.o)
 .debug_info    0x0000000000000000       0xc4 /usr/lib/gcc/arm-none-eabi/5.2.0/../../../../arm-none-eabi/lib/armv7e-m/libc_nano.a(lib_a-strcpy.o)
 .debug_abbrev  0x0000000000000000       0x72 /usr/lib/gcc/arm-none-eabi/5.2.0/../../../../arm-none-eabi/lib/armv7e-m/libc_nano.a(lib_a-strcpy.o)
 .debug_loc     0x0000000000000000       0x21 /usr/lib/gcc/arm-none-eabi/5.2.0/../../../../arm-none-eabi/lib/armv7e-m/libc_nano.a(lib_a-strcpy.o)
 .debug_aranges
                0x0000000000000000       0x20 /usr/lib/gcc/arm-none-eabi/5.2.0/../../../../arm-none-eabi/lib/armv7e-m/libc_nano.a(lib_a-strcpy.o)
 .debug_ranges  0x0000000000000000       0x10 /usr/lib/gcc/arm-none-eabi/5.2.0/../../../../arm-none-eabi/lib/armv7e-m/libc_nano.a(lib_a-strcpy.o)
 .debug_line    0x0000000000000000       0xab /usr/lib/gcc/arm-none-eabi/5.2.0/../../../../arm-none-eabi/lib/armv7e-m/libc_nano.a(lib_a-strcpy.o)
 .debug_str     0x0000000000000000      0x1b4 /usr/lib/gcc/arm-none-eabi/5.2.0/../../../../arm-none-eabi/lib/armv7e-m/libc_nano.a(lib_a-strcpy.o)
 .comment       0x0000000000000000       0x22 /usr/lib/gcc/arm-none-eabi/5.2.0/../../../../arm-none-eabi/lib/armv7e-m/libc_nano.a(lib_a-strcpy.o)
 .debug_frame   0x0000000000000000       0x20 /usr/lib/gcc/arm-none-eabi/5.2.0/../../../../arm-none-eabi/lib/armv7e-m/libc_nano.a(lib_a-strcpy.o)
 .ARM.attributes
                0x0000000000000000       0x2e /usr/lib/gcc/arm-none-eabi/5.2.0/../../../../arm-none-eabi/lib/armv7e-m/libc_nano.a(lib_a-strcpy.o)
 .text          0x0000000000000000        0x0 /usr/lib/gcc/arm-none-eabi/5.2.0/../../../../arm-none-eabi/lib/armv7e-m/libc_nano.a(lib_a-strlen.o)
 .data          0x0000000000000000        0x0 /usr/lib/gcc/arm-none-eabi/5.2.0/../../../../arm-none-eabi/lib/armv7e-m/libc_nano.a(lib_a-strlen.o)
 .bss           0x0000000000000000        0x0 /usr/lib/gcc/arm-none-eabi/5.2.0/../../../../arm-none-eabi/lib/armv7e-m/libc_nano.a(lib_a-strlen.o)
 .text          0x0000000000000000        0x0 /usr/lib/gcc/arm-none-eabi/5.2.0/../../../../arm-none-eabi/lib/armv7e-m/libc_nano.a(lib_a-impure.o)
 .data          0x0000000000000000        0x0 /usr/lib/gcc/arm-none-eabi/5.2.0/../../../../arm-none-eabi/lib/armv7e-m/libc_nano.a(lib_a-impure.o)
 .bss           0x0000000000000000        0x0 /usr/lib/gcc/arm-none-eabi/5.2.0/../../../../arm-none-eabi/lib/armv7e-m/libc_nano.a(lib_a-impure.o)
 .rodata._global_impure_ptr
                0x0000000000000000        0x4 /usr/lib/gcc/arm-none-eabi/5.2.0/../../../../arm-none-eabi/lib/armv7e-m/libc_nano.a(lib_a-impure.o)
 .text          0x0000000000000000        0x0 /usr/lib/gcc/arm-none-eabi/5.2.0/../../../../arm-none-eabi/lib/armv7e-m/libc_nano.a(lib_a-nano-svfprintf.o)
 .data          0x0000000000000000        0x0 /usr/lib/gcc/arm-none-eabi/5.2.0/../../../../arm-none-eabi/lib/armv7e-m/libc_nano.a(lib_a-nano-svfprintf.o)
 .bss           0x0000000000000000        0x0 /usr/lib/gcc/arm-none-eabi/5.2.0/../../../../arm-none-eabi/lib/armv7e-m/libc_nano.a(lib_a-nano-svfprintf.o)
 .text.__ssprint_r
                0x0000000000000000       0xfe /usr/lib/gcc/arm-none-eabi/5.2.0/../../../../arm-none-eabi/lib/armv7e-m/libc_nano.a(lib_a-nano-svfprintf.o)
 .text          0x0000000000000000        0x0 /usr/lib/gcc/arm-none-eabi/5.2.0/../../../../arm-none-eabi/lib/armv7e-m/libc_nano.a(lib_a-nano-vfprintf_i.o)
 .data          0x0000000000000000        0x0 /usr/lib/gcc/arm-none-eabi/5.2.0/../../../../arm-none-eabi/lib/armv7e-m/libc_nano.a(lib_a-nano-vfprintf_i.o)
 .bss           0x0000000000000000        0x0 /usr/lib/gcc/arm-none-eabi/5.2.0/../../../../arm-none-eabi/lib/armv7e-m/libc_nano.a(lib_a-nano-vfprintf_i.o)
 .text          0x0000000000000000        0x0 /usr/lib/gcc/arm-none-eabi/5.2.0/../../../../arm-none-eabi/lib/armv7e-m/libc_nano.a(lib_a-reent.o)
 .data          0x0000000000000000        0x0 /usr/lib/gcc/arm-none-eabi/5.2.0/../../../../arm-none-eabi/lib/armv7e-m/libc_nano.a(lib_a-reent.o)
 .bss           0x0000000000000000        0x0 /usr/lib/gcc/arm-none-eabi/5.2.0/../../../../arm-none-eabi/lib/armv7e-m/libc_nano.a(lib_a-reent.o)
 .text.cleanup_glue
                0x0000000000000000       0x1a /usr/lib/gcc/arm-none-eabi/5.2.0/../../../../arm-none-eabi/lib/armv7e-m/libc_nano.a(lib_a-reent.o)
 .text._reclaim_reent
                0x0000000000000000       0xb4 /usr/lib/gcc/arm-none-eabi/5.2.0/../../../../arm-none-eabi/lib/armv7e-m/libc_nano.a(lib_a-reent.o)
 .text          0x0000000000000000        0x0 /usr/lib/gcc/arm-none-eabi/5.2.0/../../../../arm-none-eabi/lib/armv7e-m/libc_nano.a(lib_a-memchr.o)
 .data          0x0000000000000000        0x0 /usr/lib/gcc/arm-none-eabi/5.2.0/../../../../arm-none-eabi/lib/armv7e-m/libc_nano.a(lib_a-memchr.o)
 .bss           0x0000000000000000        0x0 /usr/lib/gcc/arm-none-eabi/5.2.0/../../../../arm-none-eabi/lib/armv7e-m/libc_nano.a(lib_a-memchr.o)
 .text          0x0000000000000000        0x0 /usr/lib/gcc/arm-none-eabi/5.2.0/../../../../arm-none-eabi/lib/armv7e-m/libc_nano.a(lib_a-memmove.o)
 .data          0x0000000000000000        0x0 /usr/lib/gcc/arm-none-eabi/5.2.0/../../../../arm-none-eabi/lib/armv7e-m/libc_nano.a(lib_a-memmove.o)
 .bss           0x0000000000000000        0x0 /usr/lib/gcc/arm-none-eabi/5.2.0/../../../../arm-none-eabi/lib/armv7e-m/libc_nano.a(lib_a-memmove.o)
 .text          0x0000000000000000        0x0 /usr/lib/gcc/arm-none-eabi/5.2.0/../../../../arm-none-eabi/lib/armv7e-m/libc_nano.a(lib_a-nano-reallocr.o)
 .data          0x0000000000000000        0x0 /usr/lib/gcc/arm-none-eabi/5.2.0/../../../../arm-none-eabi/lib/armv7e-m/libc_nano.a(lib_a-nano-reallocr.o)
 .bss           0x0000000000000000        0x0 /usr/lib/gcc/arm-none-eabi/5.2.0/../../../../arm-none-eabi/lib/armv7e-m/libc_nano.a(lib_a-nano-reallocr.o)
 .text          0x0000000000000000        0x0 /usr/lib/gcc/arm-none-eabi/5.2.0/../../../../arm-none-eabi/lib/armv7e-m/libc_nano.a(lib_a-nano-msizer.o)
 .data          0x0000000000000000        0x0 /usr/lib/gcc/arm-none-eabi/5.2.0/../../../../arm-none-eabi/lib/armv7e-m/libc_nano.a(lib_a-nano-msizer.o)
 .bss           0x0000000000000000        0x0 /usr/lib/gcc/arm-none-eabi/5.2.0/../../../../arm-none-eabi/lib/armv7e-m/libc_nano.a(lib_a-nano-msizer.o)
 .data          0x0000000000000000        0x0 /usr/lib/gcc/arm-none-eabi/5.2.0/armv7e-m/libgcc.a(_aeabi_uldivmod.o)
 .bss           0x0000000000000000        0x0 /usr/lib/gcc/arm-none-eabi/5.2.0/armv7e-m/libgcc.a(_aeabi_uldivmod.o)
 .data          0x0000000000000000        0x0 /usr/lib/gcc/arm-none-eabi/5.2.0/armv7e-m/libgcc.a(_udivmoddi4.o)
 .bss           0x0000000000000000        0x0 /usr/lib/gcc/arm-none-eabi/5.2.0/armv7e-m/libgcc.a(_udivmoddi4.o)
 .ARM.extab     0x0000000000000000        0x0 /usr/lib/gcc/arm-none-eabi/5.2.0/armv7e-m/libgcc.a(_udivmoddi4.o)
 .data          0x0000000000000000        0x0 /usr/lib/gcc/arm-none-eabi/5.2.0/armv7e-m/libgcc.a(_dvmd_tls.o)
 .bss           0x0000000000000000        0x0 /usr/lib/gcc/arm-none-eabi/5.2.0/armv7e-m/libgcc.a(_dvmd_tls.o)

Memory Configuration

Name             Origin             Length             Attributes
SRAM             0x0000000020000000 0x0000000000040000 xrw
*default*        0x0000000000000000 0xffffffffffffffff

Linker script and memory map

                0x0000000000004000                BOOTLOADER_SIZE = 0x4000

.bootloader     0x0000000020000000     0x4000
                0x0000000020000000                _heap2 = .
                0x0000000020004000                . = (. + BOOTLOADER_SIZE)
 *fill*         0x0000000020000000     0x4000 
                0x0000000020004000                . = ALIGN (0x8)
                0x0000000020004000                _eheap2 = .

.text           0x0000000020004000     0x9430
                0x0000000020004000                _text = .
 *(.intvecs)
 .intvecs       0x0000000020004000      0x400 obj/Release/startup_gcc.o
                0x0000000020004000                g_pfnVectors
 *(.text*)
 .text.TimerCallback
                0x0000000020004400       0x1c obj/Release/main.o
                0x0000000020004400                TimerCallback
 .text.UDPServerTask
                0x000000002000441c       0xc8 obj/Release/main.o
                0x000000002000441c                UDPServerTask
 .text.WatchdogIntHandler
                0x00000000200044e4       0x68 obj/Release/main.o
                0x00000000200044e4                WatchdogIntHandler
 .text.vAssertCalled
                0x000000002000454c        0x2 obj/Release/main.o
                0x000000002000454c                vAssertCalled
 .text.vApplicationIdleHook
                0x000000002000454e        0x4 obj/Release/main.o
                0x000000002000454e                vApplicationIdleHook
 .text.vApplicationMallocFailedHook
                0x0000000020004552        0x2 obj/Release/main.o
                0x0000000020004552                vApplicationMallocFailedHook
 .text.vApplicationStackOverflowHook
                0x0000000020004554        0x2 obj/Release/main.o
                0x0000000020004554                vApplicationStackOverflowHook
 *fill*         0x0000000020004556        0x2 
 .text.PrintIPAddr
                0x0000000020004558       0x44 obj/Release/main.o
                0x0000000020004558                PrintIPAddr
 .text.SimpleLinkWlanEventHandler
                0x000000002000459c       0x80 obj/Release/main.o
                0x000000002000459c                SimpleLinkWlanEventHandler
 .text.SimpleLinkNetAppEventHandler
                0x000000002000461c       0x70 obj/Release/main.o
                0x000000002000461c                SimpleLinkNetAppEventHandler
 .text.SimpleLinkHttpServerCallback
                0x000000002000468c        0x2 obj/Release/main.o
                0x000000002000468c                SimpleLinkHttpServerCallback
 .text.SimpleLinkGeneralEventHandler
                0x000000002000468e        0x2 obj/Release/main.o
                0x000000002000468e                SimpleLinkGeneralEventHandler
 .text.SimpleLinkSockEventHandler
                0x0000000020004690        0x2 obj/Release/main.o
                0x0000000020004690                SimpleLinkSockEventHandler
 *fill*         0x0000000020004692        0x2 
 .text.WlanDisconnect
                0x0000000020004694       0x2c obj/Release/main.o
                0x0000000020004694                WlanDisconnect
 .text.WlanConnect
                0x00000000200046c0      0x184 obj/Release/main.o
                0x00000000200046c0                WlanConnect
 .text.gpio_intr_hndlr
                0x0000000020004844       0x24 obj/Release/main.o
                0x0000000020004844                gpio_intr_hndlr
 .text.SetGPIOAsWkUp
                0x0000000020004868       0x1a obj/Release/main.o
                0x0000000020004868                SetGPIOAsWkUp
 *fill*         0x0000000020004882        0x2 
 .text.SetTimerAsWkUp
                0x0000000020004884       0x3c obj/Release/main.o
                0x0000000020004884                SetTimerAsWkUp
 .text.SwitchToStaMode
                0x00000000200048c0       0x38 obj/Release/main.o
                0x00000000200048c0                SwitchToStaMode
 .text.TimerGPIOTask
                0x00000000200048f8      0x180 obj/Release/main.o
                0x00000000200048f8                TimerGPIOTask
 .text.startup.main
                0x0000000020004a78       0xe0 obj/Release/main.o
                0x0000000020004a78                main
 .text.PinMuxConfig
                0x0000000020004b58       0x8c obj/Release/pinmux.o
                0x0000000020004b58                PinMuxConfig
 .text.sw_simulate_rtc_intr
                0x0000000020004be4       0x10 obj/Release/lp3p0_board.o
                0x0000000020004be4                sw_simulate_rtc_intr
 .text.sw_simulate_timer_intr
                0x0000000020004bf4       0x10 obj/Release/lp3p0_board.o
                0x0000000020004bf4                sw_simulate_timer_intr
 .text.prcm_interrupt_handler
                0x0000000020004c04       0x38 obj/Release/lp3p0_board.o
                0x0000000020004c04                prcm_interrupt_handler
 .text.timer_interrupt_handler
                0x0000000020004c3c       0x18 obj/Release/lp3p0_board.o
                0x0000000020004c3c                timer_interrupt_handler
 .text.clk_enbl_op
                0x0000000020004c54       0x14 obj/Release/lp3p0_board.o
                0x0000000020004c54                clk_enbl_op
 .text.clk_dsbl_op
                0x0000000020004c68       0x14 obj/Release/lp3p0_board.o
                0x0000000020004c68                clk_dsbl_op
 .text.platform_init
                0x0000000020004c7c      0x204 obj/Release/lp3p0_board.o
                0x0000000020004c7c                platform_init
 .text.lp3p0_back_up_soc_data
                0x0000000020004e80       0x24 obj/Release/lp3p0_plat_ops.o
                0x0000000020004e80                lp3p0_back_up_soc_data
 .text.lp3p0_restore_soc_data
                0x0000000020004ea4       0x54 obj/Release/lp3p0_plat_ops.o
                0x0000000020004ea4                lp3p0_restore_soc_data
 .text.lp3p0_enter_hibernate
                0x0000000020004ef8        0xe obj/Release/lp3p0_plat_ops.o
                0x0000000020004ef8                lp3p0_enter_hibernate
 *fill*         0x0000000020004f06        0x2 
 .text.lp3p0_can_try_pm_state
                0x0000000020004f08       0x24 obj/Release/lp3p0_plat_ops.o
                0x0000000020004f08                lp3p0_can_try_pm_state
 .text.lp3p0_setup_power_policy
                0x0000000020004f2c        0xc obj/Release/lp3p0_plat_ops.o
                0x0000000020004f2c                lp3p0_setup_power_policy
 .text.lp3p0_get_pm_ops
                0x0000000020004f38       0x64 obj/Release/lp3p0_plat_ops.o
                0x0000000020004f38                lp3p0_get_pm_ops
 .text.WDT_IF_Init
                0x0000000020004f9c       0x46 obj/Release/wdt_if.o
                0x0000000020004f9c                WDT_IF_Init
 .text.WDT_IF_DeInit
                0x0000000020004fe2       0x32 obj/Release/wdt_if.o
                0x0000000020004fe2                WDT_IF_DeInit
 .text.Utils_SpiFlashDeepPowerDown
                0x0000000020005014       0xe8 obj/Release/utils_if.o
                0x0000000020005014                Utils_SpiFlashDeepPowerDown
 .text.NmiSR    0x00000000200050fc        0x2 obj/Release/startup_gcc.o
 .text.FaultISR
                0x00000000200050fe        0x2 obj/Release/startup_gcc.o
 .text.BusFaultHandler
                0x0000000020005100        0x2 obj/Release/startup_gcc.o
 .text.IntDefaultHandler
                0x0000000020005102        0x2 obj/Release/startup_gcc.o
 .text.ResetISR
                0x0000000020005104       0x5c obj/Release/startup_gcc.o
                0x0000000020005104                ResetISR
 .text._sbrk    0x0000000020005160       0x3c obj/Release/startup_gcc.o
                0x0000000020005160                _sbrk
 .text.sl_Start
                0x000000002000519c       0xcc ../../../simplelink/gcc/lib/os_PM/Release/libsimplelink.a(device.o)
                0x000000002000519c                sl_Start
 .text._sl_HandleAsync_InitComplete
                0x0000000020005268       0x6c ../../../simplelink/gcc/lib/os_PM/Release/libsimplelink.a(device.o)
                0x0000000020005268                _sl_HandleAsync_InitComplete
 .text._sl_HandleAsync_Stop
                0x00000000200052d4       0x38 ../../../simplelink/gcc/lib/os_PM/Release/libsimplelink.a(device.o)
                0x00000000200052d4                _sl_HandleAsync_Stop
 .text.sl_Stop  0x000000002000530c       0xa0 ../../../simplelink/gcc/lib/os_PM/Release/libsimplelink.a(device.o)
                0x000000002000530c                sl_Stop
 .text._SlDrvDeviceEventHandler
                0x00000000200053ac       0x66 ../../../simplelink/gcc/lib/os_PM/Release/libsimplelink.a(device.o)
                0x00000000200053ac                _SlDrvDeviceEventHandler
 *fill*         0x0000000020005412        0x2 
 .text._SlAsyncEventGenericHandler
                0x0000000020005414       0x54 ../../../simplelink/gcc/lib/os_PM/Release/libsimplelink.a(driver.o)
 .text._SlRemoveFromList
                0x0000000020005468       0x44 ../../../simplelink/gcc/lib/os_PM/Release/libsimplelink.a(driver.o)
 .text._SlFindAndSetActiveObj
                0x00000000200054ac       0x94 ../../../simplelink/gcc/lib/os_PM/Release/libsimplelink.a(driver.o)
 .text._SlDrvObjGlobalLockWaitForever
                0x0000000020005540       0x2c ../../../simplelink/gcc/lib/os_PM/Release/libsimplelink.a(driver.o)
 .text._SlDrvMsgWrite
                0x000000002000556c      0x108 ../../../simplelink/gcc/lib/os_PM/Release/libsimplelink.a(driver.o)
 .text._SlDrvDriverCBDeinit
                0x0000000020005674       0xa0 ../../../simplelink/gcc/lib/os_PM/Release/libsimplelink.a(driver.o)
                0x0000000020005674                _SlDrvDriverCBDeinit
 .text._SlDrvRxIrqHandler
                0x0000000020005714       0x44 ../../../simplelink/gcc/lib/os_PM/Release/libsimplelink.a(driver.o)
                0x0000000020005714                _SlDrvRxIrqHandler
 .text._SlDrvCmdSend
                0x0000000020005758       0x74 ../../../simplelink/gcc/lib/os_PM/Release/libsimplelink.a(driver.o)
                0x0000000020005758                _SlDrvCmdSend
 .text._SlDrvDispatchHttpServerEvents
                0x00000000200057cc        0x4 ../../../simplelink/gcc/lib/os_PM/Release/libsimplelink.a(driver.o)
                0x00000000200057cc                _SlDrvDispatchHttpServerEvents
 .text._SlDrvSyncObjSignal
                0x00000000200057d0        0x8 ../../../simplelink/gcc/lib/os_PM/Release/libsimplelink.a(driver.o)
                0x00000000200057d0                _SlDrvSyncObjSignal
 .text._SlDrvObjLockWaitForever
                0x00000000200057d8        0xc ../../../simplelink/gcc/lib/os_PM/Release/libsimplelink.a(driver.o)
                0x00000000200057d8                _SlDrvObjLockWaitForever
 .text._SlDrvProtectionObjLockWaitForever
                0x00000000200057e4       0x18 ../../../simplelink/gcc/lib/os_PM/Release/libsimplelink.a(driver.o)
                0x00000000200057e4                _SlDrvProtectionObjLockWaitForever
 .text._SlDrvObjUnLock
                0x00000000200057fc        0x8 ../../../simplelink/gcc/lib/os_PM/Release/libsimplelink.a(driver.o)
                0x00000000200057fc                _SlDrvObjUnLock
 .text._SlDrvProtectionObjUnLock
                0x0000000020005804       0x14 ../../../simplelink/gcc/lib/os_PM/Release/libsimplelink.a(driver.o)
                0x0000000020005804                _SlDrvProtectionObjUnLock
 .text._SlDrvReleasePoolObj
                0x0000000020005818       0xc0 ../../../simplelink/gcc/lib/os_PM/Release/libsimplelink.a(driver.o)
                0x0000000020005818                _SlDrvReleasePoolObj
 .text._SlDrvGlobalObjUnLock
                0x00000000200058d8       0x14 ../../../simplelink/gcc/lib/os_PM/Release/libsimplelink.a(driver.o)
                0x00000000200058d8                _SlDrvGlobalObjUnLock
 .text._SlDrvMemZero
                0x00000000200058ec        0x8 ../../../simplelink/gcc/lib/os_PM/Release/libsimplelink.a(driver.o)
                0x00000000200058ec                _SlDrvMemZero
 .text._SlDrvDriverCBInit
                0x00000000200058f4       0xe0 ../../../simplelink/gcc/lib/os_PM/Release/libsimplelink.a(driver.o)
                0x00000000200058f4                _SlDrvDriverCBInit
 .text._SlDrvResetCmdExt
                0x00000000200059d4        0x6 ../../../simplelink/gcc/lib/os_PM/Release/libsimplelink.a(driver.o)
                0x00000000200059d4                _SlDrvResetCmdExt
 *fill*         0x00000000200059da        0x2 
 .text._SlDrvSyncObjWaitForever
                0x00000000200059dc       0x20 ../../../simplelink/gcc/lib/os_PM/Release/libsimplelink.a(driver.o)
                0x00000000200059dc                _SlDrvSyncObjWaitForever
 .text._SlDrvWaitForPoolObj
                0x00000000200059fc       0xc8 ../../../simplelink/gcc/lib/os_PM/Release/libsimplelink.a(driver.o)
                0x00000000200059fc                _SlDrvWaitForPoolObj
 .text._SlDrvProtectAsyncRespSetting
                0x0000000020005ac4       0x30 ../../../simplelink/gcc/lib/os_PM/Release/libsimplelink.a(driver.o)
                0x0000000020005ac4                _SlDrvProtectAsyncRespSetting
 .text._SlDriverHandleError
                0x0000000020005af4       0x68 ../../../simplelink/gcc/lib/os_PM/Release/libsimplelink.a(driver.o)
                0x0000000020005af4                _SlDriverHandleError
 .text._SlDrvSyncObjWaitTimeout
                0x0000000020005b5c       0x34 ../../../simplelink/gcc/lib/os_PM/Release/libsimplelink.a(driver.o)
                0x0000000020005b5c                _SlDrvSyncObjWaitTimeout
 .text._SlDrvDataReadOp
                0x0000000020005b90      0x128 ../../../simplelink/gcc/lib/os_PM/Release/libsimplelink.a(driver.o)
                0x0000000020005b90                _SlDrvDataReadOp
 .text._SlDrvIsTimeoutExpired
                0x0000000020005cb8       0x48 ../../../simplelink/gcc/lib/os_PM/Release/libsimplelink.a(driver.o)
                0x0000000020005cb8                _SlDrvIsTimeoutExpired
 .text._SlDrvMsgRead
                0x0000000020005d00      0x520 ../../../simplelink/gcc/lib/os_PM/Release/libsimplelink.a(driver.o)
 .text._SlDrvCmdOp
                0x0000000020006220      0x158 ../../../simplelink/gcc/lib/os_PM/Release/libsimplelink.a(driver.o)
                0x0000000020006220                _SlDrvCmdOp
 .text._SlDrvBasicCmd
                0x0000000020006378       0x32 ../../../simplelink/gcc/lib/os_PM/Release/libsimplelink.a(driver.o)
                0x0000000020006378                _SlDrvBasicCmd
 *fill*         0x00000000200063aa        0x2 
 .text._SlDrvMsgReadSpawnCtx
                0x00000000200063ac       0x78 ../../../simplelink/gcc/lib/os_PM/Release/libsimplelink.a(driver.o)
                0x00000000200063ac                _SlDrvMsgReadSpawnCtx
 .text._sl_HandleAsync_DnsGetHostByService
                0x0000000020006424       0x5c ../../../simplelink/gcc/lib/os_PM/Release/libsimplelink.a(netapp.o)
                0x0000000020006424                _sl_HandleAsync_DnsGetHostByService
 .text._sl_HandleAsync_DnsGetHostByName
                0x0000000020006480       0x5c ../../../simplelink/gcc/lib/os_PM/Release/libsimplelink.a(netapp.o)
                0x0000000020006480                _sl_HandleAsync_DnsGetHostByName
 .text._sl_HandleAsync_PingResponse
                0x00000000200064dc       0x7c ../../../simplelink/gcc/lib/os_PM/Release/libsimplelink.a(netapp.o)
                0x00000000200064dc                _sl_HandleAsync_PingResponse
 .text._sl_NetAppSendTokenValue
                0x0000000020006558       0x50 ../../../simplelink/gcc/lib/os_PM/Release/libsimplelink.a(netapp.o)
                0x0000000020006558                _sl_NetAppSendTokenValue
 .text._SlDrvNetAppEventHandler
                0x00000000200065a8       0xdc ../../../simplelink/gcc/lib/os_PM/Release/libsimplelink.a(netapp.o)
                0x00000000200065a8                _SlDrvNetAppEventHandler
 .text._sl_BuildAddress
                0x0000000020006684       0x28 ../../../simplelink/gcc/lib/os_PM/Release/libsimplelink.a(socket.o)
 .text.sl_Socket
                0x00000000200066ac       0x50 ../../../simplelink/gcc/lib/os_PM/Release/libsimplelink.a(socket.o)
                0x00000000200066ac                sl_Socket
 .text.sl_Bind  0x00000000200066fc       0x80 ../../../simplelink/gcc/lib/os_PM/Release/libsimplelink.a(socket.o)
                0x00000000200066fc                sl_Bind
 .text.sl_RecvFrom
                0x000000002000677c       0xc8 ../../../simplelink/gcc/lib/os_PM/Release/libsimplelink.a(socket.o)
                0x000000002000677c                sl_RecvFrom
 .text._sl_HandleAsync_Connect
                0x0000000020006844       0x54 ../../../simplelink/gcc/lib/os_PM/Release/libsimplelink.a(socket.o)
                0x0000000020006844                _sl_HandleAsync_Connect
 .text.sl_Htons
                0x0000000020006898       0x14 ../../../simplelink/gcc/lib/os_PM/Release/libsimplelink.a(socket.o)
                0x0000000020006898                sl_Htons
 .text._sl_HandleAsync_Accept
                0x00000000200068ac       0x54 ../../../simplelink/gcc/lib/os_PM/Release/libsimplelink.a(socket.o)
                0x00000000200068ac                _sl_HandleAsync_Accept
 .text._sl_HandleAsync_Select
                0x0000000020006900       0x40 ../../../simplelink/gcc/lib/os_PM/Release/libsimplelink.a(socket.o)
                0x0000000020006900                _sl_HandleAsync_Select
 .text.sl_WlanConnect
                0x0000000020006940      0x1c0 ../../../simplelink/gcc/lib/os_PM/Release/libsimplelink.a(wlan.o)
                0x0000000020006940                sl_WlanConnect
 .text.sl_WlanDisconnect
                0x0000000020006b00       0x28 ../../../simplelink/gcc/lib/os_PM/Release/libsimplelink.a(wlan.o)
                0x0000000020006b00                sl_WlanDisconnect
 .text.sl_WlanPolicySet
                0x0000000020006b28       0x5c ../../../simplelink/gcc/lib/os_PM/Release/libsimplelink.a(wlan.o)
                0x0000000020006b28                sl_WlanPolicySet
 .text.sl_WlanSetMode
                0x0000000020006b84       0x40 ../../../simplelink/gcc/lib/os_PM/Release/libsimplelink.a(wlan.o)
                0x0000000020006b84                sl_WlanSetMode
 .text.spi_Open
                0x0000000020006bc4       0x12 ../../../simplelink/gcc/lib/os_PM/Release/libsimplelink.a(cc_pal_pm.o)
                0x0000000020006bc4                spi_Open
 .text.spi_Close
                0x0000000020006bd6        0xa ../../../simplelink/gcc/lib/os_PM/Release/libsimplelink.a(cc_pal_pm.o)
                0x0000000020006bd6                spi_Close
 .text.spi_Read
                0x0000000020006be0       0x44 ../../../simplelink/gcc/lib/os_PM/Release/libsimplelink.a(cc_pal_pm.o)
                0x0000000020006be0                spi_Read
 .text.spi_Write
                0x0000000020006c24        0xe ../../../simplelink/gcc/lib/os_PM/Release/libsimplelink.a(cc_pal_pm.o)
                0x0000000020006c24                spi_Write
 .text.NwpRegisterInterruptHandler
                0x0000000020006c32       0x28 ../../../simplelink/gcc/lib/os_PM/Release/libsimplelink.a(cc_pal_pm.o)
                0x0000000020006c32                NwpRegisterInterruptHandler
 *fill*         0x0000000020006c5a        0x2 
 .text.NwpMaskInterrupt
                0x0000000020006c5c        0xc ../../../simplelink/gcc/lib/os_PM/Release/libsimplelink.a(cc_pal_pm.o)
                0x0000000020006c5c                NwpMaskInterrupt
 .text.NwpUnMaskInterrupt
                0x0000000020006c68        0xc ../../../simplelink/gcc/lib/os_PM/Release/libsimplelink.a(cc_pal_pm.o)
                0x0000000020006c68                NwpUnMaskInterrupt
 .text.NwpPowerOn
                0x0000000020006c74       0x30 ../../../simplelink/gcc/lib/os_PM/Release/libsimplelink.a(cc_pal_pm.o)
                0x0000000020006c74                NwpPowerOn
 .text.NwpPowerOff
                0x0000000020006ca4       0x3c ../../../simplelink/gcc/lib/os_PM/Release/libsimplelink.a(cc_pal_pm.o)
                0x0000000020006ca4                NwpPowerOff
 .text.NwpPowerOnPreamble
                0x0000000020006ce0       0x60 ../../../simplelink/gcc/lib/os_PM/Release/libsimplelink.a(cc_pal_pm.o)
                0x0000000020006ce0                NwpPowerOnPreamble
 .text.NwpPrePowerOffTimout0
                0x0000000020006d40       0x20 ../../../simplelink/gcc/lib/os_PM/Release/libsimplelink.a(cc_pal_pm.o)
                0x0000000020006d40                NwpPrePowerOffTimout0
 .text.simplelink_timerA2_start
                0x0000000020006d60       0x4c ../../../simplelink/gcc/lib/os_PM/Release/libsimplelink.a(cc_pal_pm.o)
                0x0000000020006d60                simplelink_timerA2_start
 .text.TimerGetCurrentTimestamp
                0x0000000020006dac       0x24 ../../../simplelink/gcc/lib/os_PM/Release/libsimplelink.a(cc_pal_pm.o)
                0x0000000020006dac                TimerGetCurrentTimestamp
 .text.dma_submit_endp
                0x0000000020006dd0       0x68 ../../../middleware/gcc/lib/Release/middleware.a(dma_hal.o)
 .text.cc_dma_init
                0x0000000020006e38       0x34 ../../../middleware/gcc/lib/Release/middleware.a(dma_hal.o)
                0x0000000020006e38                cc_dma_init
 .text.cc_dma_alloc
                0x0000000020006e6c       0x5c ../../../middleware/gcc/lib/Release/middleware.a(dma_hal.o)
                0x0000000020006e6c                cc_dma_alloc
 .text.cc_dma_chan_config
                0x0000000020006ec8       0x5a ../../../middleware/gcc/lib/Release/middleware.a(dma_hal.o)
                0x0000000020006ec8                cc_dma_chan_config
 *fill*         0x0000000020006f22        0x2 
 .text.cc_dma_desc_config
                0x0000000020006f24       0xa8 ../../../middleware/gcc/lib/Release/middleware.a(dma_hal.o)
                0x0000000020006f24                cc_dma_desc_config
 .text.cc_dma_submit_endp
                0x0000000020006fcc       0x70 ../../../middleware/gcc/lib/Release/middleware.a(dma_hal.o)
                0x0000000020006fcc                cc_dma_submit_endp
 .text.gpio_interrupt_handler
                0x000000002000703c       0x70 ../../../middleware/gcc/lib/Release/middleware.a(gpio_hal.o)
                0x000000002000703c                gpio_interrupt_handler
 .text.gpio_wake_interrupt_handler
                0x00000000200070ac       0x10 ../../../middleware/gcc/lib/Release/middleware.a(gpio_hal.o)
                0x00000000200070ac                gpio_wake_interrupt_handler
 .text.cc_gpio_init
                0x00000000200070bc       0x54 ../../../middleware/gcc/lib/Release/middleware.a(gpio_hal.o)
                0x00000000200070bc                cc_gpio_init
 .text.cc_gpio_open
                0x0000000020007110       0x80 ../../../middleware/gcc/lib/Release/middleware.a(gpio_hal.o)
                0x0000000020007110                cc_gpio_open
 .text.cc_gpio_enable_notification
                0x0000000020007190       0xb8 ../../../middleware/gcc/lib/Release/middleware.a(gpio_hal.o)
                0x0000000020007190                cc_gpio_enable_notification
 .text.cc_gpio_get_spl_purpose
                0x0000000020007248       0x78 ../../../middleware/gcc/lib/Release/middleware.a(gpio_hal.o)
                0x0000000020007248                cc_gpio_get_spl_purpose
 .text.restore_gpio_port
                0x00000000200072c0       0x8e ../../../middleware/gcc/lib/Release/middleware.a(gpio_hal.o)
                0x00000000200072c0                restore_gpio_port
 *fill*         0x000000002000734e        0x2 
 .text.cc_gpio_restore_context
                0x0000000020007350       0x34 ../../../middleware/gcc/lib/Release/middleware.a(gpio_hal.o)
                0x0000000020007350                cc_gpio_restore_context
 .text.cc_hwt32_is_running
                0x0000000020007384       0x34 ../../../middleware/gcc/lib/Release/middleware.a(hw_timer32.o)
                0x0000000020007384                cc_hwt32_is_running
 .text.cc_hwt32_get_remaining
                0x00000000200073b8       0xa8 ../../../middleware/gcc/lib/Release/middleware.a(hw_timer32.o)
                0x00000000200073b8                cc_hwt32_get_remaining
 .text.cc_hwt32_get_rollovers
                0x0000000020007460       0x34 ../../../middleware/gcc/lib/Release/middleware.a(hw_timer32.o)
                0x0000000020007460                cc_hwt32_get_rollovers
 .text.cc_hwt32_get_frequency
                0x0000000020007494        0x6 ../../../middleware/gcc/lib/Release/middleware.a(hw_timer32.o)
                0x0000000020007494                cc_hwt32_get_frequency
 .text.cc_hwt32_register_cb
                0x000000002000749a       0x14 ../../../middleware/gcc/lib/Release/middleware.a(hw_timer32.o)
                0x000000002000749a                cc_hwt32_register_cb
 *fill*         0x00000000200074ae        0x2 
 .text.cc_hwt32_start
                0x00000000200074b0       0xb4 ../../../middleware/gcc/lib/Release/middleware.a(hw_timer32.o)
                0x00000000200074b0                cc_hwt32_start
 .text.hwt32_process_monotone_current
                0x0000000020007564       0x38 ../../../middleware/gcc/lib/Release/middleware.a(hw_timer32.o)
 .text.cc_hwt32_get_current
                0x000000002000759c       0x88 ../../../middleware/gcc/lib/Release/middleware.a(hw_timer32.o)
                0x000000002000759c                cc_hwt32_get_current
 .text.cc_hwt32_update
                0x0000000020007624       0x98 ../../../middleware/gcc/lib/Release/middleware.a(hw_timer32.o)
                0x0000000020007624                cc_hwt32_update
 .text.hwt32_stop
                0x00000000200076bc       0x4e ../../../middleware/gcc/lib/Release/middleware.a(hw_timer32.o)
 *fill*         0x000000002000770a        0x2 
 .text.cc_hwt32_stop
                0x000000002000770c       0x40 ../../../middleware/gcc/lib/Release/middleware.a(hw_timer32.o)
                0x000000002000770c                cc_hwt32_stop
 .text.cc_hwt32_init
                0x000000002000774c       0x8c ../../../middleware/gcc/lib/Release/middleware.a(hw_timer32.o)
                0x000000002000774c                cc_hwt32_init
 .text.cc_hwt32_isr
                0x00000000200077d8       0xa8 ../../../middleware/gcc/lib/Release/middleware.a(hw_timer32.o)
                0x00000000200077d8                cc_hwt32_isr
 .text.CPUipsr  0x0000000020007880        0x8 ../../../middleware/gcc/lib/Release/middleware.a(interrupt_hal.o)
                0x0000000020007880                CPUipsr
 .text.global_intr_handler
                0x0000000020007888       0x20 ../../../middleware/gcc/lib/Release/middleware.a(interrupt_hal.o)
                0x0000000020007888                global_intr_handler
 .text.register_isr
                0x00000000200078a8       0x30 ../../../middleware/gcc/lib/Release/middleware.a(interrupt_hal.o)
                0x00000000200078a8                register_isr
 .text.hwt64_is_running
                0x00000000200078d8       0x18 ../../../middleware/gcc/lib/Release/middleware.a(rtc_hal.o)
 .text.hwt64_get_rollovers
                0x00000000200078f0       0x14 ../../../middleware/gcc/lib/Release/middleware.a(rtc_hal.o)
 .text.hwt64_get_frequency
                0x0000000020007904       0x14 ../../../middleware/gcc/lib/Release/middleware.a(rtc_hal.o)
 .text.hwt64_register_cb
                0x0000000020007918       0x14 ../../../middleware/gcc/lib/Release/middleware.a(rtc_hal.o)
 .text.hw_access_time_addup
                0x000000002000792c       0x28 ../../../middleware/gcc/lib/Release/middleware.a(rtc_hal.o)
 .text.rtc_fast_domain_counter_rd
                0x0000000020007954       0x80 ../../../middleware/gcc/lib/Release/middleware.a(rtc_hal.o)
 .text.rtc_alarm_wr
                0x00000000200079d4       0x38 ../../../middleware/gcc/lib/Release/middleware.a(rtc_hal.o)
 .text.clr_alarm
                0x0000000020007a0c       0x2c ../../../middleware/gcc/lib/Release/middleware.a(rtc_hal.o)
 .text.hwt64_clear_alarm
                0x0000000020007a38       0x1e ../../../middleware/gcc/lib/Release/middleware.a(rtc_hal.o)
 *fill*         0x0000000020007a56        0x2 
 .text.rtc_alarm_rd
                0x0000000020007a58       0x4c ../../../middleware/gcc/lib/Release/middleware.a(rtc_hal.o)
 .text.rtc_ref_value_wr
                0x0000000020007aa4       0x30 ../../../middleware/gcc/lib/Release/middleware.a(rtc_hal.o)
 .text.rtc_value_rd
                0x0000000020007ad4       0x5c ../../../middleware/gcc/lib/Release/middleware.a(rtc_hal.o)
 .text.hwt64_get_current
                0x0000000020007b30       0x20 ../../../middleware/gcc/lib/Release/middleware.a(rtc_hal.o)
 .text.set_alarm
                0x0000000020007b50       0x50 ../../../middleware/gcc/lib/Release/middleware.a(rtc_hal.o)
 .text.hwt64_create_alarm
                0x0000000020007ba0       0x44 ../../../middleware/gcc/lib/Release/middleware.a(rtc_hal.o)
 .text.time_to_alarm.isra.2
                0x0000000020007be4       0x48 ../../../middleware/gcc/lib/Release/middleware.a(rtc_hal.o)
 .text.hwt64_get_remaining
                0x0000000020007c2c       0x2a ../../../middleware/gcc/lib/Release/middleware.a(rtc_hal.o)
 *fill*         0x0000000020007c56        0x2 
 .text.hwt64_update_alarm
                0x0000000020007c58       0x44 ../../../middleware/gcc/lib/Release/middleware.a(rtc_hal.o)
 .text.cc_rtc_has_alarm
                0x0000000020007c9c       0x2c ../../../middleware/gcc/lib/Release/middleware.a(rtc_hal.o)
                0x0000000020007c9c                cc_rtc_has_alarm
 .text.cc_rtc_set
                0x0000000020007cc8       0x58 ../../../middleware/gcc/lib/Release/middleware.a(rtc_hal.o)
                0x0000000020007cc8                cc_rtc_set
 .text.cc_rtc_fast_read_config
                0x0000000020007d20       0x30 ../../../middleware/gcc/lib/Release/middleware.a(rtc_hal.o)
                0x0000000020007d20                cc_rtc_fast_read_config
 .text.cc_rtc_init
                0x0000000020007d50       0x90 ../../../middleware/gcc/lib/Release/middleware.a(rtc_hal.o)
                0x0000000020007d50                cc_rtc_init
 .text.cc_rtc_isr
                0x0000000020007de0       0x68 ../../../middleware/gcc/lib/Release/middleware.a(rtc_hal.o)
                0x0000000020007de0                cc_rtc_isr
 .text.util_u32_nsec_add
                0x0000000020007e48       0x24 ../../../middleware/gcc/lib/Release/middleware.a(util64.o)
                0x0000000020007e48                util_u32_nsec_add
 .text.util_u64_time_add
                0x0000000020007e6c       0x1e ../../../middleware/gcc/lib/Release/middleware.a(util64.o)
                0x0000000020007e6c                util_u64_time_add
 .text.util_u32_data_add
                0x0000000020007e8a       0x14 ../../../middleware/gcc/lib/Release/middleware.a(util64.o)
                0x0000000020007e8a                util_u32_data_add
 .text.util_u64_data_add
                0x0000000020007e9e       0x1e ../../../middleware/gcc/lib/Release/middleware.a(util64.o)
                0x0000000020007e9e                util_u64_data_add
 .text.util_u32_nsec_sub
                0x0000000020007ebc       0x24 ../../../middleware/gcc/lib/Release/middleware.a(util64.o)
                0x0000000020007ebc                util_u32_nsec_sub
 .text.util_u64_data_cmp
                0x0000000020007ee0       0x20 ../../../middleware/gcc/lib/Release/middleware.a(util64.o)
                0x0000000020007ee0                util_u64_data_cmp
 .text.setup_dma_desc
                0x0000000020007f00       0x24 ../../../middleware/gcc/lib/Release/middleware.a(spi_drv.o)
 .text.spi_interrupt_handler
                0x0000000020007f24        0x4 ../../../middleware/gcc/lib/Release/middleware.a(spi_drv.o)
                0x0000000020007f24                spi_interrupt_handler
 .text.drv_callback_ops_complete
                0x0000000020007f28       0x16 ../../../middleware/gcc/lib/Release/middleware.a(spi_drv.o)
                0x0000000020007f28                drv_callback_ops_complete
 .text.spi_handle_pm_cmd
                0x0000000020007f3e       0x52 ../../../middleware/gcc/lib/Release/middleware.a(spi_drv.o)
                0x0000000020007f3e                spi_handle_pm_cmd
 .text.setup_spi_dma
                0x0000000020007f90       0x6e ../../../middleware/gcc/lib/Release/middleware.a(spi_drv.o)
 .text.trigger_spi_dma_transfer
                0x0000000020007ffe       0xcc ../../../middleware/gcc/lib/Release/middleware.a(spi_drv.o)
 *fill*         0x00000000200080ca        0x2 
 .text.spi_driver_load
                0x00000000200080cc      0x16c ../../../middleware/gcc/lib/Release/middleware.a(spi_drv.o)
                0x00000000200080cc                spi_driver_load
 .text.spi_open
                0x0000000020008238       0xa4 ../../../middleware/gcc/lib/Release/middleware.a(spi_drv.o)
                0x0000000020008238                spi_open
 .text.spi_close
                0x00000000200082dc       0x22 ../../../middleware/gcc/lib/Release/middleware.a(spi_drv.o)
                0x00000000200082dc                spi_close
 .text.spi_write
                0x00000000200082fe       0x70 ../../../middleware/gcc/lib/Release/middleware.a(spi_drv.o)
                0x00000000200082fe                spi_write
 .text.spi_read
                0x000000002000836e       0x70 ../../../middleware/gcc/lib/Release/middleware.a(spi_drv.o)
                0x000000002000836e                spi_read
 .text.uart_interrupt_handler
                0x00000000200083de        0x4 ../../../middleware/gcc/lib/Release/middleware.a(uart_drv.o)
                0x00000000200083de                uart_interrupt_handler
 .text.uart_callback_from_hal
                0x00000000200083e2       0x14 ../../../middleware/gcc/lib/Release/middleware.a(uart_drv.o)
                0x00000000200083e2                uart_callback_from_hal
 .text.uart_handle_pm_cmd
                0x00000000200083f6       0x52 ../../../middleware/gcc/lib/Release/middleware.a(uart_drv.o)
                0x00000000200083f6                uart_handle_pm_cmd
 .text.setup_uart_dma.isra.0
                0x0000000020008448       0x5c ../../../middleware/gcc/lib/Release/middleware.a(uart_drv.o)
 .text.uart_driver_load
                0x00000000200084a4      0x130 ../../../middleware/gcc/lib/Release/middleware.a(uart_drv.o)
                0x00000000200084a4                uart_driver_load
 .text.uart_open
                0x00000000200085d4       0x9c ../../../middleware/gcc/lib/Release/middleware.a(uart_drv.o)
                0x00000000200085d4                uart_open
 .text.uart_write
                0x0000000020008670       0xae ../../../middleware/gcc/lib/Release/middleware.a(uart_drv.o)
                0x0000000020008670                uart_write
 *fill*         0x000000002000871e        0x2 
 .text.push_modules_to_M4_no_irq
                0x0000000020008720       0x2c ../../../middleware/gcc/lib/Release/middleware.a(cc_pm.o)
 .text.make_modules_to_M0_no_irq
                0x000000002000874c       0x38 ../../../middleware/gcc/lib/Release/middleware.a(cc_pm.o)
 .text.resume_from_S3
                0x0000000020008784       0x64 ../../../middleware/gcc/lib/Release/middleware.a(cc_pm.o)
                0x0000000020008784                resume_from_S3
 .text.try_S4_no_irq
                0x00000000200087e8       0x68 ../../../middleware/gcc/lib/Release/middleware.a(cc_pm.o)
                0x00000000200087e8                try_S4_no_irq
 .text.try_S3_no_irq
                0x0000000020008850       0xd8 ../../../middleware/gcc/lib/Release/middleware.a(cc_pm.o)
                0x0000000020008850                try_S3_no_irq
 .text.try_S2_no_irq
                0x0000000020008928       0x3c ../../../middleware/gcc/lib/Release/middleware.a(cc_pm.o)
                0x0000000020008928                try_S2_no_irq
 .text.try_S1_no_irq
                0x0000000020008964       0x30 ../../../middleware/gcc/lib/Release/middleware.a(cc_pm.o)
                0x0000000020008964                try_S1_no_irq
 .text.cc_idle_task_pm
                0x0000000020008994       0x50 ../../../middleware/gcc/lib/Release/middleware.a(cc_pm.o)
                0x0000000020008994                cc_idle_task_pm
 .text.cc_pm_platform_ops_register
                0x00000000200089e4       0x60 ../../../middleware/gcc/lib/Release/middleware.a(cc_pm.o)
                0x00000000200089e4                cc_pm_platform_ops_register
 .text.cc_pm_framework_init
                0x0000000020008a44       0x1c ../../../middleware/gcc/lib/Release/middleware.a(cc_pm.o)
                0x0000000020008a44                cc_pm_framework_init
 .text.cc_modules_load
                0x0000000020008a60       0x3a ../../../middleware/gcc/lib/Release/middleware.a(cc_pm.o)
                0x0000000020008a60                cc_modules_load
 *fill*         0x0000000020008a9a        0x2 
 .text.cc_module_drv_register
                0x0000000020008a9c       0x3c ../../../middleware/gcc/lib/Release/middleware.a(cc_pm.o)
                0x0000000020008a9c                cc_module_drv_register
 .text.cc_module_drv_unregister
                0x0000000020008ad8       0x30 ../../../middleware/gcc/lib/Release/middleware.a(cc_pm.o)
                0x0000000020008ad8                cc_module_drv_unregister
 .text.hwt_get_current
                0x0000000020008b08       0x30 ../../../middleware/gcc/lib/Release/middleware.a(cc_timer.o)
 .text.remove_elem
                0x0000000020008b38       0x2e ../../../middleware/gcc/lib/Release/middleware.a(cc_timer.o)
 .text.sched_timer_if_new
                0x0000000020008b66       0x50 ../../../middleware/gcc/lib/Release/middleware.a(cc_timer.o)
 .text.setup_timer_exec
                0x0000000020008bb6       0xc6 ../../../middleware/gcc/lib/Release/middleware.a(cc_timer.o)
 .text.timer_isr
                0x0000000020008c7c       0xd0 ../../../middleware/gcc/lib/Release/middleware.a(cc_timer.o)
 *fill*         0x0000000020008d4c        0x4 
 .text.cc_timer_start
                0x0000000020008d50       0xf0 ../../../middleware/gcc/lib/Release/middleware.a(cc_timer.o)
                0x0000000020008d50                cc_timer_start
 .text.cc_timer_create
                0x0000000020008e40       0x5c ../../../middleware/gcc/lib/Release/middleware.a(cc_timer.o)
                0x0000000020008e40                cc_timer_create
 .text.cc_timer_module_init
                0x0000000020008e9c       0x84 ../../../middleware/gcc/lib/Release/middleware.a(cc_timer.o)
                0x0000000020008e9c                cc_timer_module_init
 .text.cc_timer_register_hwt_ops
                0x0000000020008f20       0x98 ../../../middleware/gcc/lib/Release/middleware.a(cc_timer.o)
                0x0000000020008f20                cc_timer_register_hwt_ops
 .text.cc_io_park_safe
                0x0000000020008fb8       0xac ../../../middleware/gcc/lib/Release/middleware.a(cc_io_park.o)
                0x0000000020008fb8                cc_io_park_safe
 .text.setup_hib_gpio_wake
                0x0000000020009064       0x12 ../../../middleware/gcc/lib/Release/middleware.a(cc_pm_ops.o)
 *fill*         0x0000000020009076        0x2 
 .text.cc_set_up_wkup_srcs
                0x0000000020009078      0x208 ../../../middleware/gcc/lib/Release/middleware.a(cc_pm_ops.o)
                0x0000000020009078                cc_set_up_wkup_srcs
 .text.wake_interrupt_handler
                0x0000000020009280       0x20 ../../../middleware/gcc/lib/Release/middleware.a(cc_pm_ops.o)
                0x0000000020009280                wake_interrupt_handler
 .text.cc_handle_S3_wakeup
                0x00000000200092a0        0xc ../../../middleware/gcc/lib/Release/middleware.a(cc_pm_ops.o)
                0x00000000200092a0                cc_handle_S3_wakeup
 .text.cc_are_irqs_pending
                0x00000000200092ac       0x34 ../../../middleware/gcc/lib/Release/middleware.a(cc_pm_ops.o)
                0x00000000200092ac                cc_are_irqs_pending
 .text.cc_enter_S4
                0x00000000200092e0        0xa ../../../middleware/gcc/lib/Release/middleware.a(cc_pm_ops.o)
                0x00000000200092e0                cc_enter_S4
 .text.cc_enter_S3
                0x00000000200092ea       0x1c ../../../middleware/gcc/lib/Release/middleware.a(cc_pm_ops.o)
                0x00000000200092ea                cc_enter_S3
 .text.cc_enter_S2
                0x0000000020009306        0x4 ../../../middleware/gcc/lib/Release/middleware.a(cc_pm_ops.o)
                0x0000000020009306                cc_enter_S2
 .text.cc_enter_S1
                0x000000002000930a       0x10 ../../../middleware/gcc/lib/Release/middleware.a(cc_pm_ops.o)
                0x000000002000930a                cc_enter_S1
 *fill*         0x000000002000931a        0x2 
 .text.back_up_nvic_regs
                0x000000002000931c       0xc8 ../../../middleware/gcc/lib/Release/middleware.a(cc_pm_ops.o)
                0x000000002000931c                back_up_nvic_regs
 .text.restore_nvic_regs
                0x00000000200093e4       0x94 ../../../middleware/gcc/lib/Release/middleware.a(cc_pm_ops.o)
                0x00000000200093e4                restore_nvic_regs
 .text.cc_back_up_soc_data
                0x0000000020009478       0x10 ../../../middleware/gcc/lib/Release/middleware.a(cc_pm_ops.o)
                0x0000000020009478                cc_back_up_soc_data
 .text.cc_restore_soc_data
                0x0000000020009488       0x2c ../../../middleware/gcc/lib/Release/middleware.a(cc_pm_ops.o)
                0x0000000020009488                cc_restore_soc_data
 .text.cc_spi_configure
                0x00000000200094b4       0xa6 ../../../middleware/gcc/lib/Release/middleware.a(spi_hal.o)
                0x00000000200094b4                cc_spi_configure
 *fill*         0x000000002000955a        0x2 
 .text.cc_spi_init
                0x000000002000955c       0x90 ../../../middleware/gcc/lib/Release/middleware.a(spi_hal.o)
                0x000000002000955c                cc_spi_init
 .text.cc_spi_deinit
                0x00000000200095ec       0x2c ../../../middleware/gcc/lib/Release/middleware.a(spi_hal.o)
                0x00000000200095ec                cc_spi_deinit
 .text.cc_spi_isr
                0x0000000020009618       0x60 ../../../middleware/gcc/lib/Release/middleware.a(spi_hal.o)
                0x0000000020009618                cc_spi_isr
 .text.cc_spi_wr_submit
                0x0000000020009678       0x54 ../../../middleware/gcc/lib/Release/middleware.a(spi_hal.o)
                0x0000000020009678                cc_spi_wr_submit
 .text.cc_spi_rd_submit
                0x00000000200096cc       0x54 ../../../middleware/gcc/lib/Release/middleware.a(spi_hal.o)
                0x00000000200096cc                cc_spi_rd_submit
 .text.cc_spi_control
                0x0000000020009720       0x68 ../../../middleware/gcc/lib/Release/middleware.a(spi_hal.o)
                0x0000000020009720                cc_spi_control
 .text.cc_uart_deinit
                0x0000000020009788       0x24 ../../../middleware/gcc/lib/Release/middleware.a(uart_hal.o)
                0x0000000020009788                cc_uart_deinit
 .text.cc_uart_wr_submit
                0x00000000200097ac       0xba ../../../middleware/gcc/lib/Release/middleware.a(uart_hal.o)
                0x00000000200097ac                cc_uart_wr_submit
 .text.cc_uart_control
                0x0000000020009866      0x1a2 ../../../middleware/gcc/lib/Release/middleware.a(uart_hal.o)
                0x0000000020009866                cc_uart_control
 .text.cc_uart_isr
                0x0000000020009a08      0x180 ../../../middleware/gcc/lib/Release/middleware.a(uart_hal.o)
                0x0000000020009a08                cc_uart_isr
 .text.cc_uart_configure
                0x0000000020009b88       0x46 ../../../middleware/gcc/lib/Release/middleware.a(uart_hal.o)
                0x0000000020009b88                cc_uart_configure
 *fill*         0x0000000020009bce        0x2 
 .text.cc_uart_init
                0x0000000020009bd0       0x94 ../../../middleware/gcc/lib/Release/middleware.a(uart_hal.o)
                0x0000000020009bd0                cc_uart_init
 .text.vSimpleLinkSpawnTask
                0x0000000020009c64       0x24 ../../../oslib/gcc/free_rtos/Release/free_rtos.a(osi_freertos.o)
 .text.osi_InterruptRegister
                0x0000000020009c88       0x24 ../../../oslib/gcc/free_rtos/Release/free_rtos.a(osi_freertos.o)
                0x0000000020009c88                osi_InterruptRegister
 .text.osi_InterruptDeRegister
                0x0000000020009cac       0x18 ../../../oslib/gcc/free_rtos/Release/free_rtos.a(osi_freertos.o)
                0x0000000020009cac                osi_InterruptDeRegister
 .text.osi_SyncObjCreate
                0x0000000020009cc4       0x22 ../../../oslib/gcc/free_rtos/Release/free_rtos.a(osi_freertos.o)
                0x0000000020009cc4                osi_SyncObjCreate
 .text.osi_SyncObjSignal
                0x0000000020009ce6       0x1a ../../../oslib/gcc/free_rtos/Release/free_rtos.a(osi_freertos.o)
                0x0000000020009ce6                osi_SyncObjSignal
 .text.osi_SyncObjSignalFromISR
                0x0000000020009d00       0x30 ../../../oslib/gcc/free_rtos/Release/free_rtos.a(osi_freertos.o)
                0x0000000020009d00                osi_SyncObjSignalFromISR
 .text.osi_LockObjCreate
                0x0000000020009d30       0x18 ../../../oslib/gcc/free_rtos/Release/free_rtos.a(osi_freertos.o)
                0x0000000020009d30                osi_LockObjCreate
 .text.osi_TaskCreate
                0x0000000020009d48       0x24 ../../../oslib/gcc/free_rtos/Release/free_rtos.a(osi_freertos.o)
                0x0000000020009d48                osi_TaskCreate
 .text.osi_LockObjDelete
                0x0000000020009d6c        0xc ../../../oslib/gcc/free_rtos/Release/free_rtos.a(osi_freertos.o)
                0x0000000020009d6c                osi_LockObjDelete
 .text.osi_LockObjLock
                0x0000000020009d78       0x20 ../../../oslib/gcc/free_rtos/Release/free_rtos.a(osi_freertos.o)
                0x0000000020009d78                osi_LockObjLock
 .text.osi_SyncObjWait
                0x0000000020009d98        0x4 ../../../oslib/gcc/free_rtos/Release/free_rtos.a(osi_freertos.o)
                0x0000000020009d98                osi_SyncObjWait
 .text.osi_LockObjUnlock
                0x0000000020009d9c       0x20 ../../../oslib/gcc/free_rtos/Release/free_rtos.a(osi_freertos.o)
                0x0000000020009d9c                osi_LockObjUnlock
 .text.osi_Spawn
                0x0000000020009dbc       0x3c ../../../oslib/gcc/free_rtos/Release/free_rtos.a(osi_freertos.o)
                0x0000000020009dbc                osi_Spawn
 .text.VStartSimpleLinkSpawnTask
                0x0000000020009df8       0x50 ../../../oslib/gcc/free_rtos/Release/free_rtos.a(osi_freertos.o)
                0x0000000020009df8                VStartSimpleLinkSpawnTask
 .text.osi_MsgQCreate
                0x0000000020009e48       0x22 ../../../oslib/gcc/free_rtos/Release/free_rtos.a(osi_freertos.o)
                0x0000000020009e48                osi_MsgQCreate
 .text.osi_MsgQDelete
                0x0000000020009e6a       0x14 ../../../oslib/gcc/free_rtos/Release/free_rtos.a(osi_freertos.o)
                0x0000000020009e6a                osi_MsgQDelete
 .text.osi_SyncObjDelete
                0x0000000020009e7e        0x4 ../../../oslib/gcc/free_rtos/Release/free_rtos.a(osi_freertos.o)
                0x0000000020009e7e                osi_SyncObjDelete
 *fill*         0x0000000020009e82        0x2 
 .text.osi_MsgQWrite
                0x0000000020009e84       0x28 ../../../oslib/gcc/free_rtos/Release/free_rtos.a(osi_freertos.o)
                0x0000000020009e84                osi_MsgQWrite
 .text.osi_MsgQRead
                0x0000000020009eac       0x1c ../../../oslib/gcc/free_rtos/Release/free_rtos.a(osi_freertos.o)
                0x0000000020009eac                osi_MsgQRead
 .text.osi_EnterCritical
                0x0000000020009ec8        0xa ../../../oslib/gcc/free_rtos/Release/free_rtos.a(osi_freertos.o)
                0x0000000020009ec8                osi_EnterCritical
 .text.osi_ExitCritical
                0x0000000020009ed2        0x4 ../../../oslib/gcc/free_rtos/Release/free_rtos.a(osi_freertos.o)
                0x0000000020009ed2                osi_ExitCritical
 .text.osi_start
                0x0000000020009ed6        0x4 ../../../oslib/gcc/free_rtos/Release/free_rtos.a(osi_freertos.o)
                0x0000000020009ed6                osi_start
 .text.prvCopyDataToQueue
                0x0000000020009eda       0x6a ../../../oslib/gcc/free_rtos/Release/free_rtos.a(queue.o)
 .text.prvNotifyQueueSetContainer
                0x0000000020009f44       0x68 ../../../oslib/gcc/free_rtos/Release/free_rtos.a(queue.o)
 .text.prvCopyDataFromQueue
                0x0000000020009fac       0x26 ../../../oslib/gcc/free_rtos/Release/free_rtos.a(queue.o)
 .text.prvUnlockQueue
                0x0000000020009fd2       0x7c ../../../oslib/gcc/free_rtos/Release/free_rtos.a(queue.o)
 *fill*         0x000000002000a04e        0x2 
 .text.xQueueGenericReset
                0x000000002000a050       0x6c ../../../oslib/gcc/free_rtos/Release/free_rtos.a(queue.o)
                0x000000002000a050                xQueueGenericReset
 .text.xQueueGenericCreate
                0x000000002000a0bc       0x60 ../../../oslib/gcc/free_rtos/Release/free_rtos.a(queue.o)
                0x000000002000a0bc                xQueueGenericCreate
 .text.xQueueGenericSend
                0x000000002000a11c      0x144 ../../../oslib/gcc/free_rtos/Release/free_rtos.a(queue.o)
                0x000000002000a11c                xQueueGenericSend
 .text.xQueueCreateMutex
                0x000000002000a260       0x5c ../../../oslib/gcc/free_rtos/Release/free_rtos.a(queue.o)
                0x000000002000a260                xQueueCreateMutex
 .text.xQueueGenericSendFromISR
                0x000000002000a2bc       0xb4 ../../../oslib/gcc/free_rtos/Release/free_rtos.a(queue.o)
                0x000000002000a2bc                xQueueGenericSendFromISR
 .text.xQueueGiveFromISR
                0x000000002000a370       0x98 ../../../oslib/gcc/free_rtos/Release/free_rtos.a(queue.o)
                0x000000002000a370                xQueueGiveFromISR
 .text.xQueueGenericReceive
                0x000000002000a408      0x14c ../../../oslib/gcc/free_rtos/Release/free_rtos.a(queue.o)
                0x000000002000a408                xQueueGenericReceive
 .text.vQueueAddToRegistry
                0x000000002000a554       0x28 ../../../oslib/gcc/free_rtos/Release/free_rtos.a(queue.o)
                0x000000002000a554                vQueueAddToRegistry
 .text.vQueueUnregisterQueue
                0x000000002000a57c       0x24 ../../../oslib/gcc/free_rtos/Release/free_rtos.a(queue.o)
                0x000000002000a57c                vQueueUnregisterQueue
 .text.vQueueDelete
                0x000000002000a5a0       0x24 ../../../oslib/gcc/free_rtos/Release/free_rtos.a(queue.o)
                0x000000002000a5a0                vQueueDelete
 .text.vQueueWaitForMessageRestricted
                0x000000002000a5c4       0x3a ../../../oslib/gcc/free_rtos/Release/free_rtos.a(queue.o)
                0x000000002000a5c4                vQueueWaitForMessageRestricted
 *fill*         0x000000002000a5fe        0x2 
 .text.prvResetNextTaskUnblockTime
                0x000000002000a600       0x24 ../../../oslib/gcc/free_rtos/Release/free_rtos.a(tasks.o)
 .text.prvAddCurrentTaskToDelayedList
                0x000000002000a624       0x50 ../../../oslib/gcc/free_rtos/Release/free_rtos.a(tasks.o)
 .text.xTaskGenericCreate
                0x000000002000a674      0x1d4 ../../../oslib/gcc/free_rtos/Release/free_rtos.a(tasks.o)
                0x000000002000a674                xTaskGenericCreate
 .text.vTaskStartScheduler
                0x000000002000a848       0x70 ../../../oslib/gcc/free_rtos/Release/free_rtos.a(tasks.o)
                0x000000002000a848                vTaskStartScheduler
 .text.vTaskSuspendAll
                0x000000002000a8b8       0x10 ../../../oslib/gcc/free_rtos/Release/free_rtos.a(tasks.o)
                0x000000002000a8b8                vTaskSuspendAll
 .text.xTaskGetTickCount
                0x000000002000a8c8        0xc ../../../oslib/gcc/free_rtos/Release/free_rtos.a(tasks.o)
                0x000000002000a8c8                xTaskGetTickCount
 .text.xTaskIncrementTick
                0x000000002000a8d4      0x104 ../../../oslib/gcc/free_rtos/Release/free_rtos.a(tasks.o)
                0x000000002000a8d4                xTaskIncrementTick
 .text.xTaskResumeAll
                0x000000002000a9d8       0xd8 ../../../oslib/gcc/free_rtos/Release/free_rtos.a(tasks.o)
                0x000000002000a9d8                xTaskResumeAll
 .text.prvIdleTask
                0x000000002000aab0       0x5c ../../../oslib/gcc/free_rtos/Release/free_rtos.a(tasks.o)
 .text.vTaskSwitchContext
                0x000000002000ab0c       0xa8 ../../../oslib/gcc/free_rtos/Release/free_rtos.a(tasks.o)
                0x000000002000ab0c                vTaskSwitchContext
 .text.vTaskPlaceOnEventList
                0x000000002000abb4       0x70 ../../../oslib/gcc/free_rtos/Release/free_rtos.a(tasks.o)
                0x000000002000abb4                vTaskPlaceOnEventList
 .text.vTaskPlaceOnEventListRestricted
                0x000000002000ac24       0x58 ../../../oslib/gcc/free_rtos/Release/free_rtos.a(tasks.o)
                0x000000002000ac24                vTaskPlaceOnEventListRestricted
 .text.xTaskRemoveFromEventList
                0x000000002000ac7c       0x80 ../../../oslib/gcc/free_rtos/Release/free_rtos.a(tasks.o)
                0x000000002000ac7c                xTaskRemoveFromEventList
 .text.vTaskSetTimeOutState
                0x000000002000acfc       0x2c ../../../oslib/gcc/free_rtos/Release/free_rtos.a(tasks.o)
                0x000000002000acfc                vTaskSetTimeOutState
 .text.xTaskCheckForTimeOut
                0x000000002000ad28       0x68 ../../../oslib/gcc/free_rtos/Release/free_rtos.a(tasks.o)
                0x000000002000ad28                xTaskCheckForTimeOut
 .text.vTaskMissedYield
                0x000000002000ad90        0xc ../../../oslib/gcc/free_rtos/Release/free_rtos.a(tasks.o)
                0x000000002000ad90                vTaskMissedYield
 .text.xTaskGetSchedulerState
                0x000000002000ad9c       0x20 ../../../oslib/gcc/free_rtos/Release/free_rtos.a(tasks.o)
                0x000000002000ad9c                xTaskGetSchedulerState
 .text.vTaskPriorityInherit
                0x000000002000adbc       0x8c ../../../oslib/gcc/free_rtos/Release/free_rtos.a(tasks.o)
                0x000000002000adbc                vTaskPriorityInherit
 .text.xTaskPriorityDisinherit
                0x000000002000ae48       0x98 ../../../oslib/gcc/free_rtos/Release/free_rtos.a(tasks.o)
                0x000000002000ae48                xTaskPriorityDisinherit
 .text.pvTaskIncrementMutexHeldCount
                0x000000002000aee0       0x18 ../../../oslib/gcc/free_rtos/Release/free_rtos.a(tasks.o)
                0x000000002000aee0                pvTaskIncrementMutexHeldCount
 .text.prvPortStartFirstTask
                0x000000002000aef8       0x20 ../../../oslib/gcc/free_rtos/Release/free_rtos.a(port.o)
 .text.pxPortInitialiseStack
                0x000000002000af18       0x1c ../../../oslib/gcc/free_rtos/Release/free_rtos.a(port.o)
                0x000000002000af18                pxPortInitialiseStack
 .text.vPortSVCHandler
                0x000000002000af34       0x24 ../../../oslib/gcc/free_rtos/Release/free_rtos.a(port.o)
                0x000000002000af34                vPortSVCHandler
 .text.vPortYield
                0x000000002000af58       0x18 ../../../oslib/gcc/free_rtos/Release/free_rtos.a(port.o)
                0x000000002000af58                vPortYield
 .text.ulPortSetInterruptMask
                0x000000002000af70       0x10 ../../../oslib/gcc/free_rtos/Release/free_rtos.a(port.o)
                0x000000002000af70                ulPortSetInterruptMask
 .text.prvTaskExitError
                0x000000002000af80       0x20 ../../../oslib/gcc/free_rtos/Release/free_rtos.a(port.o)
 .text.vPortEnterCritical
                0x000000002000afa0       0x40 ../../../oslib/gcc/free_rtos/Release/free_rtos.a(port.o)
                0x000000002000afa0                vPortEnterCritical
 .text.vPortClearInterruptMask
                0x000000002000afe0        0x6 ../../../oslib/gcc/free_rtos/Release/free_rtos.a(port.o)
                0x000000002000afe0                vPortClearInterruptMask
 *fill*         0x000000002000afe6        0x2 
 .text.vPortExitCritical
                0x000000002000afe8       0x2c ../../../oslib/gcc/free_rtos/Release/free_rtos.a(port.o)
                0x000000002000afe8                vPortExitCritical
 .text.xPortPendSVHandler
                0x000000002000b014       0x44 ../../../oslib/gcc/free_rtos/Release/free_rtos.a(port.o)
                0x000000002000b014                xPortPendSVHandler
 .text.xPortSysTickHandler
                0x000000002000b058       0x24 ../../../oslib/gcc/free_rtos/Release/free_rtos.a(port.o)
                0x000000002000b058                xPortSysTickHandler
 .text.vPortSetupTimerInterrupt
                0x000000002000b07c       0x18 ../../../oslib/gcc/free_rtos/Release/free_rtos.a(port.o)
                0x000000002000b07c                vPortSetupTimerInterrupt
 .text.xPortStartScheduler
                0x000000002000b094       0x98 ../../../oslib/gcc/free_rtos/Release/free_rtos.a(port.o)
                0x000000002000b094                xPortStartScheduler
 .text.vPortValidateInterruptPriority
                0x000000002000b12c       0x54 ../../../oslib/gcc/free_rtos/Release/free_rtos.a(port.o)
                0x000000002000b12c                vPortValidateInterruptPriority
 .text.prvCheckForValidListAndQueue
                0x000000002000b180       0x6c ../../../oslib/gcc/free_rtos/Release/free_rtos.a(timers.o)
 .text.prvInsertTimerInActiveList
                0x000000002000b1ec       0x3c ../../../oslib/gcc/free_rtos/Release/free_rtos.a(timers.o)
 .text.xTimerCreateTimerTask
                0x000000002000b228       0x50 ../../../oslib/gcc/free_rtos/Release/free_rtos.a(timers.o)
                0x000000002000b228                xTimerCreateTimerTask
 .text.xTimerGenericCommand
                0x000000002000b278       0x44 ../../../oslib/gcc/free_rtos/Release/free_rtos.a(timers.o)
                0x000000002000b278                xTimerGenericCommand
 .text.prvSwitchTimerLists
                0x000000002000b2bc       0x7c ../../../oslib/gcc/free_rtos/Release/free_rtos.a(timers.o)
 .text.prvTimerTask
                0x000000002000b338      0x190 ../../../oslib/gcc/free_rtos/Release/free_rtos.a(timers.o)
 .text.pvPortMalloc
                0x000000002000b4c8       0x1e ../../../oslib/gcc/free_rtos/Release/free_rtos.a(heap_3.o)
                0x000000002000b4c8                pvPortMalloc
 .text.vPortFree
                0x000000002000b4e6       0x1a ../../../oslib/gcc/free_rtos/Release/free_rtos.a(heap_3.o)
                0x000000002000b4e6                vPortFree
 .text.vListInitialise
                0x000000002000b500       0x16 ../../../oslib/gcc/free_rtos/Release/free_rtos.a(list.o)
                0x000000002000b500                vListInitialise
 .text.vListInitialiseItem
                0x000000002000b516        0x6 ../../../oslib/gcc/free_rtos/Release/free_rtos.a(list.o)
                0x000000002000b516                vListInitialiseItem
 .text.vListInsertEnd
                0x000000002000b51c       0x18 ../../../oslib/gcc/free_rtos/Release/free_rtos.a(list.o)
                0x000000002000b51c                vListInsertEnd
 .text.vListInsert
                0x000000002000b534       0x30 ../../../oslib/gcc/free_rtos/Release/free_rtos.a(list.o)
                0x000000002000b534                vListInsert
 .text.uxListRemove
                0x000000002000b564       0x20 ../../../oslib/gcc/free_rtos/Release/free_rtos.a(list.o)
                0x000000002000b564                uxListRemove
 .text.IntVTableBaseSet
                0x000000002000b584        0xc ../../../driverlib/gcc/lib/Release/libdriver.a(interrupt.o)
                0x000000002000b584                IntVTableBaseSet
 .text.IntEnable
                0x000000002000b590       0x68 ../../../driverlib/gcc/lib/Release/libdriver.a(interrupt.o)
                0x000000002000b590                IntEnable
 .text.IntDisable
                0x000000002000b5f8       0x68 ../../../driverlib/gcc/lib/Release/libdriver.a(interrupt.o)
                0x000000002000b5f8                IntDisable
 .text.IntPendSet
                0x000000002000b660       0x58 ../../../driverlib/gcc/lib/Release/libdriver.a(interrupt.o)
                0x000000002000b660                IntPendSet
 .text.PinConfigSet
                0x000000002000b6b8       0x5c ../../../driverlib/gcc/lib/Release/libdriver.a(pin.o)
                0x000000002000b6b8                PinConfigSet
 .text.IsRTCUsed
                0x000000002000b714       0x18 ../../../driverlib/gcc/lib/Release/libdriver.a(prcm.o)
 .text.PRCMSysResetCauseGet
                0x000000002000b72c       0x2c ../../../driverlib/gcc/lib/Release/libdriver.a(prcm.o)
                0x000000002000b72c                PRCMSysResetCauseGet
 .text.PRCMPeripheralClkEnable
                0x000000002000b758       0x2c ../../../driverlib/gcc/lib/Release/libdriver.a(prcm.o)
                0x000000002000b758                PRCMPeripheralClkEnable
 .text.PRCMPeripheralClkDisable
                0x000000002000b784       0x1c ../../../driverlib/gcc/lib/Release/libdriver.a(prcm.o)
                0x000000002000b784                PRCMPeripheralClkDisable
 .text.PRCMPeripheralClockGet
                0x000000002000b7a0       0x48 ../../../driverlib/gcc/lib/Release/libdriver.a(prcm.o)
                0x000000002000b7a0                PRCMPeripheralClockGet
 .text.PRCMPeripheralReset
                0x000000002000b7e8       0x40 ../../../driverlib/gcc/lib/Release/libdriver.a(prcm.o)
                0x000000002000b7e8                PRCMPeripheralReset
 .text.PRCMPeripheralStatusGet
                0x000000002000b828       0x1c ../../../driverlib/gcc/lib/Release/libdriver.a(prcm.o)
                0x000000002000b828                PRCMPeripheralStatusGet
 .text.PRCMLPDSEnter
                0x000000002000b844       0x38 ../../../driverlib/gcc/lib/Release/libdriver.a(prcm.o)
                0x000000002000b844                PRCMLPDSEnter
 .text.PRCMLPDSWakeUpGPIOSelect
                0x000000002000b87c       0x24 ../../../driverlib/gcc/lib/Release/libdriver.a(prcm.o)
                0x000000002000b87c                PRCMLPDSWakeUpGPIOSelect
 .text.PRCMSRAMRetentionEnable
                0x000000002000b8a0       0x14 ../../../driverlib/gcc/lib/Release/libdriver.a(prcm.o)
                0x000000002000b8a0                PRCMSRAMRetentionEnable
 .text.PRCMHibernateWakeupSourceEnable
                0x000000002000b8b4       0x48 ../../../driverlib/gcc/lib/Release/libdriver.a(prcm.o)
                0x000000002000b8b4                PRCMHibernateWakeupSourceEnable
 .text.PRCMHibernateWakeupSourceDisable
                0x000000002000b8fc       0x4c ../../../driverlib/gcc/lib/Release/libdriver.a(prcm.o)
                0x000000002000b8fc                PRCMHibernateWakeupSourceDisable
 .text.PRCMHibernateIntervalSet
                0x000000002000b948       0x70 ../../../driverlib/gcc/lib/Release/libdriver.a(prcm.o)
                0x000000002000b948                PRCMHibernateIntervalSet
 .text.PRCMHibernateWakeUpGPIOSelect
                0x000000002000b9b8       0x50 ../../../driverlib/gcc/lib/Release/libdriver.a(prcm.o)
                0x000000002000b9b8                PRCMHibernateWakeUpGPIOSelect
 .text.PRCMHibernateEnter
                0x000000002000ba08       0x18 ../../../driverlib/gcc/lib/Release/libdriver.a(prcm.o)
                0x000000002000ba08                PRCMHibernateEnter
 .text.PRCMSlowClkCtrGet
                0x000000002000ba20       0x40 ../../../driverlib/gcc/lib/Release/libdriver.a(prcm.o)
                0x000000002000ba20                PRCMSlowClkCtrGet
 .text.PRCMSlowClkCtrFastGet
                0x000000002000ba60       0x20 ../../../driverlib/gcc/lib/Release/libdriver.a(prcm.o)
                0x000000002000ba60                PRCMSlowClkCtrFastGet
 .text.PRCMSlowClkCtrMatchSet
                0x000000002000ba80       0x28 ../../../driverlib/gcc/lib/Release/libdriver.a(prcm.o)
                0x000000002000ba80                PRCMSlowClkCtrMatchSet
 .text.PRCMSlowClkCtrMatchGet
                0x000000002000baa8       0x30 ../../../driverlib/gcc/lib/Release/libdriver.a(prcm.o)
                0x000000002000baa8                PRCMSlowClkCtrMatchGet
 .text.PRCMIntEnable
                0x000000002000bad8       0x38 ../../../driverlib/gcc/lib/Release/libdriver.a(prcm.o)
                0x000000002000bad8                PRCMIntEnable
 .text.PRCMIntDisable
                0x000000002000bb10       0x38 ../../../driverlib/gcc/lib/Release/libdriver.a(prcm.o)
                0x000000002000bb10                PRCMIntDisable
 .text.PRCMRTCInUseSet
                0x000000002000bb48       0x20 ../../../driverlib/gcc/lib/Release/libdriver.a(prcm.o)
                0x000000002000bb48                PRCMRTCInUseSet
 .text.PRCMRTCSet
                0x000000002000bb68       0x60 ../../../driverlib/gcc/lib/Release/libdriver.a(prcm.o)
                0x000000002000bb68                PRCMRTCSet
 .text.PRCMRTCGet
                0x000000002000bbc8       0x64 ../../../driverlib/gcc/lib/Release/libdriver.a(prcm.o)
                0x000000002000bbc8                PRCMRTCGet
 .text.PRCMRTCMatchSet
                0x000000002000bc2c       0x68 ../../../driverlib/gcc/lib/Release/libdriver.a(prcm.o)
                0x000000002000bc2c                PRCMRTCMatchSet
 .text.PRCMRTCMatchGet
                0x000000002000bc94       0x6c ../../../driverlib/gcc/lib/Release/libdriver.a(prcm.o)
                0x000000002000bc94                PRCMRTCMatchGet
 .text.PRCMCC3200MCUInit
                0x000000002000bd00      0x150 ../../../driverlib/gcc/lib/Release/libdriver.a(prcm.o)
                0x000000002000bd00                PRCMCC3200MCUInit
 .text.SPIConfigSetExpClk
                0x000000002000be50       0x5a ../../../driverlib/gcc/lib/Release/libdriver.a(spi.o)
                0x000000002000be50                SPIConfigSetExpClk
 *fill*         0x000000002000beaa        0x2 
 .text.TimerConfigure
                0x000000002000beac       0x28 ../../../driverlib/gcc/lib/Release/libdriver.a(timer.o)
                0x000000002000beac                TimerConfigure
 .text.TimerValueSet
                0x000000002000bed4        0xa ../../../driverlib/gcc/lib/Release/libdriver.a(timer.o)
                0x000000002000bed4                TimerValueSet
 .text.UtilsDelay
                0x000000002000bede        0x8 ../../../driverlib/gcc/lib/Release/libdriver.a(utils.o)
                0x000000002000bede                UtilsDelay
 *fill*         0x000000002000bee6        0x2 
 .text.FlashDisable
                0x000000002000bee8       0x48 ../../../driverlib/gcc/lib/Release/libdriver.a(flash.o)
                0x000000002000bee8                FlashDisable
 .text.malloc   0x000000002000bf30       0x10 /usr/lib/gcc/arm-none-eabi/5.2.0/../../../../arm-none-eabi/lib/armv7e-m/libc_nano.a(lib_a-malloc.o)
                0x000000002000bf30                malloc
 .text.free     0x000000002000bf40       0x10 /usr/lib/gcc/arm-none-eabi/5.2.0/../../../../arm-none-eabi/lib/armv7e-m/libc_nano.a(lib_a-malloc.o)
                0x000000002000bf40                free
 .text.memcmp   0x000000002000bf50       0x1e /usr/lib/gcc/arm-none-eabi/5.2.0/../../../../arm-none-eabi/lib/armv7e-m/libc_nano.a(lib_a-memcmp.o)
                0x000000002000bf50                memcmp
 .text.memcpy   0x000000002000bf6e       0x16 /usr/lib/gcc/arm-none-eabi/5.2.0/../../../../arm-none-eabi/lib/armv7e-m/libc_nano.a(lib_a-memcpy.o)
                0x000000002000bf6e                memcpy
 .text.memset   0x000000002000bf84       0x10 /usr/lib/gcc/arm-none-eabi/5.2.0/../../../../arm-none-eabi/lib/armv7e-m/libc_nano.a(lib_a-memset.o)
                0x000000002000bf84                memset
 .text._free_r  0x000000002000bf94       0x8c /usr/lib/gcc/arm-none-eabi/5.2.0/../../../../arm-none-eabi/lib/armv7e-m/libc_nano.a(lib_a-nano-freer.o)
                0x000000002000bf94                _free_r
 .text._malloc_r
                0x000000002000c020       0xa8 /usr/lib/gcc/arm-none-eabi/5.2.0/../../../../arm-none-eabi/lib/armv7e-m/libc_nano.a(lib_a-nano-mallocr.o)
                0x000000002000c020                _malloc_r
 .text._sbrk_r  0x000000002000c0c8       0x20 /usr/lib/gcc/arm-none-eabi/5.2.0/../../../../arm-none-eabi/lib/armv7e-m/libc_nano.a(lib_a-sbrkr.o)
                0x000000002000c0c8                _sbrk_r
 .text.snprintf
                0x000000002000c0e8       0x64 /usr/lib/gcc/arm-none-eabi/5.2.0/../../../../arm-none-eabi/lib/armv7e-m/libc_nano.a(lib_a-snprintf.o)
                0x000000002000c0e8                snprintf
                0x000000002000c0e8                sniprintf
 .text.sprintf  0x000000002000c14c       0x48 /usr/lib/gcc/arm-none-eabi/5.2.0/../../../../arm-none-eabi/lib/armv7e-m/libc_nano.a(lib_a-sprintf.o)
                0x000000002000c14c                sprintf
                0x000000002000c14c                siprintf
 .text.strlen   0x000000002000c194       0x10 /usr/lib/gcc/arm-none-eabi/5.2.0/../../../../arm-none-eabi/lib/armv7e-m/libc_nano.a(lib_a-strlen.o)
                0x000000002000c194                strlen
 .text.__ssputs_r
                0x000000002000c1a4       0xb2 /usr/lib/gcc/arm-none-eabi/5.2.0/../../../../arm-none-eabi/lib/armv7e-m/libc_nano.a(lib_a-nano-svfprintf.o)
                0x000000002000c1a4                __ssputs_r
 *fill*         0x000000002000c256        0x2 
 .text._svfprintf_r
                0x000000002000c258      0x1e8 /usr/lib/gcc/arm-none-eabi/5.2.0/../../../../arm-none-eabi/lib/armv7e-m/libc_nano.a(lib_a-nano-svfprintf.o)
                0x000000002000c258                _svfprintf_r
                0x000000002000c258                _svfiprintf_r
 .text._printf_common
                0x000000002000c440       0xec /usr/lib/gcc/arm-none-eabi/5.2.0/../../../../arm-none-eabi/lib/armv7e-m/libc_nano.a(lib_a-nano-vfprintf_i.o)
                0x000000002000c440                _printf_common
 .text._printf_i
                0x000000002000c52c      0x24c /usr/lib/gcc/arm-none-eabi/5.2.0/../../../../arm-none-eabi/lib/armv7e-m/libc_nano.a(lib_a-nano-vfprintf_i.o)
                0x000000002000c52c                _printf_i
 .text.memchr   0x000000002000c778       0x1e /usr/lib/gcc/arm-none-eabi/5.2.0/../../../../arm-none-eabi/lib/armv7e-m/libc_nano.a(lib_a-memchr.o)
                0x000000002000c778                memchr
 .text.memmove  0x000000002000c796       0x36 /usr/lib/gcc/arm-none-eabi/5.2.0/../../../../arm-none-eabi/lib/armv7e-m/libc_nano.a(lib_a-memmove.o)
                0x000000002000c796                memmove
 .text._realloc_r
                0x000000002000c7cc       0x4c /usr/lib/gcc/arm-none-eabi/5.2.0/../../../../arm-none-eabi/lib/armv7e-m/libc_nano.a(lib_a-nano-reallocr.o)
                0x000000002000c7cc                _realloc_r
 .text._malloc_usable_size_r
                0x000000002000c818       0x14 /usr/lib/gcc/arm-none-eabi/5.2.0/../../../../arm-none-eabi/lib/armv7e-m/libc_nano.a(lib_a-nano-msizer.o)
                0x000000002000c818                _malloc_usable_size_r
 .text          0x000000002000c82c       0x30 /usr/lib/gcc/arm-none-eabi/5.2.0/armv7e-m/libgcc.a(_aeabi_uldivmod.o)
                0x000000002000c82c                __aeabi_uldivmod
 .text          0x000000002000c85c      0x2e4 /usr/lib/gcc/arm-none-eabi/5.2.0/armv7e-m/libgcc.a(_udivmoddi4.o)
                0x000000002000c85c                __udivmoddi4
 .text          0x000000002000cb40        0x4 /usr/lib/gcc/arm-none-eabi/5.2.0/armv7e-m/libgcc.a(_dvmd_tls.o)
                0x000000002000cb40                __aeabi_ldiv0
                0x000000002000cb40                __aeabi_idiv0
 *(.rodata*)
 .rodata.str1.1
                0x000000002000cb44      0x333 obj/Release/main.o
                                        0x337 (size before relaxing)
 .rodata.__FUNCTION__.7173
                0x000000002000ce77        0xc obj/Release/main.o
 .rodata.str1.1
                0x000000002000ce83      0x112 obj/Release/lp3p0_plat_ops.o
 *fill*         0x000000002000cf95        0x1 
 .rodata._SlStopCmdCtrl
                0x000000002000cf96        0x4 ../../../simplelink/gcc/lib/os_PM/Release/libsimplelink.a(device.o)
 .rodata.StartResponseLUT
                0x000000002000cf9a        0x8 ../../../simplelink/gcc/lib/os_PM/Release/libsimplelink.a(device.o)
 *fill*         0x000000002000cfa2        0x2 
 .rodata.g_H2NSyncPattern
                0x000000002000cfa4        0x8 ../../../simplelink/gcc/lib/os_PM/Release/libsimplelink.a(driver.o)
 .rodata.g_H2NCnysPattern
                0x000000002000cfac        0x8 ../../../simplelink/gcc/lib/os_PM/Release/libsimplelink.a(driver.o)
 .rodata._SlActionLookupTable
                0x000000002000cfb4       0x38 ../../../simplelink/gcc/lib/os_PM/Release/libsimplelink.a(driver.o)
                0x000000002000cfb4                _SlActionLookupTable
 .rodata.OpcodeTranslateTable
                0x000000002000cfec       0x3c ../../../simplelink/gcc/lib/os_PM/Release/libsimplelink.a(driver.o)
                0x000000002000cfec                OpcodeTranslateTable
 .rodata.RxMsgClassLUT
                0x000000002000d028       0x20 ../../../simplelink/gcc/lib/os_PM/Release/libsimplelink.a(driver.o)
 .rodata._SlNetAppSendTokenValueCmdCtrl
                0x000000002000d048        0x4 ../../../simplelink/gcc/lib/os_PM/Release/libsimplelink.a(netapp.o)
                0x000000002000d048                _SlNetAppSendTokenValueCmdCtrl
 .rodata._SlSockSocketCmdCtrl
                0x000000002000d04c        0x4 ../../../simplelink/gcc/lib/os_PM/Release/libsimplelink.a(socket.o)
 .rodata._SlRecvfomCmdCtrl
                0x000000002000d050        0x4 ../../../simplelink/gcc/lib/os_PM/Release/libsimplelink.a(socket.o)
 .rodata._SlWlanSetModeCmdCtrl
                0x000000002000d054        0x4 ../../../simplelink/gcc/lib/os_PM/Release/libsimplelink.a(wlan.o)
 .rodata._SlPolicySetCmdCtrl
                0x000000002000d058        0x4 ../../../simplelink/gcc/lib/os_PM/Release/libsimplelink.a(wlan.o)
 .rodata.chan_mux
                0x000000002000d05c       0x80 ../../../middleware/gcc/lib/Release/middleware.a(dma_hal.o)
 .rodata.CSWTCH.16
                0x000000002000d0dc        0x5 ../../../middleware/gcc/lib/Release/middleware.a(dma_hal.o)
 *fill*         0x000000002000d0e1        0x3 
 .rodata.CSWTCH.18
                0x000000002000d0e4       0x28 ../../../middleware/gcc/lib/Release/middleware.a(dma_hal.o)
 .rodata.str1.1
                0x000000002000d10c        0x8 ../../../oslib/gcc/free_rtos/Release/free_rtos.a(osi_freertos.o)
 .rodata.str1.1
                0x000000002000d114       0x2a ../../../oslib/gcc/free_rtos/Release/free_rtos.a(queue.o)
 .rodata.ucExpectedStackBytes.5776
                0x000000002000d13e       0x14 ../../../oslib/gcc/free_rtos/Release/free_rtos.a(tasks.o)
 .rodata.str1.1
                0x000000002000d152       0x3e ../../../oslib/gcc/free_rtos/Release/free_rtos.a(tasks.o)
 .rodata.str1.1
                0x000000002000d190       0x3e ../../../oslib/gcc/free_rtos/Release/free_rtos.a(port.o)
 .rodata.str1.1
                0x000000002000d1ce       0x38 ../../../oslib/gcc/free_rtos/Release/free_rtos.a(timers.o)
 *fill*         0x000000002000d206        0x2 
 .rodata.g_pulEnRegs
                0x000000002000d208       0x18 ../../../driverlib/gcc/lib/Release/libdriver.a(interrupt.o)
 .rodata.g_pulDisRegs
                0x000000002000d220       0x18 ../../../driverlib/gcc/lib/Release/libdriver.a(interrupt.o)
 .rodata.g_pulPendRegs
                0x000000002000d238       0x18 ../../../driverlib/gcc/lib/Release/libdriver.a(interrupt.o)
 .rodata.g_ulPinToPadMap
                0x000000002000d250      0x100 ../../../driverlib/gcc/lib/Release/libdriver.a(pin.o)
 .rodata.PRCM_PeriphRegsList
                0x000000002000d350       0xa8 ../../../driverlib/gcc/lib/Release/libdriver.a(prcm.o)
 .rodata.str1.1
                0x000000002000d3f8        0x2 /usr/lib/gcc/arm-none-eabi/5.2.0/../../../../arm-none-eabi/lib/armv7e-m/libc_nano.a(lib_a-impure.o)
 .rodata.str1.1
                0x000000002000d3fa       0x11 /usr/lib/gcc/arm-none-eabi/5.2.0/../../../../arm-none-eabi/lib/armv7e-m/libc_nano.a(lib_a-nano-svfprintf.o)
 .rodata.str1.1
                0x000000002000d40b       0x22 /usr/lib/gcc/arm-none-eabi/5.2.0/../../../../arm-none-eabi/lib/armv7e-m/libc_nano.a(lib_a-nano-vfprintf_i.o)
 *(.ARM.extab* .gnu.linkonce.armextab.*)
                0x000000002000d430                . = ALIGN (0x8)
 *fill*         0x000000002000d42d        0x3 
                0x000000002000d430                _etext = .

.glue_7         0x000000002000d430        0x0
 .glue_7        0x0000000000000000        0x0 linker stubs

.glue_7t        0x000000002000d430        0x0
 .glue_7t       0x0000000000000000        0x0 linker stubs

.vfp11_veneer   0x000000002000d430        0x0
 .vfp11_veneer  0x0000000000000000        0x0 linker stubs

.v4_bx          0x000000002000d430        0x0
 .v4_bx         0x0000000000000000        0x0 linker stubs

.iplt           0x000000002000d430        0x0
 .iplt          0x0000000000000000        0x0 obj/Release/main.o

.ARM            0x000000002000d430        0x8
                0x000000002000d430                __exidx_start = .
 *(.ARM.exidx*)
 .ARM.exidx     0x000000002000d430        0x8 /usr/lib/gcc/arm-none-eabi/5.2.0/armv7e-m/libgcc.a(_udivmoddi4.o)
                0x000000002000d438                __exidx_end = .
                0x000000002000d438                __init_data = .

.rel.dyn        0x000000002000d438        0x0
 .rel.iplt      0x0000000000000000        0x0 obj/Release/main.o

.data           0x000000002000d438      0x330
                0x000000002000d438                _data = .
 *(.data*)
 .data.uart_settings
                0x000000002000d438       0x38 obj/Release/lp3p0_board.o
                0x000000002000d438                uart_settings
 .data.modules  0x000000002000d470       0x60 obj/Release/lp3p0_board.o
                0x000000002000d470                modules
 .data.link_spi_settings
                0x000000002000d4d0       0x34 obj/Release/lp3p0_board.o
                0x000000002000d4d0                link_spi_settings
 .data.gpio_list
                0x000000002000d504        0xc obj/Release/lp3p0_board.o
                0x000000002000d504                gpio_list
 .data.cc32xx_io_park
                0x000000002000d510      0x150 obj/Release/lp3p0_plat_ops.o
                0x000000002000d510                cc32xx_io_park
 .data.hwt_ops  0x000000002000d660       0x34 ../../../middleware/gcc/lib/Release/middleware.a(hw_timer32.o)
 .data.hwt_ops  0x000000002000d694       0x34 ../../../middleware/gcc/lib/Release/middleware.a(rtc_hal.o)
 .data.nvic_int_mask
                0x000000002000d6c8       0x18 ../../../middleware/gcc/lib/Release/middleware.a(cc_pm_ops.o)
                0x000000002000d6c8                nvic_int_mask
 .data.cc_pm_ctrl
                0x000000002000d6e0        0x8 ../../../middleware/gcc/lib/Release/middleware.a(cc_pm_ops.o)
                0x000000002000d6e0                cc_pm_ctrl
 .data.gpio_lpds_inttype
                0x000000002000d6e8        0x7 ../../../middleware/gcc/lib/Release/middleware.a(cc_pm_ops.o)
                0x000000002000d6e8                gpio_lpds_inttype
 .data.gpio_wake_src
                0x000000002000d6ef        0x6 ../../../middleware/gcc/lib/Release/middleware.a(cc_pm_ops.o)
                0x000000002000d6ef                gpio_wake_src
 .data.gpio_hib_inttype
                0x000000002000d6f5        0x7 ../../../middleware/gcc/lib/Release/middleware.a(cc_pm_ops.o)
                0x000000002000d6f5                gpio_hib_inttype
 .data.xNextTaskUnblockTime
                0x000000002000d6fc        0x4 ../../../oslib/gcc/free_rtos/Release/free_rtos.a(tasks.o)
 .data.uxCriticalNesting
                0x000000002000d700        0x4 ../../../oslib/gcc/free_rtos/Release/free_rtos.a(port.o)
 .data.impure_data
                0x000000002000d704       0x60 /usr/lib/gcc/arm-none-eabi/5.2.0/../../../../arm-none-eabi/lib/armv7e-m/libc_nano.a(lib_a-impure.o)
 .data._impure_ptr
                0x000000002000d764        0x4 /usr/lib/gcc/arm-none-eabi/5.2.0/../../../../arm-none-eabi/lib/armv7e-m/libc_nano.a(lib_a-impure.o)
                0x000000002000d764                _impure_ptr
                0x000000002000d768                . = ALIGN (0x8)
                0x000000002000d768                _edata = .

.igot.plt       0x000000002000d768        0x0
 .igot.plt      0x0000000000000000        0x0 obj/Release/main.o

.bss            0x000000002000d800     0x30a0
                0x000000002000d800                _bss = .
 *(.bss*)
 .bss.g_ulIpAddr
                0x000000002000d800        0x4 obj/Release/main.o
                0x000000002000d800                g_ulIpAddr
 .bss.g_ucFeedWatchdog
                0x000000002000d804        0x1 obj/Release/main.o
                0x000000002000d804                g_ucFeedWatchdog
 *fill*         0x000000002000d805        0x3 
 .bss.g_tConnection
                0x000000002000d808        0x4 obj/Release/main.o
                0x000000002000d808                g_tConnection
 .bss.g_ucWdogCount
                0x000000002000d80c        0x1 obj/Release/main.o
                0x000000002000d80c                g_ucWdogCount
 *fill*         0x000000002000d80d        0x3 
 .bss.sw_simulate_rtc
                0x000000002000d810        0x4 obj/Release/lp3p0_board.o
                0x000000002000d810                sw_simulate_rtc
 .bss.sw_simulate_timer
                0x000000002000d814        0x4 obj/Release/lp3p0_board.o
                0x000000002000d814                sw_simulate_timer
 .bss.pui32Stack
                0x000000002000d818     0x1000 obj/Release/startup_gcc.o
 .bss.heap_end  0x000000002000e818        0x4 obj/Release/startup_gcc.o
 .bss.heap2_end
                0x000000002000e81c        0x4 obj/Release/startup_gcc.o
 .bss.g_StatMem
                0x000000002000e820      0x178 ../../../simplelink/gcc/lib/os_PM/Release/libsimplelink.a(driver.o)
 .bss.g_SlDeviceStatus
                0x000000002000e998        0x2 ../../../simplelink/gcc/lib/os_PM/Release/libsimplelink.a(driver.o)
                0x000000002000e998                g_SlDeviceStatus
 .bss.gFirstCmdMode
                0x000000002000e99a        0x1 ../../../simplelink/gcc/lib/os_PM/Release/libsimplelink.a(driver.o)
 *fill*         0x000000002000e99b        0x1 
 .bss.pPingCallBackFunc
                0x000000002000e99c        0x4 ../../../simplelink/gcc/lib/os_PM/Release/libsimplelink.a(driver.o)
                0x000000002000e99c                pPingCallBackFunc
 .bss.g_pCB     0x000000002000e9a0        0x4 ../../../simplelink/gcc/lib/os_PM/Release/libsimplelink.a(driver.o)
                0x000000002000e9a0                g_pCB
 .bss.chan_desc
                0x000000002000e9a4      0x200 ../../../middleware/gcc/lib/Release/middleware.a(dma_hal.o)
 .bss.init_flag
                0x000000002000eba4        0x1 ../../../middleware/gcc/lib/Release/middleware.a(hw_timer32.o)
 *fill*         0x000000002000eba5        0x3 
 .bss.hwt_list  0x000000002000eba8        0x4 ../../../middleware/gcc/lib/Release/middleware.a(hw_timer32.o)
 .bss.timers32  0x000000002000ebac       0x2c ../../../middleware/gcc/lib/Release/middleware.a(hw_timer32.o)
 .bss.enbl_irqc
                0x000000002000ebd8        0x4 ../../../middleware/gcc/lib/Release/middleware.a(hw_timer32.o)
 .bss.dsbl_irqc
                0x000000002000ebdc        0x4 ../../../middleware/gcc/lib/Release/middleware.a(hw_timer32.o)
 .bss.sys_flags
                0x000000002000ebe0        0x4 ../../../middleware/gcc/lib/Release/middleware.a(hw_timer32.o)
 .bss.rtc64     0x000000002000ebe4       0x2c ../../../middleware/gcc/lib/Release/middleware.a(rtc_hal.o)
 .bss.rtc       0x000000002000ec10        0x4 ../../../middleware/gcc/lib/Release/middleware.a(rtc_hal.o)
 .bss.enbl_irqc
                0x000000002000ec14        0x4 ../../../middleware/gcc/lib/Release/middleware.a(rtc_hal.o)
 .bss.dsbl_irqc
                0x000000002000ec18        0x4 ../../../middleware/gcc/lib/Release/middleware.a(rtc_hal.o)
 .bss.spi_reset
                0x000000002000ec1c        0x4 ../../../middleware/gcc/lib/Release/middleware.a(spi_drv.o)
                0x000000002000ec1c                spi_reset
 .bss.is_spidrv_reset
                0x000000002000ec20        0x1 ../../../middleware/gcc/lib/Release/middleware.a(spi_drv.o)
                0x000000002000ec20                is_spidrv_reset
 .bss.is_uartdrv_reset
                0x000000002000ec21        0x1 ../../../middleware/gcc/lib/Release/middleware.a(uart_drv.o)
                0x000000002000ec21                is_uartdrv_reset
 *fill*         0x000000002000ec22        0x2 
 .bss.pform     0x000000002000ec24        0x4 ../../../middleware/gcc/lib/Release/middleware.a(cc_pm.o)
 .bss.pform_info
                0x000000002000ec28       0x48 ../../../middleware/gcc/lib/Release/middleware.a(cc_pm.o)
 .bss.free_list
                0x000000002000ec70        0x4 ../../../middleware/gcc/lib/Release/middleware.a(cc_timer.o)
 .bss.sw_timers
                0x000000002000ec74       0xd8 ../../../middleware/gcc/lib/Release/middleware.a(cc_timer.o)
 .bss.hwt_objs  0x000000002000ed4c       0x28 ../../../middleware/gcc/lib/Release/middleware.a(cc_timer.o)
 .bss.enbl_irqc
                0x000000002000ed74        0x4 ../../../middleware/gcc/lib/Release/middleware.a(cc_timer.o)
 .bss.dsbl_irqc
                0x000000002000ed78        0x4 ../../../middleware/gcc/lib/Release/middleware.a(cc_timer.o)
 .bss.is_spictrl_reset
                0x000000002000ed7c        0x1 ../../../middleware/gcc/lib/Release/middleware.a(spi_hal.o)
                0x000000002000ed7c                is_spictrl_reset
 .bss.is_uartstate_reset
                0x000000002000ed7d        0x1 ../../../middleware/gcc/lib/Release/middleware.a(uart_hal.o)
                0x000000002000ed7d                is_uartstate_reset
 *fill*         0x000000002000ed7e        0x2 
 .bss.xSimpleLinkSpawnQueue
                0x000000002000ed80        0x4 ../../../oslib/gcc/free_rtos/Release/free_rtos.a(osi_freertos.o)
                0x000000002000ed80                xSimpleLinkSpawnQueue
 .bss.xSimpleLinkSpawnTaskHndl
                0x000000002000ed84        0x4 ../../../oslib/gcc/free_rtos/Release/free_rtos.a(osi_freertos.o)
                0x000000002000ed84                xSimpleLinkSpawnTaskHndl
 .bss.xHigherPriorityTaskWoken
                0x000000002000ed88        0x4 ../../../oslib/gcc/free_rtos/Release/free_rtos.a(osi_freertos.o)
                0x000000002000ed88                xHigherPriorityTaskWoken
 .bss.xPendingReadyList
                0x000000002000ed8c       0x14 ../../../oslib/gcc/free_rtos/Release/free_rtos.a(tasks.o)
 .bss.uxTopReadyPriority
                0x000000002000eda0        0x4 ../../../oslib/gcc/free_rtos/Release/free_rtos.a(tasks.o)
 .bss.uxTasksDeleted
                0x000000002000eda4        0x4 ../../../oslib/gcc/free_rtos/Release/free_rtos.a(tasks.o)
 .bss.xTickCount
                0x000000002000eda8        0x4 ../../../oslib/gcc/free_rtos/Release/free_rtos.a(tasks.o)
 .bss.pxReadyTasksLists
                0x000000002000edac       0xc8 ../../../oslib/gcc/free_rtos/Release/free_rtos.a(tasks.o)
 .bss.pxOverflowDelayedTaskList
                0x000000002000ee74        0x4 ../../../oslib/gcc/free_rtos/Release/free_rtos.a(tasks.o)
 .bss.xTasksWaitingTermination
                0x000000002000ee78       0x14 ../../../oslib/gcc/free_rtos/Release/free_rtos.a(tasks.o)
 .bss.pxDelayedTaskList
                0x000000002000ee8c        0x4 ../../../oslib/gcc/free_rtos/Release/free_rtos.a(tasks.o)
 .bss.xSchedulerRunning
                0x000000002000ee90        0x4 ../../../oslib/gcc/free_rtos/Release/free_rtos.a(tasks.o)
 .bss.pxCurrentTCB
                0x000000002000ee94        0x4 ../../../oslib/gcc/free_rtos/Release/free_rtos.a(tasks.o)
                0x000000002000ee94                pxCurrentTCB
 .bss.uxPendedTicks
                0x000000002000ee98        0x4 ../../../oslib/gcc/free_rtos/Release/free_rtos.a(tasks.o)
 .bss.xSuspendedTaskList
                0x000000002000ee9c       0x14 ../../../oslib/gcc/free_rtos/Release/free_rtos.a(tasks.o)
 .bss.uxCurrentNumberOfTasks
                0x000000002000eeb0        0x4 ../../../oslib/gcc/free_rtos/Release/free_rtos.a(tasks.o)
 .bss.xDelayedTaskList1
                0x000000002000eeb4       0x14 ../../../oslib/gcc/free_rtos/Release/free_rtos.a(tasks.o)
 .bss.xDelayedTaskList2
                0x000000002000eec8       0x14 ../../../oslib/gcc/free_rtos/Release/free_rtos.a(tasks.o)
 .bss.uxTaskNumber
                0x000000002000eedc        0x4 ../../../oslib/gcc/free_rtos/Release/free_rtos.a(tasks.o)
 .bss.xIdleTaskHandle
                0x000000002000eee0        0x4 ../../../oslib/gcc/free_rtos/Release/free_rtos.a(tasks.o)
 .bss.xYieldPending
                0x000000002000eee4        0x4 ../../../oslib/gcc/free_rtos/Release/free_rtos.a(tasks.o)
 .bss.uxSchedulerSuspended
                0x000000002000eee8        0x4 ../../../oslib/gcc/free_rtos/Release/free_rtos.a(tasks.o)
 .bss.xNumOfOverflows
                0x000000002000eeec        0x4 ../../../oslib/gcc/free_rtos/Release/free_rtos.a(tasks.o)
 .bss.ucMaxSysCallPriority
                0x000000002000eef0        0x1 ../../../oslib/gcc/free_rtos/Release/free_rtos.a(port.o)
 *fill*         0x000000002000eef1        0x3 
 .bss.ulMaxPRIGROUPValue
                0x000000002000eef4        0x4 ../../../oslib/gcc/free_rtos/Release/free_rtos.a(port.o)
 .bss.pxCurrentTimerList
                0x000000002000eef8        0x4 ../../../oslib/gcc/free_rtos/Release/free_rtos.a(timers.o)
 .bss.xActiveTimerList1
                0x000000002000eefc       0x14 ../../../oslib/gcc/free_rtos/Release/free_rtos.a(timers.o)
 .bss.xActiveTimerList2
                0x000000002000ef10       0x14 ../../../oslib/gcc/free_rtos/Release/free_rtos.a(timers.o)
 .bss.xLastTime.4980
                0x000000002000ef24        0x4 ../../../oslib/gcc/free_rtos/Release/free_rtos.a(timers.o)
 .bss.xTimerQueue
                0x000000002000ef28        0x4 ../../../oslib/gcc/free_rtos/Release/free_rtos.a(timers.o)
 .bss.pxOverflowTimerList
                0x000000002000ef2c        0x4 ../../../oslib/gcc/free_rtos/Release/free_rtos.a(timers.o)
 .bss.xTimerTaskHandle
                0x000000002000ef30        0x4 ../../../oslib/gcc/free_rtos/Release/free_rtos.a(timers.o)
 .bss.__malloc_sbrk_start
                0x000000002000ef34        0x4 /usr/lib/gcc/arm-none-eabi/5.2.0/../../../../arm-none-eabi/lib/armv7e-m/libc_nano.a(lib_a-nano-mallocr.o)
                0x000000002000ef34                __malloc_sbrk_start
 .bss.__malloc_free_list
                0x000000002000ef38        0x4 /usr/lib/gcc/arm-none-eabi/5.2.0/../../../../arm-none-eabi/lib/armv7e-m/libc_nano.a(lib_a-nano-mallocr.o)
                0x000000002000ef38                __malloc_free_list
 *(COMMON)
 COMMON         0x000000002000ef3c      0x630 obj/Release/main.o
                0x000000002000ef3c                g_tConnectionFlag
                0x000000002000ef40                g_cBuffer
                0x000000002000f500                g_tWkupSignalQueue
                0x000000002000f504                g_tUartHndl
                0x000000002000f508                g_cErrBuff
 *fill*         0x000000002000f56c      0x294 
 COMMON         0x000000002000f800      0x404 obj/Release/lp3p0_board.o
                0x000000002000f800                dma_ctrl_table
                0x000000002000fc00                timer_hndl
 COMMON         0x000000002000fc04        0x4 obj/Release/lp3p0_plat_ops.o
                0x000000002000fc04                user_sel_power_mode
 COMMON         0x000000002000fc08        0x2 ../../../simplelink/gcc/lib/os_PM/Release/libsimplelink.a(driver.o)
                0x000000002000fc08                g_bDeviceRestartIsRequired
                0x000000002000fc09                RxIrqCnt
 *fill*         0x000000002000fc0a        0x2 
 COMMON         0x000000002000fc0c        0x4 ../../../middleware/gcc/lib/Release/middleware.a(dma_hal.o)
                0x000000002000fc0c                i
 COMMON         0x000000002000fc10       0x6c ../../../middleware/gcc/lib/Release/middleware.a(gpio_hal.o)
                0x000000002000fc10                gpio_control
 COMMON         0x000000002000fc7c      0x800 ../../../middleware/gcc/lib/Release/middleware.a(interrupt_hal.o)
                0x000000002000fc7c                isr_handler_list
 COMMON         0x000000002001047c       0x9c ../../../middleware/gcc/lib/Release/middleware.a(spi_drv.o)
                0x000000002001047c                spi_rtos_drv
 COMMON         0x0000000020010518       0x68 ../../../middleware/gcc/lib/Release/middleware.a(uart_drv.o)
                0x0000000020010518                uart_rtos_drv
 COMMON         0x0000000020010580       0x1c ../../../middleware/gcc/lib/Release/middleware.a(cc_pm.o)
                0x0000000020010580                vault_arm_registers
 COMMON         0x000000002001059c      0x110 ../../../middleware/gcc/lib/Release/middleware.a(cc_pm_ops.o)
                0x000000002001059c                nvic_reg_store
 COMMON         0x00000000200106ac       0xf0 ../../../middleware/gcc/lib/Release/middleware.a(spi_hal.o)
                0x00000000200106ac                spi_ctrl
 COMMON         0x000000002001079c       0xb0 ../../../middleware/gcc/lib/Release/middleware.a(uart_hal.o)
                0x000000002001079c                uart_state
 COMMON         0x000000002001084c       0x50 ../../../oslib/gcc/free_rtos/Release/free_rtos.a(queue.o)
                0x000000002001084c                xQueueRegistry
 COMMON         0x000000002001089c        0x4 /usr/lib/gcc/arm-none-eabi/5.2.0/../../../../arm-none-eabi/lib/armv7e-m/libc_nano.a(lib_a-reent.o)
                0x000000002001089c                errno
                0x00000000200108a0                _ebss = .

.heap           0x00000000200108a0    0x2f760
                0x00000000200108a0                _heap = .
                0x000000002003fc98                . = (((((((. + 0x40000) - SIZEOF (.bss)) - SIZEOF (.data)) - SIZEOF (.ARM)) - SIZEOF (.text)) - SIZEOF (.bootloader)) - 0x400)
 *fill*         0x00000000200108a0    0x2f3f8 
                0x0000000020040000                . = ALIGN (0x400)
 *fill*         0x000000002003fc98      0x368 
                0x0000000020040000                _eheap = .
LOAD obj/Release/main.o
LOAD obj/Release/pinmux.o
LOAD obj/Release/lp3p0_board.o
LOAD obj/Release/lp3p0_plat_ops.o
LOAD obj/Release/wdt_if.o
LOAD obj/Release/utils_if.o
LOAD obj/Release/startup_gcc.o
LOAD ../../../simplelink/gcc/lib/os_PM/Release/libsimplelink.a
LOAD ../../../middleware/gcc/lib/Release/middleware.a
LOAD ../../../oslib/gcc/free_rtos/Release/free_rtos.a
LOAD ../../../driverlib/gcc/lib/Release/libdriver.a
LOAD /usr/lib/gcc/arm-none-eabi/5.2.0/../../../../arm-none-eabi/lib/armv7e-m/libc_nano.a
LOAD /usr/lib/gcc/arm-none-eabi/5.2.0/../../../../arm-none-eabi/lib/armv7e-m/libm.a
LOAD /usr/lib/gcc/arm-none-eabi/5.2.0/armv7e-m/libgcc.a
LOAD /usr/lib/gcc/arm-none-eabi/5.2.0/../../../../arm-none-eabi/lib/armv7e-m/libnosys.a
OUTPUT(bin/Release/idle_profile.elf elf32-littlearm)

.debug_info     0x0000000000000000    0x2a304
 .debug_info    0x0000000000000000     0x1b61 obj/Release/main.o
 .debug_info    0x0000000000001b61      0x161 obj/Release/pinmux.o
 .debug_info    0x0000000000001cc2     0x1364 obj/Release/lp3p0_board.o
 .debug_info    0x0000000000003026      0x55b obj/Release/lp3p0_plat_ops.o
 .debug_info    0x0000000000003581      0x19f obj/Release/wdt_if.o
 .debug_info    0x0000000000003720      0x2d8 obj/Release/utils_if.o
 .debug_info    0x00000000000039f8      0x221 obj/Release/startup_gcc.o
 .debug_info    0x0000000000003c19     0x13a1 ../../../simplelink/gcc/lib/os_PM/Release/libsimplelink.a(device.o)
 .debug_info    0x0000000000004fba     0x275c ../../../simplelink/gcc/lib/os_PM/Release/libsimplelink.a(driver.o)
 .debug_info    0x0000000000007716     0x1ec1 ../../../simplelink/gcc/lib/os_PM/Release/libsimplelink.a(netapp.o)
 .debug_info    0x00000000000095d7     0x1f33 ../../../simplelink/gcc/lib/os_PM/Release/libsimplelink.a(socket.o)
 .debug_info    0x000000000000b50a     0x1fdc ../../../simplelink/gcc/lib/os_PM/Release/libsimplelink.a(wlan.o)
 .debug_info    0x000000000000d4e6      0x647 ../../../simplelink/gcc/lib/os_PM/Release/libsimplelink.a(cc_pal_pm.o)
 .debug_info    0x000000000000db2d      0xcff ../../../middleware/gcc/lib/Release/middleware.a(dma_hal.o)
 .debug_info    0x000000000000e82c      0xccc ../../../middleware/gcc/lib/Release/middleware.a(gpio_hal.o)
 .debug_info    0x000000000000f4f8     0x1209 ../../../middleware/gcc/lib/Release/middleware.a(hw_timer32.o)
 .debug_info    0x0000000000010701      0x1d9 ../../../middleware/gcc/lib/Release/middleware.a(interrupt_hal.o)
 .debug_info    0x00000000000108da     0x120e ../../../middleware/gcc/lib/Release/middleware.a(rtc_hal.o)
 .debug_info    0x0000000000011ae8      0x353 ../../../middleware/gcc/lib/Release/middleware.a(util64.o)
 .debug_info    0x0000000000011e3b     0x15be ../../../middleware/gcc/lib/Release/middleware.a(spi_drv.o)
 .debug_info    0x00000000000133f9     0x13ab ../../../middleware/gcc/lib/Release/middleware.a(uart_drv.o)
 .debug_info    0x00000000000147a4      0x9e7 ../../../middleware/gcc/lib/Release/middleware.a(cc_pm.o)
 .debug_info    0x000000000001518b     0x1752 ../../../middleware/gcc/lib/Release/middleware.a(cc_timer.o)
 .debug_info    0x00000000000168dd      0x29c ../../../middleware/gcc/lib/Release/middleware.a(cc_io_park.o)
 .debug_info    0x0000000000016b79      0x99f ../../../middleware/gcc/lib/Release/middleware.a(cc_pm_ops.o)
 .debug_info    0x0000000000017518      0xbbb ../../../middleware/gcc/lib/Release/middleware.a(spi_hal.o)
 .debug_info    0x00000000000180d3      0xc80 ../../../middleware/gcc/lib/Release/middleware.a(uart_hal.o)
 .debug_info    0x0000000000018d53      0xccb ../../../oslib/gcc/free_rtos/Release/free_rtos.a(osi_freertos.o)
 .debug_info    0x0000000000019a1e     0x1a31 ../../../oslib/gcc/free_rtos/Release/free_rtos.a(queue.o)
 .debug_info    0x000000000001b44f     0x29c5 ../../../oslib/gcc/free_rtos/Release/free_rtos.a(tasks.o)
 .debug_info    0x000000000001de14      0x44d ../../../oslib/gcc/free_rtos/Release/free_rtos.a(port.o)
 .debug_info    0x000000000001e261     0x114e ../../../oslib/gcc/free_rtos/Release/free_rtos.a(timers.o)
 .debug_info    0x000000000001f3af      0x186 ../../../oslib/gcc/free_rtos/Release/free_rtos.a(heap_3.o)
 .debug_info    0x000000000001f535      0x29a ../../../oslib/gcc/free_rtos/Release/free_rtos.a(list.o)
 .debug_info    0x000000000001f7cf      0x3ea ../../../driverlib/gcc/lib/Release/libdriver.a(interrupt.o)
 .debug_info    0x000000000001fbb9      0x421 ../../../driverlib/gcc/lib/Release/libdriver.a(pin.o)
 .debug_info    0x000000000001ffda     0x1648 ../../../driverlib/gcc/lib/Release/libdriver.a(prcm.o)
 .debug_info    0x0000000000021622      0xb9e ../../../driverlib/gcc/lib/Release/libdriver.a(spi.o)
 .debug_info    0x00000000000221c0      0x67d ../../../driverlib/gcc/lib/Release/libdriver.a(timer.o)
 .debug_info    0x000000000002283d       0x50 ../../../driverlib/gcc/lib/Release/libdriver.a(utils.o)
 .debug_info    0x000000000002288d      0x3d8 ../../../driverlib/gcc/lib/Release/libdriver.a(flash.o)
 .debug_info    0x0000000000022c65      0x7b2 /usr/lib/gcc/arm-none-eabi/5.2.0/../../../../arm-none-eabi/lib/armv7e-m/libc_nano.a(lib_a-malloc.o)
 .debug_info    0x0000000000023417       0xf8 /usr/lib/gcc/arm-none-eabi/5.2.0/../../../../arm-none-eabi/lib/armv7e-m/libc_nano.a(lib_a-memcmp.o)
 .debug_info    0x000000000002350f      0x115 /usr/lib/gcc/arm-none-eabi/5.2.0/../../../../arm-none-eabi/lib/armv7e-m/libc_nano.a(lib_a-memcpy.o)
 .debug_info    0x0000000000023624       0xda /usr/lib/gcc/arm-none-eabi/5.2.0/../../../../arm-none-eabi/lib/armv7e-m/libc_nano.a(lib_a-memset.o)
 .debug_info    0x00000000000236fe      0x821 /usr/lib/gcc/arm-none-eabi/5.2.0/../../../../arm-none-eabi/lib/armv7e-m/libc_nano.a(lib_a-nano-freer.o)
 .debug_info    0x0000000000023f1f      0x8ec /usr/lib/gcc/arm-none-eabi/5.2.0/../../../../arm-none-eabi/lib/armv7e-m/libc_nano.a(lib_a-nano-mallocr.o)
 .debug_info    0x000000000002480b      0x7a1 /usr/lib/gcc/arm-none-eabi/5.2.0/../../../../arm-none-eabi/lib/armv7e-m/libc_nano.a(lib_a-sbrkr.o)
 .debug_info    0x0000000000024fac      0x8bd /usr/lib/gcc/arm-none-eabi/5.2.0/../../../../arm-none-eabi/lib/armv7e-m/libc_nano.a(lib_a-snprintf.o)
 .debug_info    0x0000000000025869      0x88c /usr/lib/gcc/arm-none-eabi/5.2.0/../../../../arm-none-eabi/lib/armv7e-m/libc_nano.a(lib_a-sprintf.o)
 .debug_info    0x00000000000260f5       0xd4 /usr/lib/gcc/arm-none-eabi/5.2.0/../../../../arm-none-eabi/lib/armv7e-m/libc_nano.a(lib_a-strlen.o)
 .debug_info    0x00000000000261c9      0x7da /usr/lib/gcc/arm-none-eabi/5.2.0/../../../../arm-none-eabi/lib/armv7e-m/libc_nano.a(lib_a-impure.o)
 .debug_info    0x00000000000269a3      0xd40 /usr/lib/gcc/arm-none-eabi/5.2.0/../../../../arm-none-eabi/lib/armv7e-m/libc_nano.a(lib_a-nano-svfprintf.o)
 .debug_info    0x00000000000276e3      0xb33 /usr/lib/gcc/arm-none-eabi/5.2.0/../../../../arm-none-eabi/lib/armv7e-m/libc_nano.a(lib_a-nano-vfprintf_i.o)
 .debug_info    0x0000000000028216      0x8fb /usr/lib/gcc/arm-none-eabi/5.2.0/../../../../arm-none-eabi/lib/armv7e-m/libc_nano.a(lib_a-reent.o)
 .debug_info    0x0000000000028b11       0xff /usr/lib/gcc/arm-none-eabi/5.2.0/../../../../arm-none-eabi/lib/armv7e-m/libc_nano.a(lib_a-memchr.o)
 .debug_info    0x0000000000028c10      0x109 /usr/lib/gcc/arm-none-eabi/5.2.0/../../../../arm-none-eabi/lib/armv7e-m/libc_nano.a(lib_a-memmove.o)
 .debug_info    0x0000000000028d19      0x878 /usr/lib/gcc/arm-none-eabi/5.2.0/../../../../arm-none-eabi/lib/armv7e-m/libc_nano.a(lib_a-nano-reallocr.o)
 .debug_info    0x0000000000029591      0x7c0 /usr/lib/gcc/arm-none-eabi/5.2.0/../../../../arm-none-eabi/lib/armv7e-m/libc_nano.a(lib_a-nano-msizer.o)
 .debug_info    0x0000000000029d51       0xb7 /usr/lib/gcc/arm-none-eabi/5.2.0/armv7e-m/libgcc.a(_aeabi_uldivmod.o)
 .debug_info    0x0000000000029e08      0x441 /usr/lib/gcc/arm-none-eabi/5.2.0/armv7e-m/libgcc.a(_udivmoddi4.o)
 .debug_info    0x000000000002a249       0xbb /usr/lib/gcc/arm-none-eabi/5.2.0/armv7e-m/libgcc.a(_dvmd_tls.o)

.debug_abbrev   0x0000000000000000     0x7b46
 .debug_abbrev  0x0000000000000000      0x405 obj/Release/main.o
 .debug_abbrev  0x0000000000000405       0x7a obj/Release/pinmux.o
 .debug_abbrev  0x000000000000047f      0x360 obj/Release/lp3p0_board.o
 .debug_abbrev  0x00000000000007df      0x24d obj/Release/lp3p0_plat_ops.o
 .debug_abbrev  0x0000000000000a2c       0xce obj/Release/wdt_if.o
 .debug_abbrev  0x0000000000000afa       0xd3 obj/Release/utils_if.o
 .debug_abbrev  0x0000000000000bcd      0x149 obj/Release/startup_gcc.o
 .debug_abbrev  0x0000000000000d16      0x327 ../../../simplelink/gcc/lib/os_PM/Release/libsimplelink.a(device.o)
 .debug_abbrev  0x000000000000103d      0x3c2 ../../../simplelink/gcc/lib/os_PM/Release/libsimplelink.a(driver.o)
 .debug_abbrev  0x00000000000013ff      0x353 ../../../simplelink/gcc/lib/os_PM/Release/libsimplelink.a(netapp.o)
 .debug_abbrev  0x0000000000001752      0x3ae ../../../simplelink/gcc/lib/os_PM/Release/libsimplelink.a(socket.o)
 .debug_abbrev  0x0000000000001b00      0x2b2 ../../../simplelink/gcc/lib/os_PM/Release/libsimplelink.a(wlan.o)
 .debug_abbrev  0x0000000000001db2      0x1d6 ../../../simplelink/gcc/lib/os_PM/Release/libsimplelink.a(cc_pal_pm.o)
 .debug_abbrev  0x0000000000001f88      0x341 ../../../middleware/gcc/lib/Release/middleware.a(dma_hal.o)
 .debug_abbrev  0x00000000000022c9      0x29c ../../../middleware/gcc/lib/Release/middleware.a(gpio_hal.o)
 .debug_abbrev  0x0000000000002565      0x41f ../../../middleware/gcc/lib/Release/middleware.a(hw_timer32.o)
 .debug_abbrev  0x0000000000002984      0x155 ../../../middleware/gcc/lib/Release/middleware.a(interrupt_hal.o)
 .debug_abbrev  0x0000000000002ad9      0x399 ../../../middleware/gcc/lib/Release/middleware.a(rtc_hal.o)
 .debug_abbrev  0x0000000000002e72      0x14f ../../../middleware/gcc/lib/Release/middleware.a(util64.o)
 .debug_abbrev  0x0000000000002fc1      0x37d ../../../middleware/gcc/lib/Release/middleware.a(spi_drv.o)
 .debug_abbrev  0x000000000000333e      0x314 ../../../middleware/gcc/lib/Release/middleware.a(uart_drv.o)
 .debug_abbrev  0x0000000000003652      0x35d ../../../middleware/gcc/lib/Release/middleware.a(cc_pm.o)
 .debug_abbrev  0x00000000000039af      0x3f5 ../../../middleware/gcc/lib/Release/middleware.a(cc_timer.o)
 .debug_abbrev  0x0000000000003da4      0x14c ../../../middleware/gcc/lib/Release/middleware.a(cc_io_park.o)
 .debug_abbrev  0x0000000000003ef0      0x2ca ../../../middleware/gcc/lib/Release/middleware.a(cc_pm_ops.o)
 .debug_abbrev  0x00000000000041ba      0x33a ../../../middleware/gcc/lib/Release/middleware.a(spi_hal.o)
 .debug_abbrev  0x00000000000044f4      0x2ab ../../../middleware/gcc/lib/Release/middleware.a(uart_hal.o)
 .debug_abbrev  0x000000000000479f      0x292 ../../../oslib/gcc/free_rtos/Release/free_rtos.a(osi_freertos.o)
 .debug_abbrev  0x0000000000004a31      0x283 ../../../oslib/gcc/free_rtos/Release/free_rtos.a(queue.o)
 .debug_abbrev  0x0000000000004cb4      0x377 ../../../oslib/gcc/free_rtos/Release/free_rtos.a(tasks.o)
 .debug_abbrev  0x000000000000502b      0x21a ../../../oslib/gcc/free_rtos/Release/free_rtos.a(port.o)
 .debug_abbrev  0x0000000000005245      0x2bb ../../../oslib/gcc/free_rtos/Release/free_rtos.a(timers.o)
 .debug_abbrev  0x0000000000005500      0x111 ../../../oslib/gcc/free_rtos/Release/free_rtos.a(heap_3.o)
 .debug_abbrev  0x0000000000005611       0xdc ../../../oslib/gcc/free_rtos/Release/free_rtos.a(list.o)
 .debug_abbrev  0x00000000000056ed      0x178 ../../../driverlib/gcc/lib/Release/libdriver.a(interrupt.o)
 .debug_abbrev  0x0000000000005865      0x11f ../../../driverlib/gcc/lib/Release/libdriver.a(pin.o)
 .debug_abbrev  0x0000000000005984      0x31a ../../../driverlib/gcc/lib/Release/libdriver.a(prcm.o)
 .debug_abbrev  0x0000000000005c9e      0x1f4 ../../../driverlib/gcc/lib/Release/libdriver.a(spi.o)
 .debug_abbrev  0x0000000000005e92      0x100 ../../../driverlib/gcc/lib/Release/libdriver.a(timer.o)
 .debug_abbrev  0x0000000000005f92       0x48 ../../../driverlib/gcc/lib/Release/libdriver.a(utils.o)
 .debug_abbrev  0x0000000000005fda      0x19d ../../../driverlib/gcc/lib/Release/libdriver.a(flash.o)
 .debug_abbrev  0x0000000000006177      0x18a /usr/lib/gcc/arm-none-eabi/5.2.0/../../../../arm-none-eabi/lib/armv7e-m/libc_nano.a(lib_a-malloc.o)
 .debug_abbrev  0x0000000000006301       0x7f /usr/lib/gcc/arm-none-eabi/5.2.0/../../../../arm-none-eabi/lib/armv7e-m/libc_nano.a(lib_a-memcmp.o)
 .debug_abbrev  0x0000000000006380       0xab /usr/lib/gcc/arm-none-eabi/5.2.0/../../../../arm-none-eabi/lib/armv7e-m/libc_nano.a(lib_a-memcpy.o)
 .debug_abbrev  0x000000000000642b       0x8e /usr/lib/gcc/arm-none-eabi/5.2.0/../../../../arm-none-eabi/lib/armv7e-m/libc_nano.a(lib_a-memset.o)
 .debug_abbrev  0x00000000000064b9      0x1b6 /usr/lib/gcc/arm-none-eabi/5.2.0/../../../../arm-none-eabi/lib/armv7e-m/libc_nano.a(lib_a-nano-freer.o)
 .debug_abbrev  0x000000000000666f      0x24e /usr/lib/gcc/arm-none-eabi/5.2.0/../../../../arm-none-eabi/lib/armv7e-m/libc_nano.a(lib_a-nano-mallocr.o)
 .debug_abbrev  0x00000000000068bd      0x1a0 /usr/lib/gcc/arm-none-eabi/5.2.0/../../../../arm-none-eabi/lib/armv7e-m/libc_nano.a(lib_a-sbrkr.o)
 .debug_abbrev  0x0000000000006a5d      0x1c2 /usr/lib/gcc/arm-none-eabi/5.2.0/../../../../arm-none-eabi/lib/armv7e-m/libc_nano.a(lib_a-snprintf.o)
 .debug_abbrev  0x0000000000006c1f      0x1c0 /usr/lib/gcc/arm-none-eabi/5.2.0/../../../../arm-none-eabi/lib/armv7e-m/libc_nano.a(lib_a-sprintf.o)
 .debug_abbrev  0x0000000000006ddf       0x8c /usr/lib/gcc/arm-none-eabi/5.2.0/../../../../arm-none-eabi/lib/armv7e-m/libc_nano.a(lib_a-strlen.o)
 .debug_abbrev  0x0000000000006e6b      0x136 /usr/lib/gcc/arm-none-eabi/5.2.0/../../../../arm-none-eabi/lib/armv7e-m/libc_nano.a(lib_a-impure.o)
 .debug_abbrev  0x0000000000006fa1      0x23f /usr/lib/gcc/arm-none-eabi/5.2.0/../../../../arm-none-eabi/lib/armv7e-m/libc_nano.a(lib_a-nano-svfprintf.o)
 .debug_abbrev  0x00000000000071e0      0x1f4 /usr/lib/gcc/arm-none-eabi/5.2.0/../../../../arm-none-eabi/lib/armv7e-m/libc_nano.a(lib_a-nano-vfprintf_i.o)
 .debug_abbrev  0x00000000000073d4      0x1f2 /usr/lib/gcc/arm-none-eabi/5.2.0/../../../../arm-none-eabi/lib/armv7e-m/libc_nano.a(lib_a-reent.o)
 .debug_abbrev  0x00000000000075c6       0xab /usr/lib/gcc/arm-none-eabi/5.2.0/../../../../arm-none-eabi/lib/armv7e-m/libc_nano.a(lib_a-memchr.o)
 .debug_abbrev  0x0000000000007671       0x9c /usr/lib/gcc/arm-none-eabi/5.2.0/../../../../arm-none-eabi/lib/armv7e-m/libc_nano.a(lib_a-memmove.o)
 .debug_abbrev  0x000000000000770d      0x1af /usr/lib/gcc/arm-none-eabi/5.2.0/../../../../arm-none-eabi/lib/armv7e-m/libc_nano.a(lib_a-nano-reallocr.o)
 .debug_abbrev  0x00000000000078bc      0x161 /usr/lib/gcc/arm-none-eabi/5.2.0/../../../../arm-none-eabi/lib/armv7e-m/libc_nano.a(lib_a-nano-msizer.o)
 .debug_abbrev  0x0000000000007a1d       0x14 /usr/lib/gcc/arm-none-eabi/5.2.0/armv7e-m/libgcc.a(_aeabi_uldivmod.o)
 .debug_abbrev  0x0000000000007a31      0x101 /usr/lib/gcc/arm-none-eabi/5.2.0/armv7e-m/libgcc.a(_udivmoddi4.o)
 .debug_abbrev  0x0000000000007b32       0x14 /usr/lib/gcc/arm-none-eabi/5.2.0/armv7e-m/libgcc.a(_dvmd_tls.o)

.debug_loc      0x0000000000000000    0x16736
 .debug_loc     0x0000000000000000      0x3f6 obj/Release/main.o
 .debug_loc     0x00000000000003f6      0x2cd obj/Release/lp3p0_board.o
 .debug_loc     0x00000000000006c3       0xa7 obj/Release/lp3p0_plat_ops.o
 .debug_loc     0x000000000000076a       0x58 obj/Release/wdt_if.o
 .debug_loc     0x00000000000007c2       0x65 obj/Release/startup_gcc.o
 .debug_loc     0x0000000000000827      0x79f ../../../simplelink/gcc/lib/os_PM/Release/libsimplelink.a(device.o)
 .debug_loc     0x0000000000000fc6     0x1689 ../../../simplelink/gcc/lib/os_PM/Release/libsimplelink.a(driver.o)
 .debug_loc     0x000000000000264f     0x117e ../../../simplelink/gcc/lib/os_PM/Release/libsimplelink.a(netapp.o)
 .debug_loc     0x00000000000037cd      0xfab ../../../simplelink/gcc/lib/os_PM/Release/libsimplelink.a(socket.o)
 .debug_loc     0x0000000000004778      0xf55 ../../../simplelink/gcc/lib/os_PM/Release/libsimplelink.a(wlan.o)
 .debug_loc     0x00000000000056cd      0x349 ../../../simplelink/gcc/lib/os_PM/Release/libsimplelink.a(cc_pal_pm.o)
 .debug_loc     0x0000000000005a16      0xb56 ../../../middleware/gcc/lib/Release/middleware.a(dma_hal.o)
 .debug_loc     0x000000000000656c     0x1358 ../../../middleware/gcc/lib/Release/middleware.a(gpio_hal.o)
 .debug_loc     0x00000000000078c4      0xc96 ../../../middleware/gcc/lib/Release/middleware.a(hw_timer32.o)
 .debug_loc     0x000000000000855a       0x8e ../../../middleware/gcc/lib/Release/middleware.a(interrupt_hal.o)
 .debug_loc     0x00000000000085e8      0xbfe ../../../middleware/gcc/lib/Release/middleware.a(rtc_hal.o)
 .debug_loc     0x00000000000091e6      0x2b5 ../../../middleware/gcc/lib/Release/middleware.a(util64.o)
 .debug_loc     0x000000000000949b      0x83f ../../../middleware/gcc/lib/Release/middleware.a(spi_drv.o)
 .debug_loc     0x0000000000009cda      0x752 ../../../middleware/gcc/lib/Release/middleware.a(uart_drv.o)
 .debug_loc     0x000000000000a42c      0x381 ../../../middleware/gcc/lib/Release/middleware.a(cc_pm.o)
 .debug_loc     0x000000000000a7ad     0x122c ../../../middleware/gcc/lib/Release/middleware.a(cc_timer.o)
 .debug_loc     0x000000000000b9d9      0x126 ../../../middleware/gcc/lib/Release/middleware.a(cc_io_park.o)
 .debug_loc     0x000000000000baff      0x42e ../../../middleware/gcc/lib/Release/middleware.a(cc_pm_ops.o)
 .debug_loc     0x000000000000bf2d      0xb5e ../../../middleware/gcc/lib/Release/middleware.a(spi_hal.o)
 .debug_loc     0x000000000000ca8b      0xc08 ../../../middleware/gcc/lib/Release/middleware.a(uart_hal.o)
 .debug_loc     0x000000000000d693      0x841 ../../../oslib/gcc/free_rtos/Release/free_rtos.a(osi_freertos.o)
 .debug_loc     0x000000000000ded4     0x134e ../../../oslib/gcc/free_rtos/Release/free_rtos.a(queue.o)
 .debug_loc     0x000000000000f222     0x1b04 ../../../oslib/gcc/free_rtos/Release/free_rtos.a(tasks.o)
 .debug_loc     0x0000000000010d26       0x99 ../../../oslib/gcc/free_rtos/Release/free_rtos.a(port.o)
 .debug_loc     0x0000000000010dbf      0x913 ../../../oslib/gcc/free_rtos/Release/free_rtos.a(timers.o)
 .debug_loc     0x00000000000116d2       0x81 ../../../oslib/gcc/free_rtos/Release/free_rtos.a(heap_3.o)
 .debug_loc     0x0000000000011753       0x94 ../../../oslib/gcc/free_rtos/Release/free_rtos.a(list.o)
 .debug_loc     0x00000000000117e7      0x165 ../../../driverlib/gcc/lib/Release/libdriver.a(interrupt.o)
 .debug_loc     0x000000000001194c      0x514 ../../../driverlib/gcc/lib/Release/libdriver.a(pin.o)
 .debug_loc     0x0000000000011e60      0xfa1 ../../../driverlib/gcc/lib/Release/libdriver.a(prcm.o)
 .debug_loc     0x0000000000012e01      0xbbe ../../../driverlib/gcc/lib/Release/libdriver.a(spi.o)
 .debug_loc     0x00000000000139bf      0x465 ../../../driverlib/gcc/lib/Release/libdriver.a(timer.o)
 .debug_loc     0x0000000000013e24      0x282 ../../../driverlib/gcc/lib/Release/libdriver.a(flash.o)
 .debug_loc     0x00000000000140a6       0x58 /usr/lib/gcc/arm-none-eabi/5.2.0/../../../../arm-none-eabi/lib/armv7e-m/libc_nano.a(lib_a-malloc.o)
 .debug_loc     0x00000000000140fe      0x12e /usr/lib/gcc/arm-none-eabi/5.2.0/../../../../arm-none-eabi/lib/armv7e-m/libc_nano.a(lib_a-memcmp.o)
 .debug_loc     0x000000000001422c       0x87 /usr/lib/gcc/arm-none-eabi/5.2.0/../../../../arm-none-eabi/lib/armv7e-m/libc_nano.a(lib_a-memcpy.o)
 .debug_loc     0x00000000000142b3       0x57 /usr/lib/gcc/arm-none-eabi/5.2.0/../../../../arm-none-eabi/lib/armv7e-m/libc_nano.a(lib_a-memset.o)
 .debug_loc     0x000000000001430a      0x172 /usr/lib/gcc/arm-none-eabi/5.2.0/../../../../arm-none-eabi/lib/armv7e-m/libc_nano.a(lib_a-nano-freer.o)
 .debug_loc     0x000000000001447c      0x311 /usr/lib/gcc/arm-none-eabi/5.2.0/../../../../arm-none-eabi/lib/armv7e-m/libc_nano.a(lib_a-nano-mallocr.o)
 .debug_loc     0x000000000001478d       0x4d /usr/lib/gcc/arm-none-eabi/5.2.0/../../../../arm-none-eabi/lib/armv7e-m/libc_nano.a(lib_a-sbrkr.o)
 .debug_loc     0x00000000000147da      0x146 /usr/lib/gcc/arm-none-eabi/5.2.0/../../../../arm-none-eabi/lib/armv7e-m/libc_nano.a(lib_a-snprintf.o)
 .debug_loc     0x0000000000014920       0x95 /usr/lib/gcc/arm-none-eabi/5.2.0/../../../../arm-none-eabi/lib/armv7e-m/libc_nano.a(lib_a-sprintf.o)
 .debug_loc     0x00000000000149b5       0x21 /usr/lib/gcc/arm-none-eabi/5.2.0/../../../../arm-none-eabi/lib/armv7e-m/libc_nano.a(lib_a-strlen.o)
 .debug_loc     0x00000000000149d6      0x54e /usr/lib/gcc/arm-none-eabi/5.2.0/../../../../arm-none-eabi/lib/armv7e-m/libc_nano.a(lib_a-nano-svfprintf.o)
 .debug_loc     0x0000000000014f24      0x52c /usr/lib/gcc/arm-none-eabi/5.2.0/../../../../arm-none-eabi/lib/armv7e-m/libc_nano.a(lib_a-nano-vfprintf_i.o)
 .debug_loc     0x0000000000015450       0xfa /usr/lib/gcc/arm-none-eabi/5.2.0/../../../../arm-none-eabi/lib/armv7e-m/libc_nano.a(lib_a-reent.o)
 .debug_loc     0x000000000001554a       0xaa /usr/lib/gcc/arm-none-eabi/5.2.0/../../../../arm-none-eabi/lib/armv7e-m/libc_nano.a(lib_a-memchr.o)
 .debug_loc     0x00000000000155f4       0xde /usr/lib/gcc/arm-none-eabi/5.2.0/../../../../arm-none-eabi/lib/armv7e-m/libc_nano.a(lib_a-memmove.o)
 .debug_loc     0x00000000000156d2      0x11b /usr/lib/gcc/arm-none-eabi/5.2.0/../../../../arm-none-eabi/lib/armv7e-m/libc_nano.a(lib_a-nano-reallocr.o)
 .debug_loc     0x00000000000157ed       0xb5 /usr/lib/gcc/arm-none-eabi/5.2.0/../../../../arm-none-eabi/lib/armv7e-m/libc_nano.a(lib_a-nano-msizer.o)
 .debug_loc     0x00000000000158a2      0xe94 /usr/lib/gcc/arm-none-eabi/5.2.0/armv7e-m/libgcc.a(_udivmoddi4.o)

.debug_aranges  0x0000000000000000     0x1988
 .debug_aranges
                0x0000000000000000       0xc0 obj/Release/main.o
 .debug_aranges
                0x00000000000000c0       0x20 obj/Release/pinmux.o
 .debug_aranges
                0x00000000000000e0       0x50 obj/Release/lp3p0_board.o
 .debug_aranges
                0x0000000000000130       0x48 obj/Release/lp3p0_plat_ops.o
 .debug_aranges
                0x0000000000000178       0x28 obj/Release/wdt_if.o
 .debug_aranges
                0x00000000000001a0       0x28 obj/Release/utils_if.o
 .debug_aranges
                0x00000000000001c8       0x48 obj/Release/startup_gcc.o
 .debug_aranges
                0x0000000000000210       0x68 ../../../simplelink/gcc/lib/os_PM/Release/libsimplelink.a(device.o)
 .debug_aranges
                0x0000000000000278      0x118 ../../../simplelink/gcc/lib/os_PM/Release/libsimplelink.a(driver.o)
 .debug_aranges
                0x0000000000000390       0xa0 ../../../simplelink/gcc/lib/os_PM/Release/libsimplelink.a(netapp.o)
 .debug_aranges
                0x0000000000000430       0xd8 ../../../simplelink/gcc/lib/os_PM/Release/libsimplelink.a(socket.o)
 .debug_aranges
                0x0000000000000508       0xb0 ../../../simplelink/gcc/lib/os_PM/Release/libsimplelink.a(wlan.o)
 .debug_aranges
                0x00000000000005b8       0x88 ../../../simplelink/gcc/lib/os_PM/Release/libsimplelink.a(cc_pal_pm.o)
 .debug_aranges
                0x0000000000000640       0x80 ../../../middleware/gcc/lib/Release/middleware.a(dma_hal.o)
 .debug_aranges
                0x00000000000006c0       0x90 ../../../middleware/gcc/lib/Release/middleware.a(gpio_hal.o)
 .debug_aranges
                0x0000000000000750       0x80 ../../../middleware/gcc/lib/Release/middleware.a(hw_timer32.o)
 .debug_aranges
                0x00000000000007d0       0x30 ../../../middleware/gcc/lib/Release/middleware.a(interrupt_hal.o)
 .debug_aranges
                0x0000000000000800       0xf0 ../../../middleware/gcc/lib/Release/middleware.a(rtc_hal.o)
 .debug_aranges
                0x00000000000008f0       0x58 ../../../middleware/gcc/lib/Release/middleware.a(util64.o)
 .debug_aranges
                0x0000000000000948       0x78 ../../../middleware/gcc/lib/Release/middleware.a(spi_drv.o)
 .debug_aranges
                0x00000000000009c0       0x60 ../../../middleware/gcc/lib/Release/middleware.a(uart_drv.o)
 .debug_aranges
                0x0000000000000a20       0x90 ../../../middleware/gcc/lib/Release/middleware.a(cc_pm.o)
 .debug_aranges
                0x0000000000000ab0       0x70 ../../../middleware/gcc/lib/Release/middleware.a(cc_timer.o)
 .debug_aranges
                0x0000000000000b20       0x28 ../../../middleware/gcc/lib/Release/middleware.a(cc_io_park.o)
 .debug_aranges
                0x0000000000000b48       0x90 ../../../middleware/gcc/lib/Release/middleware.a(cc_pm_ops.o)
 .debug_aranges
                0x0000000000000bd8       0x58 ../../../middleware/gcc/lib/Release/middleware.a(spi_hal.o)
 .debug_aranges
                0x0000000000000c30       0x50 ../../../middleware/gcc/lib/Release/middleware.a(uart_hal.o)
 .debug_aranges
                0x0000000000000c80      0x110 ../../../oslib/gcc/free_rtos/Release/free_rtos.a(osi_freertos.o)
 .debug_aranges
                0x0000000000000d90      0x110 ../../../oslib/gcc/free_rtos/Release/free_rtos.a(queue.o)
 .debug_aranges
                0x0000000000000ea0      0x1b0 ../../../oslib/gcc/free_rtos/Release/free_rtos.a(tasks.o)
 .debug_aranges
                0x0000000000001050       0x90 ../../../oslib/gcc/free_rtos/Release/free_rtos.a(port.o)
 .debug_aranges
                0x00000000000010e0       0x88 ../../../oslib/gcc/free_rtos/Release/free_rtos.a(timers.o)
 .debug_aranges
                0x0000000000001168       0x28 ../../../oslib/gcc/free_rtos/Release/free_rtos.a(heap_3.o)
 .debug_aranges
                0x0000000000001190       0x40 ../../../oslib/gcc/free_rtos/Release/free_rtos.a(list.o)
 .debug_aranges
                0x00000000000011d0       0x98 ../../../driverlib/gcc/lib/Release/libdriver.a(interrupt.o)
 .debug_aranges
                0x0000000000001268       0x70 ../../../driverlib/gcc/lib/Release/libdriver.a(pin.o)
 .debug_aranges
                0x00000000000012d8      0x190 ../../../driverlib/gcc/lib/Release/libdriver.a(prcm.o)
 .debug_aranges
                0x0000000000001468       0xd0 ../../../driverlib/gcc/lib/Release/libdriver.a(spi.o)
 .debug_aranges
                0x0000000000001538       0xd8 ../../../driverlib/gcc/lib/Release/libdriver.a(timer.o)
 .debug_aranges
                0x0000000000001610       0x20 ../../../driverlib/gcc/lib/Release/libdriver.a(utils.o)
 .debug_aranges
                0x0000000000001630       0x88 ../../../driverlib/gcc/lib/Release/libdriver.a(flash.o)
 .debug_aranges
                0x00000000000016b8       0x28 /usr/lib/gcc/arm-none-eabi/5.2.0/../../../../arm-none-eabi/lib/armv7e-m/libc_nano.a(lib_a-malloc.o)
 .debug_aranges
                0x00000000000016e0       0x20 /usr/lib/gcc/arm-none-eabi/5.2.0/../../../../arm-none-eabi/lib/armv7e-m/libc_nano.a(lib_a-memcmp.o)
 .debug_aranges
                0x0000000000001700       0x20 /usr/lib/gcc/arm-none-eabi/5.2.0/../../../../arm-none-eabi/lib/armv7e-m/libc_nano.a(lib_a-memcpy.o)
 .debug_aranges
                0x0000000000001720       0x20 /usr/lib/gcc/arm-none-eabi/5.2.0/../../../../arm-none-eabi/lib/armv7e-m/libc_nano.a(lib_a-memset.o)
 .debug_aranges
                0x0000000000001740       0x20 /usr/lib/gcc/arm-none-eabi/5.2.0/../../../../arm-none-eabi/lib/armv7e-m/libc_nano.a(lib_a-nano-freer.o)
 .debug_aranges
                0x0000000000001760       0x20 /usr/lib/gcc/arm-none-eabi/5.2.0/../../../../arm-none-eabi/lib/armv7e-m/libc_nano.a(lib_a-nano-mallocr.o)
 .debug_aranges
                0x0000000000001780       0x20 /usr/lib/gcc/arm-none-eabi/5.2.0/../../../../arm-none-eabi/lib/armv7e-m/libc_nano.a(lib_a-sbrkr.o)
 .debug_aranges
                0x00000000000017a0       0x28 /usr/lib/gcc/arm-none-eabi/5.2.0/../../../../arm-none-eabi/lib/armv7e-m/libc_nano.a(lib_a-snprintf.o)
 .debug_aranges
                0x00000000000017c8       0x28 /usr/lib/gcc/arm-none-eabi/5.2.0/../../../../arm-none-eabi/lib/armv7e-m/libc_nano.a(lib_a-sprintf.o)
 .debug_aranges
                0x00000000000017f0       0x20 /usr/lib/gcc/arm-none-eabi/5.2.0/../../../../arm-none-eabi/lib/armv7e-m/libc_nano.a(lib_a-strlen.o)
 .debug_aranges
                0x0000000000001810       0x18 /usr/lib/gcc/arm-none-eabi/5.2.0/../../../../arm-none-eabi/lib/armv7e-m/libc_nano.a(lib_a-impure.o)
 .debug_aranges
                0x0000000000001828       0x30 /usr/lib/gcc/arm-none-eabi/5.2.0/../../../../arm-none-eabi/lib/armv7e-m/libc_nano.a(lib_a-nano-svfprintf.o)
 .debug_aranges
                0x0000000000001858       0x28 /usr/lib/gcc/arm-none-eabi/5.2.0/../../../../arm-none-eabi/lib/armv7e-m/libc_nano.a(lib_a-nano-vfprintf_i.o)
 .debug_aranges
                0x0000000000001880       0x28 /usr/lib/gcc/arm-none-eabi/5.2.0/../../../../arm-none-eabi/lib/armv7e-m/libc_nano.a(lib_a-reent.o)
 .debug_aranges
                0x00000000000018a8       0x20 /usr/lib/gcc/arm-none-eabi/5.2.0/../../../../arm-none-eabi/lib/armv7e-m/libc_nano.a(lib_a-memchr.o)
 .debug_aranges
                0x00000000000018c8       0x20 /usr/lib/gcc/arm-none-eabi/5.2.0/../../../../arm-none-eabi/lib/armv7e-m/libc_nano.a(lib_a-memmove.o)
 .debug_aranges
                0x00000000000018e8       0x20 /usr/lib/gcc/arm-none-eabi/5.2.0/../../../../arm-none-eabi/lib/armv7e-m/libc_nano.a(lib_a-nano-reallocr.o)
 .debug_aranges
                0x0000000000001908       0x20 /usr/lib/gcc/arm-none-eabi/5.2.0/../../../../arm-none-eabi/lib/armv7e-m/libc_nano.a(lib_a-nano-msizer.o)
 .debug_aranges
                0x0000000000001928       0x20 /usr/lib/gcc/arm-none-eabi/5.2.0/armv7e-m/libgcc.a(_aeabi_uldivmod.o)
 .debug_aranges
                0x0000000000001948       0x20 /usr/lib/gcc/arm-none-eabi/5.2.0/armv7e-m/libgcc.a(_udivmoddi4.o)
 .debug_aranges
                0x0000000000001968       0x20 /usr/lib/gcc/arm-none-eabi/5.2.0/armv7e-m/libgcc.a(_dvmd_tls.o)

.debug_ranges   0x0000000000000000     0x22c0
 .debug_ranges  0x0000000000000000      0x100 obj/Release/main.o
 .debug_ranges  0x0000000000000100       0x10 obj/Release/pinmux.o
 .debug_ranges  0x0000000000000110       0x88 obj/Release/lp3p0_board.o
 .debug_ranges  0x0000000000000198       0x38 obj/Release/lp3p0_plat_ops.o
 .debug_ranges  0x00000000000001d0       0x18 obj/Release/wdt_if.o
 .debug_ranges  0x00000000000001e8       0x18 obj/Release/utils_if.o
 .debug_ranges  0x0000000000000200       0x38 obj/Release/startup_gcc.o
 .debug_ranges  0x0000000000000238       0xe0 ../../../simplelink/gcc/lib/os_PM/Release/libsimplelink.a(device.o)
 .debug_ranges  0x0000000000000318      0x270 ../../../simplelink/gcc/lib/os_PM/Release/libsimplelink.a(driver.o)
 .debug_ranges  0x0000000000000588      0x128 ../../../simplelink/gcc/lib/os_PM/Release/libsimplelink.a(netapp.o)
 .debug_ranges  0x00000000000006b0      0x150 ../../../simplelink/gcc/lib/os_PM/Release/libsimplelink.a(socket.o)
 .debug_ranges  0x0000000000000800      0x180 ../../../simplelink/gcc/lib/os_PM/Release/libsimplelink.a(wlan.o)
 .debug_ranges  0x0000000000000980       0xc0 ../../../simplelink/gcc/lib/os_PM/Release/libsimplelink.a(cc_pal_pm.o)
 .debug_ranges  0x0000000000000a40       0x88 ../../../middleware/gcc/lib/Release/middleware.a(dma_hal.o)
 .debug_ranges  0x0000000000000ac8       0x80 ../../../middleware/gcc/lib/Release/middleware.a(gpio_hal.o)
 .debug_ranges  0x0000000000000b48       0xb8 ../../../middleware/gcc/lib/Release/middleware.a(hw_timer32.o)
 .debug_ranges  0x0000000000000c00       0x20 ../../../middleware/gcc/lib/Release/middleware.a(interrupt_hal.o)
 .debug_ranges  0x0000000000000c20       0xe0 ../../../middleware/gcc/lib/Release/middleware.a(rtc_hal.o)
 .debug_ranges  0x0000000000000d00       0x60 ../../../middleware/gcc/lib/Release/middleware.a(util64.o)
 .debug_ranges  0x0000000000000d60       0xc8 ../../../middleware/gcc/lib/Release/middleware.a(spi_drv.o)
 .debug_ranges  0x0000000000000e28       0xd8 ../../../middleware/gcc/lib/Release/middleware.a(uart_drv.o)
 .debug_ranges  0x0000000000000f00       0xa8 ../../../middleware/gcc/lib/Release/middleware.a(cc_pm.o)
 .debug_ranges  0x0000000000000fa8      0x1a8 ../../../middleware/gcc/lib/Release/middleware.a(cc_timer.o)
 .debug_ranges  0x0000000000001150       0x30 ../../../middleware/gcc/lib/Release/middleware.a(cc_io_park.o)
 .debug_ranges  0x0000000000001180       0x98 ../../../middleware/gcc/lib/Release/middleware.a(cc_pm_ops.o)
 .debug_ranges  0x0000000000001218       0x48 ../../../middleware/gcc/lib/Release/middleware.a(spi_hal.o)
 .debug_ranges  0x0000000000001260       0x40 ../../../middleware/gcc/lib/Release/middleware.a(uart_hal.o)
 .debug_ranges  0x00000000000012a0      0x100 ../../../oslib/gcc/free_rtos/Release/free_rtos.a(osi_freertos.o)
 .debug_ranges  0x00000000000013a0      0x100 ../../../oslib/gcc/free_rtos/Release/free_rtos.a(queue.o)
 .debug_ranges  0x00000000000014a0      0x250 ../../../oslib/gcc/free_rtos/Release/free_rtos.a(tasks.o)
 .debug_ranges  0x00000000000016f0       0x80 ../../../oslib/gcc/free_rtos/Release/free_rtos.a(port.o)
 .debug_ranges  0x0000000000001770       0x90 ../../../oslib/gcc/free_rtos/Release/free_rtos.a(timers.o)
 .debug_ranges  0x0000000000001800       0x18 ../../../oslib/gcc/free_rtos/Release/free_rtos.a(heap_3.o)
 .debug_ranges  0x0000000000001818       0x30 ../../../oslib/gcc/free_rtos/Release/free_rtos.a(list.o)
 .debug_ranges  0x0000000000001848       0x88 ../../../driverlib/gcc/lib/Release/libdriver.a(interrupt.o)
 .debug_ranges  0x00000000000018d0       0x60 ../../../driverlib/gcc/lib/Release/libdriver.a(pin.o)
 .debug_ranges  0x0000000000001930      0x480 ../../../driverlib/gcc/lib/Release/libdriver.a(prcm.o)
 .debug_ranges  0x0000000000001db0       0xf0 ../../../driverlib/gcc/lib/Release/libdriver.a(spi.o)
 .debug_ranges  0x0000000000001ea0       0xc8 ../../../driverlib/gcc/lib/Release/libdriver.a(timer.o)
 .debug_ranges  0x0000000000001f68       0x10 ../../../driverlib/gcc/lib/Release/libdriver.a(utils.o)
 .debug_ranges  0x0000000000001f78       0x78 ../../../driverlib/gcc/lib/Release/libdriver.a(flash.o)
 .debug_ranges  0x0000000000001ff0       0x18 /usr/lib/gcc/arm-none-eabi/5.2.0/../../../../arm-none-eabi/lib/armv7e-m/libc_nano.a(lib_a-malloc.o)
 .debug_ranges  0x0000000000002008       0x10 /usr/lib/gcc/arm-none-eabi/5.2.0/../../../../arm-none-eabi/lib/armv7e-m/libc_nano.a(lib_a-memcmp.o)
 .debug_ranges  0x0000000000002018       0x10 /usr/lib/gcc/arm-none-eabi/5.2.0/../../../../arm-none-eabi/lib/armv7e-m/libc_nano.a(lib_a-memcpy.o)
 .debug_ranges  0x0000000000002028       0x10 /usr/lib/gcc/arm-none-eabi/5.2.0/../../../../arm-none-eabi/lib/armv7e-m/libc_nano.a(lib_a-memset.o)
 .debug_ranges  0x0000000000002038       0x28 /usr/lib/gcc/arm-none-eabi/5.2.0/../../../../arm-none-eabi/lib/armv7e-m/libc_nano.a(lib_a-nano-freer.o)
 .debug_ranges  0x0000000000002060       0x28 /usr/lib/gcc/arm-none-eabi/5.2.0/../../../../arm-none-eabi/lib/armv7e-m/libc_nano.a(lib_a-nano-mallocr.o)
 .debug_ranges  0x0000000000002088       0x10 /usr/lib/gcc/arm-none-eabi/5.2.0/../../../../arm-none-eabi/lib/armv7e-m/libc_nano.a(lib_a-sbrkr.o)
 .debug_ranges  0x0000000000002098       0x18 /usr/lib/gcc/arm-none-eabi/5.2.0/../../../../arm-none-eabi/lib/armv7e-m/libc_nano.a(lib_a-snprintf.o)
 .debug_ranges  0x00000000000020b0       0x18 /usr/lib/gcc/arm-none-eabi/5.2.0/../../../../arm-none-eabi/lib/armv7e-m/libc_nano.a(lib_a-sprintf.o)
 .debug_ranges  0x00000000000020c8       0x10 /usr/lib/gcc/arm-none-eabi/5.2.0/../../../../arm-none-eabi/lib/armv7e-m/libc_nano.a(lib_a-strlen.o)
 .debug_ranges  0x00000000000020d8       0x50 /usr/lib/gcc/arm-none-eabi/5.2.0/../../../../arm-none-eabi/lib/armv7e-m/libc_nano.a(lib_a-nano-svfprintf.o)
 .debug_ranges  0x0000000000002128       0x68 /usr/lib/gcc/arm-none-eabi/5.2.0/../../../../arm-none-eabi/lib/armv7e-m/libc_nano.a(lib_a-nano-vfprintf_i.o)
 .debug_ranges  0x0000000000002190       0x18 /usr/lib/gcc/arm-none-eabi/5.2.0/../../../../arm-none-eabi/lib/armv7e-m/libc_nano.a(lib_a-reent.o)
 .debug_ranges  0x00000000000021a8       0x10 /usr/lib/gcc/arm-none-eabi/5.2.0/../../../../arm-none-eabi/lib/armv7e-m/libc_nano.a(lib_a-memchr.o)
 .debug_ranges  0x00000000000021b8       0x10 /usr/lib/gcc/arm-none-eabi/5.2.0/../../../../arm-none-eabi/lib/armv7e-m/libc_nano.a(lib_a-memmove.o)
 .debug_ranges  0x00000000000021c8       0x10 /usr/lib/gcc/arm-none-eabi/5.2.0/../../../../arm-none-eabi/lib/armv7e-m/libc_nano.a(lib_a-nano-reallocr.o)
 .debug_ranges  0x00000000000021d8       0x10 /usr/lib/gcc/arm-none-eabi/5.2.0/../../../../arm-none-eabi/lib/armv7e-m/libc_nano.a(lib_a-nano-msizer.o)
 .debug_ranges  0x00000000000021e8       0xd8 /usr/lib/gcc/arm-none-eabi/5.2.0/armv7e-m/libgcc.a(_udivmoddi4.o)

.debug_line     0x0000000000000000     0x935d
 .debug_line    0x0000000000000000      0x4b7 obj/Release/main.o
 .debug_line    0x00000000000004b7       0x70 obj/Release/pinmux.o
 .debug_line    0x0000000000000527      0x2cc obj/Release/lp3p0_board.o
 .debug_line    0x00000000000007f3      0x1bc obj/Release/lp3p0_plat_ops.o
 .debug_line    0x00000000000009af       0xb3 obj/Release/wdt_if.o
 .debug_line    0x0000000000000a62      0x131 obj/Release/utils_if.o
 .debug_line    0x0000000000000b93      0x127 obj/Release/startup_gcc.o
 .debug_line    0x0000000000000cba      0x291 ../../../simplelink/gcc/lib/os_PM/Release/libsimplelink.a(device.o)
 .debug_line    0x0000000000000f4b      0x6e2 ../../../simplelink/gcc/lib/os_PM/Release/libsimplelink.a(driver.o)
 .debug_line    0x000000000000162d      0x425 ../../../simplelink/gcc/lib/os_PM/Release/libsimplelink.a(netapp.o)
 .debug_line    0x0000000000001a52      0x51b ../../../simplelink/gcc/lib/os_PM/Release/libsimplelink.a(socket.o)
 .debug_line    0x0000000000001f6d      0x48c ../../../simplelink/gcc/lib/os_PM/Release/libsimplelink.a(wlan.o)
 .debug_line    0x00000000000023f9      0x23f ../../../simplelink/gcc/lib/os_PM/Release/libsimplelink.a(cc_pal_pm.o)
 .debug_line    0x0000000000002638      0x24a ../../../middleware/gcc/lib/Release/middleware.a(dma_hal.o)
 .debug_line    0x0000000000002882      0x2f4 ../../../middleware/gcc/lib/Release/middleware.a(gpio_hal.o)
 .debug_line    0x0000000000002b76      0x2ff ../../../middleware/gcc/lib/Release/middleware.a(hw_timer32.o)
 .debug_line    0x0000000000002e75       0xcf ../../../middleware/gcc/lib/Release/middleware.a(interrupt_hal.o)
 .debug_line    0x0000000000002f44      0x3b8 ../../../middleware/gcc/lib/Release/middleware.a(rtc_hal.o)
 .debug_line    0x00000000000032fc      0x117 ../../../middleware/gcc/lib/Release/middleware.a(util64.o)
 .debug_line    0x0000000000003413      0x2dd ../../../middleware/gcc/lib/Release/middleware.a(spi_drv.o)
 .debug_line    0x00000000000036f0      0x2d1 ../../../middleware/gcc/lib/Release/middleware.a(uart_drv.o)
 .debug_line    0x00000000000039c1      0x26c ../../../middleware/gcc/lib/Release/middleware.a(cc_pm.o)
 .debug_line    0x0000000000003c2d      0x3dc ../../../middleware/gcc/lib/Release/middleware.a(cc_timer.o)
 .debug_line    0x0000000000004009       0xf3 ../../../middleware/gcc/lib/Release/middleware.a(cc_io_park.o)
 .debug_line    0x00000000000040fc      0x2de ../../../middleware/gcc/lib/Release/middleware.a(cc_pm_ops.o)
 .debug_line    0x00000000000043da      0x1ca ../../../middleware/gcc/lib/Release/middleware.a(spi_hal.o)
 .debug_line    0x00000000000045a4      0x293 ../../../middleware/gcc/lib/Release/middleware.a(uart_hal.o)
 .debug_line    0x0000000000004837      0x437 ../../../oslib/gcc/free_rtos/Release/free_rtos.a(osi_freertos.o)
 .debug_line    0x0000000000004c6e      0x6c2 ../../../oslib/gcc/free_rtos/Release/free_rtos.a(queue.o)
 .debug_line    0x0000000000005330      0xb33 ../../../oslib/gcc/free_rtos/Release/free_rtos.a(tasks.o)
 .debug_line    0x0000000000005e63      0x2c0 ../../../oslib/gcc/free_rtos/Release/free_rtos.a(port.o)
 .debug_line    0x0000000000006123      0x380 ../../../oslib/gcc/free_rtos/Release/free_rtos.a(timers.o)
 .debug_line    0x00000000000064a3      0x118 ../../../oslib/gcc/free_rtos/Release/free_rtos.a(heap_3.o)
 .debug_line    0x00000000000065bb      0x1aa ../../../oslib/gcc/free_rtos/Release/free_rtos.a(list.o)
 .debug_line    0x0000000000006765      0x1b7 ../../../driverlib/gcc/lib/Release/libdriver.a(interrupt.o)
 .debug_line    0x000000000000691c      0x13c ../../../driverlib/gcc/lib/Release/libdriver.a(pin.o)
 .debug_line    0x0000000000006a58      0x686 ../../../driverlib/gcc/lib/Release/libdriver.a(prcm.o)
 .debug_line    0x00000000000070de      0x336 ../../../driverlib/gcc/lib/Release/libdriver.a(spi.o)
 .debug_line    0x0000000000007414      0x2ac ../../../driverlib/gcc/lib/Release/libdriver.a(timer.o)
 .debug_line    0x00000000000076c0       0x3c ../../../driverlib/gcc/lib/Release/libdriver.a(utils.o)
 .debug_line    0x00000000000076fc      0x201 ../../../driverlib/gcc/lib/Release/libdriver.a(flash.o)
 .debug_line    0x00000000000078fd      0x148 /usr/lib/gcc/arm-none-eabi/5.2.0/../../../../arm-none-eabi/lib/armv7e-m/libc_nano.a(lib_a-malloc.o)
 .debug_line    0x0000000000007a45       0xde /usr/lib/gcc/arm-none-eabi/5.2.0/../../../../arm-none-eabi/lib/armv7e-m/libc_nano.a(lib_a-memcmp.o)
 .debug_line    0x0000000000007b23       0xdc /usr/lib/gcc/arm-none-eabi/5.2.0/../../../../arm-none-eabi/lib/armv7e-m/libc_nano.a(lib_a-memcpy.o)
 .debug_line    0x0000000000007bff       0xdd /usr/lib/gcc/arm-none-eabi/5.2.0/../../../../arm-none-eabi/lib/armv7e-m/libc_nano.a(lib_a-memset.o)
 .debug_line    0x0000000000007cdc      0x13b /usr/lib/gcc/arm-none-eabi/5.2.0/../../../../arm-none-eabi/lib/armv7e-m/libc_nano.a(lib_a-nano-freer.o)
 .debug_line    0x0000000000007e17      0x175 /usr/lib/gcc/arm-none-eabi/5.2.0/../../../../arm-none-eabi/lib/armv7e-m/libc_nano.a(lib_a-nano-mallocr.o)
 .debug_line    0x0000000000007f8c      0x140 /usr/lib/gcc/arm-none-eabi/5.2.0/../../../../arm-none-eabi/lib/armv7e-m/libc_nano.a(lib_a-sbrkr.o)
 .debug_line    0x00000000000080cc      0x197 /usr/lib/gcc/arm-none-eabi/5.2.0/../../../../arm-none-eabi/lib/armv7e-m/libc_nano.a(lib_a-snprintf.o)
 .debug_line    0x0000000000008263      0x190 /usr/lib/gcc/arm-none-eabi/5.2.0/../../../../arm-none-eabi/lib/armv7e-m/libc_nano.a(lib_a-sprintf.o)
 .debug_line    0x00000000000083f3       0xe4 /usr/lib/gcc/arm-none-eabi/5.2.0/../../../../arm-none-eabi/lib/armv7e-m/libc_nano.a(lib_a-strlen.o)
 .debug_line    0x00000000000084d7       0xe0 /usr/lib/gcc/arm-none-eabi/5.2.0/../../../../arm-none-eabi/lib/armv7e-m/libc_nano.a(lib_a-impure.o)
 .debug_line    0x00000000000085b7      0x2ad /usr/lib/gcc/arm-none-eabi/5.2.0/../../../../arm-none-eabi/lib/armv7e-m/libc_nano.a(lib_a-nano-svfprintf.o)
 .debug_line    0x0000000000008864      0x2e9 /usr/lib/gcc/arm-none-eabi/5.2.0/../../../../arm-none-eabi/lib/armv7e-m/libc_nano.a(lib_a-nano-vfprintf_i.o)
 .debug_line    0x0000000000008b4d      0x17b /usr/lib/gcc/arm-none-eabi/5.2.0/../../../../arm-none-eabi/lib/armv7e-m/libc_nano.a(lib_a-reent.o)
 .debug_line    0x0000000000008cc8       0xdf /usr/lib/gcc/arm-none-eabi/5.2.0/../../../../arm-none-eabi/lib/armv7e-m/libc_nano.a(lib_a-memchr.o)
 .debug_line    0x0000000000008da7       0xe9 /usr/lib/gcc/arm-none-eabi/5.2.0/../../../../arm-none-eabi/lib/armv7e-m/libc_nano.a(lib_a-memmove.o)
 .debug_line    0x0000000000008e90      0x15c /usr/lib/gcc/arm-none-eabi/5.2.0/../../../../arm-none-eabi/lib/armv7e-m/libc_nano.a(lib_a-nano-reallocr.o)
 .debug_line    0x0000000000008fec       0xfc /usr/lib/gcc/arm-none-eabi/5.2.0/../../../../arm-none-eabi/lib/armv7e-m/libc_nano.a(lib_a-nano-msizer.o)
 .debug_line    0x00000000000090e8       0x64 /usr/lib/gcc/arm-none-eabi/5.2.0/armv7e-m/libgcc.a(_aeabi_uldivmod.o)
 .debug_line    0x000000000000914c      0x1ad /usr/lib/gcc/arm-none-eabi/5.2.0/armv7e-m/libgcc.a(_udivmoddi4.o)
 .debug_line    0x00000000000092f9       0x64 /usr/lib/gcc/arm-none-eabi/5.2.0/armv7e-m/libgcc.a(_dvmd_tls.o)

.debug_str      0x0000000000000000     0xa6a9
 .debug_str     0x0000000000000000      0xd32 obj/Release/main.o
                                        0xe0c (size before relaxing)
 .debug_str     0x0000000000000d32        0xc obj/Release/pinmux.o
                                         0xf7 (size before relaxing)
 .debug_str     0x0000000000000d3e      0xaaf obj/Release/lp3p0_board.o
                                        0xded (size before relaxing)
 .debug_str     0x00000000000017ed      0x1ae obj/Release/lp3p0_plat_ops.o
                                        0x4f0 (size before relaxing)
 .debug_str     0x000000000000199b       0x5f obj/Release/wdt_if.o
                                        0x1c9 (size before relaxing)
 .debug_str     0x00000000000019fa       0xee obj/Release/utils_if.o
                                        0x254 (size before relaxing)
 .debug_str     0x0000000000001ae8       0xd6 obj/Release/startup_gcc.o
                                        0x23d (size before relaxing)
 .debug_str     0x0000000000001bbe      0xe03 ../../../simplelink/gcc/lib/os_PM/Release/libsimplelink.a(device.o)
                                        0xff6 (size before relaxing)
 .debug_str     0x00000000000029c1      0x7cd ../../../simplelink/gcc/lib/os_PM/Release/libsimplelink.a(driver.o)
                                       0x155b (size before relaxing)
 .debug_str     0x000000000000318e      0x958 ../../../simplelink/gcc/lib/os_PM/Release/libsimplelink.a(netapp.o)
                                       0x14f3 (size before relaxing)
 .debug_str     0x0000000000003ae6      0x5ae ../../../simplelink/gcc/lib/os_PM/Release/libsimplelink.a(socket.o)
                                        0xfc4 (size before relaxing)
 .debug_str     0x0000000000004094      0xce6 ../../../simplelink/gcc/lib/os_PM/Release/libsimplelink.a(wlan.o)
                                       0x1144 (size before relaxing)
 .debug_str     0x0000000000004d7a      0x129 ../../../simplelink/gcc/lib/os_PM/Release/libsimplelink.a(cc_pal_pm.o)
                                        0x3b7 (size before relaxing)
 .debug_str     0x0000000000004ea3      0x458 ../../../middleware/gcc/lib/Release/middleware.a(dma_hal.o)
                                        0x5f5 (size before relaxing)
 .debug_str     0x00000000000052fb      0x227 ../../../middleware/gcc/lib/Release/middleware.a(gpio_hal.o)
                                        0x57b (size before relaxing)
 .debug_str     0x0000000000005522      0x28c ../../../middleware/gcc/lib/Release/middleware.a(hw_timer32.o)
                                        0x65f (size before relaxing)
 .debug_str     0x00000000000057ae       0x71 ../../../middleware/gcc/lib/Release/middleware.a(interrupt_hal.o)
                                        0x209 (size before relaxing)
 .debug_str     0x000000000000581f      0x315 ../../../middleware/gcc/lib/Release/middleware.a(rtc_hal.o)
                                        0x6ec (size before relaxing)
 .debug_str     0x0000000000005b34       0xc7 ../../../middleware/gcc/lib/Release/middleware.a(util64.o)
                                        0x241 (size before relaxing)
 .debug_str     0x0000000000005bfb      0x45f ../../../middleware/gcc/lib/Release/middleware.a(spi_drv.o)
                                        0xd7e (size before relaxing)
 .debug_str     0x000000000000605a      0x2f2 ../../../middleware/gcc/lib/Release/middleware.a(uart_drv.o)
                                        0xc52 (size before relaxing)
 .debug_str     0x000000000000634c      0x1eb ../../../middleware/gcc/lib/Release/middleware.a(cc_pm.o)
                                        0x61a (size before relaxing)
 .debug_str     0x0000000000006537      0x3e0 ../../../middleware/gcc/lib/Release/middleware.a(cc_timer.o)
                                        0x7d0 (size before relaxing)
 .debug_str     0x0000000000006917       0x77 ../../../middleware/gcc/lib/Release/middleware.a(cc_io_park.o)
                                        0x254 (size before relaxing)
 .debug_str     0x000000000000698e      0x3de ../../../middleware/gcc/lib/Release/middleware.a(cc_pm_ops.o)
                                        0x6c3 (size before relaxing)
 .debug_str     0x0000000000006d6c      0x131 ../../../middleware/gcc/lib/Release/middleware.a(spi_hal.o)
                                        0x73a (size before relaxing)
 .debug_str     0x0000000000006e9d      0x164 ../../../middleware/gcc/lib/Release/middleware.a(uart_hal.o)
                                        0x681 (size before relaxing)
 .debug_str     0x0000000000007001      0x3aa ../../../oslib/gcc/free_rtos/Release/free_rtos.a(osi_freertos.o)
                                        0x759 (size before relaxing)
 .debug_str     0x00000000000073ab      0x6ff ../../../oslib/gcc/free_rtos/Release/free_rtos.a(queue.o)
                                        0x9e9 (size before relaxing)
 .debug_str     0x0000000000007aaa      0xb5c ../../../oslib/gcc/free_rtos/Release/free_rtos.a(tasks.o)
                                       0x10b4 (size before relaxing)
 .debug_str     0x0000000000008606      0x18a ../../../oslib/gcc/free_rtos/Release/free_rtos.a(port.o)
                                        0x40b (size before relaxing)
 .debug_str     0x0000000000008790      0x4b1 ../../../oslib/gcc/free_rtos/Release/free_rtos.a(timers.o)
                                        0x8df (size before relaxing)
 .debug_str     0x0000000000008c41       0x4f ../../../oslib/gcc/free_rtos/Release/free_rtos.a(heap_3.o)
                                        0x1e0 (size before relaxing)
 .debug_str     0x0000000000008c90       0x6a ../../../oslib/gcc/free_rtos/Release/free_rtos.a(list.o)
                                        0x2a5 (size before relaxing)
 .debug_str     0x0000000000008cfa      0x1ad ../../../driverlib/gcc/lib/Release/libdriver.a(interrupt.o)
                                        0x2c4 (size before relaxing)
 .debug_str     0x0000000000008ea7       0xd9 ../../../driverlib/gcc/lib/Release/libdriver.a(pin.o)
                                        0x1cb (size before relaxing)
 .debug_str     0x0000000000008f80      0x435 ../../../driverlib/gcc/lib/Release/libdriver.a(prcm.o)
                                        0x778 (size before relaxing)
 .debug_str     0x00000000000093b5      0x2b0 ../../../driverlib/gcc/lib/Release/libdriver.a(spi.o)
                                        0x42f (size before relaxing)
 .debug_str     0x0000000000009665      0x198 ../../../driverlib/gcc/lib/Release/libdriver.a(timer.o)
                                        0x2de (size before relaxing)
 .debug_str     0x00000000000097fd        0xb ../../../driverlib/gcc/lib/Release/libdriver.a(utils.o)
                                         0xcb (size before relaxing)
 .debug_str     0x0000000000009808      0x168 ../../../driverlib/gcc/lib/Release/libdriver.a(flash.o)
                                        0x2b3 (size before relaxing)
 .debug_str     0x0000000000009970      0x40e /usr/lib/gcc/arm-none-eabi/5.2.0/../../../../arm-none-eabi/lib/armv7e-m/libc_nano.a(lib_a-malloc.o)
                                        0x52b (size before relaxing)
 .debug_str     0x0000000000009d7e       0x88 /usr/lib/gcc/arm-none-eabi/5.2.0/../../../../arm-none-eabi/lib/armv7e-m/libc_nano.a(lib_a-memcmp.o)
                                        0x1ae (size before relaxing)
 .debug_str     0x0000000000009e06       0x3d /usr/lib/gcc/arm-none-eabi/5.2.0/../../../../arm-none-eabi/lib/armv7e-m/libc_nano.a(lib_a-memcpy.o)
                                        0x1c2 (size before relaxing)
 .debug_str     0x0000000000009e43       0x2e /usr/lib/gcc/arm-none-eabi/5.2.0/../../../../arm-none-eabi/lib/armv7e-m/libc_nano.a(lib_a-memset.o)
                                        0x1ae (size before relaxing)
 .debug_str     0x0000000000009e71       0x90 /usr/lib/gcc/arm-none-eabi/5.2.0/../../../../arm-none-eabi/lib/armv7e-m/libc_nano.a(lib_a-nano-freer.o)
                                        0x56f (size before relaxing)
 .debug_str     0x0000000000009f01       0x46 /usr/lib/gcc/arm-none-eabi/5.2.0/../../../../arm-none-eabi/lib/armv7e-m/libc_nano.a(lib_a-nano-mallocr.o)
                                        0x59a (size before relaxing)
 .debug_str     0x0000000000009f47       0x8f /usr/lib/gcc/arm-none-eabi/5.2.0/../../../../arm-none-eabi/lib/armv7e-m/libc_nano.a(lib_a-sbrkr.o)
                                        0x50e (size before relaxing)
 .debug_str     0x0000000000009fd6       0xbf /usr/lib/gcc/arm-none-eabi/5.2.0/../../../../arm-none-eabi/lib/armv7e-m/libc_nano.a(lib_a-snprintf.o)
                                        0x553 (size before relaxing)
 .debug_str     0x000000000000a095       0x39 /usr/lib/gcc/arm-none-eabi/5.2.0/../../../../arm-none-eabi/lib/armv7e-m/libc_nano.a(lib_a-sprintf.o)
                                        0x544 (size before relaxing)
 .debug_str     0x000000000000a0ce       0x9d /usr/lib/gcc/arm-none-eabi/5.2.0/../../../../arm-none-eabi/lib/armv7e-m/libc_nano.a(lib_a-strlen.o)
                                        0x1c3 (size before relaxing)
 .debug_str     0x000000000000a16b       0x8b /usr/lib/gcc/arm-none-eabi/5.2.0/../../../../arm-none-eabi/lib/armv7e-m/libc_nano.a(lib_a-impure.o)
                                        0x556 (size before relaxing)
 .debug_str     0x000000000000a1f6      0x1a2 /usr/lib/gcc/arm-none-eabi/5.2.0/../../../../arm-none-eabi/lib/armv7e-m/libc_nano.a(lib_a-nano-svfprintf.o)
                                        0x677 (size before relaxing)
 .debug_str     0x000000000000a398       0x8e /usr/lib/gcc/arm-none-eabi/5.2.0/../../../../arm-none-eabi/lib/armv7e-m/libc_nano.a(lib_a-nano-vfprintf_i.o)
                                        0x616 (size before relaxing)
 .debug_str     0x000000000000a426       0x58 /usr/lib/gcc/arm-none-eabi/5.2.0/../../../../arm-none-eabi/lib/armv7e-m/libc_nano.a(lib_a-reent.o)
                                        0x536 (size before relaxing)
 .debug_str     0x000000000000a47e       0x37 /usr/lib/gcc/arm-none-eabi/5.2.0/../../../../arm-none-eabi/lib/armv7e-m/libc_nano.a(lib_a-memchr.o)
                                        0x1be (size before relaxing)
 .debug_str     0x000000000000a4b5       0x38 /usr/lib/gcc/arm-none-eabi/5.2.0/../../../../arm-none-eabi/lib/armv7e-m/libc_nano.a(lib_a-memmove.o)
                                        0x1c9 (size before relaxing)
 .debug_str     0x000000000000a4ed       0x23 /usr/lib/gcc/arm-none-eabi/5.2.0/../../../../arm-none-eabi/lib/armv7e-m/libc_nano.a(lib_a-nano-reallocr.o)
                                        0x577 (size before relaxing)
 .debug_str     0x000000000000a510        0xf /usr/lib/gcc/arm-none-eabi/5.2.0/../../../../arm-none-eabi/lib/armv7e-m/libc_nano.a(lib_a-nano-msizer.o)
                                        0x555 (size before relaxing)
 .debug_str     0x000000000000a51f      0x18a /usr/lib/gcc/arm-none-eabi/5.2.0/armv7e-m/libgcc.a(_udivmoddi4.o)
                                        0x243 (size before relaxing)

.comment        0x0000000000000000       0x42
 .comment       0x0000000000000000       0x21 obj/Release/main.o
                                         0x22 (size before relaxing)
 .comment       0x0000000000000000       0x22 obj/Release/pinmux.o
 .comment       0x0000000000000000       0x22 obj/Release/lp3p0_board.o
 .comment       0x0000000000000000       0x22 obj/Release/lp3p0_plat_ops.o
 .comment       0x0000000000000000       0x22 obj/Release/wdt_if.o
 .comment       0x0000000000000000       0x22 obj/Release/utils_if.o
 .comment       0x0000000000000000       0x22 obj/Release/startup_gcc.o
 .comment       0x0000000000000000       0x22 ../../../simplelink/gcc/lib/os_PM/Release/libsimplelink.a(device.o)
 .comment       0x0000000000000000       0x22 ../../../simplelink/gcc/lib/os_PM/Release/libsimplelink.a(driver.o)
 .comment       0x0000000000000000       0x22 ../../../simplelink/gcc/lib/os_PM/Release/libsimplelink.a(netapp.o)
 .comment       0x0000000000000000       0x22 ../../../simplelink/gcc/lib/os_PM/Release/libsimplelink.a(socket.o)
 .comment       0x0000000000000000       0x22 ../../../simplelink/gcc/lib/os_PM/Release/libsimplelink.a(wlan.o)
 .comment       0x0000000000000000       0x22 ../../../simplelink/gcc/lib/os_PM/Release/libsimplelink.a(cc_pal_pm.o)
 .comment       0x0000000000000000       0x22 ../../../middleware/gcc/lib/Release/middleware.a(dma_hal.o)
 .comment       0x0000000000000000       0x22 ../../../middleware/gcc/lib/Release/middleware.a(gpio_hal.o)
 .comment       0x0000000000000000       0x22 ../../../middleware/gcc/lib/Release/middleware.a(hw_timer32.o)
 .comment       0x0000000000000000       0x22 ../../../middleware/gcc/lib/Release/middleware.a(interrupt_hal.o)
 .comment       0x0000000000000000       0x22 ../../../middleware/gcc/lib/Release/middleware.a(rtc_hal.o)
 .comment       0x0000000000000000       0x22 ../../../middleware/gcc/lib/Release/middleware.a(util64.o)
 .comment       0x0000000000000000       0x22 ../../../middleware/gcc/lib/Release/middleware.a(spi_drv.o)
 .comment       0x0000000000000000       0x22 ../../../middleware/gcc/lib/Release/middleware.a(uart_drv.o)
 .comment       0x0000000000000000       0x22 ../../../middleware/gcc/lib/Release/middleware.a(cc_pm.o)
 .comment       0x0000000000000000       0x22 ../../../middleware/gcc/lib/Release/middleware.a(cc_timer.o)
 .comment       0x0000000000000000       0x22 ../../../middleware/gcc/lib/Release/middleware.a(cc_io_park.o)
 .comment       0x0000000000000000       0x22 ../../../middleware/gcc/lib/Release/middleware.a(cc_pm_ops.o)
 .comment       0x0000000000000000       0x22 ../../../middleware/gcc/lib/Release/middleware.a(spi_hal.o)
 .comment       0x0000000000000000       0x22 ../../../middleware/gcc/lib/Release/middleware.a(uart_hal.o)
 .comment       0x0000000000000000       0x22 ../../../oslib/gcc/free_rtos/Release/free_rtos.a(osi_freertos.o)
 .comment       0x0000000000000000       0x22 ../../../oslib/gcc/free_rtos/Release/free_rtos.a(queue.o)
 .comment       0x0000000000000000       0x22 ../../../oslib/gcc/free_rtos/Release/free_rtos.a(tasks.o)
 .comment       0x0000000000000000       0x22 ../../../oslib/gcc/free_rtos/Release/free_rtos.a(port.o)
 .comment       0x0000000000000000       0x22 ../../../oslib/gcc/free_rtos/Release/free_rtos.a(timers.o)
 .comment       0x0000000000000000       0x22 ../../../oslib/gcc/free_rtos/Release/free_rtos.a(heap_3.o)
 .comment       0x0000000000000000       0x22 ../../../oslib/gcc/free_rtos/Release/free_rtos.a(list.o)
 .comment       0x0000000000000000       0x22 ../../../driverlib/gcc/lib/Release/libdriver.a(interrupt.o)
 .comment       0x0000000000000000       0x22 ../../../driverlib/gcc/lib/Release/libdriver.a(pin.o)
 .comment       0x0000000000000000       0x22 ../../../driverlib/gcc/lib/Release/libdriver.a(prcm.o)
 .comment       0x0000000000000000       0x22 ../../../driverlib/gcc/lib/Release/libdriver.a(spi.o)
 .comment       0x0000000000000000       0x22 ../../../driverlib/gcc/lib/Release/libdriver.a(timer.o)
 .comment       0x0000000000000000       0x22 ../../../driverlib/gcc/lib/Release/libdriver.a(utils.o)
 .comment       0x0000000000000000       0x22 ../../../driverlib/gcc/lib/Release/libdriver.a(flash.o)
 .comment       0x0000000000000021       0x21 /usr/lib/gcc/arm-none-eabi/5.2.0/../../../../arm-none-eabi/lib/armv7e-m/libc_nano.a(lib_a-malloc.o)
                                         0x22 (size before relaxing)
 .comment       0x0000000000000000       0x22 /usr/lib/gcc/arm-none-eabi/5.2.0/../../../../arm-none-eabi/lib/armv7e-m/libc_nano.a(lib_a-memcmp.o)
 .comment       0x0000000000000000       0x22 /usr/lib/gcc/arm-none-eabi/5.2.0/../../../../arm-none-eabi/lib/armv7e-m/libc_nano.a(lib_a-memcpy.o)
 .comment       0x0000000000000000       0x22 /usr/lib/gcc/arm-none-eabi/5.2.0/../../../../arm-none-eabi/lib/armv7e-m/libc_nano.a(lib_a-memset.o)
 .comment       0x0000000000000000       0x22 /usr/lib/gcc/arm-none-eabi/5.2.0/../../../../arm-none-eabi/lib/armv7e-m/libc_nano.a(lib_a-nano-freer.o)
 .comment       0x0000000000000000       0x22 /usr/lib/gcc/arm-none-eabi/5.2.0/../../../../arm-none-eabi/lib/armv7e-m/libc_nano.a(lib_a-nano-mallocr.o)
 .comment       0x0000000000000000       0x22 /usr/lib/gcc/arm-none-eabi/5.2.0/../../../../arm-none-eabi/lib/armv7e-m/libc_nano.a(lib_a-sbrkr.o)
 .comment       0x0000000000000000       0x22 /usr/lib/gcc/arm-none-eabi/5.2.0/../../../../arm-none-eabi/lib/armv7e-m/libc_nano.a(lib_a-snprintf.o)
 .comment       0x0000000000000000       0x22 /usr/lib/gcc/arm-none-eabi/5.2.0/../../../../arm-none-eabi/lib/armv7e-m/libc_nano.a(lib_a-sprintf.o)
 .comment       0x0000000000000000       0x22 /usr/lib/gcc/arm-none-eabi/5.2.0/../../../../arm-none-eabi/lib/armv7e-m/libc_nano.a(lib_a-strlen.o)
 .comment       0x0000000000000000       0x22 /usr/lib/gcc/arm-none-eabi/5.2.0/../../../../arm-none-eabi/lib/armv7e-m/libc_nano.a(lib_a-impure.o)
 .comment       0x0000000000000000       0x22 /usr/lib/gcc/arm-none-eabi/5.2.0/../../../../arm-none-eabi/lib/armv7e-m/libc_nano.a(lib_a-nano-svfprintf.o)
 .comment       0x0000000000000000       0x22 /usr/lib/gcc/arm-none-eabi/5.2.0/../../../../arm-none-eabi/lib/armv7e-m/libc_nano.a(lib_a-nano-vfprintf_i.o)
 .comment       0x0000000000000000       0x22 /usr/lib/gcc/arm-none-eabi/5.2.0/../../../../arm-none-eabi/lib/armv7e-m/libc_nano.a(lib_a-reent.o)
 .comment       0x0000000000000000       0x22 /usr/lib/gcc/arm-none-eabi/5.2.0/../../../../arm-none-eabi/lib/armv7e-m/libc_nano.a(lib_a-memchr.o)
 .comment       0x0000000000000000       0x22 /usr/lib/gcc/arm-none-eabi/5.2.0/../../../../arm-none-eabi/lib/armv7e-m/libc_nano.a(lib_a-memmove.o)
 .comment       0x0000000000000000       0x22 /usr/lib/gcc/arm-none-eabi/5.2.0/../../../../arm-none-eabi/lib/armv7e-m/libc_nano.a(lib_a-nano-reallocr.o)
 .comment       0x0000000000000000       0x22 /usr/lib/gcc/arm-none-eabi/5.2.0/../../../../arm-none-eabi/lib/armv7e-m/libc_nano.a(lib_a-nano-msizer.o)
 .comment       0x0000000000000000       0x22 /usr/lib/gcc/arm-none-eabi/5.2.0/armv7e-m/libgcc.a(_udivmoddi4.o)

.ARM.attributes
                0x0000000000000000       0x33
 .ARM.attributes
                0x0000000000000000       0x33 obj/Release/main.o
 .ARM.attributes
                0x0000000000000033       0x33 obj/Release/pinmux.o
 .ARM.attributes
                0x0000000000000066       0x33 obj/Release/lp3p0_board.o
 .ARM.attributes
                0x0000000000000099       0x33 obj/Release/lp3p0_plat_ops.o
 .ARM.attributes
                0x00000000000000cc       0x33 obj/Release/wdt_if.o
 .ARM.attributes
                0x00000000000000ff       0x33 obj/Release/utils_if.o
 .ARM.attributes
                0x0000000000000132       0x33 obj/Release/startup_gcc.o
 .ARM.attributes
                0x0000000000000165       0x33 ../../../simplelink/gcc/lib/os_PM/Release/libsimplelink.a(device.o)
 .ARM.attributes
                0x0000000000000198       0x33 ../../../simplelink/gcc/lib/os_PM/Release/libsimplelink.a(driver.o)
 .ARM.attributes
                0x00000000000001cb       0x33 ../../../simplelink/gcc/lib/os_PM/Release/libsimplelink.a(netapp.o)
 .ARM.attributes
                0x00000000000001fe       0x33 ../../../simplelink/gcc/lib/os_PM/Release/libsimplelink.a(socket.o)
 .ARM.attributes
                0x0000000000000231       0x33 ../../../simplelink/gcc/lib/os_PM/Release/libsimplelink.a(wlan.o)
 .ARM.attributes
                0x0000000000000264       0x33 ../../../simplelink/gcc/lib/os_PM/Release/libsimplelink.a(cc_pal_pm.o)
 .ARM.attributes
                0x0000000000000297       0x33 ../../../middleware/gcc/lib/Release/middleware.a(dma_hal.o)
 .ARM.attributes
                0x00000000000002ca       0x33 ../../../middleware/gcc/lib/Release/middleware.a(gpio_hal.o)
 .ARM.attributes
                0x00000000000002fd       0x33 ../../../middleware/gcc/lib/Release/middleware.a(hw_timer32.o)
 .ARM.attributes
                0x0000000000000330       0x33 ../../../middleware/gcc/lib/Release/middleware.a(interrupt_hal.o)
 .ARM.attributes
                0x0000000000000363       0x33 ../../../middleware/gcc/lib/Release/middleware.a(rtc_hal.o)
 .ARM.attributes
                0x0000000000000396       0x33 ../../../middleware/gcc/lib/Release/middleware.a(util64.o)
 .ARM.attributes
                0x00000000000003c9       0x33 ../../../middleware/gcc/lib/Release/middleware.a(spi_drv.o)
 .ARM.attributes
                0x00000000000003fc       0x33 ../../../middleware/gcc/lib/Release/middleware.a(uart_drv.o)
 .ARM.attributes
                0x000000000000042f       0x33 ../../../middleware/gcc/lib/Release/middleware.a(cc_pm.o)
 .ARM.attributes
                0x0000000000000462       0x33 ../../../middleware/gcc/lib/Release/middleware.a(cc_timer.o)
 .ARM.attributes
                0x0000000000000495       0x33 ../../../middleware/gcc/lib/Release/middleware.a(cc_io_park.o)
 .ARM.attributes
                0x00000000000004c8       0x33 ../../../middleware/gcc/lib/Release/middleware.a(cc_pm_ops.o)
 .ARM.attributes
                0x00000000000004fb       0x33 ../../../middleware/gcc/lib/Release/middleware.a(spi_hal.o)
 .ARM.attributes
                0x000000000000052e       0x33 ../../../middleware/gcc/lib/Release/middleware.a(uart_hal.o)
 .ARM.attributes
                0x0000000000000561       0x33 ../../../oslib/gcc/free_rtos/Release/free_rtos.a(osi_freertos.o)
 .ARM.attributes
                0x0000000000000594       0x33 ../../../oslib/gcc/free_rtos/Release/free_rtos.a(queue.o)
 .ARM.attributes
                0x00000000000005c7       0x33 ../../../oslib/gcc/free_rtos/Release/free_rtos.a(tasks.o)
 .ARM.attributes
                0x00000000000005fa       0x33 ../../../oslib/gcc/free_rtos/Release/free_rtos.a(port.o)
 .ARM.attributes
                0x000000000000062d       0x33 ../../../oslib/gcc/free_rtos/Release/free_rtos.a(timers.o)
 .ARM.attributes
                0x0000000000000660       0x33 ../../../oslib/gcc/free_rtos/Release/free_rtos.a(heap_3.o)
 .ARM.attributes
                0x0000000000000693       0x33 ../../../oslib/gcc/free_rtos/Release/free_rtos.a(list.o)
 .ARM.attributes
                0x00000000000006c6       0x33 ../../../driverlib/gcc/lib/Release/libdriver.a(interrupt.o)
 .ARM.attributes
                0x00000000000006f9       0x33 ../../../driverlib/gcc/lib/Release/libdriver.a(pin.o)
 .ARM.attributes
                0x000000000000072c       0x33 ../../../driverlib/gcc/lib/Release/libdriver.a(prcm.o)
 .ARM.attributes
                0x000000000000075f       0x33 ../../../driverlib/gcc/lib/Release/libdriver.a(spi.o)
 .ARM.attributes
                0x0000000000000792       0x33 ../../../driverlib/gcc/lib/Release/libdriver.a(timer.o)
 .ARM.attributes
                0x00000000000007c5       0x33 ../../../driverlib/gcc/lib/Release/libdriver.a(utils.o)
 .ARM.attributes
                0x00000000000007f8       0x33 ../../../driverlib/gcc/lib/Release/libdriver.a(flash.o)
 .ARM.attributes
                0x000000000000082b       0x2e /usr/lib/gcc/arm-none-eabi/5.2.0/../../../../arm-none-eabi/lib/armv7e-m/libc_nano.a(lib_a-malloc.o)
 .ARM.attributes
                0x0000000000000859       0x2e /usr/lib/gcc/arm-none-eabi/5.2.0/../../../../arm-none-eabi/lib/armv7e-m/libc_nano.a(lib_a-memcmp.o)
 .ARM.attributes
                0x0000000000000887       0x2e /usr/lib/gcc/arm-none-eabi/5.2.0/../../../../arm-none-eabi/lib/armv7e-m/libc_nano.a(lib_a-memcpy.o)
 .ARM.attributes
                0x00000000000008b5       0x2e /usr/lib/gcc/arm-none-eabi/5.2.0/../../../../arm-none-eabi/lib/armv7e-m/libc_nano.a(lib_a-memset.o)
 .ARM.attributes
                0x00000000000008e3       0x2e /usr/lib/gcc/arm-none-eabi/5.2.0/../../../../arm-none-eabi/lib/armv7e-m/libc_nano.a(lib_a-nano-freer.o)
 .ARM.attributes
                0x0000000000000911       0x2e /usr/lib/gcc/arm-none-eabi/5.2.0/../../../../arm-none-eabi/lib/armv7e-m/libc_nano.a(lib_a-nano-mallocr.o)
 .ARM.attributes
                0x000000000000093f       0x2e /usr/lib/gcc/arm-none-eabi/5.2.0/../../../../arm-none-eabi/lib/armv7e-m/libc_nano.a(lib_a-sbrkr.o)
 .ARM.attributes
                0x000000000000096d       0x2e /usr/lib/gcc/arm-none-eabi/5.2.0/../../../../arm-none-eabi/lib/armv7e-m/libc_nano.a(lib_a-snprintf.o)
 .ARM.attributes
                0x000000000000099b       0x2e /usr/lib/gcc/arm-none-eabi/5.2.0/../../../../arm-none-eabi/lib/armv7e-m/libc_nano.a(lib_a-sprintf.o)
 .ARM.attributes
                0x00000000000009c9       0x2e /usr/lib/gcc/arm-none-eabi/5.2.0/../../../../arm-none-eabi/lib/armv7e-m/libc_nano.a(lib_a-strlen.o)
 .ARM.attributes
                0x00000000000009f7       0x2e /usr/lib/gcc/arm-none-eabi/5.2.0/../../../../arm-none-eabi/lib/armv7e-m/libc_nano.a(lib_a-impure.o)
 .ARM.attributes
                0x0000000000000a25       0x2e /usr/lib/gcc/arm-none-eabi/5.2.0/../../../../arm-none-eabi/lib/armv7e-m/libc_nano.a(lib_a-nano-svfprintf.o)
 .ARM.attributes
                0x0000000000000a53       0x2e /usr/lib/gcc/arm-none-eabi/5.2.0/../../../../arm-none-eabi/lib/armv7e-m/libc_nano.a(lib_a-nano-vfprintf_i.o)
 .ARM.attributes
                0x0000000000000a81       0x2e /usr/lib/gcc/arm-none-eabi/5.2.0/../../../../arm-none-eabi/lib/armv7e-m/libc_nano.a(lib_a-reent.o)
 .ARM.attributes
                0x0000000000000aaf       0x2e /usr/lib/gcc/arm-none-eabi/5.2.0/../../../../arm-none-eabi/lib/armv7e-m/libc_nano.a(lib_a-memchr.o)
 .ARM.attributes
                0x0000000000000add       0x2e /usr/lib/gcc/arm-none-eabi/5.2.0/../../../../arm-none-eabi/lib/armv7e-m/libc_nano.a(lib_a-memmove.o)
 .ARM.attributes
                0x0000000000000b0b       0x2e /usr/lib/gcc/arm-none-eabi/5.2.0/../../../../arm-none-eabi/lib/armv7e-m/libc_nano.a(lib_a-nano-reallocr.o)
 .ARM.attributes
                0x0000000000000b39       0x2e /usr/lib/gcc/arm-none-eabi/5.2.0/../../../../arm-none-eabi/lib/armv7e-m/libc_nano.a(lib_a-nano-msizer.o)
 .ARM.attributes
                0x0000000000000b67       0x1e /usr/lib/gcc/arm-none-eabi/5.2.0/armv7e-m/libgcc.a(_aeabi_uldivmod.o)
 .ARM.attributes
                0x0000000000000b85       0x2e /usr/lib/gcc/arm-none-eabi/5.2.0/armv7e-m/libgcc.a(_udivmoddi4.o)
 .ARM.attributes
                0x0000000000000bb3       0x1e /usr/lib/gcc/arm-none-eabi/5.2.0/armv7e-m/libgcc.a(_dvmd_tls.o)

.debug_frame    0x0000000000000000     0x45e8
 .debug_frame   0x0000000000000000      0x224 obj/Release/main.o
 .debug_frame   0x0000000000000224       0x34 obj/Release/pinmux.o
 .debug_frame   0x0000000000000258       0xc0 obj/Release/lp3p0_board.o
 .debug_frame   0x0000000000000318       0x90 obj/Release/lp3p0_plat_ops.o
 .debug_frame   0x00000000000003a8       0x50 obj/Release/wdt_if.o
 .debug_frame   0x00000000000003f8       0x4c obj/Release/utils_if.o
 .debug_frame   0x0000000000000444       0x78 obj/Release/startup_gcc.o
 .debug_frame   0x00000000000004bc      0x148 ../../../simplelink/gcc/lib/os_PM/Release/libsimplelink.a(device.o)
 .debug_frame   0x0000000000000604      0x3cc ../../../simplelink/gcc/lib/os_PM/Release/libsimplelink.a(driver.o)
 .debug_frame   0x00000000000009d0      0x230 ../../../simplelink/gcc/lib/os_PM/Release/libsimplelink.a(netapp.o)
 .debug_frame   0x0000000000000c00      0x2bc ../../../simplelink/gcc/lib/os_PM/Release/libsimplelink.a(socket.o)
 .debug_frame   0x0000000000000ebc      0x260 ../../../simplelink/gcc/lib/os_PM/Release/libsimplelink.a(wlan.o)
 .debug_frame   0x000000000000111c      0x17c ../../../simplelink/gcc/lib/os_PM/Release/libsimplelink.a(cc_pal_pm.o)
 .debug_frame   0x0000000000001298      0x174 ../../../middleware/gcc/lib/Release/middleware.a(dma_hal.o)
 .debug_frame   0x000000000000140c      0x200 ../../../middleware/gcc/lib/Release/middleware.a(gpio_hal.o)
 .debug_frame   0x000000000000160c      0x178 ../../../middleware/gcc/lib/Release/middleware.a(hw_timer32.o)
 .debug_frame   0x0000000000001784       0x54 ../../../middleware/gcc/lib/Release/middleware.a(interrupt_hal.o)
 .debug_frame   0x00000000000017d8      0x2cc ../../../middleware/gcc/lib/Release/middleware.a(rtc_hal.o)
 .debug_frame   0x0000000000001aa4       0xb4 ../../../middleware/gcc/lib/Release/middleware.a(util64.o)
 .debug_frame   0x0000000000001b58      0x194 ../../../middleware/gcc/lib/Release/middleware.a(spi_drv.o)
 .debug_frame   0x0000000000001cec      0x138 ../../../middleware/gcc/lib/Release/middleware.a(uart_drv.o)
 .debug_frame   0x0000000000001e24      0x19c ../../../middleware/gcc/lib/Release/middleware.a(cc_pm.o)
 .debug_frame   0x0000000000001fc0      0x178 ../../../middleware/gcc/lib/Release/middleware.a(cc_timer.o)
 .debug_frame   0x0000000000002138       0x58 ../../../middleware/gcc/lib/Release/middleware.a(cc_io_park.o)
 .debug_frame   0x0000000000002190      0x178 ../../../middleware/gcc/lib/Release/middleware.a(cc_pm_ops.o)
 .debug_frame   0x0000000000002308      0x128 ../../../middleware/gcc/lib/Release/middleware.a(spi_hal.o)
 .debug_frame   0x0000000000002430       0xf4 ../../../middleware/gcc/lib/Release/middleware.a(uart_hal.o)
 .debug_frame   0x0000000000002524      0x2f4 ../../../oslib/gcc/free_rtos/Release/free_rtos.a(osi_freertos.o)
 .debug_frame   0x0000000000002818      0x360 ../../../oslib/gcc/free_rtos/Release/free_rtos.a(queue.o)
 .debug_frame   0x0000000000002b78      0x634 ../../../oslib/gcc/free_rtos/Release/free_rtos.a(tasks.o)
 .debug_frame   0x00000000000031ac      0x14c ../../../oslib/gcc/free_rtos/Release/free_rtos.a(port.o)
 .debug_frame   0x00000000000032f8      0x1b0 ../../../oslib/gcc/free_rtos/Release/free_rtos.a(timers.o)
 .debug_frame   0x00000000000034a8       0x48 ../../../oslib/gcc/free_rtos/Release/free_rtos.a(heap_3.o)
 .debug_frame   0x00000000000034f0       0x6c ../../../oslib/gcc/free_rtos/Release/free_rtos.a(list.o)
 .debug_frame   0x000000000000355c      0x128 ../../../driverlib/gcc/lib/Release/libdriver.a(interrupt.o)
 .debug_frame   0x0000000000003684      0x14c ../../../driverlib/gcc/lib/Release/libdriver.a(pin.o)
 .debug_frame   0x00000000000037d0      0x48c ../../../driverlib/gcc/lib/Release/libdriver.a(prcm.o)
 .debug_frame   0x0000000000003c5c      0x1f8 ../../../driverlib/gcc/lib/Release/libdriver.a(spi.o)
 .debug_frame   0x0000000000003e54      0x1c0 ../../../driverlib/gcc/lib/Release/libdriver.a(timer.o)
 .debug_frame   0x0000000000004014       0x20 ../../../driverlib/gcc/lib/Release/libdriver.a(utils.o)
 .debug_frame   0x0000000000004034      0x134 ../../../driverlib/gcc/lib/Release/libdriver.a(flash.o)
 .debug_frame   0x0000000000004168       0x30 /usr/lib/gcc/arm-none-eabi/5.2.0/../../../../arm-none-eabi/lib/armv7e-m/libc_nano.a(lib_a-malloc.o)
 .debug_frame   0x0000000000004198       0x28 /usr/lib/gcc/arm-none-eabi/5.2.0/../../../../arm-none-eabi/lib/armv7e-m/libc_nano.a(lib_a-memcmp.o)
 .debug_frame   0x00000000000041c0       0x28 /usr/lib/gcc/arm-none-eabi/5.2.0/../../../../arm-none-eabi/lib/armv7e-m/libc_nano.a(lib_a-memcpy.o)
 .debug_frame   0x00000000000041e8       0x20 /usr/lib/gcc/arm-none-eabi/5.2.0/../../../../arm-none-eabi/lib/armv7e-m/libc_nano.a(lib_a-memset.o)
 .debug_frame   0x0000000000004208       0x2c /usr/lib/gcc/arm-none-eabi/5.2.0/../../../../arm-none-eabi/lib/armv7e-m/libc_nano.a(lib_a-nano-freer.o)
 .debug_frame   0x0000000000004234       0x2c /usr/lib/gcc/arm-none-eabi/5.2.0/../../../../arm-none-eabi/lib/armv7e-m/libc_nano.a(lib_a-nano-mallocr.o)
 .debug_frame   0x0000000000004260       0x2c /usr/lib/gcc/arm-none-eabi/5.2.0/../../../../arm-none-eabi/lib/armv7e-m/libc_nano.a(lib_a-sbrkr.o)
 .debug_frame   0x000000000000428c       0x74 /usr/lib/gcc/arm-none-eabi/5.2.0/../../../../arm-none-eabi/lib/armv7e-m/libc_nano.a(lib_a-snprintf.o)
 .debug_frame   0x0000000000004300       0x70 /usr/lib/gcc/arm-none-eabi/5.2.0/../../../../arm-none-eabi/lib/armv7e-m/libc_nano.a(lib_a-sprintf.o)
 .debug_frame   0x0000000000004370       0x20 /usr/lib/gcc/arm-none-eabi/5.2.0/../../../../arm-none-eabi/lib/armv7e-m/libc_nano.a(lib_a-strlen.o)
 .debug_frame   0x0000000000004390       0x90 /usr/lib/gcc/arm-none-eabi/5.2.0/../../../../arm-none-eabi/lib/armv7e-m/libc_nano.a(lib_a-nano-svfprintf.o)
 .debug_frame   0x0000000000004420       0x60 /usr/lib/gcc/arm-none-eabi/5.2.0/../../../../arm-none-eabi/lib/armv7e-m/libc_nano.a(lib_a-nano-vfprintf_i.o)
 .debug_frame   0x0000000000004480       0x5c /usr/lib/gcc/arm-none-eabi/5.2.0/../../../../arm-none-eabi/lib/armv7e-m/libc_nano.a(lib_a-reent.o)
 .debug_frame   0x00000000000044dc       0x28 /usr/lib/gcc/arm-none-eabi/5.2.0/../../../../arm-none-eabi/lib/armv7e-m/libc_nano.a(lib_a-memchr.o)
 .debug_frame   0x0000000000004504       0x28 /usr/lib/gcc/arm-none-eabi/5.2.0/../../../../arm-none-eabi/lib/armv7e-m/libc_nano.a(lib_a-memmove.o)
 .debug_frame   0x000000000000452c       0x3c /usr/lib/gcc/arm-none-eabi/5.2.0/../../../../arm-none-eabi/lib/armv7e-m/libc_nano.a(lib_a-nano-reallocr.o)
 .debug_frame   0x0000000000004568       0x20 /usr/lib/gcc/arm-none-eabi/5.2.0/../../../../arm-none-eabi/lib/armv7e-m/libc_nano.a(lib_a-nano-msizer.o)
 .debug_frame   0x0000000000004588       0x2c /usr/lib/gcc/arm-none-eabi/5.2.0/armv7e-m/libgcc.a(_aeabi_uldivmod.o)
 .debug_frame   0x00000000000045b4       0x34 /usr/lib/gcc/arm-none-eabi/5.2.0/armv7e-m/libgcc.a(_udivmoddi4.o)
