Archive member included to satisfy reference by file (symbol)

../../../simplelink/gcc/lib/os/Debug/libsimplelink.a(device.o)
                              obj/Unicast/Debug/network.o (sl_Start)
../../../simplelink/gcc/lib/os/Debug/libsimplelink.a(driver.o)
                              ../../../simplelink/gcc/lib/os/Debug/libsimplelink.a(device.o) (g_SlDeviceStatus)
../../../simplelink/gcc/lib/os/Debug/libsimplelink.a(netapp.o)
                              obj/Unicast/Debug/control.o (sl_NetAppMDNSRegisterService)
../../../simplelink/gcc/lib/os/Debug/libsimplelink.a(socket.o)
                              obj/Unicast/Debug/network.o (sl_Socket)
../../../simplelink/gcc/lib/os/Debug/libsimplelink.a(wlan.o)
                              obj/Unicast/Debug/smartconfig.o (sl_WlanPolicySet)
../../../simplelink/gcc/lib/os/Debug/libsimplelink.a(cc_pal.o)
                              ../../../simplelink/gcc/lib/os/Debug/libsimplelink.a(device.o) (spi_Open)
../../../oslib/gcc/free_rtos/Debug/free_rtos.a(osi_freertos.o)
                              obj/Unicast/Debug/control.o (osi_InterruptRegister)
../../../oslib/gcc/free_rtos/Debug/free_rtos.a(queue.o)
                              ../../../oslib/gcc/free_rtos/Debug/free_rtos.a(osi_freertos.o) (xQueueGenericCreate)
../../../oslib/gcc/free_rtos/Debug/free_rtos.a(tasks.o)
                              ../../../oslib/gcc/free_rtos/Debug/free_rtos.a(osi_freertos.o) (xTaskGenericCreate)
../../../oslib/gcc/free_rtos/Debug/free_rtos.a(port.o)
                              ../../../oslib/gcc/free_rtos/Debug/free_rtos.a(tasks.o) (pxPortInitialiseStack)
../../../oslib/gcc/free_rtos/Debug/free_rtos.a(timers.o)
                              ../../../oslib/gcc/free_rtos/Debug/free_rtos.a(tasks.o) (xTimerCreateTimerTask)
../../../oslib/gcc/free_rtos/Debug/free_rtos.a(heap_3.o)
                              ../../../oslib/gcc/free_rtos/Debug/free_rtos.a(osi_freertos.o) (pvPortMalloc)
../../../oslib/gcc/free_rtos/Debug/free_rtos.a(list.o)
                              ../../../oslib/gcc/free_rtos/Debug/free_rtos.a(queue.o) (vListInitialise)
../../../driverlib/gcc/lib/Debug/libdriver.a(gpio.o)
                              obj/Unicast/Debug/pinmux.o (GPIODirModeSet)
../../../driverlib/gcc/lib/Debug/libdriver.a(i2c.o)
                              obj/Unicast/Debug/i2c_if.o (I2CMasterInitExpClk)
../../../driverlib/gcc/lib/Debug/libdriver.a(interrupt.o)
                              obj/Unicast/Debug/main.o (IntMasterEnable)
../../../driverlib/gcc/lib/Debug/libdriver.a(i2s.o)
                              obj/Unicast/Debug/i2s_if.o (I2SEnable)
../../../driverlib/gcc/lib/Debug/libdriver.a(pin.o)
                              obj/Unicast/Debug/pinmux.o (PinTypeUART)
../../../driverlib/gcc/lib/Debug/libdriver.a(prcm.o)
                              obj/Unicast/Debug/pinmux.o (PRCMPeripheralClkEnable)
../../../driverlib/gcc/lib/Debug/libdriver.a(spi.o)
                              ../../../simplelink/gcc/lib/os/Debug/libsimplelink.a(cc_pal.o) (SPIEnable)
../../../driverlib/gcc/lib/Debug/libdriver.a(timer.o)
                              ../../../simplelink/gcc/lib/os/Debug/libsimplelink.a(cc_pal.o) (TimerEnable)
../../../driverlib/gcc/lib/Debug/libdriver.a(uart.o)
                              obj/Unicast/Debug/uart_if.o (UARTConfigSetExpClk)
../../../driverlib/gcc/lib/Debug/libdriver.a(udma.o)
                              obj/Unicast/Debug/udma_if.o (uDMAEnable)
../../../driverlib/gcc/lib/Debug/libdriver.a(utils.o)
                              obj/Unicast/Debug/audiocodec.o (UtilsDelay)
../../../driverlib/gcc/lib/Debug/libdriver.a(cpu.o)
                              ../../../driverlib/gcc/lib/Debug/libdriver.a(interrupt.o) (CPUcpsid)
../../../driverlib/gcc/lib/Debug/libdriver.a(flash.o)
                              ../../../driverlib/gcc/lib/Debug/libdriver.a(prcm.o) (FlashDisable)
/usr/lib/gcc/arm-none-eabi/5.2.0/../../../../arm-none-eabi/lib/armv7e-m/libc_nano.a(lib_a-malloc.o)
                              obj/Unicast/Debug/circ_buff.o (malloc)
/usr/lib/gcc/arm-none-eabi/5.2.0/../../../../arm-none-eabi/lib/armv7e-m/libc_nano.a(lib_a-memcmp.o)
                              ../../../oslib/gcc/free_rtos/Debug/free_rtos.a(tasks.o) (memcmp)
/usr/lib/gcc/arm-none-eabi/5.2.0/../../../../arm-none-eabi/lib/armv7e-m/libc_nano.a(lib_a-memcpy.o)
                              obj/Unicast/Debug/circ_buff.o (memcpy)
/usr/lib/gcc/arm-none-eabi/5.2.0/../../../../arm-none-eabi/lib/armv7e-m/libc_nano.a(lib_a-memmove.o)
                              obj/Unicast/Debug/uart_if.o (memmove)
/usr/lib/gcc/arm-none-eabi/5.2.0/../../../../arm-none-eabi/lib/armv7e-m/libc_nano.a(lib_a-memset.o)
                              obj/Unicast/Debug/circ_buff.o (memset)
/usr/lib/gcc/arm-none-eabi/5.2.0/../../../../arm-none-eabi/lib/armv7e-m/libc_nano.a(lib_a-nano-freer.o)
                              /usr/lib/gcc/arm-none-eabi/5.2.0/../../../../arm-none-eabi/lib/armv7e-m/libc_nano.a(lib_a-malloc.o) (_free_r)
/usr/lib/gcc/arm-none-eabi/5.2.0/../../../../arm-none-eabi/lib/armv7e-m/libc_nano.a(lib_a-nano-mallocr.o)
                              /usr/lib/gcc/arm-none-eabi/5.2.0/../../../../arm-none-eabi/lib/armv7e-m/libc_nano.a(lib_a-malloc.o) (_malloc_r)
/usr/lib/gcc/arm-none-eabi/5.2.0/../../../../arm-none-eabi/lib/armv7e-m/libc_nano.a(lib_a-realloc.o)
                              obj/Unicast/Debug/uart_if.o (realloc)
/usr/lib/gcc/arm-none-eabi/5.2.0/../../../../arm-none-eabi/lib/armv7e-m/libc_nano.a(lib_a-sbrkr.o)
                              /usr/lib/gcc/arm-none-eabi/5.2.0/../../../../arm-none-eabi/lib/armv7e-m/libc_nano.a(lib_a-nano-mallocr.o) (_sbrk_r)
/usr/lib/gcc/arm-none-eabi/5.2.0/../../../../arm-none-eabi/lib/armv7e-m/libc_nano.a(lib_a-sprintf.o)
                              ../../../oslib/gcc/free_rtos/Debug/free_rtos.a(tasks.o) (sprintf)
/usr/lib/gcc/arm-none-eabi/5.2.0/../../../../arm-none-eabi/lib/armv7e-m/libc_nano.a(lib_a-strcpy.o)
                              ../../../oslib/gcc/free_rtos/Debug/free_rtos.a(tasks.o) (strcpy)
/usr/lib/gcc/arm-none-eabi/5.2.0/../../../../arm-none-eabi/lib/armv7e-m/libc_nano.a(lib_a-strlen.o)
                              obj/Unicast/Debug/uart_if.o (strlen)
/usr/lib/gcc/arm-none-eabi/5.2.0/../../../../arm-none-eabi/lib/armv7e-m/libc_nano.a(lib_a-vsnprintf.o)
                              obj/Unicast/Debug/uart_if.o (vsnprintf)
/usr/lib/gcc/arm-none-eabi/5.2.0/../../../../arm-none-eabi/lib/armv7e-m/libc_nano.a(lib_a-impure.o)
                              /usr/lib/gcc/arm-none-eabi/5.2.0/../../../../arm-none-eabi/lib/armv7e-m/libc_nano.a(lib_a-malloc.o) (_impure_ptr)
/usr/lib/gcc/arm-none-eabi/5.2.0/../../../../arm-none-eabi/lib/armv7e-m/libc_nano.a(lib_a-nano-reallocr.o)
                              /usr/lib/gcc/arm-none-eabi/5.2.0/../../../../arm-none-eabi/lib/armv7e-m/libc_nano.a(lib_a-realloc.o) (_realloc_r)
/usr/lib/gcc/arm-none-eabi/5.2.0/../../../../arm-none-eabi/lib/armv7e-m/libc_nano.a(lib_a-nano-svfprintf.o)
                              /usr/lib/gcc/arm-none-eabi/5.2.0/../../../../arm-none-eabi/lib/armv7e-m/libc_nano.a(lib_a-sprintf.o) (_svfprintf_r)
/usr/lib/gcc/arm-none-eabi/5.2.0/../../../../arm-none-eabi/lib/armv7e-m/libc_nano.a(lib_a-nano-vfprintf_i.o)
                              /usr/lib/gcc/arm-none-eabi/5.2.0/../../../../arm-none-eabi/lib/armv7e-m/libc_nano.a(lib_a-nano-svfprintf.o) (_printf_i)
/usr/lib/gcc/arm-none-eabi/5.2.0/../../../../arm-none-eabi/lib/armv7e-m/libc_nano.a(lib_a-reent.o)
                              /usr/lib/gcc/arm-none-eabi/5.2.0/../../../../arm-none-eabi/lib/armv7e-m/libc_nano.a(lib_a-sbrkr.o) (errno)
/usr/lib/gcc/arm-none-eabi/5.2.0/../../../../arm-none-eabi/lib/armv7e-m/libc_nano.a(lib_a-memchr.o)
                              /usr/lib/gcc/arm-none-eabi/5.2.0/../../../../arm-none-eabi/lib/armv7e-m/libc_nano.a(lib_a-nano-svfprintf.o) (memchr)
/usr/lib/gcc/arm-none-eabi/5.2.0/../../../../arm-none-eabi/lib/armv7e-m/libc_nano.a(lib_a-nano-msizer.o)
                              /usr/lib/gcc/arm-none-eabi/5.2.0/../../../../arm-none-eabi/lib/armv7e-m/libc_nano.a(lib_a-nano-reallocr.o) (_malloc_usable_size_r)
/usr/lib/gcc/arm-none-eabi/5.2.0/armv7e-m/libgcc.a(_aeabi_uldivmod.o)
                              ../../../driverlib/gcc/lib/Debug/libdriver.a(prcm.o) (__aeabi_uldivmod)
/usr/lib/gcc/arm-none-eabi/5.2.0/armv7e-m/libgcc.a(_udivmoddi4.o)
                              /usr/lib/gcc/arm-none-eabi/5.2.0/armv7e-m/libgcc.a(_aeabi_uldivmod.o) (__udivmoddi4)
/usr/lib/gcc/arm-none-eabi/5.2.0/armv7e-m/libgcc.a(_dvmd_tls.o)
                              /usr/lib/gcc/arm-none-eabi/5.2.0/armv7e-m/libgcc.a(_aeabi_uldivmod.o) (__aeabi_ldiv0)

Allocating common symbols
Common symbol       size              file

gfpAppCallbackHndl  0x100             obj/Unicast/Debug/udma_if.o
g_pPlayBuffer       0x4               obj/Unicast/Debug/pcm_handler.o
g_bDeviceRestartIsRequired
                    0x1               ../../../simplelink/gcc/lib/os/Debug/libsimplelink.a(driver.o)
errno               0x4               /usr/lib/gcc/arm-none-eabi/5.2.0/../../../../arm-none-eabi/lib/armv7e-m/libc_nano.a(lib_a-reent.o)
g_ControlMsgQueue   0x4               obj/Unicast/Debug/control.o
g_pAudioOutControlHdl
                    0x4               obj/Unicast/Debug/control.o
xQueueRegistry      0x50              ../../../oslib/gcc/free_rtos/Debug/free_rtos.a(queue.o)
g_pAudioInControlHdl
                    0x4               obj/Unicast/Debug/control.o
RxIrqCnt            0x1               ../../../simplelink/gcc/lib/os/Debug/libsimplelink.a(driver.o)
g_ucLED1Pin         0x1               obj/Unicast/Debug/gpio_if.o
iDone               0x1               obj/Unicast/Debug/udma_if.o
g_ucConnectionBSSID
                    0x6               obj/Unicast/Debug/network.o
pPlayBuffer         0x4               obj/Unicast/Debug/main.o
pRecordBuffer       0x4               obj/Unicast/Debug/main.o
g_ucLED2Pin         0x1               obj/Unicast/Debug/gpio_if.o
speaker_data        0x4000            obj/Unicast/Debug/speaker.o
gpCtlTbl            0x400             obj/Unicast/Debug/udma_if.o
g_UdpSock           0x2c              obj/Unicast/Debug/main.o
g_cDummy            0x4               ../../../simplelink/gcc/lib/os/Debug/libsimplelink.a(cc_pal.o)
g_ucConnectionSSID  0x21              obj/Unicast/Debug/network.o
g_pRecordBuffer     0x4               obj/Unicast/Debug/pcm_handler.o
DMAMsgQ             0x4               ../../../simplelink/gcc/lib/os/Debug/libsimplelink.a(cc_pal.o)
g_ucDinDout         0x50              ../../../simplelink/gcc/lib/os/Debug/libsimplelink.a(cc_pal.o)
gaucZeroBuffer      0x200             obj/Unicast/Debug/pcm_handler.o
g_ucLED3Pin         0x1               obj/Unicast/Debug/gpio_if.o
g_AudioControlTask  0x4               obj/Unicast/Debug/control.o

Discarded input sections

 .text          0x0000000000000000        0x0 obj/Unicast/Debug/audiocodec.o
 .data          0x0000000000000000        0x0 obj/Unicast/Debug/audiocodec.o
 .bss           0x0000000000000000        0x0 obj/Unicast/Debug/audiocodec.o
 .text.AudioCodecSpeakerMute
                0x0000000000000000       0x34 obj/Unicast/Debug/audiocodec.o
 .text.AudioCodecSpeakerUnmute
                0x0000000000000000       0x34 obj/Unicast/Debug/audiocodec.o
 .text.AudioCodecMicMute
                0x0000000000000000       0x34 obj/Unicast/Debug/audiocodec.o
 .text.AudioCodecMicUnmute
                0x0000000000000000       0x34 obj/Unicast/Debug/audiocodec.o
 .text          0x0000000000000000        0x0 obj/Unicast/Debug/circ_buff.o
 .data          0x0000000000000000        0x0 obj/Unicast/Debug/circ_buff.o
 .bss           0x0000000000000000        0x0 obj/Unicast/Debug/circ_buff.o
 .text.DestroyCircularBuffer
                0x0000000000000000       0x28 obj/Unicast/Debug/circ_buff.o
 .text.ReadBuffer
                0x0000000000000000       0x70 obj/Unicast/Debug/circ_buff.o
 .text.FillZeroes
                0x0000000000000000       0x2c obj/Unicast/Debug/circ_buff.o
 .text.GetBufferEmptySize
                0x0000000000000000       0x20 obj/Unicast/Debug/circ_buff.o
 .text.IsBufferOverflow
                0x0000000000000000       0x30 obj/Unicast/Debug/circ_buff.o
 .text          0x0000000000000000        0x0 obj/Unicast/Debug/control.o
 .data          0x0000000000000000        0x0 obj/Unicast/Debug/control.o
 .bss           0x0000000000000000        0x0 obj/Unicast/Debug/control.o
 .text.ControlTaskDestroy
                0x0000000000000000       0x5c obj/Unicast/Debug/control.o
 .rodata.__FUNCTION__.6359
                0x0000000000000000       0x14 obj/Unicast/Debug/control.o
 .text          0x0000000000000000        0x0 obj/Unicast/Debug/main.o
 .data          0x0000000000000000        0x0 obj/Unicast/Debug/main.o
 .bss           0x0000000000000000        0x0 obj/Unicast/Debug/main.o
 .text.vApplicationTickHook
                0x0000000000000000        0xc obj/Unicast/Debug/main.o
 .text          0x0000000000000000        0x0 obj/Unicast/Debug/microphone.o
 .data          0x0000000000000000        0x0 obj/Unicast/Debug/microphone.o
 .bss           0x0000000000000000        0x0 obj/Unicast/Debug/microphone.o
 .bss.g_ulConnected
                0x0000000000000000        0x4 obj/Unicast/Debug/microphone.o
 .text          0x0000000000000000        0x0 obj/Unicast/Debug/network.o
 .data          0x0000000000000000        0x0 obj/Unicast/Debug/network.o
 .bss           0x0000000000000000        0x0 obj/Unicast/Debug/network.o
 .text          0x0000000000000000        0x0 obj/Unicast/Debug/pcm_handler.o
 .data          0x0000000000000000        0x0 obj/Unicast/Debug/pcm_handler.o
 .bss           0x0000000000000000        0x0 obj/Unicast/Debug/pcm_handler.o
 .text          0x0000000000000000        0x0 obj/Unicast/Debug/pinmux.o
 .data          0x0000000000000000        0x0 obj/Unicast/Debug/pinmux.o
 .bss           0x0000000000000000        0x0 obj/Unicast/Debug/pinmux.o
 .text          0x0000000000000000        0x0 obj/Unicast/Debug/smartconfig.o
 .data          0x0000000000000000        0x0 obj/Unicast/Debug/smartconfig.o
 .bss           0x0000000000000000        0x0 obj/Unicast/Debug/smartconfig.o
 .text.SmartConfigStop
                0x0000000000000000       0x3c obj/Unicast/Debug/smartconfig.o
 .rodata.__FUNCTION__.5481
                0x0000000000000000       0x10 obj/Unicast/Debug/smartconfig.o
 .text          0x0000000000000000        0x0 obj/Unicast/Debug/speaker.o
 .data          0x0000000000000000        0x0 obj/Unicast/Debug/speaker.o
 .bss           0x0000000000000000        0x0 obj/Unicast/Debug/speaker.o
 .bss.iCount    0x0000000000000000        0x4 obj/Unicast/Debug/speaker.o
 .text          0x0000000000000000        0x0 obj/Unicast/Debug/uart_if.o
 .data          0x0000000000000000        0x0 obj/Unicast/Debug/uart_if.o
 .bss           0x0000000000000000        0x0 obj/Unicast/Debug/uart_if.o
 .data.ilen     0x0000000000000000        0x4 obj/Unicast/Debug/uart_if.o
 .text.ClearTerm
                0x0000000000000000       0x14 obj/Unicast/Debug/uart_if.o
 .text.Error    0x0000000000000000       0x4c obj/Unicast/Debug/uart_if.o
 .text.GetCmd   0x0000000000000000       0xc4 obj/Unicast/Debug/uart_if.o
 .text.TrimSpace
                0x0000000000000000       0x90 obj/Unicast/Debug/uart_if.o
 .text          0x0000000000000000        0x0 obj/Unicast/Debug/i2c_if.o
 .data          0x0000000000000000        0x0 obj/Unicast/Debug/i2c_if.o
 .bss           0x0000000000000000        0x0 obj/Unicast/Debug/i2c_if.o
 .text.I2C_IF_Close
                0x0000000000000000       0x14 obj/Unicast/Debug/i2c_if.o
 .text          0x0000000000000000        0x0 obj/Unicast/Debug/i2s_if.o
 .data          0x0000000000000000        0x0 obj/Unicast/Debug/i2s_if.o
 .bss           0x0000000000000000        0x0 obj/Unicast/Debug/i2s_if.o
 .text.AudioRendererGetDMADataPtr
                0x0000000000000000       0x14 obj/Unicast/Debug/i2s_if.o
 .text.AudioCapturerGetDMADataPtr
                0x0000000000000000       0x14 obj/Unicast/Debug/i2s_if.o
 .text          0x0000000000000000        0x0 obj/Unicast/Debug/udma_if.o
 .data          0x0000000000000000        0x0 obj/Unicast/Debug/udma_if.o
 .bss           0x0000000000000000        0x0 obj/Unicast/Debug/udma_if.o
 .text.UDMASetupAutoMemTransfer
                0x0000000000000000       0x38 obj/Unicast/Debug/udma_if.o
 .text.UDMASetupPingPongTransfer
                0x0000000000000000       0x60 obj/Unicast/Debug/udma_if.o
 .text.UDMAStartTransfer
                0x0000000000000000       0x18 obj/Unicast/Debug/udma_if.o
 .text.UDMAStopTransfer
                0x0000000000000000       0x18 obj/Unicast/Debug/udma_if.o
 .text.UDMADeInit
                0x0000000000000000       0x18 obj/Unicast/Debug/udma_if.o
 .text          0x0000000000000000        0x0 obj/Unicast/Debug/gpio_if.o
 .data          0x0000000000000000        0x0 obj/Unicast/Debug/gpio_if.o
 .bss           0x0000000000000000        0x0 obj/Unicast/Debug/gpio_if.o
 .text.GetPeripheralIntNum
                0x0000000000000000       0x54 obj/Unicast/Debug/gpio_if.o
 .text.GPIO_IF_LedStatus
                0x0000000000000000       0x84 obj/Unicast/Debug/gpio_if.o
 .text.GPIO_IF_LedToggle
                0x0000000000000000       0x38 obj/Unicast/Debug/gpio_if.o
 .text.GPIO_IF_ConfigureNIntEnable
                0x0000000000000000       0x4c obj/Unicast/Debug/gpio_if.o
 .text.GPIO_IF_Get
                0x0000000000000000       0x34 obj/Unicast/Debug/gpio_if.o
 .text          0x0000000000000000        0x0 obj/Unicast/Debug/startup_gcc.o
 .data          0x0000000000000000        0x0 obj/Unicast/Debug/startup_gcc.o
 .bss           0x0000000000000000        0x0 obj/Unicast/Debug/startup_gcc.o
 .text          0x0000000000000000        0x0 ../../../simplelink/gcc/lib/os/Debug/libsimplelink.a(device.o)
 .data          0x0000000000000000        0x0 ../../../simplelink/gcc/lib/os/Debug/libsimplelink.a(device.o)
 .bss           0x0000000000000000        0x0 ../../../simplelink/gcc/lib/os/Debug/libsimplelink.a(device.o)
 .text.sl_Stop_WithNwpLpdsPoll
                0x0000000000000000       0xe4 ../../../simplelink/gcc/lib/os/Debug/libsimplelink.a(device.o)
 .rodata._SlEventMaskSetCmdCtrl
                0x0000000000000000        0x4 ../../../simplelink/gcc/lib/os/Debug/libsimplelink.a(device.o)
 .text.sl_EventMaskSet
                0x0000000000000000       0x6c ../../../simplelink/gcc/lib/os/Debug/libsimplelink.a(device.o)
 .rodata._SlEventMaskGetCmdCtrl
                0x0000000000000000        0x4 ../../../simplelink/gcc/lib/os/Debug/libsimplelink.a(device.o)
 .text.sl_EventMaskGet
                0x0000000000000000       0x70 ../../../simplelink/gcc/lib/os/Debug/libsimplelink.a(device.o)
 .rodata._SlDeviceGetCmdCtrl
                0x0000000000000000        0x4 ../../../simplelink/gcc/lib/os/Debug/libsimplelink.a(device.o)
 .text.sl_DevGet
                0x0000000000000000       0xe0 ../../../simplelink/gcc/lib/os/Debug/libsimplelink.a(device.o)
 .rodata._SlDeviceSetCmdCtrl
                0x0000000000000000        0x4 ../../../simplelink/gcc/lib/os/Debug/libsimplelink.a(device.o)
 .text.sl_DevSet
                0x0000000000000000       0xa0 ../../../simplelink/gcc/lib/os/Debug/libsimplelink.a(device.o)
 .text          0x0000000000000000        0x0 ../../../simplelink/gcc/lib/os/Debug/libsimplelink.a(driver.o)
 .data          0x0000000000000000        0x0 ../../../simplelink/gcc/lib/os/Debug/libsimplelink.a(driver.o)
 .bss           0x0000000000000000        0x0 ../../../simplelink/gcc/lib/os/Debug/libsimplelink.a(driver.o)
 .text._SlDrvBasicCmd
                0x0000000000000000       0x50 ../../../simplelink/gcc/lib/os/Debug/libsimplelink.a(driver.o)
 .text          0x0000000000000000        0x0 ../../../simplelink/gcc/lib/os/Debug/libsimplelink.a(netapp.o)
 .data          0x0000000000000000        0x0 ../../../simplelink/gcc/lib/os/Debug/libsimplelink.a(netapp.o)
 .bss           0x0000000000000000        0x0 ../../../simplelink/gcc/lib/os/Debug/libsimplelink.a(netapp.o)
 .rodata._SlNetAppStartCtrl
                0x0000000000000000        0x4 ../../../simplelink/gcc/lib/os/Debug/libsimplelink.a(netapp.o)
 .text.sl_NetAppStart
                0x0000000000000000       0x64 ../../../simplelink/gcc/lib/os/Debug/libsimplelink.a(netapp.o)
 .rodata._SlNetAppStopCtrl
                0x0000000000000000        0x4 ../../../simplelink/gcc/lib/os/Debug/libsimplelink.a(netapp.o)
 .text.sl_NetAppStop
                0x0000000000000000       0x64 ../../../simplelink/gcc/lib/os/Debug/libsimplelink.a(netapp.o)
 .rodata._SlGetServiceListeCtrl
                0x0000000000000000        0x4 ../../../simplelink/gcc/lib/os/Debug/libsimplelink.a(netapp.o)
 .text.sl_NetAppGetServiceList
                0x0000000000000000       0xe8 ../../../simplelink/gcc/lib/os/Debug/libsimplelink.a(netapp.o)
 .text._sl_HandleAsync_DnsGetHostByAddr
                0x0000000000000000       0x18 ../../../simplelink/gcc/lib/os/Debug/libsimplelink.a(netapp.o)
 .rodata._SlGetHostByNameCtrl
                0x0000000000000000        0x4 ../../../simplelink/gcc/lib/os/Debug/libsimplelink.a(netapp.o)
 .text.sl_NetAppDnsGetHostByName
                0x0000000000000000      0x16c ../../../simplelink/gcc/lib/os/Debug/libsimplelink.a(netapp.o)
 .rodata        0x0000000000000000        0x4 ../../../simplelink/gcc/lib/os/Debug/libsimplelink.a(netapp.o)
 .text.sl_NetAppPingStart
                0x0000000000000000      0x1f8 ../../../simplelink/gcc/lib/os/Debug/libsimplelink.a(netapp.o)
 .rodata._SlNetAppSetCmdCtrl
                0x0000000000000000        0x4 ../../../simplelink/gcc/lib/os/Debug/libsimplelink.a(netapp.o)
 .text.sl_NetAppSet
                0x0000000000000000       0xa0 ../../../simplelink/gcc/lib/os/Debug/libsimplelink.a(netapp.o)
 .rodata._SlNetAppGetCmdCtrl
                0x0000000000000000        0x4 ../../../simplelink/gcc/lib/os/Debug/libsimplelink.a(netapp.o)
 .text.sl_NetAppGet
                0x0000000000000000       0xc4 ../../../simplelink/gcc/lib/os/Debug/libsimplelink.a(netapp.o)
 .text          0x0000000000000000        0x0 ../../../simplelink/gcc/lib/os/Debug/libsimplelink.a(socket.o)
 .data          0x0000000000000000        0x0 ../../../simplelink/gcc/lib/os/Debug/libsimplelink.a(socket.o)
 .bss           0x0000000000000000        0x0 ../../../simplelink/gcc/lib/os/Debug/libsimplelink.a(socket.o)
 .text._sl_ParseAddress
                0x0000000000000000       0x64 ../../../simplelink/gcc/lib/os/Debug/libsimplelink.a(socket.o)
 .rodata._SlSockCloseCmdCtrl
                0x0000000000000000        0x4 ../../../simplelink/gcc/lib/os/Debug/libsimplelink.a(socket.o)
 .text.sl_Close
                0x0000000000000000       0x68 ../../../simplelink/gcc/lib/os/Debug/libsimplelink.a(socket.o)
 .text.sl_Connect
                0x0000000000000000      0x194 ../../../simplelink/gcc/lib/os/Debug/libsimplelink.a(socket.o)
 .rodata._SlSendCmdCtrl
                0x0000000000000000        0x4 ../../../simplelink/gcc/lib/os/Debug/libsimplelink.a(socket.o)
 .text.sl_Send  0x0000000000000000      0x134 ../../../simplelink/gcc/lib/os/Debug/libsimplelink.a(socket.o)
 .rodata._SlListenCmdCtrl
                0x0000000000000000        0x4 ../../../simplelink/gcc/lib/os/Debug/libsimplelink.a(socket.o)
 .text.sl_Listen
                0x0000000000000000       0x74 ../../../simplelink/gcc/lib/os/Debug/libsimplelink.a(socket.o)
 .rodata._SlAcceptCmdCtrl
                0x0000000000000000        0x4 ../../../simplelink/gcc/lib/os/Debug/libsimplelink.a(socket.o)
 .text.sl_Accept
                0x0000000000000000      0x1c8 ../../../simplelink/gcc/lib/os/Debug/libsimplelink.a(socket.o)
 .rodata._SlRecvCmdCtrl
                0x0000000000000000        0x4 ../../../simplelink/gcc/lib/os/Debug/libsimplelink.a(socket.o)
 .text.sl_Recv  0x0000000000000000       0xa8 ../../../simplelink/gcc/lib/os/Debug/libsimplelink.a(socket.o)
 .rodata._SlSetSockOptCmdCtrl
                0x0000000000000000        0x4 ../../../simplelink/gcc/lib/os/Debug/libsimplelink.a(socket.o)
 .text.sl_SetSockOpt
                0x0000000000000000       0xa0 ../../../simplelink/gcc/lib/os/Debug/libsimplelink.a(socket.o)
 .rodata._SlGetSockOptCmdCtrl
                0x0000000000000000        0x4 ../../../simplelink/gcc/lib/os/Debug/libsimplelink.a(socket.o)
 .text.sl_GetSockOpt
                0x0000000000000000       0xdc ../../../simplelink/gcc/lib/os/Debug/libsimplelink.a(socket.o)
 .text.SL_FD_CLR
                0x0000000000000000       0x30 ../../../simplelink/gcc/lib/os/Debug/libsimplelink.a(socket.o)
 .text          0x0000000000000000        0x0 ../../../simplelink/gcc/lib/os/Debug/libsimplelink.a(wlan.o)
 .data          0x0000000000000000        0x0 ../../../simplelink/gcc/lib/os/Debug/libsimplelink.a(wlan.o)
 .bss           0x0000000000000000        0x0 ../../../simplelink/gcc/lib/os/Debug/libsimplelink.a(wlan.o)
 .text.sl_WlanConnect
                0x0000000000000000      0x2cc ../../../simplelink/gcc/lib/os/Debug/libsimplelink.a(wlan.o)
 .text.sl_WlanDisconnect
                0x0000000000000000       0x40 ../../../simplelink/gcc/lib/os/Debug/libsimplelink.a(wlan.o)
 .rodata._SlPolicyGetCmdCtrl
                0x0000000000000000        0x4 ../../../simplelink/gcc/lib/os/Debug/libsimplelink.a(wlan.o)
 .text.sl_WlanPolicyGet
                0x0000000000000000      0x108 ../../../simplelink/gcc/lib/os/Debug/libsimplelink.a(wlan.o)
 .text.sl_WlanProfileAdd
                0x0000000000000000      0x308 ../../../simplelink/gcc/lib/os/Debug/libsimplelink.a(wlan.o)
 .rodata._SlProfileGetCmdCtrl
                0x0000000000000000        0x4 ../../../simplelink/gcc/lib/os/Debug/libsimplelink.a(wlan.o)
 .text.sl_WlanProfileGet
                0x0000000000000000      0x154 ../../../simplelink/gcc/lib/os/Debug/libsimplelink.a(wlan.o)
 .rodata._SlWlanGetNetworkListCtrl
                0x0000000000000000        0x4 ../../../simplelink/gcc/lib/os/Debug/libsimplelink.a(wlan.o)
 .text.sl_WlanGetNetworkList
                0x0000000000000000       0xac ../../../simplelink/gcc/lib/os/Debug/libsimplelink.a(wlan.o)
 .rodata._SlRxFilterAddtCmdCtrl
                0x0000000000000000        0x4 ../../../simplelink/gcc/lib/os/Debug/libsimplelink.a(wlan.o)
 .text.sl_WlanRxFilterAdd
                0x0000000000000000       0xac ../../../simplelink/gcc/lib/os/Debug/libsimplelink.a(wlan.o)
 .rodata._SlRxFilterSetCmdCtrl
                0x0000000000000000        0x4 ../../../simplelink/gcc/lib/os/Debug/libsimplelink.a(wlan.o)
 .text.sl_WlanRxFilterSet
                0x0000000000000000       0x88 ../../../simplelink/gcc/lib/os/Debug/libsimplelink.a(wlan.o)
 .rodata._SlRxFilterGetCmdCtrl
                0x0000000000000000        0x4 ../../../simplelink/gcc/lib/os/Debug/libsimplelink.a(wlan.o)
 .text.sl_WlanRxFilterGet
                0x0000000000000000       0xa4 ../../../simplelink/gcc/lib/os/Debug/libsimplelink.a(wlan.o)
 .text.sl_WlanRxStatStart
                0x0000000000000000       0x40 ../../../simplelink/gcc/lib/os/Debug/libsimplelink.a(wlan.o)
 .text.sl_WlanRxStatStop
                0x0000000000000000       0x40 ../../../simplelink/gcc/lib/os/Debug/libsimplelink.a(wlan.o)
 .rodata        0x0000000000000000        0x4 ../../../simplelink/gcc/lib/os/Debug/libsimplelink.a(wlan.o)
 .text.sl_WlanRxStatGet
                0x0000000000000000       0x74 ../../../simplelink/gcc/lib/os/Debug/libsimplelink.a(wlan.o)
 .text.sl_WlanSmartConfigStop
                0x0000000000000000       0x40 ../../../simplelink/gcc/lib/os/Debug/libsimplelink.a(wlan.o)
 .rodata._SlWlanCfgSetCmdCtrl
                0x0000000000000000        0x4 ../../../simplelink/gcc/lib/os/Debug/libsimplelink.a(wlan.o)
 .text.sl_WlanSet
                0x0000000000000000       0x98 ../../../simplelink/gcc/lib/os/Debug/libsimplelink.a(wlan.o)
 .rodata._SlWlanCfgGetCmdCtrl
                0x0000000000000000        0x4 ../../../simplelink/gcc/lib/os/Debug/libsimplelink.a(wlan.o)
 .text.sl_WlanGet
                0x0000000000000000       0xe0 ../../../simplelink/gcc/lib/os/Debug/libsimplelink.a(wlan.o)
 .text          0x0000000000000000        0x0 ../../../simplelink/gcc/lib/os/Debug/libsimplelink.a(cc_pal.o)
 .data          0x0000000000000000        0x0 ../../../simplelink/gcc/lib/os/Debug/libsimplelink.a(cc_pal.o)
 .bss           0x0000000000000000        0x0 ../../../simplelink/gcc/lib/os/Debug/libsimplelink.a(cc_pal.o)
 .bss.g_pHostIntHdl
                0x0000000000000000        0x4 ../../../simplelink/gcc/lib/os/Debug/libsimplelink.a(cc_pal.o)
 .text.NwpPowerOff_WithNwpLpdsPoll
                0x0000000000000000       0x80 ../../../simplelink/gcc/lib/os/Debug/libsimplelink.a(cc_pal.o)
 .text          0x0000000000000000        0x0 ../../../oslib/gcc/free_rtos/Debug/free_rtos.a(osi_freertos.o)
 .data          0x0000000000000000        0x0 ../../../oslib/gcc/free_rtos/Debug/free_rtos.a(osi_freertos.o)
 .bss           0x0000000000000000        0x0 ../../../oslib/gcc/free_rtos/Debug/free_rtos.a(osi_freertos.o)
 .text.osi_SyncObjClear
                0x0000000000000000       0x30 ../../../oslib/gcc/free_rtos/Debug/free_rtos.a(osi_freertos.o)
 .text.osi_TaskDelete
                0x0000000000000000       0x1c ../../../oslib/gcc/free_rtos/Debug/free_rtos.a(osi_freertos.o)
 .text.VDeleteSimpleLinkSpawnTask
                0x0000000000000000       0x40 ../../../oslib/gcc/free_rtos/Debug/free_rtos.a(osi_freertos.o)
 .text.mem_Malloc
                0x0000000000000000       0x18 ../../../oslib/gcc/free_rtos/Debug/free_rtos.a(osi_freertos.o)
 .text.mem_Free
                0x0000000000000000       0x18 ../../../oslib/gcc/free_rtos/Debug/free_rtos.a(osi_freertos.o)
 .text.mem_set  0x0000000000000000       0x20 ../../../oslib/gcc/free_rtos/Debug/free_rtos.a(osi_freertos.o)
 .text.mem_copy
                0x0000000000000000       0x20 ../../../oslib/gcc/free_rtos/Debug/free_rtos.a(osi_freertos.o)
 .text.osi_EnterCritical
                0x0000000000000000       0x10 ../../../oslib/gcc/free_rtos/Debug/free_rtos.a(osi_freertos.o)
 .text.osi_ExitCritical
                0x0000000000000000       0x14 ../../../oslib/gcc/free_rtos/Debug/free_rtos.a(osi_freertos.o)
 .text.osi_TaskDisable
                0x0000000000000000       0x10 ../../../oslib/gcc/free_rtos/Debug/free_rtos.a(osi_freertos.o)
 .text.osi_TaskEnable
                0x0000000000000000       0x14 ../../../oslib/gcc/free_rtos/Debug/free_rtos.a(osi_freertos.o)
 .text.osi_ContextSave
                0x0000000000000000        0xc ../../../oslib/gcc/free_rtos/Debug/free_rtos.a(osi_freertos.o)
 .text.osi_ContextRestore
                0x0000000000000000        0xc ../../../oslib/gcc/free_rtos/Debug/free_rtos.a(osi_freertos.o)
 .text          0x0000000000000000        0x0 ../../../oslib/gcc/free_rtos/Debug/free_rtos.a(queue.o)
 .data          0x0000000000000000        0x0 ../../../oslib/gcc/free_rtos/Debug/free_rtos.a(queue.o)
 .bss           0x0000000000000000        0x0 ../../../oslib/gcc/free_rtos/Debug/free_rtos.a(queue.o)
 .text.xQueueCreateCountingSemaphore
                0x0000000000000000       0x64 ../../../oslib/gcc/free_rtos/Debug/free_rtos.a(queue.o)
 .text.xQueueReceiveFromISR
                0x0000000000000000       0xc0 ../../../oslib/gcc/free_rtos/Debug/free_rtos.a(queue.o)
 .text.xQueuePeekFromISR
                0x0000000000000000       0x98 ../../../oslib/gcc/free_rtos/Debug/free_rtos.a(queue.o)
 .text.uxQueueMessagesWaiting
                0x0000000000000000       0x34 ../../../oslib/gcc/free_rtos/Debug/free_rtos.a(queue.o)
 .text.uxQueueSpacesAvailable
                0x0000000000000000       0x40 ../../../oslib/gcc/free_rtos/Debug/free_rtos.a(queue.o)
 .text.uxQueueMessagesWaitingFromISR
                0x0000000000000000       0x2c ../../../oslib/gcc/free_rtos/Debug/free_rtos.a(queue.o)
 .text.uxQueueGetQueueNumber
                0x0000000000000000       0x18 ../../../oslib/gcc/free_rtos/Debug/free_rtos.a(queue.o)
 .text.vQueueSetQueueNumber
                0x0000000000000000       0x1c ../../../oslib/gcc/free_rtos/Debug/free_rtos.a(queue.o)
 .text.ucQueueGetQueueType
                0x0000000000000000       0x18 ../../../oslib/gcc/free_rtos/Debug/free_rtos.a(queue.o)
 .text.xQueueIsQueueEmptyFromISR
                0x0000000000000000       0x38 ../../../oslib/gcc/free_rtos/Debug/free_rtos.a(queue.o)
 .text.xQueueIsQueueFullFromISR
                0x0000000000000000       0x3c ../../../oslib/gcc/free_rtos/Debug/free_rtos.a(queue.o)
 .text.xQueueCreateSet
                0x0000000000000000       0x20 ../../../oslib/gcc/free_rtos/Debug/free_rtos.a(queue.o)
 .text.xQueueAddToSet
                0x0000000000000000       0x44 ../../../oslib/gcc/free_rtos/Debug/free_rtos.a(queue.o)
 .text.xQueueRemoveFromSet
                0x0000000000000000       0x48 ../../../oslib/gcc/free_rtos/Debug/free_rtos.a(queue.o)
 .text.xQueueSelectFromSet
                0x0000000000000000       0x28 ../../../oslib/gcc/free_rtos/Debug/free_rtos.a(queue.o)
 .text.xQueueSelectFromSetFromISR
                0x0000000000000000       0x24 ../../../oslib/gcc/free_rtos/Debug/free_rtos.a(queue.o)
 .text          0x0000000000000000        0x0 ../../../oslib/gcc/free_rtos/Debug/free_rtos.a(tasks.o)
 .data          0x0000000000000000        0x0 ../../../oslib/gcc/free_rtos/Debug/free_rtos.a(tasks.o)
 .bss           0x0000000000000000        0x0 ../../../oslib/gcc/free_rtos/Debug/free_rtos.a(tasks.o)
 .text.vTaskDelete
                0x0000000000000000       0xf0 ../../../oslib/gcc/free_rtos/Debug/free_rtos.a(tasks.o)
 .text.vTaskDelayUntil
                0x0000000000000000       0xf4 ../../../oslib/gcc/free_rtos/Debug/free_rtos.a(tasks.o)
 .text.eTaskGetState
                0x0000000000000000       0xa4 ../../../oslib/gcc/free_rtos/Debug/free_rtos.a(tasks.o)
 .text.uxTaskPriorityGet
                0x0000000000000000       0x34 ../../../oslib/gcc/free_rtos/Debug/free_rtos.a(tasks.o)
 .text.uxTaskPriorityGetFromISR
                0x0000000000000000       0x3c ../../../oslib/gcc/free_rtos/Debug/free_rtos.a(tasks.o)
 .text.vTaskPrioritySet
                0x0000000000000000      0x144 ../../../oslib/gcc/free_rtos/Debug/free_rtos.a(tasks.o)
 .text.vTaskSuspend
                0x0000000000000000       0xfc ../../../oslib/gcc/free_rtos/Debug/free_rtos.a(tasks.o)
 .text.prvTaskIsTaskSuspended
                0x0000000000000000       0x6c ../../../oslib/gcc/free_rtos/Debug/free_rtos.a(tasks.o)
 .text.vTaskResume
                0x0000000000000000       0xa4 ../../../oslib/gcc/free_rtos/Debug/free_rtos.a(tasks.o)
 .text.xTaskResumeFromISR
                0x0000000000000000       0xc0 ../../../oslib/gcc/free_rtos/Debug/free_rtos.a(tasks.o)
 .text.vTaskEndScheduler
                0x0000000000000000       0x1c ../../../oslib/gcc/free_rtos/Debug/free_rtos.a(tasks.o)
 .text.xTaskGetTickCountFromISR
                0x0000000000000000       0x24 ../../../oslib/gcc/free_rtos/Debug/free_rtos.a(tasks.o)
 .text.uxTaskGetNumberOfTasks
                0x0000000000000000       0x14 ../../../oslib/gcc/free_rtos/Debug/free_rtos.a(tasks.o)
 .text.pcTaskGetTaskName
                0x0000000000000000       0x3c ../../../oslib/gcc/free_rtos/Debug/free_rtos.a(tasks.o)
 .text.uxTaskGetSystemState
                0x0000000000000000       0xf4 ../../../oslib/gcc/free_rtos/Debug/free_rtos.a(tasks.o)
 .text.xTaskGetIdleTaskHandle
                0x0000000000000000       0x28 ../../../oslib/gcc/free_rtos/Debug/free_rtos.a(tasks.o)
 .text.vTaskPlaceOnUnorderedEventList
                0x0000000000000000       0xbc ../../../oslib/gcc/free_rtos/Debug/free_rtos.a(tasks.o)
 .text.xTaskRemoveFromUnorderedEventList
                0x0000000000000000       0xbc ../../../oslib/gcc/free_rtos/Debug/free_rtos.a(tasks.o)
 .text.uxTaskGetTaskNumber
                0x0000000000000000       0x2c ../../../oslib/gcc/free_rtos/Debug/free_rtos.a(tasks.o)
 .text.vTaskSetTaskNumber
                0x0000000000000000       0x24 ../../../oslib/gcc/free_rtos/Debug/free_rtos.a(tasks.o)
 .text.prvListTaskWithinSingleList
                0x0000000000000000      0x118 ../../../oslib/gcc/free_rtos/Debug/free_rtos.a(tasks.o)
 .text.prvTaskCheckFreeStackSpace
                0x0000000000000000       0x38 ../../../oslib/gcc/free_rtos/Debug/free_rtos.a(tasks.o)
 .text.uxTaskGetStackHighWaterMark
                0x0000000000000000       0x38 ../../../oslib/gcc/free_rtos/Debug/free_rtos.a(tasks.o)
 .text.xTaskGetCurrentTaskHandle
                0x0000000000000000       0x1c ../../../oslib/gcc/free_rtos/Debug/free_rtos.a(tasks.o)
 .text.prvWriteNameToBuffer
                0x0000000000000000       0x4c ../../../oslib/gcc/free_rtos/Debug/free_rtos.a(tasks.o)
 .text.vTaskList
                0x0000000000000000       0xfc ../../../oslib/gcc/free_rtos/Debug/free_rtos.a(tasks.o)
 .text.uxTaskResetEventItemValue
                0x0000000000000000       0x30 ../../../oslib/gcc/free_rtos/Debug/free_rtos.a(tasks.o)
 .text.ulTaskNotifyTake
                0x0000000000000000       0xd8 ../../../oslib/gcc/free_rtos/Debug/free_rtos.a(tasks.o)
 .text.xTaskNotifyWait
                0x0000000000000000       0xfc ../../../oslib/gcc/free_rtos/Debug/free_rtos.a(tasks.o)
 .text.xTaskGenericNotify
                0x0000000000000000      0x124 ../../../oslib/gcc/free_rtos/Debug/free_rtos.a(tasks.o)
 .text.xTaskNotifyFromISR
                0x0000000000000000      0x144 ../../../oslib/gcc/free_rtos/Debug/free_rtos.a(tasks.o)
 .text.vTaskNotifyGiveFromISR
                0x0000000000000000       0xe8 ../../../oslib/gcc/free_rtos/Debug/free_rtos.a(tasks.o)
 .text          0x0000000000000000        0x0 ../../../oslib/gcc/free_rtos/Debug/free_rtos.a(port.o)
 .data          0x0000000000000000        0x0 ../../../oslib/gcc/free_rtos/Debug/free_rtos.a(port.o)
 .bss           0x0000000000000000        0x0 ../../../oslib/gcc/free_rtos/Debug/free_rtos.a(port.o)
 .rodata.pcInterruptPriorityRegisters
                0x0000000000000000        0x4 ../../../oslib/gcc/free_rtos/Debug/free_rtos.a(port.o)
 .text.vPortEndScheduler
                0x0000000000000000       0x24 ../../../oslib/gcc/free_rtos/Debug/free_rtos.a(port.o)
 .text          0x0000000000000000        0x0 ../../../oslib/gcc/free_rtos/Debug/free_rtos.a(timers.o)
 .data          0x0000000000000000        0x0 ../../../oslib/gcc/free_rtos/Debug/free_rtos.a(timers.o)
 .bss           0x0000000000000000        0x0 ../../../oslib/gcc/free_rtos/Debug/free_rtos.a(timers.o)
 .text.xTimerCreate
                0x0000000000000000       0x74 ../../../oslib/gcc/free_rtos/Debug/free_rtos.a(timers.o)
 .text.xTimerGetTimerDaemonTaskHandle
                0x0000000000000000       0x28 ../../../oslib/gcc/free_rtos/Debug/free_rtos.a(timers.o)
 .text.pcTimerGetTimerName
                0x0000000000000000       0x1c ../../../oslib/gcc/free_rtos/Debug/free_rtos.a(timers.o)
 .text.xTimerIsTimerActive
                0x0000000000000000       0x30 ../../../oslib/gcc/free_rtos/Debug/free_rtos.a(timers.o)
 .text.pvTimerGetTimerID
                0x0000000000000000       0x38 ../../../oslib/gcc/free_rtos/Debug/free_rtos.a(timers.o)
 .text.vTimerSetTimerID
                0x0000000000000000       0x38 ../../../oslib/gcc/free_rtos/Debug/free_rtos.a(timers.o)
 .text.xTimerPendFunctionCallFromISR
                0x0000000000000000       0x40 ../../../oslib/gcc/free_rtos/Debug/free_rtos.a(timers.o)
 .text.xTimerPendFunctionCall
                0x0000000000000000       0x58 ../../../oslib/gcc/free_rtos/Debug/free_rtos.a(timers.o)
 .text          0x0000000000000000        0x0 ../../../oslib/gcc/free_rtos/Debug/free_rtos.a(heap_3.o)
 .data          0x0000000000000000        0x0 ../../../oslib/gcc/free_rtos/Debug/free_rtos.a(heap_3.o)
 .bss           0x0000000000000000        0x0 ../../../oslib/gcc/free_rtos/Debug/free_rtos.a(heap_3.o)
 .text          0x0000000000000000        0x0 ../../../oslib/gcc/free_rtos/Debug/free_rtos.a(list.o)
 .data          0x0000000000000000        0x0 ../../../oslib/gcc/free_rtos/Debug/free_rtos.a(list.o)
 .bss           0x0000000000000000        0x0 ../../../oslib/gcc/free_rtos/Debug/free_rtos.a(list.o)
 .text          0x0000000000000000        0x0 ../../../driverlib/gcc/lib/Debug/libdriver.a(gpio.o)
 .data          0x0000000000000000        0x0 ../../../driverlib/gcc/lib/Debug/libdriver.a(gpio.o)
 .bss           0x0000000000000000        0x0 ../../../driverlib/gcc/lib/Debug/libdriver.a(gpio.o)
 .text.GPIOGetIntNumber
                0x0000000000000000       0x64 ../../../driverlib/gcc/lib/Debug/libdriver.a(gpio.o)
 .text.GPIODirModeGet
                0x0000000000000000       0x3c ../../../driverlib/gcc/lib/Debug/libdriver.a(gpio.o)
 .text.GPIOIntTypeGet
                0x0000000000000000       0x78 ../../../driverlib/gcc/lib/Debug/libdriver.a(gpio.o)
 .text.GPIOIntRegister
                0x0000000000000000       0x2c ../../../driverlib/gcc/lib/Debug/libdriver.a(gpio.o)
 .text.GPIOIntUnregister
                0x0000000000000000       0x28 ../../../driverlib/gcc/lib/Debug/libdriver.a(gpio.o)
 .text.GPIODMATriggerEnable
                0x0000000000000000       0x78 ../../../driverlib/gcc/lib/Debug/libdriver.a(gpio.o)
 .text.GPIODMATriggerDisable
                0x0000000000000000       0x78 ../../../driverlib/gcc/lib/Debug/libdriver.a(gpio.o)
 .text          0x0000000000000000        0x0 ../../../driverlib/gcc/lib/Debug/libdriver.a(i2c.o)
 .data          0x0000000000000000        0x0 ../../../driverlib/gcc/lib/Debug/libdriver.a(i2c.o)
 .bss           0x0000000000000000        0x0 ../../../driverlib/gcc/lib/Debug/libdriver.a(i2c.o)
 .rodata.g_ppui32I2CIntMap
                0x0000000000000000        0x8 ../../../driverlib/gcc/lib/Debug/libdriver.a(i2c.o)
 .rodata.g_i8I2CIntMapRows
                0x0000000000000000        0x4 ../../../driverlib/gcc/lib/Debug/libdriver.a(i2c.o)
 .text._I2CIntNumberGet
                0x0000000000000000       0x50 ../../../driverlib/gcc/lib/Debug/libdriver.a(i2c.o)
 .text.I2CSlaveInit
                0x0000000000000000       0x28 ../../../driverlib/gcc/lib/Debug/libdriver.a(i2c.o)
 .text.I2CSlaveAddressSet
                0x0000000000000000       0x48 ../../../driverlib/gcc/lib/Debug/libdriver.a(i2c.o)
 .text.I2CSlaveEnable
                0x0000000000000000       0x30 ../../../driverlib/gcc/lib/Debug/libdriver.a(i2c.o)
 .text.I2CMasterDisable
                0x0000000000000000       0x24 ../../../driverlib/gcc/lib/Debug/libdriver.a(i2c.o)
 .text.I2CSlaveDisable
                0x0000000000000000       0x30 ../../../driverlib/gcc/lib/Debug/libdriver.a(i2c.o)
 .text.I2CIntRegister
                0x0000000000000000       0x28 ../../../driverlib/gcc/lib/Debug/libdriver.a(i2c.o)
 .text.I2CIntUnregister
                0x0000000000000000       0x24 ../../../driverlib/gcc/lib/Debug/libdriver.a(i2c.o)
 .text.I2CMasterIntEnable
                0x0000000000000000       0x1c ../../../driverlib/gcc/lib/Debug/libdriver.a(i2c.o)
 .text.I2CMasterIntEnableEx
                0x0000000000000000       0x28 ../../../driverlib/gcc/lib/Debug/libdriver.a(i2c.o)
 .text.I2CSlaveIntEnable
                0x0000000000000000       0x28 ../../../driverlib/gcc/lib/Debug/libdriver.a(i2c.o)
 .text.I2CSlaveIntEnableEx
                0x0000000000000000       0x2c ../../../driverlib/gcc/lib/Debug/libdriver.a(i2c.o)
 .text.I2CMasterIntDisable
                0x0000000000000000       0x1c ../../../driverlib/gcc/lib/Debug/libdriver.a(i2c.o)
 .text.I2CMasterIntDisableEx
                0x0000000000000000       0x28 ../../../driverlib/gcc/lib/Debug/libdriver.a(i2c.o)
 .text.I2CSlaveIntDisable
                0x0000000000000000       0x28 ../../../driverlib/gcc/lib/Debug/libdriver.a(i2c.o)
 .text.I2CSlaveIntDisableEx
                0x0000000000000000       0x2c ../../../driverlib/gcc/lib/Debug/libdriver.a(i2c.o)
 .text.I2CMasterIntStatus
                0x0000000000000000       0x40 ../../../driverlib/gcc/lib/Debug/libdriver.a(i2c.o)
 .text.I2CSlaveIntStatus
                0x0000000000000000       0x44 ../../../driverlib/gcc/lib/Debug/libdriver.a(i2c.o)
 .text.I2CSlaveIntStatusEx
                0x0000000000000000       0x30 ../../../driverlib/gcc/lib/Debug/libdriver.a(i2c.o)
 .text.I2CMasterIntClear
                0x0000000000000000       0x28 ../../../driverlib/gcc/lib/Debug/libdriver.a(i2c.o)
 .text.I2CSlaveIntClear
                0x0000000000000000       0x20 ../../../driverlib/gcc/lib/Debug/libdriver.a(i2c.o)
 .text.I2CSlaveIntClearEx
                0x0000000000000000       0x20 ../../../driverlib/gcc/lib/Debug/libdriver.a(i2c.o)
 .text.I2CMasterLineStateGet
                0x0000000000000000       0x18 ../../../driverlib/gcc/lib/Debug/libdriver.a(i2c.o)
 .text.I2CMasterBusy
                0x0000000000000000       0x28 ../../../driverlib/gcc/lib/Debug/libdriver.a(i2c.o)
 .text.I2CMasterBusBusy
                0x0000000000000000       0x28 ../../../driverlib/gcc/lib/Debug/libdriver.a(i2c.o)
 .text.I2CSlaveACKOverride
                0x0000000000000000       0x4c ../../../driverlib/gcc/lib/Debug/libdriver.a(i2c.o)
 .text.I2CSlaveACKValueSet
                0x0000000000000000       0x4c ../../../driverlib/gcc/lib/Debug/libdriver.a(i2c.o)
 .text.I2CSlaveStatus
                0x0000000000000000       0x1c ../../../driverlib/gcc/lib/Debug/libdriver.a(i2c.o)
 .text.I2CSlaveDataPut
                0x0000000000000000       0x24 ../../../driverlib/gcc/lib/Debug/libdriver.a(i2c.o)
 .text.I2CSlaveDataGet
                0x0000000000000000       0x1c ../../../driverlib/gcc/lib/Debug/libdriver.a(i2c.o)
 .text.I2CTxFIFOConfigSet
                0x0000000000000000       0x40 ../../../driverlib/gcc/lib/Debug/libdriver.a(i2c.o)
 .text.I2CTxFIFOFlush
                0x0000000000000000       0x28 ../../../driverlib/gcc/lib/Debug/libdriver.a(i2c.o)
 .text.I2CRxFIFOConfigSet
                0x0000000000000000       0x40 ../../../driverlib/gcc/lib/Debug/libdriver.a(i2c.o)
 .text.I2CRxFIFOFlush
                0x0000000000000000       0x28 ../../../driverlib/gcc/lib/Debug/libdriver.a(i2c.o)
 .text.I2CFIFOStatus
                0x0000000000000000       0x1c ../../../driverlib/gcc/lib/Debug/libdriver.a(i2c.o)
 .text.I2CFIFODataPut
                0x0000000000000000       0x34 ../../../driverlib/gcc/lib/Debug/libdriver.a(i2c.o)
 .text.I2CFIFODataPutNonBlocking
                0x0000000000000000       0x38 ../../../driverlib/gcc/lib/Debug/libdriver.a(i2c.o)
 .text.I2CFIFODataGet
                0x0000000000000000       0x2c ../../../driverlib/gcc/lib/Debug/libdriver.a(i2c.o)
 .text.I2CFIFODataGetNonBlocking
                0x0000000000000000       0x38 ../../../driverlib/gcc/lib/Debug/libdriver.a(i2c.o)
 .text.I2CMasterBurstLengthSet
                0x0000000000000000       0x20 ../../../driverlib/gcc/lib/Debug/libdriver.a(i2c.o)
 .text.I2CMasterBurstCountGet
                0x0000000000000000       0x18 ../../../driverlib/gcc/lib/Debug/libdriver.a(i2c.o)
 .text.I2CMasterGlitchFilterConfigSet
                0x0000000000000000       0x28 ../../../driverlib/gcc/lib/Debug/libdriver.a(i2c.o)
 .text.I2CSlaveFIFOEnable
                0x0000000000000000       0x24 ../../../driverlib/gcc/lib/Debug/libdriver.a(i2c.o)
 .text.I2CSlaveFIFODisable
                0x0000000000000000       0x20 ../../../driverlib/gcc/lib/Debug/libdriver.a(i2c.o)
 .text          0x0000000000000000        0x0 ../../../driverlib/gcc/lib/Debug/libdriver.a(interrupt.o)
 .data          0x0000000000000000        0x0 ../../../driverlib/gcc/lib/Debug/libdriver.a(interrupt.o)
 .bss           0x0000000000000000        0x0 ../../../driverlib/gcc/lib/Debug/libdriver.a(interrupt.o)
 .rodata.g_pulPriority
                0x0000000000000000       0x20 ../../../driverlib/gcc/lib/Debug/libdriver.a(interrupt.o)
 .rodata.g_pulPendRegs
                0x0000000000000000       0x18 ../../../driverlib/gcc/lib/Debug/libdriver.a(interrupt.o)
 .text.IntMasterDisable
                0x0000000000000000       0x10 ../../../driverlib/gcc/lib/Debug/libdriver.a(interrupt.o)
 .text.IntPriorityGroupingSet
                0x0000000000000000       0x30 ../../../driverlib/gcc/lib/Debug/libdriver.a(interrupt.o)
 .text.IntPriorityGroupingGet
                0x0000000000000000       0x48 ../../../driverlib/gcc/lib/Debug/libdriver.a(interrupt.o)
 .text.IntPriorityGet
                0x0000000000000000       0x30 ../../../driverlib/gcc/lib/Debug/libdriver.a(interrupt.o)
 .text.IntPendSet
                0x0000000000000000       0x9c ../../../driverlib/gcc/lib/Debug/libdriver.a(interrupt.o)
 .text.IntPriorityMaskSet
                0x0000000000000000       0x18 ../../../driverlib/gcc/lib/Debug/libdriver.a(interrupt.o)
 .text.IntPriorityMaskGet
                0x0000000000000000       0x10 ../../../driverlib/gcc/lib/Debug/libdriver.a(interrupt.o)
 .text          0x0000000000000000        0x0 ../../../driverlib/gcc/lib/Debug/libdriver.a(i2s.o)
 .data          0x0000000000000000        0x0 ../../../driverlib/gcc/lib/Debug/libdriver.a(i2s.o)
 .bss           0x0000000000000000        0x0 ../../../driverlib/gcc/lib/Debug/libdriver.a(i2s.o)
 .text.I2SDisable
                0x0000000000000000       0x28 ../../../driverlib/gcc/lib/Debug/libdriver.a(i2s.o)
 .text.I2SDataPut
                0x0000000000000000       0x40 ../../../driverlib/gcc/lib/Debug/libdriver.a(i2s.o)
 .text.I2SDataPutNonBlocking
                0x0000000000000000       0x44 ../../../driverlib/gcc/lib/Debug/libdriver.a(i2s.o)
 .text.I2SDataGet
                0x0000000000000000       0x40 ../../../driverlib/gcc/lib/Debug/libdriver.a(i2s.o)
 .text.I2SDataGetNonBlocking
                0x0000000000000000       0x44 ../../../driverlib/gcc/lib/Debug/libdriver.a(i2s.o)
 .text.I2STxFIFODisable
                0x0000000000000000       0x20 ../../../driverlib/gcc/lib/Debug/libdriver.a(i2s.o)
 .text.I2SRxFIFODisable
                0x0000000000000000       0x20 ../../../driverlib/gcc/lib/Debug/libdriver.a(i2s.o)
 .text.I2STxFIFOStatusGet
                0x0000000000000000       0x1c ../../../driverlib/gcc/lib/Debug/libdriver.a(i2s.o)
 .text.I2SRxFIFOStatusGet
                0x0000000000000000       0x1c ../../../driverlib/gcc/lib/Debug/libdriver.a(i2s.o)
 .text.I2SIntDisable
                0x0000000000000000       0x58 ../../../driverlib/gcc/lib/Debug/libdriver.a(i2s.o)
 .text.I2SIntStatus
                0x0000000000000000       0x44 ../../../driverlib/gcc/lib/Debug/libdriver.a(i2s.o)
 .text.I2SIntUnregister
                0x0000000000000000       0x1c ../../../driverlib/gcc/lib/Debug/libdriver.a(i2s.o)
 .text.I2STxActiveSlotSet
                0x0000000000000000       0x20 ../../../driverlib/gcc/lib/Debug/libdriver.a(i2s.o)
 .text.I2SRxActiveSlotSet
                0x0000000000000000       0x20 ../../../driverlib/gcc/lib/Debug/libdriver.a(i2s.o)
 .text          0x0000000000000000        0x0 ../../../driverlib/gcc/lib/Debug/libdriver.a(pin.o)
 .data          0x0000000000000000        0x0 ../../../driverlib/gcc/lib/Debug/libdriver.a(pin.o)
 .bss           0x0000000000000000        0x0 ../../../driverlib/gcc/lib/Debug/libdriver.a(pin.o)
 .text.PinModeGet
                0x0000000000000000       0x3c ../../../driverlib/gcc/lib/Debug/libdriver.a(pin.o)
 .text.PinDirModeSet
                0x0000000000000000       0x44 ../../../driverlib/gcc/lib/Debug/libdriver.a(pin.o)
 .text.PinDirModeGet
                0x0000000000000000       0x3c ../../../driverlib/gcc/lib/Debug/libdriver.a(pin.o)
 .text.PinConfigGet
                0x0000000000000000       0x50 ../../../driverlib/gcc/lib/Debug/libdriver.a(pin.o)
 .text.PinTypeSPI
                0x0000000000000000       0x24 ../../../driverlib/gcc/lib/Debug/libdriver.a(pin.o)
 .text.PinTypeTimer
                0x0000000000000000       0x24 ../../../driverlib/gcc/lib/Debug/libdriver.a(pin.o)
 .text.PinTypeCamera
                0x0000000000000000       0x24 ../../../driverlib/gcc/lib/Debug/libdriver.a(pin.o)
 .text.PinTypeADC
                0x0000000000000000       0x20 ../../../driverlib/gcc/lib/Debug/libdriver.a(pin.o)
 .text.PinTypeSDHost
                0x0000000000000000       0x24 ../../../driverlib/gcc/lib/Debug/libdriver.a(pin.o)
 .text          0x0000000000000000        0x0 ../../../driverlib/gcc/lib/Debug/libdriver.a(prcm.o)
 .data          0x0000000000000000        0x0 ../../../driverlib/gcc/lib/Debug/libdriver.a(prcm.o)
 .bss           0x0000000000000000        0x0 ../../../driverlib/gcc/lib/Debug/libdriver.a(prcm.o)
 .text.RTCUseSet
                0x0000000000000000       0x30 ../../../driverlib/gcc/lib/Debug/libdriver.a(prcm.o)
 .text.IsRTCUsed
                0x0000000000000000       0x28 ../../../driverlib/gcc/lib/Debug/libdriver.a(prcm.o)
 .text.RTCU16MSecRegRead
                0x0000000000000000       0x28 ../../../driverlib/gcc/lib/Debug/libdriver.a(prcm.o)
 .text.RTCU16MSecRegWrite
                0x0000000000000000       0x3c ../../../driverlib/gcc/lib/Debug/libdriver.a(prcm.o)
 .text.RTCU32SecRegRead
                0x0000000000000000       0x14 ../../../driverlib/gcc/lib/Debug/libdriver.a(prcm.o)
 .text.RTCU32SecRegWrite
                0x0000000000000000       0x1c ../../../driverlib/gcc/lib/Debug/libdriver.a(prcm.o)
 .text.PRCMMCUReset
                0x0000000000000000       0x28 ../../../driverlib/gcc/lib/Debug/libdriver.a(prcm.o)
 .text.PRCMLPDSRestoreInfoSet
                0x0000000000000000       0x28 ../../../driverlib/gcc/lib/Debug/libdriver.a(prcm.o)
 .text.PRCMLPDSEnter
                0x0000000000000000       0x50 ../../../driverlib/gcc/lib/Debug/libdriver.a(prcm.o)
 .text.PRCMLPDSEnterKeepDebugIf
                0x0000000000000000       0x40 ../../../driverlib/gcc/lib/Debug/libdriver.a(prcm.o)
 .text.PRCMLPDSWakeupSourceEnable
                0x0000000000000000       0x30 ../../../driverlib/gcc/lib/Debug/libdriver.a(prcm.o)
 .text.PRCMLPDSWakeupSourceDisable
                0x0000000000000000       0x24 ../../../driverlib/gcc/lib/Debug/libdriver.a(prcm.o)
 .text.PRCMLPDSWakeupCauseGet
                0x0000000000000000       0x14 ../../../driverlib/gcc/lib/Debug/libdriver.a(prcm.o)
 .text.PRCMLPDSIntervalSet
                0x0000000000000000       0x34 ../../../driverlib/gcc/lib/Debug/libdriver.a(prcm.o)
 .text.PRCMLPDSWakeUpGPIOSelect
                0x0000000000000000       0x2c ../../../driverlib/gcc/lib/Debug/libdriver.a(prcm.o)
 .text.PRCMSleepEnter
                0x0000000000000000        0xc ../../../driverlib/gcc/lib/Debug/libdriver.a(prcm.o)
 .text.PRCMSRAMRetentionEnable
                0x0000000000000000       0x2c ../../../driverlib/gcc/lib/Debug/libdriver.a(prcm.o)
 .text.PRCMSRAMRetentionDisable
                0x0000000000000000       0x34 ../../../driverlib/gcc/lib/Debug/libdriver.a(prcm.o)
 .text.PRCMHibernateWakeupSourceEnable
                0x0000000000000000       0x50 ../../../driverlib/gcc/lib/Debug/libdriver.a(prcm.o)
 .text.PRCMHibernateWakeupSourceDisable
                0x0000000000000000       0x54 ../../../driverlib/gcc/lib/Debug/libdriver.a(prcm.o)
 .text.PRCMHibernateWakeupCauseGet
                0x0000000000000000       0x1c ../../../driverlib/gcc/lib/Debug/libdriver.a(prcm.o)
 .text.PRCMHibernateIntervalSet
                0x0000000000000000       0x9c ../../../driverlib/gcc/lib/Debug/libdriver.a(prcm.o)
 .text.PRCMHibernateWakeUpGPIOSelect
                0x0000000000000000       0x70 ../../../driverlib/gcc/lib/Debug/libdriver.a(prcm.o)
 .text.PRCMHibernateEnter
                0x0000000000000000       0x14 ../../../driverlib/gcc/lib/Debug/libdriver.a(prcm.o)
 .text.PRCMSlowClkCtrGet
                0x0000000000000000       0x64 ../../../driverlib/gcc/lib/Debug/libdriver.a(prcm.o)
 .text.PRCMSlowClkCtrFastGet
                0x0000000000000000       0x50 ../../../driverlib/gcc/lib/Debug/libdriver.a(prcm.o)
 .text.PRCMSlowClkCtrMatchSet
                0x0000000000000000       0x38 ../../../driverlib/gcc/lib/Debug/libdriver.a(prcm.o)
 .text.PRCMSlowClkCtrMatchGet
                0x0000000000000000       0x58 ../../../driverlib/gcc/lib/Debug/libdriver.a(prcm.o)
 .text.PRCMOCRRegisterWrite
                0x0000000000000000       0x28 ../../../driverlib/gcc/lib/Debug/libdriver.a(prcm.o)
 .text.PRCMOCRRegisterRead
                0x0000000000000000       0x28 ../../../driverlib/gcc/lib/Debug/libdriver.a(prcm.o)
 .text.PRCMIntRegister
                0x0000000000000000       0x20 ../../../driverlib/gcc/lib/Debug/libdriver.a(prcm.o)
 .text.PRCMIntUnregister
                0x0000000000000000       0x14 ../../../driverlib/gcc/lib/Debug/libdriver.a(prcm.o)
 .text.PRCMIntEnable
                0x0000000000000000       0x48 ../../../driverlib/gcc/lib/Debug/libdriver.a(prcm.o)
 .text.PRCMIntDisable
                0x0000000000000000       0x48 ../../../driverlib/gcc/lib/Debug/libdriver.a(prcm.o)
 .text.PRCMIntStatus
                0x0000000000000000       0x14 ../../../driverlib/gcc/lib/Debug/libdriver.a(prcm.o)
 .text.PRCMRTCInUseSet
                0x0000000000000000        0xc ../../../driverlib/gcc/lib/Debug/libdriver.a(prcm.o)
 .text.PRCMRTCInUseGet
                0x0000000000000000       0x18 ../../../driverlib/gcc/lib/Debug/libdriver.a(prcm.o)
 .text.PRCMRTCSet
                0x0000000000000000       0xa8 ../../../driverlib/gcc/lib/Debug/libdriver.a(prcm.o)
 .text.PRCMRTCGet
                0x0000000000000000       0xb0 ../../../driverlib/gcc/lib/Debug/libdriver.a(prcm.o)
 .text.PRCMRTCMatchSet
                0x0000000000000000       0xd8 ../../../driverlib/gcc/lib/Debug/libdriver.a(prcm.o)
 .text.PRCMRTCMatchGet
                0x0000000000000000       0xb0 ../../../driverlib/gcc/lib/Debug/libdriver.a(prcm.o)
 .text.PRCMCameraFreqSet
                0x0000000000000000       0x50 ../../../driverlib/gcc/lib/Debug/libdriver.a(prcm.o)
 .text          0x0000000000000000        0x0 ../../../driverlib/gcc/lib/Debug/libdriver.a(spi.o)
 .data          0x0000000000000000        0x0 ../../../driverlib/gcc/lib/Debug/libdriver.a(spi.o)
 .bss           0x0000000000000000        0x0 ../../../driverlib/gcc/lib/Debug/libdriver.a(spi.o)
 .rodata.g_ppulSPIIntMap
                0x0000000000000000       0x24 ../../../driverlib/gcc/lib/Debug/libdriver.a(spi.o)
 .text.SPITransfer8
                0x0000000000000000       0xec ../../../driverlib/gcc/lib/Debug/libdriver.a(spi.o)
 .text.SPITransfer16
                0x0000000000000000      0x108 ../../../driverlib/gcc/lib/Debug/libdriver.a(spi.o)
 .text.SPITransfer32
                0x0000000000000000      0x104 ../../../driverlib/gcc/lib/Debug/libdriver.a(spi.o)
 .text.SPIIntNumberGet
                0x0000000000000000       0x58 ../../../driverlib/gcc/lib/Debug/libdriver.a(spi.o)
 .text.SPIDataGetNonBlocking
                0x0000000000000000       0x3c ../../../driverlib/gcc/lib/Debug/libdriver.a(spi.o)
 .text.SPIDataGet
                0x0000000000000000       0x34 ../../../driverlib/gcc/lib/Debug/libdriver.a(spi.o)
 .text.SPIDataPutNonBlocking
                0x0000000000000000       0x3c ../../../driverlib/gcc/lib/Debug/libdriver.a(spi.o)
 .text.SPIDataPut
                0x0000000000000000       0x34 ../../../driverlib/gcc/lib/Debug/libdriver.a(spi.o)
 .text.SPIFIFOLevelGet
                0x0000000000000000       0x34 ../../../driverlib/gcc/lib/Debug/libdriver.a(spi.o)
 .text.SPIIntRegister
                0x0000000000000000       0x2c ../../../driverlib/gcc/lib/Debug/libdriver.a(spi.o)
 .text.SPIIntUnregister
                0x0000000000000000       0x28 ../../../driverlib/gcc/lib/Debug/libdriver.a(spi.o)
 .text.SPIIntDisable
                0x0000000000000000       0x6c ../../../driverlib/gcc/lib/Debug/libdriver.a(spi.o)
 .text.SPIIntStatus
                0x0000000000000000       0x88 ../../../driverlib/gcc/lib/Debug/libdriver.a(spi.o)
 .text.SPITransfer
                0x0000000000000000       0x90 ../../../driverlib/gcc/lib/Debug/libdriver.a(spi.o)
 .text          0x0000000000000000        0x0 ../../../driverlib/gcc/lib/Debug/libdriver.a(timer.o)
 .data          0x0000000000000000        0x0 ../../../driverlib/gcc/lib/Debug/libdriver.a(timer.o)
 .bss           0x0000000000000000        0x0 ../../../driverlib/gcc/lib/Debug/libdriver.a(timer.o)
 .text.TimerDisable
                0x0000000000000000       0x30 ../../../driverlib/gcc/lib/Debug/libdriver.a(timer.o)
 .text.TimerControlLevel
                0x0000000000000000       0x48 ../../../driverlib/gcc/lib/Debug/libdriver.a(timer.o)
 .text.TimerControlEvent
                0x0000000000000000       0x40 ../../../driverlib/gcc/lib/Debug/libdriver.a(timer.o)
 .text.TimerControlStall
                0x0000000000000000       0x48 ../../../driverlib/gcc/lib/Debug/libdriver.a(timer.o)
 .text.TimerPrescaleGet
                0x0000000000000000       0x28 ../../../driverlib/gcc/lib/Debug/libdriver.a(timer.o)
 .text.TimerPrescaleMatchSet
                0x0000000000000000       0x3c ../../../driverlib/gcc/lib/Debug/libdriver.a(timer.o)
 .text.TimerPrescaleMatchGet
                0x0000000000000000       0x28 ../../../driverlib/gcc/lib/Debug/libdriver.a(timer.o)
 .text.TimerLoadGet
                0x0000000000000000       0x28 ../../../driverlib/gcc/lib/Debug/libdriver.a(timer.o)
 .text.TimerValueSet
                0x0000000000000000       0x34 ../../../driverlib/gcc/lib/Debug/libdriver.a(timer.o)
 .text.TimerMatchSet
                0x0000000000000000       0x3c ../../../driverlib/gcc/lib/Debug/libdriver.a(timer.o)
 .text.TimerMatchGet
                0x0000000000000000       0x28 ../../../driverlib/gcc/lib/Debug/libdriver.a(timer.o)
 .text.TimerIntRegister
                0x0000000000000000       0x80 ../../../driverlib/gcc/lib/Debug/libdriver.a(timer.o)
 .text.TimerIntUnregister
                0x0000000000000000       0x78 ../../../driverlib/gcc/lib/Debug/libdriver.a(timer.o)
 .text.TimerIntEnable
                0x0000000000000000       0x28 ../../../driverlib/gcc/lib/Debug/libdriver.a(timer.o)
 .text.TimerIntDisable
                0x0000000000000000       0x28 ../../../driverlib/gcc/lib/Debug/libdriver.a(timer.o)
 .text.TimerIntStatus
                0x0000000000000000       0x2c ../../../driverlib/gcc/lib/Debug/libdriver.a(timer.o)
 .text.TimerIntClear
                0x0000000000000000       0x20 ../../../driverlib/gcc/lib/Debug/libdriver.a(timer.o)
 .text.TimerDMAEventSet
                0x0000000000000000       0x20 ../../../driverlib/gcc/lib/Debug/libdriver.a(timer.o)
 .text.TimerDMAEventGet
                0x0000000000000000       0x18 ../../../driverlib/gcc/lib/Debug/libdriver.a(timer.o)
 .text          0x0000000000000000        0x0 ../../../driverlib/gcc/lib/Debug/libdriver.a(uart.o)
 .data          0x0000000000000000        0x0 ../../../driverlib/gcc/lib/Debug/libdriver.a(uart.o)
 .bss           0x0000000000000000        0x0 ../../../driverlib/gcc/lib/Debug/libdriver.a(uart.o)
 .rodata.g_ppulUARTIntMap
                0x0000000000000000       0x10 ../../../driverlib/gcc/lib/Debug/libdriver.a(uart.o)
 .text.UARTIntNumberGet
                0x0000000000000000       0x48 ../../../driverlib/gcc/lib/Debug/libdriver.a(uart.o)
 .text.UARTParityModeSet
                0x0000000000000000       0x2c ../../../driverlib/gcc/lib/Debug/libdriver.a(uart.o)
 .text.UARTParityModeGet
                0x0000000000000000       0x1c ../../../driverlib/gcc/lib/Debug/libdriver.a(uart.o)
 .text.UARTFIFOLevelSet
                0x0000000000000000       0x24 ../../../driverlib/gcc/lib/Debug/libdriver.a(uart.o)
 .text.UARTFIFOLevelGet
                0x0000000000000000       0x34 ../../../driverlib/gcc/lib/Debug/libdriver.a(uart.o)
 .text.UARTConfigGetExpClk
                0x0000000000000000       0x64 ../../../driverlib/gcc/lib/Debug/libdriver.a(uart.o)
 .text.UARTFIFOEnable
                0x0000000000000000       0x24 ../../../driverlib/gcc/lib/Debug/libdriver.a(uart.o)
 .text.UARTFIFODisable
                0x0000000000000000       0x24 ../../../driverlib/gcc/lib/Debug/libdriver.a(uart.o)
 .text.UARTModemControlSet
                0x0000000000000000       0x34 ../../../driverlib/gcc/lib/Debug/libdriver.a(uart.o)
 .text.UARTModemControlClear
                0x0000000000000000       0x34 ../../../driverlib/gcc/lib/Debug/libdriver.a(uart.o)
 .text.UARTModemControlGet
                0x0000000000000000       0x1c ../../../driverlib/gcc/lib/Debug/libdriver.a(uart.o)
 .text.UARTModemStatusGet
                0x0000000000000000       0x1c ../../../driverlib/gcc/lib/Debug/libdriver.a(uart.o)
 .text.UARTFlowControlSet
                0x0000000000000000       0x2c ../../../driverlib/gcc/lib/Debug/libdriver.a(uart.o)
 .text.UARTFlowControlGet
                0x0000000000000000       0x1c ../../../driverlib/gcc/lib/Debug/libdriver.a(uart.o)
 .text.UARTTxIntModeSet
                0x0000000000000000       0x2c ../../../driverlib/gcc/lib/Debug/libdriver.a(uart.o)
 .text.UARTTxIntModeGet
                0x0000000000000000       0x1c ../../../driverlib/gcc/lib/Debug/libdriver.a(uart.o)
 .text.UARTCharsAvail
                0x0000000000000000       0x28 ../../../driverlib/gcc/lib/Debug/libdriver.a(uart.o)
 .text.UARTSpaceAvail
                0x0000000000000000       0x28 ../../../driverlib/gcc/lib/Debug/libdriver.a(uart.o)
 .text.UARTCharGetNonBlocking
                0x0000000000000000       0x2c ../../../driverlib/gcc/lib/Debug/libdriver.a(uart.o)
 .text.UARTCharGet
                0x0000000000000000       0x28 ../../../driverlib/gcc/lib/Debug/libdriver.a(uart.o)
 .text.UARTCharPutNonBlocking
                0x0000000000000000       0x30 ../../../driverlib/gcc/lib/Debug/libdriver.a(uart.o)
 .text.UARTBreakCtl
                0x0000000000000000       0x3c ../../../driverlib/gcc/lib/Debug/libdriver.a(uart.o)
 .text.UARTBusy
                0x0000000000000000       0x28 ../../../driverlib/gcc/lib/Debug/libdriver.a(uart.o)
 .text.UARTIntRegister
                0x0000000000000000       0x2c ../../../driverlib/gcc/lib/Debug/libdriver.a(uart.o)
 .text.UARTIntUnregister
                0x0000000000000000       0x28 ../../../driverlib/gcc/lib/Debug/libdriver.a(uart.o)
 .text.UARTIntEnable
                0x0000000000000000       0x28 ../../../driverlib/gcc/lib/Debug/libdriver.a(uart.o)
 .text.UARTIntDisable
                0x0000000000000000       0x28 ../../../driverlib/gcc/lib/Debug/libdriver.a(uart.o)
 .text.UARTIntStatus
                0x0000000000000000       0x2c ../../../driverlib/gcc/lib/Debug/libdriver.a(uart.o)
 .text.UARTIntClear
                0x0000000000000000       0x20 ../../../driverlib/gcc/lib/Debug/libdriver.a(uart.o)
 .text.UARTDMAEnable
                0x0000000000000000       0x28 ../../../driverlib/gcc/lib/Debug/libdriver.a(uart.o)
 .text.UARTDMADisable
                0x0000000000000000       0x28 ../../../driverlib/gcc/lib/Debug/libdriver.a(uart.o)
 .text.UARTRxErrorGet
                0x0000000000000000       0x1c ../../../driverlib/gcc/lib/Debug/libdriver.a(uart.o)
 .text.UARTRxErrorClear
                0x0000000000000000       0x1c ../../../driverlib/gcc/lib/Debug/libdriver.a(uart.o)
 .text          0x0000000000000000        0x0 ../../../driverlib/gcc/lib/Debug/libdriver.a(udma.o)
 .data          0x0000000000000000        0x0 ../../../driverlib/gcc/lib/Debug/libdriver.a(udma.o)
 .bss           0x0000000000000000        0x0 ../../../driverlib/gcc/lib/Debug/libdriver.a(udma.o)
 .text.uDMADisable
                0x0000000000000000       0x18 ../../../driverlib/gcc/lib/Debug/libdriver.a(udma.o)
 .text.uDMAErrorStatusGet
                0x0000000000000000       0x14 ../../../driverlib/gcc/lib/Debug/libdriver.a(udma.o)
 .text.uDMAErrorStatusClear
                0x0000000000000000       0x18 ../../../driverlib/gcc/lib/Debug/libdriver.a(udma.o)
 .text.uDMAChannelDisable
                0x0000000000000000       0x28 ../../../driverlib/gcc/lib/Debug/libdriver.a(udma.o)
 .text.uDMAChannelIsEnabled
                0x0000000000000000       0x34 ../../../driverlib/gcc/lib/Debug/libdriver.a(udma.o)
 .text.uDMAControlAlternateBaseGet
                0x0000000000000000       0x14 ../../../driverlib/gcc/lib/Debug/libdriver.a(udma.o)
 .text.uDMAChannelRequest
                0x0000000000000000       0x28 ../../../driverlib/gcc/lib/Debug/libdriver.a(udma.o)
 .text.uDMAChannelAttributeGet
                0x0000000000000000       0x98 ../../../driverlib/gcc/lib/Debug/libdriver.a(udma.o)
 .text.uDMAChannelScatterGatherSet
                0x0000000000000000       0x88 ../../../driverlib/gcc/lib/Debug/libdriver.a(udma.o)
 .text.uDMAChannelSizeGet
                0x0000000000000000       0x48 ../../../driverlib/gcc/lib/Debug/libdriver.a(udma.o)
 .text.uDMAChannelModeGet
                0x0000000000000000       0x54 ../../../driverlib/gcc/lib/Debug/libdriver.a(udma.o)
 .text.uDMAIntRegister
                0x0000000000000000       0x20 ../../../driverlib/gcc/lib/Debug/libdriver.a(udma.o)
 .text.uDMAIntUnregister
                0x0000000000000000       0x1c ../../../driverlib/gcc/lib/Debug/libdriver.a(udma.o)
 .text          0x0000000000000000        0x0 ../../../driverlib/gcc/lib/Debug/libdriver.a(utils.o)
 .data          0x0000000000000000        0x0 ../../../driverlib/gcc/lib/Debug/libdriver.a(utils.o)
 .bss           0x0000000000000000        0x0 ../../../driverlib/gcc/lib/Debug/libdriver.a(utils.o)
 .text          0x0000000000000000        0x0 ../../../driverlib/gcc/lib/Debug/libdriver.a(cpu.o)
 .data          0x0000000000000000        0x0 ../../../driverlib/gcc/lib/Debug/libdriver.a(cpu.o)
 .bss           0x0000000000000000        0x0 ../../../driverlib/gcc/lib/Debug/libdriver.a(cpu.o)
 .text.CPUcpsid
                0x0000000000000000       0x18 ../../../driverlib/gcc/lib/Debug/libdriver.a(cpu.o)
 .text.CPUprimask
                0x0000000000000000        0xc ../../../driverlib/gcc/lib/Debug/libdriver.a(cpu.o)
 .text.CPUwfi   0x0000000000000000       0x10 ../../../driverlib/gcc/lib/Debug/libdriver.a(cpu.o)
 .text.CPUbasepriSet
                0x0000000000000000       0x10 ../../../driverlib/gcc/lib/Debug/libdriver.a(cpu.o)
 .text.CPUbasepriGet
                0x0000000000000000        0xc ../../../driverlib/gcc/lib/Debug/libdriver.a(cpu.o)
 .text          0x0000000000000000        0x0 ../../../driverlib/gcc/lib/Debug/libdriver.a(flash.o)
 .data          0x0000000000000000        0x0 ../../../driverlib/gcc/lib/Debug/libdriver.a(flash.o)
 .bss           0x0000000000000000        0x0 ../../../driverlib/gcc/lib/Debug/libdriver.a(flash.o)
 .rodata.g_pulFMPPERegs
                0x0000000000000000       0x40 ../../../driverlib/gcc/lib/Debug/libdriver.a(flash.o)
 .rodata.g_pulFMPRERegs
                0x0000000000000000       0x40 ../../../driverlib/gcc/lib/Debug/libdriver.a(flash.o)
 .text.FlashDisable
                0x0000000000000000       0x50 ../../../driverlib/gcc/lib/Debug/libdriver.a(flash.o)
 .text.FlashErase
                0x0000000000000000       0x60 ../../../driverlib/gcc/lib/Debug/libdriver.a(flash.o)
 .text.FlashEraseNonBlocking
                0x0000000000000000       0x38 ../../../driverlib/gcc/lib/Debug/libdriver.a(flash.o)
 .text.FlashMassErase
                0x0000000000000000       0x50 ../../../driverlib/gcc/lib/Debug/libdriver.a(flash.o)
 .text.FlashMassEraseNonBlocking
                0x0000000000000000       0x28 ../../../driverlib/gcc/lib/Debug/libdriver.a(flash.o)
 .text.FlashProgram
                0x0000000000000000       0xb4 ../../../driverlib/gcc/lib/Debug/libdriver.a(flash.o)
 .text.FlashProgramNonBlocking
                0x0000000000000000       0xa4 ../../../driverlib/gcc/lib/Debug/libdriver.a(flash.o)
 .text.FlashProtectGet
                0x0000000000000000       0x78 ../../../driverlib/gcc/lib/Debug/libdriver.a(flash.o)
 .text.FlashIntRegister
                0x0000000000000000       0x20 ../../../driverlib/gcc/lib/Debug/libdriver.a(flash.o)
 .text.FlashIntUnregister
                0x0000000000000000       0x14 ../../../driverlib/gcc/lib/Debug/libdriver.a(flash.o)
 .text.FlashIntEnable
                0x0000000000000000       0x24 ../../../driverlib/gcc/lib/Debug/libdriver.a(flash.o)
 .text.FlashIntDisable
                0x0000000000000000       0x24 ../../../driverlib/gcc/lib/Debug/libdriver.a(flash.o)
 .text.FlashIntStatus
                0x0000000000000000       0x2c ../../../driverlib/gcc/lib/Debug/libdriver.a(flash.o)
 .text.FlashIntClear
                0x0000000000000000       0x1c ../../../driverlib/gcc/lib/Debug/libdriver.a(flash.o)
 .debug_info    0x0000000000000000      0x300 ../../../driverlib/gcc/lib/Debug/libdriver.a(flash.o)
 .debug_abbrev  0x0000000000000000      0x191 ../../../driverlib/gcc/lib/Debug/libdriver.a(flash.o)
 .debug_aranges
                0x0000000000000000       0x88 ../../../driverlib/gcc/lib/Debug/libdriver.a(flash.o)
 .debug_ranges  0x0000000000000000       0x78 ../../../driverlib/gcc/lib/Debug/libdriver.a(flash.o)
 .debug_line    0x0000000000000000      0x1f4 ../../../driverlib/gcc/lib/Debug/libdriver.a(flash.o)
 .debug_str     0x0000000000000000      0x279 ../../../driverlib/gcc/lib/Debug/libdriver.a(flash.o)
 .comment       0x0000000000000000       0x22 ../../../driverlib/gcc/lib/Debug/libdriver.a(flash.o)
 .ARM.attributes
                0x0000000000000000       0x33 ../../../driverlib/gcc/lib/Debug/libdriver.a(flash.o)
 .debug_frame   0x0000000000000000      0x214 ../../../driverlib/gcc/lib/Debug/libdriver.a(flash.o)
 .text          0x0000000000000000        0x0 /usr/lib/gcc/arm-none-eabi/5.2.0/../../../../arm-none-eabi/lib/armv7e-m/libc_nano.a(lib_a-malloc.o)
 .data          0x0000000000000000        0x0 /usr/lib/gcc/arm-none-eabi/5.2.0/../../../../arm-none-eabi/lib/armv7e-m/libc_nano.a(lib_a-malloc.o)
 .bss           0x0000000000000000        0x0 /usr/lib/gcc/arm-none-eabi/5.2.0/../../../../arm-none-eabi/lib/armv7e-m/libc_nano.a(lib_a-malloc.o)
 .text          0x0000000000000000        0x0 /usr/lib/gcc/arm-none-eabi/5.2.0/../../../../arm-none-eabi/lib/armv7e-m/libc_nano.a(lib_a-memcmp.o)
 .data          0x0000000000000000        0x0 /usr/lib/gcc/arm-none-eabi/5.2.0/../../../../arm-none-eabi/lib/armv7e-m/libc_nano.a(lib_a-memcmp.o)
 .bss           0x0000000000000000        0x0 /usr/lib/gcc/arm-none-eabi/5.2.0/../../../../arm-none-eabi/lib/armv7e-m/libc_nano.a(lib_a-memcmp.o)
 .text          0x0000000000000000        0x0 /usr/lib/gcc/arm-none-eabi/5.2.0/../../../../arm-none-eabi/lib/armv7e-m/libc_nano.a(lib_a-memcpy.o)
 .data          0x0000000000000000        0x0 /usr/lib/gcc/arm-none-eabi/5.2.0/../../../../arm-none-eabi/lib/armv7e-m/libc_nano.a(lib_a-memcpy.o)
 .bss           0x0000000000000000        0x0 /usr/lib/gcc/arm-none-eabi/5.2.0/../../../../arm-none-eabi/lib/armv7e-m/libc_nano.a(lib_a-memcpy.o)
 .text          0x0000000000000000        0x0 /usr/lib/gcc/arm-none-eabi/5.2.0/../../../../arm-none-eabi/lib/armv7e-m/libc_nano.a(lib_a-memmove.o)
 .data          0x0000000000000000        0x0 /usr/lib/gcc/arm-none-eabi/5.2.0/../../../../arm-none-eabi/lib/armv7e-m/libc_nano.a(lib_a-memmove.o)
 .bss           0x0000000000000000        0x0 /usr/lib/gcc/arm-none-eabi/5.2.0/../../../../arm-none-eabi/lib/armv7e-m/libc_nano.a(lib_a-memmove.o)
 .text          0x0000000000000000        0x0 /usr/lib/gcc/arm-none-eabi/5.2.0/../../../../arm-none-eabi/lib/armv7e-m/libc_nano.a(lib_a-memset.o)
 .data          0x0000000000000000        0x0 /usr/lib/gcc/arm-none-eabi/5.2.0/../../../../arm-none-eabi/lib/armv7e-m/libc_nano.a(lib_a-memset.o)
 .bss           0x0000000000000000        0x0 /usr/lib/gcc/arm-none-eabi/5.2.0/../../../../arm-none-eabi/lib/armv7e-m/libc_nano.a(lib_a-memset.o)
 .text          0x0000000000000000        0x0 /usr/lib/gcc/arm-none-eabi/5.2.0/../../../../arm-none-eabi/lib/armv7e-m/libc_nano.a(lib_a-nano-freer.o)
 .data          0x0000000000000000        0x0 /usr/lib/gcc/arm-none-eabi/5.2.0/../../../../arm-none-eabi/lib/armv7e-m/libc_nano.a(lib_a-nano-freer.o)
 .bss           0x0000000000000000        0x0 /usr/lib/gcc/arm-none-eabi/5.2.0/../../../../arm-none-eabi/lib/armv7e-m/libc_nano.a(lib_a-nano-freer.o)
 .text          0x0000000000000000        0x0 /usr/lib/gcc/arm-none-eabi/5.2.0/../../../../arm-none-eabi/lib/armv7e-m/libc_nano.a(lib_a-nano-mallocr.o)
 .data          0x0000000000000000        0x0 /usr/lib/gcc/arm-none-eabi/5.2.0/../../../../arm-none-eabi/lib/armv7e-m/libc_nano.a(lib_a-nano-mallocr.o)
 .bss           0x0000000000000000        0x0 /usr/lib/gcc/arm-none-eabi/5.2.0/../../../../arm-none-eabi/lib/armv7e-m/libc_nano.a(lib_a-nano-mallocr.o)
 .text          0x0000000000000000        0x0 /usr/lib/gcc/arm-none-eabi/5.2.0/../../../../arm-none-eabi/lib/armv7e-m/libc_nano.a(lib_a-realloc.o)
 .data          0x0000000000000000        0x0 /usr/lib/gcc/arm-none-eabi/5.2.0/../../../../arm-none-eabi/lib/armv7e-m/libc_nano.a(lib_a-realloc.o)
 .bss           0x0000000000000000        0x0 /usr/lib/gcc/arm-none-eabi/5.2.0/../../../../arm-none-eabi/lib/armv7e-m/libc_nano.a(lib_a-realloc.o)
 .text          0x0000000000000000        0x0 /usr/lib/gcc/arm-none-eabi/5.2.0/../../../../arm-none-eabi/lib/armv7e-m/libc_nano.a(lib_a-sbrkr.o)
 .data          0x0000000000000000        0x0 /usr/lib/gcc/arm-none-eabi/5.2.0/../../../../arm-none-eabi/lib/armv7e-m/libc_nano.a(lib_a-sbrkr.o)
 .bss           0x0000000000000000        0x0 /usr/lib/gcc/arm-none-eabi/5.2.0/../../../../arm-none-eabi/lib/armv7e-m/libc_nano.a(lib_a-sbrkr.o)
 .text          0x0000000000000000        0x0 /usr/lib/gcc/arm-none-eabi/5.2.0/../../../../arm-none-eabi/lib/armv7e-m/libc_nano.a(lib_a-sprintf.o)
 .data          0x0000000000000000        0x0 /usr/lib/gcc/arm-none-eabi/5.2.0/../../../../arm-none-eabi/lib/armv7e-m/libc_nano.a(lib_a-sprintf.o)
 .bss           0x0000000000000000        0x0 /usr/lib/gcc/arm-none-eabi/5.2.0/../../../../arm-none-eabi/lib/armv7e-m/libc_nano.a(lib_a-sprintf.o)
 .text._sprintf_r
                0x0000000000000000       0x40 /usr/lib/gcc/arm-none-eabi/5.2.0/../../../../arm-none-eabi/lib/armv7e-m/libc_nano.a(lib_a-sprintf.o)
 .text.sprintf  0x0000000000000000       0x48 /usr/lib/gcc/arm-none-eabi/5.2.0/../../../../arm-none-eabi/lib/armv7e-m/libc_nano.a(lib_a-sprintf.o)
 .debug_info    0x0000000000000000      0x88c /usr/lib/gcc/arm-none-eabi/5.2.0/../../../../arm-none-eabi/lib/armv7e-m/libc_nano.a(lib_a-sprintf.o)
 .debug_abbrev  0x0000000000000000      0x1c0 /usr/lib/gcc/arm-none-eabi/5.2.0/../../../../arm-none-eabi/lib/armv7e-m/libc_nano.a(lib_a-sprintf.o)
 .debug_loc     0x0000000000000000       0x95 /usr/lib/gcc/arm-none-eabi/5.2.0/../../../../arm-none-eabi/lib/armv7e-m/libc_nano.a(lib_a-sprintf.o)
 .debug_aranges
                0x0000000000000000       0x28 /usr/lib/gcc/arm-none-eabi/5.2.0/../../../../arm-none-eabi/lib/armv7e-m/libc_nano.a(lib_a-sprintf.o)
 .debug_ranges  0x0000000000000000       0x18 /usr/lib/gcc/arm-none-eabi/5.2.0/../../../../arm-none-eabi/lib/armv7e-m/libc_nano.a(lib_a-sprintf.o)
 .debug_line    0x0000000000000000      0x190 /usr/lib/gcc/arm-none-eabi/5.2.0/../../../../arm-none-eabi/lib/armv7e-m/libc_nano.a(lib_a-sprintf.o)
 .debug_str     0x0000000000000000      0x544 /usr/lib/gcc/arm-none-eabi/5.2.0/../../../../arm-none-eabi/lib/armv7e-m/libc_nano.a(lib_a-sprintf.o)
 .comment       0x0000000000000000       0x22 /usr/lib/gcc/arm-none-eabi/5.2.0/../../../../arm-none-eabi/lib/armv7e-m/libc_nano.a(lib_a-sprintf.o)
 .debug_frame   0x0000000000000000       0x70 /usr/lib/gcc/arm-none-eabi/5.2.0/../../../../arm-none-eabi/lib/armv7e-m/libc_nano.a(lib_a-sprintf.o)
 .ARM.attributes
                0x0000000000000000       0x2e /usr/lib/gcc/arm-none-eabi/5.2.0/../../../../arm-none-eabi/lib/armv7e-m/libc_nano.a(lib_a-sprintf.o)
 .text          0x0000000000000000        0x0 /usr/lib/gcc/arm-none-eabi/5.2.0/../../../../arm-none-eabi/lib/armv7e-m/libc_nano.a(lib_a-strcpy.o)
 .data          0x0000000000000000        0x0 /usr/lib/gcc/arm-none-eabi/5.2.0/../../../../arm-none-eabi/lib/armv7e-m/libc_nano.a(lib_a-strcpy.o)
 .bss           0x0000000000000000        0x0 /usr/lib/gcc/arm-none-eabi/5.2.0/../../../../arm-none-eabi/lib/armv7e-m/libc_nano.a(lib_a-strcpy.o)
 .text.strcpy   0x0000000000000000       0x10 /usr/lib/gcc/arm-none-eabi/5.2.0/../../../../arm-none-eabi/lib/armv7e-m/libc_nano.a(lib_a-strcpy.o)
 .debug_info    0x0000000000000000       0xc4 /usr/lib/gcc/arm-none-eabi/5.2.0/../../../../arm-none-eabi/lib/armv7e-m/libc_nano.a(lib_a-strcpy.o)
 .debug_abbrev  0x0000000000000000       0x72 /usr/lib/gcc/arm-none-eabi/5.2.0/../../../../arm-none-eabi/lib/armv7e-m/libc_nano.a(lib_a-strcpy.o)
 .debug_loc     0x0000000000000000       0x21 /usr/lib/gcc/arm-none-eabi/5.2.0/../../../../arm-none-eabi/lib/armv7e-m/libc_nano.a(lib_a-strcpy.o)
 .debug_aranges
                0x0000000000000000       0x20 /usr/lib/gcc/arm-none-eabi/5.2.0/../../../../arm-none-eabi/lib/armv7e-m/libc_nano.a(lib_a-strcpy.o)
 .debug_ranges  0x0000000000000000       0x10 /usr/lib/gcc/arm-none-eabi/5.2.0/../../../../arm-none-eabi/lib/armv7e-m/libc_nano.a(lib_a-strcpy.o)
 .debug_line    0x0000000000000000       0xab /usr/lib/gcc/arm-none-eabi/5.2.0/../../../../arm-none-eabi/lib/armv7e-m/libc_nano.a(lib_a-strcpy.o)
 .debug_str     0x0000000000000000      0x1b4 /usr/lib/gcc/arm-none-eabi/5.2.0/../../../../arm-none-eabi/lib/armv7e-m/libc_nano.a(lib_a-strcpy.o)
 .comment       0x0000000000000000       0x22 /usr/lib/gcc/arm-none-eabi/5.2.0/../../../../arm-none-eabi/lib/armv7e-m/libc_nano.a(lib_a-strcpy.o)
 .debug_frame   0x0000000000000000       0x20 /usr/lib/gcc/arm-none-eabi/5.2.0/../../../../arm-none-eabi/lib/armv7e-m/libc_nano.a(lib_a-strcpy.o)
 .ARM.attributes
                0x0000000000000000       0x2e /usr/lib/gcc/arm-none-eabi/5.2.0/../../../../arm-none-eabi/lib/armv7e-m/libc_nano.a(lib_a-strcpy.o)
 .text          0x0000000000000000        0x0 /usr/lib/gcc/arm-none-eabi/5.2.0/../../../../arm-none-eabi/lib/armv7e-m/libc_nano.a(lib_a-strlen.o)
 .data          0x0000000000000000        0x0 /usr/lib/gcc/arm-none-eabi/5.2.0/../../../../arm-none-eabi/lib/armv7e-m/libc_nano.a(lib_a-strlen.o)
 .bss           0x0000000000000000        0x0 /usr/lib/gcc/arm-none-eabi/5.2.0/../../../../arm-none-eabi/lib/armv7e-m/libc_nano.a(lib_a-strlen.o)
 .text.strlen   0x0000000000000000       0x10 /usr/lib/gcc/arm-none-eabi/5.2.0/../../../../arm-none-eabi/lib/armv7e-m/libc_nano.a(lib_a-strlen.o)
 .debug_info    0x0000000000000000       0xd4 /usr/lib/gcc/arm-none-eabi/5.2.0/../../../../arm-none-eabi/lib/armv7e-m/libc_nano.a(lib_a-strlen.o)
 .debug_abbrev  0x0000000000000000       0x8c /usr/lib/gcc/arm-none-eabi/5.2.0/../../../../arm-none-eabi/lib/armv7e-m/libc_nano.a(lib_a-strlen.o)
 .debug_loc     0x0000000000000000       0x21 /usr/lib/gcc/arm-none-eabi/5.2.0/../../../../arm-none-eabi/lib/armv7e-m/libc_nano.a(lib_a-strlen.o)
 .debug_aranges
                0x0000000000000000       0x20 /usr/lib/gcc/arm-none-eabi/5.2.0/../../../../arm-none-eabi/lib/armv7e-m/libc_nano.a(lib_a-strlen.o)
 .debug_ranges  0x0000000000000000       0x10 /usr/lib/gcc/arm-none-eabi/5.2.0/../../../../arm-none-eabi/lib/armv7e-m/libc_nano.a(lib_a-strlen.o)
 .debug_line    0x0000000000000000       0xe4 /usr/lib/gcc/arm-none-eabi/5.2.0/../../../../arm-none-eabi/lib/armv7e-m/libc_nano.a(lib_a-strlen.o)
 .debug_str     0x0000000000000000      0x1c3 /usr/lib/gcc/arm-none-eabi/5.2.0/../../../../arm-none-eabi/lib/armv7e-m/libc_nano.a(lib_a-strlen.o)
 .comment       0x0000000000000000       0x22 /usr/lib/gcc/arm-none-eabi/5.2.0/../../../../arm-none-eabi/lib/armv7e-m/libc_nano.a(lib_a-strlen.o)
 .debug_frame   0x0000000000000000       0x20 /usr/lib/gcc/arm-none-eabi/5.2.0/../../../../arm-none-eabi/lib/armv7e-m/libc_nano.a(lib_a-strlen.o)
 .ARM.attributes
                0x0000000000000000       0x2e /usr/lib/gcc/arm-none-eabi/5.2.0/../../../../arm-none-eabi/lib/armv7e-m/libc_nano.a(lib_a-strlen.o)
 .text          0x0000000000000000        0x0 /usr/lib/gcc/arm-none-eabi/5.2.0/../../../../arm-none-eabi/lib/armv7e-m/libc_nano.a(lib_a-vsnprintf.o)
 .data          0x0000000000000000        0x0 /usr/lib/gcc/arm-none-eabi/5.2.0/../../../../arm-none-eabi/lib/armv7e-m/libc_nano.a(lib_a-vsnprintf.o)
 .bss           0x0000000000000000        0x0 /usr/lib/gcc/arm-none-eabi/5.2.0/../../../../arm-none-eabi/lib/armv7e-m/libc_nano.a(lib_a-vsnprintf.o)
 .text          0x0000000000000000        0x0 /usr/lib/gcc/arm-none-eabi/5.2.0/../../../../arm-none-eabi/lib/armv7e-m/libc_nano.a(lib_a-impure.o)
 .data          0x0000000000000000        0x0 /usr/lib/gcc/arm-none-eabi/5.2.0/../../../../arm-none-eabi/lib/armv7e-m/libc_nano.a(lib_a-impure.o)
 .bss           0x0000000000000000        0x0 /usr/lib/gcc/arm-none-eabi/5.2.0/../../../../arm-none-eabi/lib/armv7e-m/libc_nano.a(lib_a-impure.o)
 .rodata._global_impure_ptr
                0x0000000000000000        0x4 /usr/lib/gcc/arm-none-eabi/5.2.0/../../../../arm-none-eabi/lib/armv7e-m/libc_nano.a(lib_a-impure.o)
 .text          0x0000000000000000        0x0 /usr/lib/gcc/arm-none-eabi/5.2.0/../../../../arm-none-eabi/lib/armv7e-m/libc_nano.a(lib_a-nano-reallocr.o)
 .data          0x0000000000000000        0x0 /usr/lib/gcc/arm-none-eabi/5.2.0/../../../../arm-none-eabi/lib/armv7e-m/libc_nano.a(lib_a-nano-reallocr.o)
 .bss           0x0000000000000000        0x0 /usr/lib/gcc/arm-none-eabi/5.2.0/../../../../arm-none-eabi/lib/armv7e-m/libc_nano.a(lib_a-nano-reallocr.o)
 .text          0x0000000000000000        0x0 /usr/lib/gcc/arm-none-eabi/5.2.0/../../../../arm-none-eabi/lib/armv7e-m/libc_nano.a(lib_a-nano-svfprintf.o)
 .data          0x0000000000000000        0x0 /usr/lib/gcc/arm-none-eabi/5.2.0/../../../../arm-none-eabi/lib/armv7e-m/libc_nano.a(lib_a-nano-svfprintf.o)
 .bss           0x0000000000000000        0x0 /usr/lib/gcc/arm-none-eabi/5.2.0/../../../../arm-none-eabi/lib/armv7e-m/libc_nano.a(lib_a-nano-svfprintf.o)
 .text.__ssprint_r
                0x0000000000000000       0xfe /usr/lib/gcc/arm-none-eabi/5.2.0/../../../../arm-none-eabi/lib/armv7e-m/libc_nano.a(lib_a-nano-svfprintf.o)
 .text          0x0000000000000000        0x0 /usr/lib/gcc/arm-none-eabi/5.2.0/../../../../arm-none-eabi/lib/armv7e-m/libc_nano.a(lib_a-nano-vfprintf_i.o)
 .data          0x0000000000000000        0x0 /usr/lib/gcc/arm-none-eabi/5.2.0/../../../../arm-none-eabi/lib/armv7e-m/libc_nano.a(lib_a-nano-vfprintf_i.o)
 .bss           0x0000000000000000        0x0 /usr/lib/gcc/arm-none-eabi/5.2.0/../../../../arm-none-eabi/lib/armv7e-m/libc_nano.a(lib_a-nano-vfprintf_i.o)
 .text          0x0000000000000000        0x0 /usr/lib/gcc/arm-none-eabi/5.2.0/../../../../arm-none-eabi/lib/armv7e-m/libc_nano.a(lib_a-reent.o)
 .data          0x0000000000000000        0x0 /usr/lib/gcc/arm-none-eabi/5.2.0/../../../../arm-none-eabi/lib/armv7e-m/libc_nano.a(lib_a-reent.o)
 .bss           0x0000000000000000        0x0 /usr/lib/gcc/arm-none-eabi/5.2.0/../../../../arm-none-eabi/lib/armv7e-m/libc_nano.a(lib_a-reent.o)
 .text.cleanup_glue
                0x0000000000000000       0x1a /usr/lib/gcc/arm-none-eabi/5.2.0/../../../../arm-none-eabi/lib/armv7e-m/libc_nano.a(lib_a-reent.o)
 .text._reclaim_reent
                0x0000000000000000       0xb4 /usr/lib/gcc/arm-none-eabi/5.2.0/../../../../arm-none-eabi/lib/armv7e-m/libc_nano.a(lib_a-reent.o)
 .text          0x0000000000000000        0x0 /usr/lib/gcc/arm-none-eabi/5.2.0/../../../../arm-none-eabi/lib/armv7e-m/libc_nano.a(lib_a-memchr.o)
 .data          0x0000000000000000        0x0 /usr/lib/gcc/arm-none-eabi/5.2.0/../../../../arm-none-eabi/lib/armv7e-m/libc_nano.a(lib_a-memchr.o)
 .bss           0x0000000000000000        0x0 /usr/lib/gcc/arm-none-eabi/5.2.0/../../../../arm-none-eabi/lib/armv7e-m/libc_nano.a(lib_a-memchr.o)
 .text          0x0000000000000000        0x0 /usr/lib/gcc/arm-none-eabi/5.2.0/../../../../arm-none-eabi/lib/armv7e-m/libc_nano.a(lib_a-nano-msizer.o)
 .data          0x0000000000000000        0x0 /usr/lib/gcc/arm-none-eabi/5.2.0/../../../../arm-none-eabi/lib/armv7e-m/libc_nano.a(lib_a-nano-msizer.o)
 .bss           0x0000000000000000        0x0 /usr/lib/gcc/arm-none-eabi/5.2.0/../../../../arm-none-eabi/lib/armv7e-m/libc_nano.a(lib_a-nano-msizer.o)
 .data          0x0000000000000000        0x0 /usr/lib/gcc/arm-none-eabi/5.2.0/armv7e-m/libgcc.a(_aeabi_uldivmod.o)
 .bss           0x0000000000000000        0x0 /usr/lib/gcc/arm-none-eabi/5.2.0/armv7e-m/libgcc.a(_aeabi_uldivmod.o)
 .data          0x0000000000000000        0x0 /usr/lib/gcc/arm-none-eabi/5.2.0/armv7e-m/libgcc.a(_udivmoddi4.o)
 .bss           0x0000000000000000        0x0 /usr/lib/gcc/arm-none-eabi/5.2.0/armv7e-m/libgcc.a(_udivmoddi4.o)
 .ARM.extab     0x0000000000000000        0x0 /usr/lib/gcc/arm-none-eabi/5.2.0/armv7e-m/libgcc.a(_udivmoddi4.o)
 .data          0x0000000000000000        0x0 /usr/lib/gcc/arm-none-eabi/5.2.0/armv7e-m/libgcc.a(_dvmd_tls.o)
 .bss           0x0000000000000000        0x0 /usr/lib/gcc/arm-none-eabi/5.2.0/armv7e-m/libgcc.a(_dvmd_tls.o)

Memory Configuration

Name             Origin             Length             Attributes
SRAM             0x0000000020000000 0x0000000000040000 xrw
*default*        0x0000000000000000 0xffffffffffffffff

Linker script and memory map

                0x0000000000004000                BOOTLOADER_SIZE = 0x4000

.bootloader     0x0000000020000000     0x4000
                0x0000000020000000                _heap2 = .
                0x0000000020004000                . = (. + BOOTLOADER_SIZE)
 *fill*         0x0000000020000000     0x4000 
                0x0000000020004000                . = ALIGN (0x8)
                0x0000000020004000                _eheap2 = .

.text           0x0000000020004000     0xc188
                0x0000000020004000                _text = .
 *(.intvecs)
 .intvecs       0x0000000020004000      0x400 obj/Unicast/Debug/startup_gcc.o
                0x0000000020004000                g_pfnVectors
 *(.text*)
 .text.AudioCodecReset
                0x0000000020004400       0x2c obj/Unicast/Debug/audiocodec.o
                0x0000000020004400                AudioCodecReset
 .text.AudioCodecConfig
                0x000000002000442c      0x33c obj/Unicast/Debug/audiocodec.o
                0x000000002000442c                AudioCodecConfig
 .text.AudioCodecSpeakerVolCtrl
                0x0000000020004768       0x84 obj/Unicast/Debug/audiocodec.o
                0x0000000020004768                AudioCodecSpeakerVolCtrl
 .text.AudioCodecMicVolCtrl
                0x00000000200047ec       0x88 obj/Unicast/Debug/audiocodec.o
                0x00000000200047ec                AudioCodecMicVolCtrl
 .text.AudioCodecPageSelect
                0x0000000020004874       0x20 obj/Unicast/Debug/audiocodec.o
 .text.AudioCodecRegWrite
                0x0000000020004894       0xa0 obj/Unicast/Debug/audiocodec.o
 .text.CreateCircularBuffer
                0x0000000020004934       0x58 obj/Unicast/Debug/circ_buff.o
                0x0000000020004934                CreateCircularBuffer
 .text.GetReadPtr
                0x000000002000498c       0x18 obj/Unicast/Debug/circ_buff.o
                0x000000002000498c                GetReadPtr
 .text.GetWritePtr
                0x00000000200049a4       0x18 obj/Unicast/Debug/circ_buff.o
                0x00000000200049a4                GetWritePtr
 .text.FillBuffer
                0x00000000200049bc       0x88 obj/Unicast/Debug/circ_buff.o
                0x00000000200049bc                FillBuffer
 .text.UpdateReadPtr
                0x0000000020004a44       0x60 obj/Unicast/Debug/circ_buff.o
                0x0000000020004a44                UpdateReadPtr
 .text.UpdateWritePtr
                0x0000000020004aa4       0x60 obj/Unicast/Debug/circ_buff.o
                0x0000000020004aa4                UpdateWritePtr
 .text.GetBufferSize
                0x0000000020004b04       0x4c obj/Unicast/Debug/circ_buff.o
                0x0000000020004b04                GetBufferSize
 .text.IsBufferEmpty
                0x0000000020004b50       0x24 obj/Unicast/Debug/circ_buff.o
                0x0000000020004b50                IsBufferEmpty
 .text.IsBufferSizeFilled
                0x0000000020004b74       0x28 obj/Unicast/Debug/circ_buff.o
                0x0000000020004b74                IsBufferSizeFilled
 .text.IsBufferVacant
                0x0000000020004b9c       0x28 obj/Unicast/Debug/circ_buff.o
                0x0000000020004b9c                IsBufferVacant
 .text.MicroPhoneControl
                0x0000000020004bc4       0xd4 obj/Unicast/Debug/control.o
                0x0000000020004bc4                MicroPhoneControl
 .text.SpeakerControl
                0x0000000020004c98      0x154 obj/Unicast/Debug/control.o
                0x0000000020004c98                SpeakerControl
 .text.MICStartStopControl
                0x0000000020004dec       0x48 obj/Unicast/Debug/control.o
 .text.SpeakerStartStopControl
                0x0000000020004e34       0x48 obj/Unicast/Debug/control.o
 .text.MICButtonHandler
                0x0000000020004e7c       0x50 obj/Unicast/Debug/control.o
 .text.SpeakerButtonHandler
                0x0000000020004ecc       0x50 obj/Unicast/Debug/control.o
 .text.InitControl
                0x0000000020004f1c       0xc8 obj/Unicast/Debug/control.o
                0x0000000020004f1c                InitControl
 .text.AudioControlTask
                0x0000000020004fe4       0x34 obj/Unicast/Debug/control.o
                0x0000000020004fe4                AudioControlTask
 .text.ControlTaskCreate
                0x0000000020005018       0xb8 obj/Unicast/Debug/control.o
                0x0000000020005018                ControlTaskCreate
 .text.vAssertCalled
                0x00000000200050d0        0xc obj/Unicast/Debug/main.o
                0x00000000200050d0                vAssertCalled
 .text.vApplicationIdleHook
                0x00000000200050dc        0xc obj/Unicast/Debug/main.o
                0x00000000200050dc                vApplicationIdleHook
 .text.vApplicationStackOverflowHook
                0x00000000200050e8        0xc obj/Unicast/Debug/main.o
                0x00000000200050e8                vApplicationStackOverflowHook
 .text.vApplicationMallocFailedHook
                0x00000000200050f4        0x8 obj/Unicast/Debug/main.o
                0x00000000200050f4                vApplicationMallocFailedHook
 .text.BoardInit
                0x00000000200050fc       0x24 obj/Unicast/Debug/main.o
                0x00000000200050fc                BoardInit
 .text.main     0x0000000020005120      0x280 obj/Unicast/Debug/main.o
                0x0000000020005120                main
 .text.Microphone
                0x00000000200053a0       0xec obj/Unicast/Debug/microphone.o
                0x00000000200053a0                Microphone
 .text.mDNS_Task
                0x000000002000548c       0xc4 obj/Unicast/Debug/network.o
                0x000000002000548c                mDNS_Task
 .text.SimpleLinkWlanEventHandler
                0x0000000020005550      0x170 obj/Unicast/Debug/network.o
                0x0000000020005550                SimpleLinkWlanEventHandler
 .text.SimpleLinkNetAppEventHandler
                0x00000000200056c0       0xb8 obj/Unicast/Debug/network.o
                0x00000000200056c0                SimpleLinkNetAppEventHandler
 .text.SimpleLinkHttpServerCallback
                0x0000000020005778       0x14 obj/Unicast/Debug/network.o
                0x0000000020005778                SimpleLinkHttpServerCallback
 .text.SimpleLinkGeneralEventHandler
                0x000000002000578c       0x38 obj/Unicast/Debug/network.o
                0x000000002000578c                SimpleLinkGeneralEventHandler
 .text.SimpleLinkSockEventHandler
                0x00000000200057c4       0x34 obj/Unicast/Debug/network.o
                0x00000000200057c4                SimpleLinkSockEventHandler
 .text.InitializeAppVariables
                0x00000000200057f8       0x38 obj/Unicast/Debug/network.o
 .text.ConfigureMode
                0x0000000020005830       0x64 obj/Unicast/Debug/network.o
 .text.ConnectToNetwork
                0x0000000020005894      0x128 obj/Unicast/Debug/network.o
                0x0000000020005894                ConnectToNetwork
 .text.CreateUdpServer
                0x00000000200059bc       0xc4 obj/Unicast/Debug/network.o
                0x00000000200059bc                CreateUdpServer
 .text.Network  0x0000000020005a80       0x54 obj/Unicast/Debug/network.o
                0x0000000020005a80                Network
 .text.DMAPingPongCompleteAppCB_opt
                0x0000000020005ad4      0x218 obj/Unicast/Debug/pcm_handler.o
                0x0000000020005ad4                DMAPingPongCompleteAppCB_opt
 .text.SetupPingPongDMATransferTx
                0x0000000020005cec       0x8c obj/Unicast/Debug/pcm_handler.o
                0x0000000020005cec                SetupPingPongDMATransferTx
 .text.SetupPingPongDMATransferRx
                0x0000000020005d78       0x8c obj/Unicast/Debug/pcm_handler.o
                0x0000000020005d78                SetupPingPongDMATransferRx
 .text.PinMuxConfig
                0x0000000020005e04       0xa0 obj/Unicast/Debug/pinmux.o
                0x0000000020005e04                PinMuxConfig
 .text.SmartConfigConnect
                0x0000000020005ea4       0x9c obj/Unicast/Debug/smartconfig.o
                0x0000000020005ea4                SmartConfigConnect
 .text.Speaker  0x0000000020005f40      0x134 obj/Unicast/Debug/speaker.o
                0x0000000020005f40                Speaker
 .text.InitTerm
                0x0000000020006074       0x2c obj/Unicast/Debug/uart_if.o
                0x0000000020006074                InitTerm
 .text.Message  0x00000000200060a0       0x34 obj/Unicast/Debug/uart_if.o
                0x00000000200060a0                Message
 .text.Report   0x00000000200060d4       0x98 obj/Unicast/Debug/uart_if.o
                0x00000000200060d4                Report
 .text.I2CTransact
                0x000000002000616c       0xb0 obj/Unicast/Debug/i2c_if.o
 .text.I2C_IF_Write
                0x000000002000621c       0xc0 obj/Unicast/Debug/i2c_if.o
                0x000000002000621c                I2C_IF_Write
 .text.I2C_IF_Read
                0x00000000200062dc       0xc4 obj/Unicast/Debug/i2c_if.o
                0x00000000200062dc                I2C_IF_Read
 .text.I2C_IF_ReadFrom
                0x00000000200063a0       0x50 obj/Unicast/Debug/i2c_if.o
                0x00000000200063a0                I2C_IF_ReadFrom
 .text.I2C_IF_Open
                0x00000000200063f0       0x58 obj/Unicast/Debug/i2c_if.o
                0x00000000200063f0                I2C_IF_Open
 .text.AudioInit
                0x0000000020006448       0x10 obj/Unicast/Debug/i2s_if.o
                0x0000000020006448                AudioInit
 .text.AudioSetupDMAMode
                0x0000000020006458       0x50 obj/Unicast/Debug/i2s_if.o
                0x0000000020006458                AudioSetupDMAMode
 .text.AudioCaptureRendererConfigure
                0x00000000200064a8       0x8c obj/Unicast/Debug/i2s_if.o
                0x00000000200064a8                AudioCaptureRendererConfigure
 .text.Audio_Start
                0x0000000020006534       0x38 obj/Unicast/Debug/i2s_if.o
                0x0000000020006534                Audio_Start
 .text.DmaSwIntHandler
                0x000000002000656c       0x24 obj/Unicast/Debug/udma_if.o
                0x000000002000656c                DmaSwIntHandler
 .text.DmaErrorIntHandler
                0x0000000020006590       0x14 obj/Unicast/Debug/udma_if.o
                0x0000000020006590                DmaErrorIntHandler
 .text.UDMAInit
                0x00000000200065a4       0x74 obj/Unicast/Debug/udma_if.o
                0x00000000200065a4                UDMAInit
 .text.UDMAChannelSelect
                0x0000000020006618       0x3c obj/Unicast/Debug/udma_if.o
                0x0000000020006618                UDMAChannelSelect
 .text.UDMASetupTransfer
                0x0000000020006654       0x4c obj/Unicast/Debug/udma_if.o
                0x0000000020006654                UDMASetupTransfer
 .text.GPIO_IF_LedConfigure
                0x00000000200066a0       0x68 obj/Unicast/Debug/gpio_if.o
                0x00000000200066a0                GPIO_IF_LedConfigure
 .text.GPIO_IF_LedOn
                0x0000000020006708       0xd4 obj/Unicast/Debug/gpio_if.o
                0x0000000020006708                GPIO_IF_LedOn
 .text.GPIO_IF_LedOff
                0x00000000200067dc       0xd4 obj/Unicast/Debug/gpio_if.o
                0x00000000200067dc                GPIO_IF_LedOff
 .text.GPIO_IF_GetPortNPin
                0x00000000200068b0       0x48 obj/Unicast/Debug/gpio_if.o
                0x00000000200068b0                GPIO_IF_GetPortNPin
 .text.GPIO_IF_Set
                0x00000000200068f8       0x3c obj/Unicast/Debug/gpio_if.o
                0x00000000200068f8                GPIO_IF_Set
 .text.ResetISR
                0x0000000020006934       0x78 obj/Unicast/Debug/startup_gcc.o
                0x0000000020006934                ResetISR
 .text.NmiSR    0x00000000200069ac        0x8 obj/Unicast/Debug/startup_gcc.o
 .text.FaultISR
                0x00000000200069b4        0x8 obj/Unicast/Debug/startup_gcc.o
 .text.BusFaultHandler
                0x00000000200069bc        0x8 obj/Unicast/Debug/startup_gcc.o
 .text.IntDefaultHandler
                0x00000000200069c4        0x8 obj/Unicast/Debug/startup_gcc.o
 .text._sbrk    0x00000000200069cc       0x70 obj/Unicast/Debug/startup_gcc.o
                0x00000000200069cc                _sbrk
 .text._sl_GetStartResponseConvert
                0x0000000020006a3c       0x24 ../../../simplelink/gcc/lib/os/Debug/libsimplelink.a(device.o)
 .text.sl_Start
                0x0000000020006a60      0x10c ../../../simplelink/gcc/lib/os/Debug/libsimplelink.a(device.o)
                0x0000000020006a60                sl_Start
 .text._sl_HandleAsync_InitComplete
                0x0000000020006b6c       0xb8 ../../../simplelink/gcc/lib/os/Debug/libsimplelink.a(device.o)
                0x0000000020006b6c                _sl_HandleAsync_InitComplete
 .text._sl_HandleAsync_Stop
                0x0000000020006c24       0x68 ../../../simplelink/gcc/lib/os/Debug/libsimplelink.a(device.o)
                0x0000000020006c24                _sl_HandleAsync_Stop
 .text.sl_Stop  0x0000000020006c8c       0xec ../../../simplelink/gcc/lib/os/Debug/libsimplelink.a(device.o)
                0x0000000020006c8c                sl_Stop
 .text._SlDrvDeviceEventHandler
                0x0000000020006d78       0xa8 ../../../simplelink/gcc/lib/os/Debug/libsimplelink.a(device.o)
                0x0000000020006d78                _SlDrvDeviceEventHandler
 .text._SlDrvProtectAsyncRespSetting
                0x0000000020006e20       0x54 ../../../simplelink/gcc/lib/os/Debug/libsimplelink.a(driver.o)
                0x0000000020006e20                _SlDrvProtectAsyncRespSetting
 .text._SlDrvDriverCBInit
                0x0000000020006e74      0x1a8 ../../../simplelink/gcc/lib/os/Debug/libsimplelink.a(driver.o)
                0x0000000020006e74                _SlDrvDriverCBInit
 .text._SlDrvDriverCBDeinit
                0x000000002000701c      0x134 ../../../simplelink/gcc/lib/os/Debug/libsimplelink.a(driver.o)
                0x000000002000701c                _SlDrvDriverCBDeinit
 .text._SlDrvRxIrqHandler
                0x0000000020007150       0x64 ../../../simplelink/gcc/lib/os/Debug/libsimplelink.a(driver.o)
                0x0000000020007150                _SlDrvRxIrqHandler
 .text._SlDrvCmdOp
                0x00000000200071b4       0xc4 ../../../simplelink/gcc/lib/os/Debug/libsimplelink.a(driver.o)
                0x00000000200071b4                _SlDrvCmdOp
 .text._SlDrvDataReadOp
                0x0000000020007278      0x208 ../../../simplelink/gcc/lib/os/Debug/libsimplelink.a(driver.o)
                0x0000000020007278                _SlDrvDataReadOp
 .text._SlDrvDataWriteOp
                0x0000000020007480      0x168 ../../../simplelink/gcc/lib/os/Debug/libsimplelink.a(driver.o)
                0x0000000020007480                _SlDrvDataWriteOp
 .text._SlDrvMsgWrite
                0x00000000200075e8      0x1d4 ../../../simplelink/gcc/lib/os/Debug/libsimplelink.a(driver.o)
 .text._SlDrvMsgRead
                0x00000000200077bc      0x5cc ../../../simplelink/gcc/lib/os/Debug/libsimplelink.a(driver.o)
 .text._SlAsyncEventGenericHandler
                0x0000000020007d88       0xd8 ../../../simplelink/gcc/lib/os/Debug/libsimplelink.a(driver.o)
 .text._SlDrvMsgReadCmdCtx
                0x0000000020007e60      0x158 ../../../simplelink/gcc/lib/os/Debug/libsimplelink.a(driver.o)
 .text._SlDrvMsgReadSpawnCtx
                0x0000000020007fb8       0xf4 ../../../simplelink/gcc/lib/os/Debug/libsimplelink.a(driver.o)
                0x0000000020007fb8                _SlDrvMsgReadSpawnCtx
 .text._SlDrvClassifyRxMsg
                0x00000000200080ac       0xd0 ../../../simplelink/gcc/lib/os/Debug/libsimplelink.a(driver.o)
 .text._SlDrvRxHdrRead
                0x000000002000817c      0x2ac ../../../simplelink/gcc/lib/os/Debug/libsimplelink.a(driver.o)
 .text._SlDrvCmdSend
                0x0000000020008428       0x74 ../../../simplelink/gcc/lib/os/Debug/libsimplelink.a(driver.o)
                0x0000000020008428                _SlDrvCmdSend
 .text._SlDrvWaitForPoolObj
                0x000000002000849c      0x1a4 ../../../simplelink/gcc/lib/os/Debug/libsimplelink.a(driver.o)
                0x000000002000849c                _SlDrvWaitForPoolObj
 .text._SlDrvReleasePoolObj
                0x0000000020008640      0x200 ../../../simplelink/gcc/lib/os/Debug/libsimplelink.a(driver.o)
                0x0000000020008640                _SlDrvReleasePoolObj
 .text._SlRemoveFromList
                0x0000000020008840       0xd0 ../../../simplelink/gcc/lib/os/Debug/libsimplelink.a(driver.o)
 .text._SlFindAndSetActiveObj
                0x0000000020008910      0x16c ../../../simplelink/gcc/lib/os/Debug/libsimplelink.a(driver.o)
 .text._SlDrvDispatchHttpServerEvents
                0x0000000020008a7c       0x1c ../../../simplelink/gcc/lib/os/Debug/libsimplelink.a(driver.o)
                0x0000000020008a7c                _SlDrvDispatchHttpServerEvents
 .text._SlDrvSyncObjSignal
                0x0000000020008a98       0x2c ../../../simplelink/gcc/lib/os/Debug/libsimplelink.a(driver.o)
                0x0000000020008a98                _SlDrvSyncObjSignal
 .text._SlDrvObjLockWaitForever
                0x0000000020008ac4       0x30 ../../../simplelink/gcc/lib/os/Debug/libsimplelink.a(driver.o)
                0x0000000020008ac4                _SlDrvObjLockWaitForever
 .text._SlDrvProtectionObjLockWaitForever
                0x0000000020008af4       0x38 ../../../simplelink/gcc/lib/os/Debug/libsimplelink.a(driver.o)
                0x0000000020008af4                _SlDrvProtectionObjLockWaitForever
 .text._SlDrvObjUnLock
                0x0000000020008b2c       0x2c ../../../simplelink/gcc/lib/os/Debug/libsimplelink.a(driver.o)
                0x0000000020008b2c                _SlDrvObjUnLock
 .text._SlDrvProtectionObjUnLock
                0x0000000020008b58       0x34 ../../../simplelink/gcc/lib/os/Debug/libsimplelink.a(driver.o)
                0x0000000020008b58                _SlDrvProtectionObjUnLock
 .text._SlDrvObjGlobalLockWaitForever
                0x0000000020008b8c       0x38 ../../../simplelink/gcc/lib/os/Debug/libsimplelink.a(driver.o)
 .text._SlDrvGlobalObjUnLock
                0x0000000020008bc4       0x34 ../../../simplelink/gcc/lib/os/Debug/libsimplelink.a(driver.o)
                0x0000000020008bc4                _SlDrvGlobalObjUnLock
 .text._SlDrvMemZero
                0x0000000020008bf8       0x20 ../../../simplelink/gcc/lib/os/Debug/libsimplelink.a(driver.o)
                0x0000000020008bf8                _SlDrvMemZero
 .text._SlDrvResetCmdExt
                0x0000000020008c18       0x18 ../../../simplelink/gcc/lib/os/Debug/libsimplelink.a(driver.o)
                0x0000000020008c18                _SlDrvResetCmdExt
 .text._SlDrvSyncObjWaitForever
                0x0000000020008c30       0x34 ../../../simplelink/gcc/lib/os/Debug/libsimplelink.a(driver.o)
                0x0000000020008c30                _SlDrvSyncObjWaitForever
 .text._SlDrvSyncObjWaitTimeout
                0x0000000020008c64       0x50 ../../../simplelink/gcc/lib/os/Debug/libsimplelink.a(driver.o)
                0x0000000020008c64                _SlDrvSyncObjWaitTimeout
 .text._SlDriverHandleError
                0x0000000020008cb4       0x98 ../../../simplelink/gcc/lib/os/Debug/libsimplelink.a(driver.o)
                0x0000000020008cb4                _SlDriverHandleError
 .text._SlDrvStartMeasureTimeout
                0x0000000020008d4c       0x30 ../../../simplelink/gcc/lib/os/Debug/libsimplelink.a(driver.o)
                0x0000000020008d4c                _SlDrvStartMeasureTimeout
 .text._SlDrvIsTimeoutExpired
                0x0000000020008d7c       0xa8 ../../../simplelink/gcc/lib/os/Debug/libsimplelink.a(driver.o)
                0x0000000020008d7c                _SlDrvIsTimeoutExpired
 .text.sl_NetAppMDNSRegisterUnregisterService
                0x0000000020008e24      0x140 ../../../simplelink/gcc/lib/os/Debug/libsimplelink.a(netapp.o)
                0x0000000020008e24                sl_NetAppMDNSRegisterUnregisterService
 .text.sl_NetAppMDNSRegisterService
                0x0000000020008f64       0x6c ../../../simplelink/gcc/lib/os/Debug/libsimplelink.a(netapp.o)
                0x0000000020008f64                sl_NetAppMDNSRegisterService
 .text.sl_NetAppMDNSUnRegisterService
                0x0000000020008fd0       0x68 ../../../simplelink/gcc/lib/os/Debug/libsimplelink.a(netapp.o)
                0x0000000020008fd0                sl_NetAppMDNSUnRegisterService
 .text.sl_NetAppDnsGetHostByService
                0x0000000020009038      0x144 ../../../simplelink/gcc/lib/os/Debug/libsimplelink.a(netapp.o)
                0x0000000020009038                sl_NetAppDnsGetHostByService
 .text._sl_HandleAsync_DnsGetHostByService
                0x000000002000917c       0xd4 ../../../simplelink/gcc/lib/os/Debug/libsimplelink.a(netapp.o)
                0x000000002000917c                _sl_HandleAsync_DnsGetHostByService
 .text._sl_HandleAsync_DnsGetHostByName
                0x0000000020009250       0xb8 ../../../simplelink/gcc/lib/os/Debug/libsimplelink.a(netapp.o)
                0x0000000020009250                _sl_HandleAsync_DnsGetHostByName
 .text.CopyPingResultsToReport
                0x0000000020009308       0x44 ../../../simplelink/gcc/lib/os/Debug/libsimplelink.a(netapp.o)
 .text._sl_HandleAsync_PingResponse
                0x000000002000934c       0xb4 ../../../simplelink/gcc/lib/os/Debug/libsimplelink.a(netapp.o)
                0x000000002000934c                _sl_HandleAsync_PingResponse
 .text._sl_NetAppSendTokenValue
                0x0000000020009400       0x7c ../../../simplelink/gcc/lib/os/Debug/libsimplelink.a(netapp.o)
                0x0000000020009400                _sl_NetAppSendTokenValue
 .text._SlDrvNetAppEventHandler
                0x000000002000947c      0x134 ../../../simplelink/gcc/lib/os/Debug/libsimplelink.a(netapp.o)
                0x000000002000947c                _SlDrvNetAppEventHandler
 .text._sl_BuildAddress
                0x00000000200095b0       0x58 ../../../simplelink/gcc/lib/os/Debug/libsimplelink.a(socket.o)
 .text._sl_TruncatePayloadByProtocol
                0x0000000020009608       0x40 ../../../simplelink/gcc/lib/os/Debug/libsimplelink.a(socket.o)
 .text.sl_Socket
                0x0000000020009648       0x8c ../../../simplelink/gcc/lib/os/Debug/libsimplelink.a(socket.o)
                0x0000000020009648                sl_Socket
 .text.sl_Bind  0x00000000200096d4       0xb4 ../../../simplelink/gcc/lib/os/Debug/libsimplelink.a(socket.o)
                0x00000000200096d4                sl_Bind
 .text.sl_SendTo
                0x0000000020009788      0x148 ../../../simplelink/gcc/lib/os/Debug/libsimplelink.a(socket.o)
                0x0000000020009788                sl_SendTo
 .text.sl_RecvFrom
                0x00000000200098d0      0x140 ../../../simplelink/gcc/lib/os/Debug/libsimplelink.a(socket.o)
                0x00000000200098d0                sl_RecvFrom
 .text._sl_HandleAsync_Connect
                0x0000000020009a10       0x9c ../../../simplelink/gcc/lib/os/Debug/libsimplelink.a(socket.o)
                0x0000000020009a10                _sl_HandleAsync_Connect
 .text.sl_Htonl
                0x0000000020009aac       0x4c ../../../simplelink/gcc/lib/os/Debug/libsimplelink.a(socket.o)
                0x0000000020009aac                sl_Htonl
 .text.sl_Htons
                0x0000000020009af8       0x40 ../../../simplelink/gcc/lib/os/Debug/libsimplelink.a(socket.o)
                0x0000000020009af8                sl_Htons
 .text._sl_HandleAsync_Accept
                0x0000000020009b38       0x80 ../../../simplelink/gcc/lib/os/Debug/libsimplelink.a(socket.o)
                0x0000000020009b38                _sl_HandleAsync_Accept
 .text._sl_HandleAsync_Select
                0x0000000020009bb8       0x6c ../../../simplelink/gcc/lib/os/Debug/libsimplelink.a(socket.o)
                0x0000000020009bb8                _sl_HandleAsync_Select
 .text.sl_Select
                0x0000000020009c24      0x180 ../../../simplelink/gcc/lib/os/Debug/libsimplelink.a(socket.o)
                0x0000000020009c24                sl_Select
 .text.SL_FD_SET
                0x0000000020009da4       0x2c ../../../simplelink/gcc/lib/os/Debug/libsimplelink.a(socket.o)
                0x0000000020009da4                SL_FD_SET
 .text.SL_FD_ISSET
                0x0000000020009dd0       0x34 ../../../simplelink/gcc/lib/os/Debug/libsimplelink.a(socket.o)
                0x0000000020009dd0                SL_FD_ISSET
 .text.SL_FD_ZERO
                0x0000000020009e04       0x18 ../../../simplelink/gcc/lib/os/Debug/libsimplelink.a(socket.o)
                0x0000000020009e04                SL_FD_ZERO
 .text.sl_WlanPolicySet
                0x0000000020009e1c       0x90 ../../../simplelink/gcc/lib/os/Debug/libsimplelink.a(wlan.o)
                0x0000000020009e1c                sl_WlanPolicySet
 .text.sl_WlanProfileDel
                0x0000000020009eac       0x68 ../../../simplelink/gcc/lib/os/Debug/libsimplelink.a(wlan.o)
                0x0000000020009eac                sl_WlanProfileDel
 .text.sl_WlanSmartConfigStart
                0x0000000020009f14       0xdc ../../../simplelink/gcc/lib/os/Debug/libsimplelink.a(wlan.o)
                0x0000000020009f14                sl_WlanSmartConfigStart
 .text.sl_WlanSetMode
                0x0000000020009ff0       0x68 ../../../simplelink/gcc/lib/os/Debug/libsimplelink.a(wlan.o)
                0x0000000020009ff0                sl_WlanSetMode
 .text.spi_Read_CPU
                0x000000002000a058       0x88 ../../../simplelink/gcc/lib/os/Debug/libsimplelink.a(cc_pal.o)
 .text.spi_Write_CPU
                0x000000002000a0e0       0x84 ../../../simplelink/gcc/lib/os/Debug/libsimplelink.a(cc_pal.o)
 .text.DmaSpiSwIntHandler
                0x000000002000a164       0x30 ../../../simplelink/gcc/lib/os/Debug/libsimplelink.a(cc_pal.o)
                0x000000002000a164                DmaSpiSwIntHandler
 .text.SetupDMAReceive
                0x000000002000a194       0x94 ../../../simplelink/gcc/lib/os/Debug/libsimplelink.a(cc_pal.o)
 .text.SetupDMASend
                0x000000002000a228       0x94 ../../../simplelink/gcc/lib/os/Debug/libsimplelink.a(cc_pal.o)
 .text.spi_Open
                0x000000002000a2bc      0x154 ../../../simplelink/gcc/lib/os/Debug/libsimplelink.a(cc_pal.o)
                0x000000002000a2bc                spi_Open
 .text.spi_Close
                0x000000002000a410       0x84 ../../../simplelink/gcc/lib/os/Debug/libsimplelink.a(cc_pal.o)
                0x000000002000a410                spi_Close
 .text.spi_Read
                0x000000002000a494       0xec ../../../simplelink/gcc/lib/os/Debug/libsimplelink.a(cc_pal.o)
                0x000000002000a494                spi_Read
 .text.spi_Write
                0x000000002000a580       0x9c ../../../simplelink/gcc/lib/os/Debug/libsimplelink.a(cc_pal.o)
                0x000000002000a580                spi_Write
 .text.NwpRegisterInterruptHandler
                0x000000002000a61c       0x34 ../../../simplelink/gcc/lib/os/Debug/libsimplelink.a(cc_pal.o)
                0x000000002000a61c                NwpRegisterInterruptHandler
 .text.NwpMaskInterrupt
                0x000000002000a650       0x18 ../../../simplelink/gcc/lib/os/Debug/libsimplelink.a(cc_pal.o)
                0x000000002000a650                NwpMaskInterrupt
 .text.NwpUnMaskInterrupt
                0x000000002000a668       0x18 ../../../simplelink/gcc/lib/os/Debug/libsimplelink.a(cc_pal.o)
                0x000000002000a668                NwpUnMaskInterrupt
 .text.NwpPowerOnPreamble
                0x000000002000a680       0x8c ../../../simplelink/gcc/lib/os/Debug/libsimplelink.a(cc_pal.o)
                0x000000002000a680                NwpPowerOnPreamble
 .text.NwpPowerOn
                0x000000002000a70c       0x3c ../../../simplelink/gcc/lib/os/Debug/libsimplelink.a(cc_pal.o)
                0x000000002000a70c                NwpPowerOn
 .text.NwpPowerOff
                0x000000002000a748       0x40 ../../../simplelink/gcc/lib/os/Debug/libsimplelink.a(cc_pal.o)
                0x000000002000a748                NwpPowerOff
 .text.NwpPrePowerOffTimout0
                0x000000002000a788       0x24 ../../../simplelink/gcc/lib/os/Debug/libsimplelink.a(cc_pal.o)
                0x000000002000a788                NwpPrePowerOffTimout0
 .text.cc_UDMAChannelSelect
                0x000000002000a7ac       0x28 ../../../simplelink/gcc/lib/os/Debug/libsimplelink.a(cc_pal.o)
 .text.cc_SetupTransfer
                0x000000002000a7d4       0x4c ../../../simplelink/gcc/lib/os/Debug/libsimplelink.a(cc_pal.o)
 .text.simplelink_timerA2_start
                0x000000002000a820       0x40 ../../../simplelink/gcc/lib/os/Debug/libsimplelink.a(cc_pal.o)
                0x000000002000a820                simplelink_timerA2_start
 .text.TimerGetCurrentTimestamp
                0x000000002000a860       0x28 ../../../simplelink/gcc/lib/os/Debug/libsimplelink.a(cc_pal.o)
                0x000000002000a860                TimerGetCurrentTimestamp
 .text.osi_InterruptRegister
                0x000000002000a888       0x38 ../../../oslib/gcc/free_rtos/Debug/free_rtos.a(osi_freertos.o)
                0x000000002000a888                osi_InterruptRegister
 .text.osi_InterruptDeRegister
                0x000000002000a8c0       0x20 ../../../oslib/gcc/free_rtos/Debug/free_rtos.a(osi_freertos.o)
                0x000000002000a8c0                osi_InterruptDeRegister
 .text.osi_SyncObjCreate
                0x000000002000a8e0       0x40 ../../../oslib/gcc/free_rtos/Debug/free_rtos.a(osi_freertos.o)
                0x000000002000a8e0                osi_SyncObjCreate
 .text.osi_SyncObjDelete
                0x000000002000a920       0x28 ../../../oslib/gcc/free_rtos/Debug/free_rtos.a(osi_freertos.o)
                0x000000002000a920                osi_SyncObjDelete
 .text.osi_SyncObjSignal
                0x000000002000a948       0x38 ../../../oslib/gcc/free_rtos/Debug/free_rtos.a(osi_freertos.o)
                0x000000002000a948                osi_SyncObjSignal
 .text.osi_SyncObjSignalFromISR
                0x000000002000a980       0x4c ../../../oslib/gcc/free_rtos/Debug/free_rtos.a(osi_freertos.o)
                0x000000002000a980                osi_SyncObjSignalFromISR
 .text.osi_SyncObjWait
                0x000000002000a9cc       0x38 ../../../oslib/gcc/free_rtos/Debug/free_rtos.a(osi_freertos.o)
                0x000000002000a9cc                osi_SyncObjWait
 .text.osi_LockObjCreate
                0x000000002000aa04       0x34 ../../../oslib/gcc/free_rtos/Debug/free_rtos.a(osi_freertos.o)
                0x000000002000aa04                osi_LockObjCreate
 .text.osi_TaskCreate
                0x000000002000aa38       0x48 ../../../oslib/gcc/free_rtos/Debug/free_rtos.a(osi_freertos.o)
                0x000000002000aa38                osi_TaskCreate
 .text.osi_LockObjDelete
                0x000000002000aa80       0x20 ../../../oslib/gcc/free_rtos/Debug/free_rtos.a(osi_freertos.o)
                0x000000002000aa80                osi_LockObjDelete
 .text.osi_LockObjLock
                0x000000002000aaa0       0x38 ../../../oslib/gcc/free_rtos/Debug/free_rtos.a(osi_freertos.o)
                0x000000002000aaa0                osi_LockObjLock
 .text.osi_LockObjUnlock
                0x000000002000aad8       0x38 ../../../oslib/gcc/free_rtos/Debug/free_rtos.a(osi_freertos.o)
                0x000000002000aad8                osi_LockObjUnlock
 .text.osi_Spawn
                0x000000002000ab10       0x54 ../../../oslib/gcc/free_rtos/Debug/free_rtos.a(osi_freertos.o)
                0x000000002000ab10                osi_Spawn
 .text.vSimpleLinkSpawnTask
                0x000000002000ab64       0x34 ../../../oslib/gcc/free_rtos/Debug/free_rtos.a(osi_freertos.o)
 .text.VStartSimpleLinkSpawnTask
                0x000000002000ab98       0x68 ../../../oslib/gcc/free_rtos/Debug/free_rtos.a(osi_freertos.o)
                0x000000002000ab98                VStartSimpleLinkSpawnTask
 .text.osi_MsgQCreate
                0x000000002000ac00       0x44 ../../../oslib/gcc/free_rtos/Debug/free_rtos.a(osi_freertos.o)
                0x000000002000ac00                osi_MsgQCreate
 .text.osi_MsgQDelete
                0x000000002000ac44       0x28 ../../../oslib/gcc/free_rtos/Debug/free_rtos.a(osi_freertos.o)
                0x000000002000ac44                osi_MsgQDelete
 .text.osi_MsgQWrite
                0x000000002000ac6c       0x44 ../../../oslib/gcc/free_rtos/Debug/free_rtos.a(osi_freertos.o)
                0x000000002000ac6c                osi_MsgQWrite
 .text.osi_MsgQRead
                0x000000002000acb0       0x48 ../../../oslib/gcc/free_rtos/Debug/free_rtos.a(osi_freertos.o)
                0x000000002000acb0                osi_MsgQRead
 .text.osi_start
                0x000000002000acf8        0xc ../../../oslib/gcc/free_rtos/Debug/free_rtos.a(osi_freertos.o)
                0x000000002000acf8                osi_start
 .text.osi_Sleep
                0x000000002000ad04       0x1c ../../../oslib/gcc/free_rtos/Debug/free_rtos.a(osi_freertos.o)
                0x000000002000ad04                osi_Sleep
 .text.xQueueGenericReset
                0x000000002000ad20       0xb8 ../../../oslib/gcc/free_rtos/Debug/free_rtos.a(queue.o)
                0x000000002000ad20                xQueueGenericReset
 .text.xQueueGenericCreate
                0x000000002000add8       0xac ../../../oslib/gcc/free_rtos/Debug/free_rtos.a(queue.o)
                0x000000002000add8                xQueueGenericCreate
 .text.xQueueCreateMutex
                0x000000002000ae84       0xa0 ../../../oslib/gcc/free_rtos/Debug/free_rtos.a(queue.o)
                0x000000002000ae84                xQueueCreateMutex
 .text.xQueueGenericSend
                0x000000002000af24      0x1b8 ../../../oslib/gcc/free_rtos/Debug/free_rtos.a(queue.o)
                0x000000002000af24                xQueueGenericSend
 .text.xQueueGenericSendFromISR
                0x000000002000b0dc      0x108 ../../../oslib/gcc/free_rtos/Debug/free_rtos.a(queue.o)
                0x000000002000b0dc                xQueueGenericSendFromISR
 .text.xQueueGiveFromISR
                0x000000002000b1e4       0xf0 ../../../oslib/gcc/free_rtos/Debug/free_rtos.a(queue.o)
                0x000000002000b1e4                xQueueGiveFromISR
 .text.xQueueGenericReceive
                0x000000002000b2d4      0x1c8 ../../../oslib/gcc/free_rtos/Debug/free_rtos.a(queue.o)
                0x000000002000b2d4                xQueueGenericReceive
 .text.vQueueDelete
                0x000000002000b49c       0x34 ../../../oslib/gcc/free_rtos/Debug/free_rtos.a(queue.o)
                0x000000002000b49c                vQueueDelete
 .text.prvCopyDataToQueue
                0x000000002000b4d0       0xd8 ../../../oslib/gcc/free_rtos/Debug/free_rtos.a(queue.o)
 .text.prvCopyDataFromQueue
                0x000000002000b5a8       0x4c ../../../oslib/gcc/free_rtos/Debug/free_rtos.a(queue.o)
 .text.prvUnlockQueue
                0x000000002000b5f4       0xb4 ../../../oslib/gcc/free_rtos/Debug/free_rtos.a(queue.o)
 .text.prvIsQueueEmpty
                0x000000002000b6a8       0x2c ../../../oslib/gcc/free_rtos/Debug/free_rtos.a(queue.o)
 .text.prvIsQueueFull
                0x000000002000b6d4       0x30 ../../../oslib/gcc/free_rtos/Debug/free_rtos.a(queue.o)
 .text.vQueueAddToRegistry
                0x000000002000b704       0x50 ../../../oslib/gcc/free_rtos/Debug/free_rtos.a(queue.o)
                0x000000002000b704                vQueueAddToRegistry
 .text.vQueueUnregisterQueue
                0x000000002000b754       0x44 ../../../oslib/gcc/free_rtos/Debug/free_rtos.a(queue.o)
                0x000000002000b754                vQueueUnregisterQueue
 .text.vQueueWaitForMessageRestricted
                0x000000002000b798       0x58 ../../../oslib/gcc/free_rtos/Debug/free_rtos.a(queue.o)
                0x000000002000b798                vQueueWaitForMessageRestricted
 .text.prvNotifyQueueSetContainer
                0x000000002000b7f0       0x94 ../../../oslib/gcc/free_rtos/Debug/free_rtos.a(queue.o)
 .text.xTaskGenericCreate
                0x000000002000b884      0x174 ../../../oslib/gcc/free_rtos/Debug/free_rtos.a(tasks.o)
                0x000000002000b884                xTaskGenericCreate
 .text.vTaskDelay
                0x000000002000b9f8       0x90 ../../../oslib/gcc/free_rtos/Debug/free_rtos.a(tasks.o)
                0x000000002000b9f8                vTaskDelay
 .text.vTaskStartScheduler
                0x000000002000ba88       0x7c ../../../oslib/gcc/free_rtos/Debug/free_rtos.a(tasks.o)
                0x000000002000ba88                vTaskStartScheduler
 .text.vTaskSuspendAll
                0x000000002000bb04       0x1c ../../../oslib/gcc/free_rtos/Debug/free_rtos.a(tasks.o)
                0x000000002000bb04                vTaskSuspendAll
 .text.xTaskResumeAll
                0x000000002000bb20      0x110 ../../../oslib/gcc/free_rtos/Debug/free_rtos.a(tasks.o)
                0x000000002000bb20                xTaskResumeAll
 .text.xTaskGetTickCount
                0x000000002000bc30       0x1c ../../../oslib/gcc/free_rtos/Debug/free_rtos.a(tasks.o)
                0x000000002000bc30                xTaskGetTickCount
 .text.xTaskIncrementTick
                0x000000002000bc4c      0x154 ../../../oslib/gcc/free_rtos/Debug/free_rtos.a(tasks.o)
                0x000000002000bc4c                xTaskIncrementTick
 .text.vTaskSwitchContext
                0x000000002000bda0       0xf8 ../../../oslib/gcc/free_rtos/Debug/free_rtos.a(tasks.o)
                0x000000002000bda0                vTaskSwitchContext
 .text.vTaskPlaceOnEventList
                0x000000002000be98       0x98 ../../../oslib/gcc/free_rtos/Debug/free_rtos.a(tasks.o)
                0x000000002000be98                vTaskPlaceOnEventList
 .text.vTaskPlaceOnEventListRestricted
                0x000000002000bf30       0x7c ../../../oslib/gcc/free_rtos/Debug/free_rtos.a(tasks.o)
                0x000000002000bf30                vTaskPlaceOnEventListRestricted
 .text.xTaskRemoveFromEventList
                0x000000002000bfac       0xbc ../../../oslib/gcc/free_rtos/Debug/free_rtos.a(tasks.o)
                0x000000002000bfac                xTaskRemoveFromEventList
 .text.vTaskSetTimeOutState
                0x000000002000c068       0x3c ../../../oslib/gcc/free_rtos/Debug/free_rtos.a(tasks.o)
                0x000000002000c068                vTaskSetTimeOutState
 .text.xTaskCheckForTimeOut
                0x000000002000c0a4       0xac ../../../oslib/gcc/free_rtos/Debug/free_rtos.a(tasks.o)
                0x000000002000c0a4                xTaskCheckForTimeOut
 .text.vTaskMissedYield
                0x000000002000c150       0x18 ../../../oslib/gcc/free_rtos/Debug/free_rtos.a(tasks.o)
                0x000000002000c150                vTaskMissedYield
 .text.prvIdleTask
                0x000000002000c168       0x14 ../../../oslib/gcc/free_rtos/Debug/free_rtos.a(tasks.o)
 .text.prvInitialiseTCBVariables
                0x000000002000c17c       0xa8 ../../../oslib/gcc/free_rtos/Debug/free_rtos.a(tasks.o)
 .text.prvInitialiseTaskLists
                0x000000002000c224       0x80 ../../../oslib/gcc/free_rtos/Debug/free_rtos.a(tasks.o)
 .text.prvCheckTasksWaitingTermination
                0x000000002000c2a4       0x78 ../../../oslib/gcc/free_rtos/Debug/free_rtos.a(tasks.o)
 .text.prvAddCurrentTaskToDelayedList
                0x000000002000c31c       0x6c ../../../oslib/gcc/free_rtos/Debug/free_rtos.a(tasks.o)
 .text.prvAllocateTCBAndStack
                0x000000002000c388       0x6c ../../../oslib/gcc/free_rtos/Debug/free_rtos.a(tasks.o)
 .text.prvDeleteTCB
                0x000000002000c3f4       0x20 ../../../oslib/gcc/free_rtos/Debug/free_rtos.a(tasks.o)
 .text.prvResetNextTaskUnblockTime
                0x000000002000c414       0x48 ../../../oslib/gcc/free_rtos/Debug/free_rtos.a(tasks.o)
 .text.xTaskGetSchedulerState
                0x000000002000c45c       0x3c ../../../oslib/gcc/free_rtos/Debug/free_rtos.a(tasks.o)
                0x000000002000c45c                xTaskGetSchedulerState
 .text.vTaskPriorityInherit
                0x000000002000c498       0xec ../../../oslib/gcc/free_rtos/Debug/free_rtos.a(tasks.o)
                0x000000002000c498                vTaskPriorityInherit
 .text.xTaskPriorityDisinherit
                0x000000002000c584       0xf8 ../../../oslib/gcc/free_rtos/Debug/free_rtos.a(tasks.o)
                0x000000002000c584                xTaskPriorityDisinherit
 .text.pvTaskIncrementMutexHeldCount
                0x000000002000c67c       0x28 ../../../oslib/gcc/free_rtos/Debug/free_rtos.a(tasks.o)
                0x000000002000c67c                pvTaskIncrementMutexHeldCount
 .text.pxPortInitialiseStack
                0x000000002000c6a4       0x54 ../../../oslib/gcc/free_rtos/Debug/free_rtos.a(port.o)
                0x000000002000c6a4                pxPortInitialiseStack
 .text.prvTaskExitError
                0x000000002000c6f8       0x24 ../../../oslib/gcc/free_rtos/Debug/free_rtos.a(port.o)
 .text.vPortSVCHandler
                0x000000002000c71c       0x28 ../../../oslib/gcc/free_rtos/Debug/free_rtos.a(port.o)
                0x000000002000c71c                vPortSVCHandler
 .text.prvPortStartFirstTask
                0x000000002000c744       0x20 ../../../oslib/gcc/free_rtos/Debug/free_rtos.a(port.o)
 .text.xPortStartScheduler
                0x000000002000c764       0xbc ../../../oslib/gcc/free_rtos/Debug/free_rtos.a(port.o)
                0x000000002000c764                xPortStartScheduler
 .text.vPortYield
                0x000000002000c820       0x20 ../../../oslib/gcc/free_rtos/Debug/free_rtos.a(port.o)
                0x000000002000c820                vPortYield
 .text.vPortEnterCritical
                0x000000002000c840       0x48 ../../../oslib/gcc/free_rtos/Debug/free_rtos.a(port.o)
                0x000000002000c840                vPortEnterCritical
 .text.vPortExitCritical
                0x000000002000c888       0x3c ../../../oslib/gcc/free_rtos/Debug/free_rtos.a(port.o)
                0x000000002000c888                vPortExitCritical
 .text.ulPortSetInterruptMask
                0x000000002000c8c4       0x14 ../../../oslib/gcc/free_rtos/Debug/free_rtos.a(port.o)
                0x000000002000c8c4                ulPortSetInterruptMask
 .text.vPortClearInterruptMask
                0x000000002000c8d8        0x8 ../../../oslib/gcc/free_rtos/Debug/free_rtos.a(port.o)
                0x000000002000c8d8                vPortClearInterruptMask
 .text.xPortPendSVHandler
                0x000000002000c8e0       0x48 ../../../oslib/gcc/free_rtos/Debug/free_rtos.a(port.o)
                0x000000002000c8e0                xPortPendSVHandler
 .text.xPortSysTickHandler
                0x000000002000c928       0x28 ../../../oslib/gcc/free_rtos/Debug/free_rtos.a(port.o)
                0x000000002000c928                xPortSysTickHandler
 .text.vPortSetupTimerInterrupt
                0x000000002000c950       0x24 ../../../oslib/gcc/free_rtos/Debug/free_rtos.a(port.o)
                0x000000002000c950                vPortSetupTimerInterrupt
 .text.vPortValidateInterruptPriority
                0x000000002000c974       0x68 ../../../oslib/gcc/free_rtos/Debug/free_rtos.a(port.o)
                0x000000002000c974                vPortValidateInterruptPriority
 .text.xTimerCreateTimerTask
                0x000000002000c9dc       0x64 ../../../oslib/gcc/free_rtos/Debug/free_rtos.a(timers.o)
                0x000000002000c9dc                xTimerCreateTimerTask
 .text.xTimerGenericCommand
                0x000000002000ca40       0x80 ../../../oslib/gcc/free_rtos/Debug/free_rtos.a(timers.o)
                0x000000002000ca40                xTimerGenericCommand
 .text.prvProcessExpiredTimer
                0x000000002000cac0       0x78 ../../../oslib/gcc/free_rtos/Debug/free_rtos.a(timers.o)
 .text.prvTimerTask
                0x000000002000cb38       0x24 ../../../oslib/gcc/free_rtos/Debug/free_rtos.a(timers.o)
 .text.prvProcessTimerOrBlockTask
                0x000000002000cb5c       0x6c ../../../oslib/gcc/free_rtos/Debug/free_rtos.a(timers.o)
 .text.prvGetNextExpireTime
                0x000000002000cbc8       0x48 ../../../oslib/gcc/free_rtos/Debug/free_rtos.a(timers.o)
 .text.prvSampleTimeNow
                0x000000002000cc10       0x40 ../../../oslib/gcc/free_rtos/Debug/free_rtos.a(timers.o)
 .text.prvInsertTimerInActiveList
                0x000000002000cc50       0x84 ../../../oslib/gcc/free_rtos/Debug/free_rtos.a(timers.o)
 .text.prvProcessReceivedCommands
                0x000000002000ccd4      0x140 ../../../oslib/gcc/free_rtos/Debug/free_rtos.a(timers.o)
 .text.prvSwitchTimerLists
                0x000000002000ce14       0xbc ../../../oslib/gcc/free_rtos/Debug/free_rtos.a(timers.o)
 .text.prvCheckForValidListAndQueue
                0x000000002000ced0       0x84 ../../../oslib/gcc/free_rtos/Debug/free_rtos.a(timers.o)
 .text.pvPortMalloc
                0x000000002000cf54       0x30 ../../../oslib/gcc/free_rtos/Debug/free_rtos.a(heap_3.o)
                0x000000002000cf54                pvPortMalloc
 .text.vPortFree
                0x000000002000cf84       0x24 ../../../oslib/gcc/free_rtos/Debug/free_rtos.a(heap_3.o)
                0x000000002000cf84                vPortFree
 .text.vListInitialise
                0x000000002000cfa8       0x40 ../../../oslib/gcc/free_rtos/Debug/free_rtos.a(list.o)
                0x000000002000cfa8                vListInitialise
 .text.vListInitialiseItem
                0x000000002000cfe8       0x18 ../../../oslib/gcc/free_rtos/Debug/free_rtos.a(list.o)
                0x000000002000cfe8                vListInitialiseItem
 .text.vListInsertEnd
                0x000000002000d000       0x48 ../../../oslib/gcc/free_rtos/Debug/free_rtos.a(list.o)
                0x000000002000d000                vListInsertEnd
 .text.vListInsert
                0x000000002000d048       0x70 ../../../oslib/gcc/free_rtos/Debug/free_rtos.a(list.o)
                0x000000002000d048                vListInsert
 .text.uxListRemove
                0x000000002000d0b8       0x54 ../../../oslib/gcc/free_rtos/Debug/free_rtos.a(list.o)
                0x000000002000d0b8                uxListRemove
 .text.GPIODirModeSet
                0x000000002000d10c       0x48 ../../../driverlib/gcc/lib/Debug/libdriver.a(gpio.o)
                0x000000002000d10c                GPIODirModeSet
 .text.GPIOIntTypeSet
                0x000000002000d154       0xa8 ../../../driverlib/gcc/lib/Debug/libdriver.a(gpio.o)
                0x000000002000d154                GPIOIntTypeSet
 .text.GPIOIntEnable
                0x000000002000d1fc       0x2c ../../../driverlib/gcc/lib/Debug/libdriver.a(gpio.o)
                0x000000002000d1fc                GPIOIntEnable
 .text.GPIOIntDisable
                0x000000002000d228       0x2c ../../../driverlib/gcc/lib/Debug/libdriver.a(gpio.o)
                0x000000002000d228                GPIOIntDisable
 .text.GPIOIntStatus
                0x000000002000d254       0x30 ../../../driverlib/gcc/lib/Debug/libdriver.a(gpio.o)
                0x000000002000d254                GPIOIntStatus
 .text.GPIOIntClear
                0x000000002000d284       0x20 ../../../driverlib/gcc/lib/Debug/libdriver.a(gpio.o)
                0x000000002000d284                GPIOIntClear
 .text.GPIOPinRead
                0x000000002000d2a4       0x24 ../../../driverlib/gcc/lib/Debug/libdriver.a(gpio.o)
                0x000000002000d2a4                GPIOPinRead
 .text.GPIOPinWrite
                0x000000002000d2c8       0x2c ../../../driverlib/gcc/lib/Debug/libdriver.a(gpio.o)
                0x000000002000d2c8                GPIOPinWrite
 .text.I2CMasterInitExpClk
                0x000000002000d2f4       0x9c ../../../driverlib/gcc/lib/Debug/libdriver.a(i2c.o)
                0x000000002000d2f4                I2CMasterInitExpClk
 .text.I2CMasterEnable
                0x000000002000d390       0x24 ../../../driverlib/gcc/lib/Debug/libdriver.a(i2c.o)
                0x000000002000d390                I2CMasterEnable
 .text.I2CMasterIntStatusEx
                0x000000002000d3b4       0x2c ../../../driverlib/gcc/lib/Debug/libdriver.a(i2c.o)
                0x000000002000d3b4                I2CMasterIntStatusEx
 .text.I2CMasterIntClearEx
                0x000000002000d3e0       0x20 ../../../driverlib/gcc/lib/Debug/libdriver.a(i2c.o)
                0x000000002000d3e0                I2CMasterIntClearEx
 .text.I2CMasterSlaveAddrSet
                0x000000002000d400       0x28 ../../../driverlib/gcc/lib/Debug/libdriver.a(i2c.o)
                0x000000002000d400                I2CMasterSlaveAddrSet
 .text.I2CMasterControl
                0x000000002000d428       0x20 ../../../driverlib/gcc/lib/Debug/libdriver.a(i2c.o)
                0x000000002000d428                I2CMasterControl
 .text.I2CMasterErr
                0x000000002000d448       0x3c ../../../driverlib/gcc/lib/Debug/libdriver.a(i2c.o)
                0x000000002000d448                I2CMasterErr
 .text.I2CMasterDataPut
                0x000000002000d484       0x20 ../../../driverlib/gcc/lib/Debug/libdriver.a(i2c.o)
                0x000000002000d484                I2CMasterDataPut
 .text.I2CMasterDataGet
                0x000000002000d4a4       0x18 ../../../driverlib/gcc/lib/Debug/libdriver.a(i2c.o)
                0x000000002000d4a4                I2CMasterDataGet
 .text.I2CMasterTimeoutSet
                0x000000002000d4bc       0x20 ../../../driverlib/gcc/lib/Debug/libdriver.a(i2c.o)
                0x000000002000d4bc                I2CMasterTimeoutSet
 .text.IntDefaultHandler
                0x000000002000d4dc        0x8 ../../../driverlib/gcc/lib/Debug/libdriver.a(interrupt.o)
 .text.IntMasterEnable
                0x000000002000d4e4       0x10 ../../../driverlib/gcc/lib/Debug/libdriver.a(interrupt.o)
                0x000000002000d4e4                IntMasterEnable
 .text.IntVTableBaseSet
                0x000000002000d4f4       0x1c ../../../driverlib/gcc/lib/Debug/libdriver.a(interrupt.o)
                0x000000002000d4f4                IntVTableBaseSet
 .text.IntRegister
                0x000000002000d510       0x2c ../../../driverlib/gcc/lib/Debug/libdriver.a(interrupt.o)
                0x000000002000d510                IntRegister
 .text.IntUnregister
                0x000000002000d53c       0x2c ../../../driverlib/gcc/lib/Debug/libdriver.a(interrupt.o)
                0x000000002000d53c                IntUnregister
 .text.IntPrioritySet
                0x000000002000d568       0x68 ../../../driverlib/gcc/lib/Debug/libdriver.a(interrupt.o)
                0x000000002000d568                IntPrioritySet
 .text.IntEnable
                0x000000002000d5d0       0xbc ../../../driverlib/gcc/lib/Debug/libdriver.a(interrupt.o)
                0x000000002000d5d0                IntEnable
 .text.IntDisable
                0x000000002000d68c       0xbc ../../../driverlib/gcc/lib/Debug/libdriver.a(interrupt.o)
                0x000000002000d68c                IntDisable
 .text.IntPendClear
                0x000000002000d748       0x68 ../../../driverlib/gcc/lib/Debug/libdriver.a(interrupt.o)
                0x000000002000d748                IntPendClear
 .text.I2SGBLEnable
                0x000000002000d7b0       0x3c ../../../driverlib/gcc/lib/Debug/libdriver.a(i2s.o)
 .text.I2SEnable
                0x000000002000d7ec       0xa0 ../../../driverlib/gcc/lib/Debug/libdriver.a(i2s.o)
                0x000000002000d7ec                I2SEnable
 .text.I2SConfigSetExpClk
                0x000000002000d88c      0x11c ../../../driverlib/gcc/lib/Debug/libdriver.a(i2s.o)
                0x000000002000d88c                I2SConfigSetExpClk
 .text.I2STxFIFOEnable
                0x000000002000d9a8       0x34 ../../../driverlib/gcc/lib/Debug/libdriver.a(i2s.o)
                0x000000002000d9a8                I2STxFIFOEnable
 .text.I2SRxFIFOEnable
                0x000000002000d9dc       0x34 ../../../driverlib/gcc/lib/Debug/libdriver.a(i2s.o)
                0x000000002000d9dc                I2SRxFIFOEnable
 .text.I2SSerializerConfig
                0x000000002000da10       0x60 ../../../driverlib/gcc/lib/Debug/libdriver.a(i2s.o)
                0x000000002000da10                I2SSerializerConfig
 .text.I2SIntEnable
                0x000000002000da70       0x54 ../../../driverlib/gcc/lib/Debug/libdriver.a(i2s.o)
                0x000000002000da70                I2SIntEnable
 .text.I2SIntClear
                0x000000002000dac4       0x48 ../../../driverlib/gcc/lib/Debug/libdriver.a(i2s.o)
                0x000000002000dac4                I2SIntClear
 .text.I2SIntRegister
                0x000000002000db0c       0x20 ../../../driverlib/gcc/lib/Debug/libdriver.a(i2s.o)
                0x000000002000db0c                I2SIntRegister
 .text.PinModeSet
                0x000000002000db2c       0x48 ../../../driverlib/gcc/lib/Debug/libdriver.a(pin.o)
                0x000000002000db2c                PinModeSet
 .text.PinConfigSet
                0x000000002000db74       0x98 ../../../driverlib/gcc/lib/Debug/libdriver.a(pin.o)
                0x000000002000db74                PinConfigSet
 .text.PinTypeUART
                0x000000002000dc0c       0x24 ../../../driverlib/gcc/lib/Debug/libdriver.a(pin.o)
                0x000000002000dc0c                PinTypeUART
 .text.PinTypeI2C
                0x000000002000dc30       0x28 ../../../driverlib/gcc/lib/Debug/libdriver.a(pin.o)
                0x000000002000dc30                PinTypeI2C
 .text.PinTypeI2S
                0x000000002000dc58       0x24 ../../../driverlib/gcc/lib/Debug/libdriver.a(pin.o)
                0x000000002000dc58                PinTypeI2S
 .text.PinTypeGPIO
                0x000000002000dc7c       0x3c ../../../driverlib/gcc/lib/Debug/libdriver.a(pin.o)
                0x000000002000dc7c                PinTypeGPIO
 .text.PRCMSysResetCauseGet
                0x000000002000dcb8       0x3c ../../../driverlib/gcc/lib/Debug/libdriver.a(prcm.o)
                0x000000002000dcb8                PRCMSysResetCauseGet
 .text.PRCMPeripheralClkEnable
                0x000000002000dcf4       0x5c ../../../driverlib/gcc/lib/Debug/libdriver.a(prcm.o)
                0x000000002000dcf4                PRCMPeripheralClkEnable
 .text.PRCMPeripheralClkDisable
                0x000000002000dd50       0x44 ../../../driverlib/gcc/lib/Debug/libdriver.a(prcm.o)
                0x000000002000dd50                PRCMPeripheralClkDisable
 .text.PRCMPeripheralClockGet
                0x000000002000dd94       0xa8 ../../../driverlib/gcc/lib/Debug/libdriver.a(prcm.o)
                0x000000002000dd94                PRCMPeripheralClockGet
 .text.PRCMPeripheralReset
                0x000000002000de3c       0x8c ../../../driverlib/gcc/lib/Debug/libdriver.a(prcm.o)
                0x000000002000de3c                PRCMPeripheralReset
 .text.PRCMPeripheralStatusGet
                0x000000002000dec8       0x40 ../../../driverlib/gcc/lib/Debug/libdriver.a(prcm.o)
                0x000000002000dec8                PRCMPeripheralStatusGet
 .text.PRCMI2SClockFreqSet
                0x000000002000df08       0x54 ../../../driverlib/gcc/lib/Debug/libdriver.a(prcm.o)
                0x000000002000df08                PRCMI2SClockFreqSet
 .text.PRCMCC3200MCUInit
                0x000000002000df5c      0x1a0 ../../../driverlib/gcc/lib/Debug/libdriver.a(prcm.o)
                0x000000002000df5c                PRCMCC3200MCUInit
 .text.PRCMHIBRegRead
                0x000000002000e0fc       0x20 ../../../driverlib/gcc/lib/Debug/libdriver.a(prcm.o)
                0x000000002000e0fc                PRCMHIBRegRead
 .text.PRCMHIBRegWrite
                0x000000002000e11c       0x20 ../../../driverlib/gcc/lib/Debug/libdriver.a(prcm.o)
                0x000000002000e11c                PRCMHIBRegWrite
 .text.SPIDmaMaskGet
                0x000000002000e13c       0x48 ../../../driverlib/gcc/lib/Debug/libdriver.a(spi.o)
 .text.SPIEnable
                0x000000002000e184       0x28 ../../../driverlib/gcc/lib/Debug/libdriver.a(spi.o)
                0x000000002000e184                SPIEnable
 .text.SPIDisable
                0x000000002000e1ac       0x28 ../../../driverlib/gcc/lib/Debug/libdriver.a(spi.o)
                0x000000002000e1ac                SPIDisable
 .text.SPIDmaEnable
                0x000000002000e1d4       0x2c ../../../driverlib/gcc/lib/Debug/libdriver.a(spi.o)
                0x000000002000e1d4                SPIDmaEnable
 .text.SPIDmaDisable
                0x000000002000e200       0x2c ../../../driverlib/gcc/lib/Debug/libdriver.a(spi.o)
                0x000000002000e200                SPIDmaDisable
 .text.SPIReset
                0x000000002000e22c       0x3c ../../../driverlib/gcc/lib/Debug/libdriver.a(spi.o)
                0x000000002000e22c                SPIReset
 .text.SPIConfigSetExpClk
                0x000000002000e268       0xb8 ../../../driverlib/gcc/lib/Debug/libdriver.a(spi.o)
                0x000000002000e268                SPIConfigSetExpClk
 .text.SPIFIFOEnable
                0x000000002000e320       0x2c ../../../driverlib/gcc/lib/Debug/libdriver.a(spi.o)
                0x000000002000e320                SPIFIFOEnable
 .text.SPIFIFODisable
                0x000000002000e34c       0x2c ../../../driverlib/gcc/lib/Debug/libdriver.a(spi.o)
                0x000000002000e34c                SPIFIFODisable
 .text.SPIFIFOLevelSet
                0x000000002000e378       0x44 ../../../driverlib/gcc/lib/Debug/libdriver.a(spi.o)
                0x000000002000e378                SPIFIFOLevelSet
 .text.SPIWordCountSet
                0x000000002000e3bc       0x34 ../../../driverlib/gcc/lib/Debug/libdriver.a(spi.o)
                0x000000002000e3bc                SPIWordCountSet
 .text.SPIIntEnable
                0x000000002000e3f0       0x6c ../../../driverlib/gcc/lib/Debug/libdriver.a(spi.o)
                0x000000002000e3f0                SPIIntEnable
 .text.SPIIntClear
                0x000000002000e45c       0x60 ../../../driverlib/gcc/lib/Debug/libdriver.a(spi.o)
                0x000000002000e45c                SPIIntClear
 .text.SPICSEnable
                0x000000002000e4bc       0x28 ../../../driverlib/gcc/lib/Debug/libdriver.a(spi.o)
                0x000000002000e4bc                SPICSEnable
 .text.SPICSDisable
                0x000000002000e4e4       0x28 ../../../driverlib/gcc/lib/Debug/libdriver.a(spi.o)
                0x000000002000e4e4                SPICSDisable
 .text.TimerEnable
                0x000000002000e50c       0x2c ../../../driverlib/gcc/lib/Debug/libdriver.a(timer.o)
                0x000000002000e50c                TimerEnable
 .text.TimerConfigure
                0x000000002000e538       0x58 ../../../driverlib/gcc/lib/Debug/libdriver.a(timer.o)
                0x000000002000e538                TimerConfigure
 .text.TimerPrescaleSet
                0x000000002000e590       0x3c ../../../driverlib/gcc/lib/Debug/libdriver.a(timer.o)
                0x000000002000e590                TimerPrescaleSet
 .text.TimerLoadSet
                0x000000002000e5cc       0x3c ../../../driverlib/gcc/lib/Debug/libdriver.a(timer.o)
                0x000000002000e5cc                TimerLoadSet
 .text.TimerValueGet
                0x000000002000e608       0x28 ../../../driverlib/gcc/lib/Debug/libdriver.a(timer.o)
                0x000000002000e608                TimerValueGet
 .text.UARTConfigSetExpClk
                0x000000002000e630       0x98 ../../../driverlib/gcc/lib/Debug/libdriver.a(uart.o)
                0x000000002000e630                UARTConfigSetExpClk
 .text.UARTEnable
                0x000000002000e6c8       0x3c ../../../driverlib/gcc/lib/Debug/libdriver.a(uart.o)
                0x000000002000e6c8                UARTEnable
 .text.UARTDisable
                0x000000002000e704       0x4c ../../../driverlib/gcc/lib/Debug/libdriver.a(uart.o)
                0x000000002000e704                UARTDisable
 .text.UARTCharPut
                0x000000002000e750       0x2c ../../../driverlib/gcc/lib/Debug/libdriver.a(uart.o)
                0x000000002000e750                UARTCharPut
 .text.uDMAEnable
                0x000000002000e77c       0x18 ../../../driverlib/gcc/lib/Debug/libdriver.a(udma.o)
                0x000000002000e77c                uDMAEnable
 .text.uDMAChannelEnable
                0x000000002000e794       0x28 ../../../driverlib/gcc/lib/Debug/libdriver.a(udma.o)
                0x000000002000e794                uDMAChannelEnable
 .text.uDMAControlBaseSet
                0x000000002000e7bc       0x1c ../../../driverlib/gcc/lib/Debug/libdriver.a(udma.o)
                0x000000002000e7bc                uDMAControlBaseSet
 .text.uDMAControlBaseGet
                0x000000002000e7d8       0x14 ../../../driverlib/gcc/lib/Debug/libdriver.a(udma.o)
                0x000000002000e7d8                uDMAControlBaseGet
 .text.uDMAChannelAttributeEnable
                0x000000002000e7ec       0x84 ../../../driverlib/gcc/lib/Debug/libdriver.a(udma.o)
                0x000000002000e7ec                uDMAChannelAttributeEnable
 .text.uDMAChannelAttributeDisable
                0x000000002000e870       0x84 ../../../driverlib/gcc/lib/Debug/libdriver.a(udma.o)
                0x000000002000e870                uDMAChannelAttributeDisable
 .text.uDMAChannelControlSet
                0x000000002000e8f4       0x48 ../../../driverlib/gcc/lib/Debug/libdriver.a(udma.o)
                0x000000002000e8f4                uDMAChannelControlSet
 .text.uDMAChannelTransferSet
                0x000000002000e93c      0x104 ../../../driverlib/gcc/lib/Debug/libdriver.a(udma.o)
                0x000000002000e93c                uDMAChannelTransferSet
 .text.uDMAIntStatus
                0x000000002000ea40       0x14 ../../../driverlib/gcc/lib/Debug/libdriver.a(udma.o)
                0x000000002000ea40                uDMAIntStatus
 .text.uDMAIntClear
                0x000000002000ea54       0x1c ../../../driverlib/gcc/lib/Debug/libdriver.a(udma.o)
                0x000000002000ea54                uDMAIntClear
 .text.uDMAChannelAssign
                0x000000002000ea70       0x58 ../../../driverlib/gcc/lib/Debug/libdriver.a(udma.o)
                0x000000002000ea70                uDMAChannelAssign
 .text.UtilsDelay
                0x000000002000eac8        0xc ../../../driverlib/gcc/lib/Debug/libdriver.a(utils.o)
                0x000000002000eac8                UtilsDelay
 .text.CPUcpsie
                0x000000002000ead4       0x18 ../../../driverlib/gcc/lib/Debug/libdriver.a(cpu.o)
                0x000000002000ead4                CPUcpsie
 .text.malloc   0x000000002000eaec       0x10 /usr/lib/gcc/arm-none-eabi/5.2.0/../../../../arm-none-eabi/lib/armv7e-m/libc_nano.a(lib_a-malloc.o)
                0x000000002000eaec                malloc
 .text.free     0x000000002000eafc       0x10 /usr/lib/gcc/arm-none-eabi/5.2.0/../../../../arm-none-eabi/lib/armv7e-m/libc_nano.a(lib_a-malloc.o)
                0x000000002000eafc                free
 .text.memcmp   0x000000002000eb0c       0x1e /usr/lib/gcc/arm-none-eabi/5.2.0/../../../../arm-none-eabi/lib/armv7e-m/libc_nano.a(lib_a-memcmp.o)
                0x000000002000eb0c                memcmp
 .text.memcpy   0x000000002000eb2a       0x16 /usr/lib/gcc/arm-none-eabi/5.2.0/../../../../arm-none-eabi/lib/armv7e-m/libc_nano.a(lib_a-memcpy.o)
                0x000000002000eb2a                memcpy
 .text.memmove  0x000000002000eb40       0x36 /usr/lib/gcc/arm-none-eabi/5.2.0/../../../../arm-none-eabi/lib/armv7e-m/libc_nano.a(lib_a-memmove.o)
                0x000000002000eb40                memmove
 .text.memset   0x000000002000eb76       0x10 /usr/lib/gcc/arm-none-eabi/5.2.0/../../../../arm-none-eabi/lib/armv7e-m/libc_nano.a(lib_a-memset.o)
                0x000000002000eb76                memset
 *fill*         0x000000002000eb86        0x2 
 .text._free_r  0x000000002000eb88       0x8c /usr/lib/gcc/arm-none-eabi/5.2.0/../../../../arm-none-eabi/lib/armv7e-m/libc_nano.a(lib_a-nano-freer.o)
                0x000000002000eb88                _free_r
 .text._malloc_r
                0x000000002000ec14       0xa8 /usr/lib/gcc/arm-none-eabi/5.2.0/../../../../arm-none-eabi/lib/armv7e-m/libc_nano.a(lib_a-nano-mallocr.o)
                0x000000002000ec14                _malloc_r
 .text.realloc  0x000000002000ecbc       0x10 /usr/lib/gcc/arm-none-eabi/5.2.0/../../../../arm-none-eabi/lib/armv7e-m/libc_nano.a(lib_a-realloc.o)
                0x000000002000ecbc                realloc
 .text._sbrk_r  0x000000002000eccc       0x20 /usr/lib/gcc/arm-none-eabi/5.2.0/../../../../arm-none-eabi/lib/armv7e-m/libc_nano.a(lib_a-sbrkr.o)
                0x000000002000eccc                _sbrk_r
 .text._vsnprintf_r
                0x000000002000ecec       0x56 /usr/lib/gcc/arm-none-eabi/5.2.0/../../../../arm-none-eabi/lib/armv7e-m/libc_nano.a(lib_a-vsnprintf.o)
                0x000000002000ecec                _vsnprintf_r
                0x000000002000ecec                _vsniprintf_r
 *fill*         0x000000002000ed42        0x2 
 .text.vsnprintf
                0x000000002000ed44       0x1c /usr/lib/gcc/arm-none-eabi/5.2.0/../../../../arm-none-eabi/lib/armv7e-m/libc_nano.a(lib_a-vsnprintf.o)
                0x000000002000ed44                vsnprintf
                0x000000002000ed44                vsniprintf
 .text._realloc_r
                0x000000002000ed60       0x4c /usr/lib/gcc/arm-none-eabi/5.2.0/../../../../arm-none-eabi/lib/armv7e-m/libc_nano.a(lib_a-nano-reallocr.o)
                0x000000002000ed60                _realloc_r
 .text.__ssputs_r
                0x000000002000edac       0xb2 /usr/lib/gcc/arm-none-eabi/5.2.0/../../../../arm-none-eabi/lib/armv7e-m/libc_nano.a(lib_a-nano-svfprintf.o)
                0x000000002000edac                __ssputs_r
 *fill*         0x000000002000ee5e        0x2 
 .text._svfprintf_r
                0x000000002000ee60      0x1e8 /usr/lib/gcc/arm-none-eabi/5.2.0/../../../../arm-none-eabi/lib/armv7e-m/libc_nano.a(lib_a-nano-svfprintf.o)
                0x000000002000ee60                _svfprintf_r
                0x000000002000ee60                _svfiprintf_r
 .text._printf_common
                0x000000002000f048       0xec /usr/lib/gcc/arm-none-eabi/5.2.0/../../../../arm-none-eabi/lib/armv7e-m/libc_nano.a(lib_a-nano-vfprintf_i.o)
                0x000000002000f048                _printf_common
 .text._printf_i
                0x000000002000f134      0x24c /usr/lib/gcc/arm-none-eabi/5.2.0/../../../../arm-none-eabi/lib/armv7e-m/libc_nano.a(lib_a-nano-vfprintf_i.o)
                0x000000002000f134                _printf_i
 .text.memchr   0x000000002000f380       0x1e /usr/lib/gcc/arm-none-eabi/5.2.0/../../../../arm-none-eabi/lib/armv7e-m/libc_nano.a(lib_a-memchr.o)
                0x000000002000f380                memchr
 .text._malloc_usable_size_r
                0x000000002000f39e       0x14 /usr/lib/gcc/arm-none-eabi/5.2.0/../../../../arm-none-eabi/lib/armv7e-m/libc_nano.a(lib_a-nano-msizer.o)
                0x000000002000f39e                _malloc_usable_size_r
 *fill*         0x000000002000f3b2        0x2 
 .text          0x000000002000f3b4       0x30 /usr/lib/gcc/arm-none-eabi/5.2.0/armv7e-m/libgcc.a(_aeabi_uldivmod.o)
                0x000000002000f3b4                __aeabi_uldivmod
 .text          0x000000002000f3e4      0x2e4 /usr/lib/gcc/arm-none-eabi/5.2.0/armv7e-m/libgcc.a(_udivmoddi4.o)
                0x000000002000f3e4                __udivmoddi4
 .text          0x000000002000f6c8        0x4 /usr/lib/gcc/arm-none-eabi/5.2.0/armv7e-m/libgcc.a(_dvmd_tls.o)
                0x000000002000f6c8                __aeabi_ldiv0
                0x000000002000f6c8                __aeabi_idiv0
 *(.rodata*)
 .rodata        0x000000002000f6cc       0x70 obj/Unicast/Debug/audiocodec.o
 .rodata        0x000000002000f73c       0xec obj/Unicast/Debug/control.o
 .rodata.__FUNCTION__.6345
                0x000000002000f828        0xc obj/Unicast/Debug/control.o
 .rodata.__FUNCTION__.6355
                0x000000002000f834       0x14 obj/Unicast/Debug/control.o
 .rodata        0x000000002000f848       0xa8 obj/Unicast/Debug/main.o
 .rodata.__FUNCTION__.6381
                0x000000002000f8f0        0x8 obj/Unicast/Debug/main.o
 .rodata        0x000000002000f8f8       0x30 obj/Unicast/Debug/microphone.o
 .rodata        0x000000002000f928      0x294 obj/Unicast/Debug/network.o
 .rodata.__FUNCTION__.6290
                0x000000002000fbbc       0x10 obj/Unicast/Debug/network.o
 .rodata.__FUNCTION__.6295
                0x000000002000fbcc       0x14 obj/Unicast/Debug/network.o
 .rodata.__FUNCTION__.6310
                0x000000002000fbe0       0x10 obj/Unicast/Debug/network.o
 .rodata        0x000000002000fbf0       0x30 obj/Unicast/Debug/smartconfig.o
 .rodata.__FUNCTION__.5477
                0x000000002000fc20       0x14 obj/Unicast/Debug/smartconfig.o
 .rodata        0x000000002000fc34       0x18 obj/Unicast/Debug/speaker.o
 .rodata        0x000000002000fc4c       0x2c obj/Unicast/Debug/uart_if.o
 .rodata.StartResponseLUT
                0x000000002000fc78        0x8 ../../../simplelink/gcc/lib/os/Debug/libsimplelink.a(device.o)
 .rodata._SlStopCmdCtrl
                0x000000002000fc80        0x4 ../../../simplelink/gcc/lib/os/Debug/libsimplelink.a(device.o)
 .rodata.g_H2NSyncPattern
                0x000000002000fc84        0x8 ../../../simplelink/gcc/lib/os/Debug/libsimplelink.a(driver.o)
 .rodata.g_H2NCnysPattern
                0x000000002000fc8c        0x8 ../../../simplelink/gcc/lib/os/Debug/libsimplelink.a(driver.o)
 .rodata._SlActionLookupTable
                0x000000002000fc94       0x38 ../../../simplelink/gcc/lib/os/Debug/libsimplelink.a(driver.o)
                0x000000002000fc94                _SlActionLookupTable
 .rodata.OpcodeTranslateTable
                0x000000002000fccc       0x3c ../../../simplelink/gcc/lib/os/Debug/libsimplelink.a(driver.o)
                0x000000002000fccc                OpcodeTranslateTable
 .rodata.RxMsgClassLUT
                0x000000002000fd08       0x20 ../../../simplelink/gcc/lib/os/Debug/libsimplelink.a(driver.o)
 .rodata._SlRegisterServiceCtrl
                0x000000002000fd28        0x4 ../../../simplelink/gcc/lib/os/Debug/libsimplelink.a(netapp.o)
 .rodata._SlGetHostByServiceCtrl
                0x000000002000fd2c        0x4 ../../../simplelink/gcc/lib/os/Debug/libsimplelink.a(netapp.o)
 .rodata._SlNetAppSendTokenValueCmdCtrl
                0x000000002000fd30        0x4 ../../../simplelink/gcc/lib/os/Debug/libsimplelink.a(netapp.o)
                0x000000002000fd30                _SlNetAppSendTokenValueCmdCtrl
 .rodata._SlPayloadByProtocolLUT
                0x000000002000fd34       0x10 ../../../simplelink/gcc/lib/os/Debug/libsimplelink.a(socket.o)
 .rodata._SlSockSocketCmdCtrl
                0x000000002000fd44        0x4 ../../../simplelink/gcc/lib/os/Debug/libsimplelink.a(socket.o)
 .rodata._SlRecvfomCmdCtrl
                0x000000002000fd48        0x4 ../../../simplelink/gcc/lib/os/Debug/libsimplelink.a(socket.o)
 .rodata._SlSelectCmdCtrl
                0x000000002000fd4c        0x4 ../../../simplelink/gcc/lib/os/Debug/libsimplelink.a(socket.o)
 .rodata._SlPolicySetCmdCtrl
                0x000000002000fd50        0x4 ../../../simplelink/gcc/lib/os/Debug/libsimplelink.a(wlan.o)
 .rodata._SlProfileDelCmdCtrl
                0x000000002000fd54        0x4 ../../../simplelink/gcc/lib/os/Debug/libsimplelink.a(wlan.o)
 .rodata._SlSmartConfigStartCmdCtrl
                0x000000002000fd58        0x4 ../../../simplelink/gcc/lib/os/Debug/libsimplelink.a(wlan.o)
 .rodata._SlWlanSetModeCmdCtrl
                0x000000002000fd5c        0x4 ../../../simplelink/gcc/lib/os/Debug/libsimplelink.a(wlan.o)
 .rodata        0x000000002000fd60        0xc ../../../simplelink/gcc/lib/os/Debug/libsimplelink.a(cc_pal.o)
 .rodata        0x000000002000fd6c        0x8 ../../../oslib/gcc/free_rtos/Debug/free_rtos.a(osi_freertos.o)
 .rodata        0x000000002000fd74       0x2c ../../../oslib/gcc/free_rtos/Debug/free_rtos.a(queue.o)
 .rodata        0x000000002000fda0       0x44 ../../../oslib/gcc/free_rtos/Debug/free_rtos.a(tasks.o)
 .rodata.ucExpectedStackBytes.5776
                0x000000002000fde4       0x14 ../../../oslib/gcc/free_rtos/Debug/free_rtos.a(tasks.o)
 .rodata        0x000000002000fdf8       0x40 ../../../oslib/gcc/free_rtos/Debug/free_rtos.a(port.o)
 .rodata        0x000000002000fe38       0x3c ../../../oslib/gcc/free_rtos/Debug/free_rtos.a(timers.o)
 .rodata.g_pulRegs
                0x000000002000fe74       0xd4 ../../../driverlib/gcc/lib/Debug/libdriver.a(interrupt.o)
 .rodata.g_pulEnRegs
                0x000000002000ff48       0x18 ../../../driverlib/gcc/lib/Debug/libdriver.a(interrupt.o)
 .rodata.g_pulDisRegs
                0x000000002000ff60       0x18 ../../../driverlib/gcc/lib/Debug/libdriver.a(interrupt.o)
 .rodata.g_pulUnpendRegs
                0x000000002000ff78       0x18 ../../../driverlib/gcc/lib/Debug/libdriver.a(interrupt.o)
 .rodata.g_ulPinToPadMap
                0x000000002000ff90      0x100 ../../../driverlib/gcc/lib/Debug/libdriver.a(pin.o)
 .rodata.PRCM_PeriphRegsList
                0x0000000020010090       0xa8 ../../../driverlib/gcc/lib/Debug/libdriver.a(prcm.o)
 .rodata.g_ulSPIDmaMaskMap
                0x0000000020010138       0x18 ../../../driverlib/gcc/lib/Debug/libdriver.a(spi.o)
 .rodata.str1.1
                0x0000000020010150        0x2 /usr/lib/gcc/arm-none-eabi/5.2.0/../../../../arm-none-eabi/lib/armv7e-m/libc_nano.a(lib_a-impure.o)
 .rodata.str1.1
                0x0000000020010152       0x11 /usr/lib/gcc/arm-none-eabi/5.2.0/../../../../arm-none-eabi/lib/armv7e-m/libc_nano.a(lib_a-nano-svfprintf.o)
 .rodata.str1.1
                0x0000000020010163       0x22 /usr/lib/gcc/arm-none-eabi/5.2.0/../../../../arm-none-eabi/lib/armv7e-m/libc_nano.a(lib_a-nano-vfprintf_i.o)
 *(.ARM.extab* .gnu.linkonce.armextab.*)
                0x0000000020010188                . = ALIGN (0x8)
 *fill*         0x0000000020010185        0x3 
                0x0000000020010188                _etext = .

.glue_7         0x0000000020010188        0x0
 .glue_7        0x0000000000000000        0x0 linker stubs

.glue_7t        0x0000000020010188        0x0
 .glue_7t       0x0000000000000000        0x0 linker stubs

.vfp11_veneer   0x0000000020010188        0x0
 .vfp11_veneer  0x0000000000000000        0x0 linker stubs

.v4_bx          0x0000000020010188        0x0
 .v4_bx         0x0000000000000000        0x0 linker stubs

.iplt           0x0000000020010188        0x0
 .iplt          0x0000000000000000        0x0 obj/Unicast/Debug/audiocodec.o

.ARM            0x0000000020010188        0x8
                0x0000000020010188                __exidx_start = .
 *(.ARM.exidx*)
 .ARM.exidx     0x0000000020010188        0x8 /usr/lib/gcc/arm-none-eabi/5.2.0/armv7e-m/libgcc.a(_udivmoddi4.o)
                0x0000000020010190                __exidx_end = .
                0x0000000020010190                __init_data = .

.rel.dyn        0x0000000020010190        0x0
 .rel.iplt      0x0000000000000000        0x0 obj/Unicast/Debug/audiocodec.o

.data           0x0000000020010190       0x88
                0x0000000020010190                _data = .
 *(.data*)
 .data.g_loopback
                0x0000000020010190        0x1 obj/Unicast/Debug/main.o
                0x0000000020010190                g_loopback
 *fill*         0x0000000020010191        0x3 
 .data.ulReg    0x0000000020010194       0x14 obj/Unicast/Debug/gpio_if.o
 .data.xNextTaskUnblockTime
                0x00000000200101a8        0x4 ../../../oslib/gcc/free_rtos/Debug/free_rtos.a(tasks.o)
 .data.uxCriticalNesting
                0x00000000200101ac        0x4 ../../../oslib/gcc/free_rtos/Debug/free_rtos.a(port.o)
 .data.impure_data
                0x00000000200101b0       0x60 /usr/lib/gcc/arm-none-eabi/5.2.0/../../../../arm-none-eabi/lib/armv7e-m/libc_nano.a(lib_a-impure.o)
 .data._impure_ptr
                0x0000000020010210        0x4 /usr/lib/gcc/arm-none-eabi/5.2.0/../../../../arm-none-eabi/lib/armv7e-m/libc_nano.a(lib_a-impure.o)
                0x0000000020010210                _impure_ptr
                0x0000000020010218                . = ALIGN (0x8)
 *fill*         0x0000000020010214        0x4 
                0x0000000020010218                _edata = .

.igot.plt       0x0000000020010218        0x0
 .igot.plt      0x0000000000000000        0x0 obj/Unicast/Debug/audiocodec.o

.bss            0x0000000020010400     0x60b4
                0x0000000020010400                _bss = .
 *(.bss*)
 .bss.val       0x0000000020010400        0x4 obj/Unicast/Debug/audiocodec.o
 .bss.I         0x0000000020010404        0x1 obj/Unicast/Debug/audiocodec.o
 .bss.J         0x0000000020010405        0x1 obj/Unicast/Debug/audiocodec.o
 .bss.vol.5018  0x0000000020010406        0x1 obj/Unicast/Debug/audiocodec.o
 .bss.g_ucMicStartFlag
                0x0000000020010407        0x1 obj/Unicast/Debug/control.o
                0x0000000020010407                g_ucMicStartFlag
 .bss.g_ucSpkrStartFlag
                0x0000000020010408        0x1 obj/Unicast/Debug/control.o
                0x0000000020010408                g_ucSpkrStartFlag
 *fill*         0x0000000020010409        0x3 
 .bss.g_SpeakerTask
                0x000000002001040c        0x4 obj/Unicast/Debug/main.o
                0x000000002001040c                g_SpeakerTask
 .bss.g_MicTask
                0x0000000020010410        0x4 obj/Unicast/Debug/main.o
                0x0000000020010410                g_MicTask
 .bss.g_NetworkTask
                0x0000000020010414        0x4 obj/Unicast/Debug/main.o
                0x0000000020010414                g_NetworkTask
 .bss.g_iSentCount
                0x0000000020010418        0x4 obj/Unicast/Debug/microphone.o
                0x0000000020010418                g_iSentCount
 .bss.g_ulStatus
                0x000000002001041c        0x4 obj/Unicast/Debug/network.o
                0x000000002001041c                g_ulStatus
 .bss.g_uiIpAddress
                0x0000000020010420        0x4 obj/Unicast/Debug/network.o
                0x0000000020010420                g_uiIpAddress
 .bss.g_uiPlayWaterMark
                0x0000000020010424        0x4 obj/Unicast/Debug/pcm_handler.o
                0x0000000020010424                g_uiPlayWaterMark
 .bss.g_iReceiveCount
                0x0000000020010428        0x4 obj/Unicast/Debug/speaker.o
                0x0000000020010428                g_iReceiveCount
 .bss.g_iRetVal
                0x000000002001042c        0x4 obj/Unicast/Debug/speaker.o
                0x000000002001042c                g_iRetVal
 .bss.__Errorlog
                0x0000000020010430        0x4 obj/Unicast/Debug/uart_if.o
 .bss.g_uiLED1Port
                0x0000000020010434        0x4 obj/Unicast/Debug/gpio_if.o
                0x0000000020010434                g_uiLED1Port
 .bss.g_uiLED2Port
                0x0000000020010438        0x4 obj/Unicast/Debug/gpio_if.o
                0x0000000020010438                g_uiLED2Port
 .bss.g_uiLED3Port
                0x000000002001043c        0x4 obj/Unicast/Debug/gpio_if.o
                0x000000002001043c                g_uiLED3Port
 .bss.heap_end  0x0000000020010440        0x4 obj/Unicast/Debug/startup_gcc.o
 .bss.heap2_end
                0x0000000020010444        0x4 obj/Unicast/Debug/startup_gcc.o
 .bss.pui32Stack
                0x0000000020010448     0x1000 obj/Unicast/Debug/startup_gcc.o
 .bss.g_SlDeviceStatus
                0x0000000020011448        0x2 ../../../simplelink/gcc/lib/os/Debug/libsimplelink.a(driver.o)
                0x0000000020011448                g_SlDeviceStatus
 *fill*         0x000000002001144a        0x2 
 .bss.g_StatMem
                0x000000002001144c      0x178 ../../../simplelink/gcc/lib/os/Debug/libsimplelink.a(driver.o)
 .bss.g_pCB     0x00000000200115c4        0x4 ../../../simplelink/gcc/lib/os/Debug/libsimplelink.a(driver.o)
                0x00000000200115c4                g_pCB
 .bss.pPingCallBackFunc
                0x00000000200115c8        0x4 ../../../simplelink/gcc/lib/os/Debug/libsimplelink.a(driver.o)
                0x00000000200115c8                pPingCallBackFunc
 .bss.gFirstCmdMode
                0x00000000200115cc        0x1 ../../../simplelink/gcc/lib/os/Debug/libsimplelink.a(driver.o)
 *fill*         0x00000000200115cd        0x3 
 .bss.g_SpiFd   0x00000000200115d0        0x4 ../../../simplelink/gcc/lib/os/Debug/libsimplelink.a(cc_pal.o)
                0x00000000200115d0                g_SpiFd
 .bss.g_ucDMAEnabled
                0x00000000200115d4        0x1 ../../../simplelink/gcc/lib/os/Debug/libsimplelink.a(cc_pal.o)
                0x00000000200115d4                g_ucDMAEnabled
 *fill*         0x00000000200115d5        0x3 
 .bss.xHigherPriorityTaskWoken
                0x00000000200115d8        0x4 ../../../oslib/gcc/free_rtos/Debug/free_rtos.a(osi_freertos.o)
                0x00000000200115d8                xHigherPriorityTaskWoken
 .bss.xSimpleLinkSpawnQueue
                0x00000000200115dc        0x4 ../../../oslib/gcc/free_rtos/Debug/free_rtos.a(osi_freertos.o)
                0x00000000200115dc                xSimpleLinkSpawnQueue
 .bss.xSimpleLinkSpawnTaskHndl
                0x00000000200115e0        0x4 ../../../oslib/gcc/free_rtos/Debug/free_rtos.a(osi_freertos.o)
                0x00000000200115e0                xSimpleLinkSpawnTaskHndl
 .bss.pxCurrentTCB
                0x00000000200115e4        0x4 ../../../oslib/gcc/free_rtos/Debug/free_rtos.a(tasks.o)
                0x00000000200115e4                pxCurrentTCB
 .bss.pxReadyTasksLists
                0x00000000200115e8       0xc8 ../../../oslib/gcc/free_rtos/Debug/free_rtos.a(tasks.o)
 .bss.xDelayedTaskList1
                0x00000000200116b0       0x14 ../../../oslib/gcc/free_rtos/Debug/free_rtos.a(tasks.o)
 .bss.xDelayedTaskList2
                0x00000000200116c4       0x14 ../../../oslib/gcc/free_rtos/Debug/free_rtos.a(tasks.o)
 .bss.pxDelayedTaskList
                0x00000000200116d8        0x4 ../../../oslib/gcc/free_rtos/Debug/free_rtos.a(tasks.o)
 .bss.pxOverflowDelayedTaskList
                0x00000000200116dc        0x4 ../../../oslib/gcc/free_rtos/Debug/free_rtos.a(tasks.o)
 .bss.xPendingReadyList
                0x00000000200116e0       0x14 ../../../oslib/gcc/free_rtos/Debug/free_rtos.a(tasks.o)
 .bss.xTasksWaitingTermination
                0x00000000200116f4       0x14 ../../../oslib/gcc/free_rtos/Debug/free_rtos.a(tasks.o)
 .bss.uxTasksDeleted
                0x0000000020011708        0x4 ../../../oslib/gcc/free_rtos/Debug/free_rtos.a(tasks.o)
 .bss.xSuspendedTaskList
                0x000000002001170c       0x14 ../../../oslib/gcc/free_rtos/Debug/free_rtos.a(tasks.o)
 .bss.xIdleTaskHandle
                0x0000000020011720        0x4 ../../../oslib/gcc/free_rtos/Debug/free_rtos.a(tasks.o)
 .bss.uxCurrentNumberOfTasks
                0x0000000020011724        0x4 ../../../oslib/gcc/free_rtos/Debug/free_rtos.a(tasks.o)
 .bss.xTickCount
                0x0000000020011728        0x4 ../../../oslib/gcc/free_rtos/Debug/free_rtos.a(tasks.o)
 .bss.uxTopReadyPriority
                0x000000002001172c        0x4 ../../../oslib/gcc/free_rtos/Debug/free_rtos.a(tasks.o)
 .bss.xSchedulerRunning
                0x0000000020011730        0x4 ../../../oslib/gcc/free_rtos/Debug/free_rtos.a(tasks.o)
 .bss.uxPendedTicks
                0x0000000020011734        0x4 ../../../oslib/gcc/free_rtos/Debug/free_rtos.a(tasks.o)
 .bss.xYieldPending
                0x0000000020011738        0x4 ../../../oslib/gcc/free_rtos/Debug/free_rtos.a(tasks.o)
 .bss.xNumOfOverflows
                0x000000002001173c        0x4 ../../../oslib/gcc/free_rtos/Debug/free_rtos.a(tasks.o)
 .bss.uxTaskNumber
                0x0000000020011740        0x4 ../../../oslib/gcc/free_rtos/Debug/free_rtos.a(tasks.o)
 .bss.uxSchedulerSuspended
                0x0000000020011744        0x4 ../../../oslib/gcc/free_rtos/Debug/free_rtos.a(tasks.o)
 .bss.ucMaxSysCallPriority
                0x0000000020011748        0x1 ../../../oslib/gcc/free_rtos/Debug/free_rtos.a(port.o)
 *fill*         0x0000000020011749        0x3 
 .bss.ulMaxPRIGROUPValue
                0x000000002001174c        0x4 ../../../oslib/gcc/free_rtos/Debug/free_rtos.a(port.o)
 .bss.xActiveTimerList1
                0x0000000020011750       0x14 ../../../oslib/gcc/free_rtos/Debug/free_rtos.a(timers.o)
 .bss.xActiveTimerList2
                0x0000000020011764       0x14 ../../../oslib/gcc/free_rtos/Debug/free_rtos.a(timers.o)
 .bss.pxCurrentTimerList
                0x0000000020011778        0x4 ../../../oslib/gcc/free_rtos/Debug/free_rtos.a(timers.o)
 .bss.pxOverflowTimerList
                0x000000002001177c        0x4 ../../../oslib/gcc/free_rtos/Debug/free_rtos.a(timers.o)
 .bss.xTimerQueue
                0x0000000020011780        0x4 ../../../oslib/gcc/free_rtos/Debug/free_rtos.a(timers.o)
 .bss.xTimerTaskHandle
                0x0000000020011784        0x4 ../../../oslib/gcc/free_rtos/Debug/free_rtos.a(timers.o)
 .bss.xLastTime.4980
                0x0000000020011788        0x4 ../../../oslib/gcc/free_rtos/Debug/free_rtos.a(timers.o)
 .bss.__malloc_sbrk_start
                0x000000002001178c        0x4 /usr/lib/gcc/arm-none-eabi/5.2.0/../../../../arm-none-eabi/lib/armv7e-m/libc_nano.a(lib_a-nano-mallocr.o)
                0x000000002001178c                __malloc_sbrk_start
 .bss.__malloc_free_list
                0x0000000020011790        0x4 /usr/lib/gcc/arm-none-eabi/5.2.0/../../../../arm-none-eabi/lib/armv7e-m/libc_nano.a(lib_a-nano-mallocr.o)
                0x0000000020011790                __malloc_free_list
 *(COMMON)
 COMMON         0x0000000020011794       0x10 obj/Unicast/Debug/control.o
                0x0000000020011794                g_ControlMsgQueue
                0x0000000020011798                g_pAudioOutControlHdl
                0x000000002001179c                g_pAudioInControlHdl
                0x00000000200117a0                g_AudioControlTask
 COMMON         0x00000000200117a4       0x34 obj/Unicast/Debug/main.o
                0x00000000200117a4                pPlayBuffer
                0x00000000200117a8                pRecordBuffer
                0x00000000200117ac                g_UdpSock
 COMMON         0x00000000200117d8       0x29 obj/Unicast/Debug/network.o
                0x00000000200117d8                g_ucConnectionBSSID
                0x00000000200117e0                g_ucConnectionSSID
 *fill*         0x0000000020011801        0x3 
 COMMON         0x0000000020011804      0x208 obj/Unicast/Debug/pcm_handler.o
                0x0000000020011804                g_pPlayBuffer
                0x0000000020011808                g_pRecordBuffer
                0x000000002001180c                gaucZeroBuffer
 COMMON         0x0000000020011a0c     0x4000 obj/Unicast/Debug/speaker.o
                0x0000000020011a0c                speaker_data
 *fill*         0x0000000020015a0c      0x1f4 
 COMMON         0x0000000020015c00      0x800 obj/Unicast/Debug/udma_if.o
                0x0000000020015c00                gfpAppCallbackHndl
                0x0000000020015d00                iDone
                0x0000000020016000                gpCtlTbl
 COMMON         0x0000000020016400        0x3 obj/Unicast/Debug/gpio_if.o
                0x0000000020016400                g_ucLED1Pin
                0x0000000020016401                g_ucLED2Pin
                0x0000000020016402                g_ucLED3Pin
 COMMON         0x0000000020016403        0x2 ../../../simplelink/gcc/lib/os/Debug/libsimplelink.a(driver.o)
                0x0000000020016403                g_bDeviceRestartIsRequired
                0x0000000020016404                RxIrqCnt
 *fill*         0x0000000020016405        0x3 
 COMMON         0x0000000020016408       0x58 ../../../simplelink/gcc/lib/os/Debug/libsimplelink.a(cc_pal.o)
                0x0000000020016408                g_cDummy
                0x000000002001640c                DMAMsgQ
                0x0000000020016410                g_ucDinDout
 COMMON         0x0000000020016460       0x50 ../../../oslib/gcc/free_rtos/Debug/free_rtos.a(queue.o)
                0x0000000020016460                xQueueRegistry
 COMMON         0x00000000200164b0        0x4 /usr/lib/gcc/arm-none-eabi/5.2.0/../../../../arm-none-eabi/lib/armv7e-m/libc_nano.a(lib_a-reent.o)
                0x00000000200164b0                errno
                0x00000000200164b4                _ebss = .

.heap           0x00000000200164b4    0x29b4c
                0x00000000200164b4                _heap = .
                0x000000002003fde8                . = (((((((. + 0x40000) - SIZEOF (.bss)) - SIZEOF (.data)) - SIZEOF (.ARM)) - SIZEOF (.text)) - SIZEOF (.bootloader)) - 0x400)
 *fill*         0x00000000200164b4    0x29934 
                0x0000000020040000                . = ALIGN (0x400)
 *fill*         0x000000002003fde8      0x218 
                0x0000000020040000                _eheap = .
LOAD obj/Unicast/Debug/audiocodec.o
LOAD obj/Unicast/Debug/circ_buff.o
LOAD obj/Unicast/Debug/control.o
LOAD obj/Unicast/Debug/main.o
LOAD obj/Unicast/Debug/microphone.o
LOAD obj/Unicast/Debug/network.o
LOAD obj/Unicast/Debug/pcm_handler.o
LOAD obj/Unicast/Debug/pinmux.o
LOAD obj/Unicast/Debug/smartconfig.o
LOAD obj/Unicast/Debug/speaker.o
LOAD obj/Unicast/Debug/uart_if.o
LOAD obj/Unicast/Debug/i2c_if.o
LOAD obj/Unicast/Debug/i2s_if.o
LOAD obj/Unicast/Debug/udma_if.o
LOAD obj/Unicast/Debug/gpio_if.o
LOAD obj/Unicast/Debug/startup_gcc.o
LOAD ../../../simplelink/gcc/lib/os/Debug/libsimplelink.a
LOAD ../../../oslib/gcc/free_rtos/Debug/free_rtos.a
LOAD ../../../driverlib/gcc/lib/Debug/libdriver.a
LOAD /usr/lib/gcc/arm-none-eabi/5.2.0/../../../../arm-none-eabi/lib/armv7e-m/libm.a
LOAD /usr/lib/gcc/arm-none-eabi/5.2.0/../../../../arm-none-eabi/lib/armv7e-m/libc_nano.a
LOAD /usr/lib/gcc/arm-none-eabi/5.2.0/armv7e-m/libgcc.a
LOAD /usr/lib/gcc/arm-none-eabi/5.2.0/../../../../arm-none-eabi/lib/armv7e-m/libnosys.a
OUTPUT(bin/Unicast/Debug/wifi_audio_app.elf elf32-littlearm)

.debug_info     0x0000000000000000    0x1b142
 .debug_info    0x0000000000000000      0x3f3 obj/Unicast/Debug/audiocodec.o
 .debug_info    0x00000000000003f3      0x461 obj/Unicast/Debug/circ_buff.o
 .debug_info    0x0000000000000854      0x4c4 obj/Unicast/Debug/control.o
 .debug_info    0x0000000000000d18      0x3e6 obj/Unicast/Debug/main.o
 .debug_info    0x00000000000010fe      0x294 obj/Unicast/Debug/microphone.o
 .debug_info    0x0000000000001392      0xdf6 obj/Unicast/Debug/network.o
 .debug_info    0x0000000000002188      0x229 obj/Unicast/Debug/pcm_handler.o
 .debug_info    0x00000000000023b1       0x45 obj/Unicast/Debug/pinmux.o
 .debug_info    0x00000000000023f6      0x120 obj/Unicast/Debug/smartconfig.o
 .debug_info    0x0000000000002516      0x357 obj/Unicast/Debug/speaker.o
 .debug_info    0x000000000000286d      0x2ac obj/Unicast/Debug/uart_if.o
 .debug_info    0x0000000000002b19      0x2cb obj/Unicast/Debug/i2c_if.o
 .debug_info    0x0000000000002de4      0x190 obj/Unicast/Debug/i2s_if.o
 .debug_info    0x0000000000002f74      0x377 obj/Unicast/Debug/udma_if.o
 .debug_info    0x00000000000032eb      0x3e6 obj/Unicast/Debug/gpio_if.o
 .debug_info    0x00000000000036d1      0x20f obj/Unicast/Debug/startup_gcc.o
 .debug_info    0x00000000000038e0      0xf4e ../../../simplelink/gcc/lib/os/Debug/libsimplelink.a(device.o)
 .debug_info    0x000000000000482e     0x1bd5 ../../../simplelink/gcc/lib/os/Debug/libsimplelink.a(driver.o)
 .debug_info    0x0000000000006403     0x1943 ../../../simplelink/gcc/lib/os/Debug/libsimplelink.a(netapp.o)
 .debug_info    0x0000000000007d46     0x1a88 ../../../simplelink/gcc/lib/os/Debug/libsimplelink.a(socket.o)
 .debug_info    0x00000000000097ce     0x1aaa ../../../simplelink/gcc/lib/os/Debug/libsimplelink.a(wlan.o)
 .debug_info    0x000000000000b278      0x6db ../../../simplelink/gcc/lib/os/Debug/libsimplelink.a(cc_pal.o)
 .debug_info    0x000000000000b953      0x8d9 ../../../oslib/gcc/free_rtos/Debug/free_rtos.a(osi_freertos.o)
 .debug_info    0x000000000000c22c      0xd88 ../../../oslib/gcc/free_rtos/Debug/free_rtos.a(queue.o)
 .debug_info    0x000000000000cfb4     0x1790 ../../../oslib/gcc/free_rtos/Debug/free_rtos.a(tasks.o)
 .debug_info    0x000000000000e744      0x317 ../../../oslib/gcc/free_rtos/Debug/free_rtos.a(port.o)
 .debug_info    0x000000000000ea5b      0x9f1 ../../../oslib/gcc/free_rtos/Debug/free_rtos.a(timers.o)
 .debug_info    0x000000000000f44c       0xed ../../../oslib/gcc/free_rtos/Debug/free_rtos.a(heap_3.o)
 .debug_info    0x000000000000f539      0x29d ../../../oslib/gcc/free_rtos/Debug/free_rtos.a(list.o)
 .debug_info    0x000000000000f7d6      0x3b0 ../../../driverlib/gcc/lib/Debug/libdriver.a(gpio.o)
 .debug_info    0x000000000000fb86      0xba8 ../../../driverlib/gcc/lib/Debug/libdriver.a(i2c.o)
 .debug_info    0x000000000001072e      0x383 ../../../driverlib/gcc/lib/Debug/libdriver.a(interrupt.o)
 .debug_info    0x0000000000010ab1      0x595 ../../../driverlib/gcc/lib/Debug/libdriver.a(i2s.o)
 .debug_info    0x0000000000011046      0x3eb ../../../driverlib/gcc/lib/Debug/libdriver.a(pin.o)
 .debug_info    0x0000000000011431      0xa3d ../../../driverlib/gcc/lib/Debug/libdriver.a(prcm.o)
 .debug_info    0x0000000000011e6e      0x9be ../../../driverlib/gcc/lib/Debug/libdriver.a(spi.o)
 .debug_info    0x000000000001282c      0x5c1 ../../../driverlib/gcc/lib/Debug/libdriver.a(timer.o)
 .debug_info    0x0000000000012ded      0x82e ../../../driverlib/gcc/lib/Debug/libdriver.a(uart.o)
 .debug_info    0x000000000001361b      0x53f ../../../driverlib/gcc/lib/Debug/libdriver.a(udma.o)
 .debug_info    0x0000000000013b5a       0x50 ../../../driverlib/gcc/lib/Debug/libdriver.a(utils.o)
 .debug_info    0x0000000000013baa       0xfe ../../../driverlib/gcc/lib/Debug/libdriver.a(cpu.o)
 .debug_info    0x0000000000013ca8      0x7b2 /usr/lib/gcc/arm-none-eabi/5.2.0/../../../../arm-none-eabi/lib/armv7e-m/libc_nano.a(lib_a-malloc.o)
 .debug_info    0x000000000001445a       0xf8 /usr/lib/gcc/arm-none-eabi/5.2.0/../../../../arm-none-eabi/lib/armv7e-m/libc_nano.a(lib_a-memcmp.o)
 .debug_info    0x0000000000014552      0x115 /usr/lib/gcc/arm-none-eabi/5.2.0/../../../../arm-none-eabi/lib/armv7e-m/libc_nano.a(lib_a-memcpy.o)
 .debug_info    0x0000000000014667      0x109 /usr/lib/gcc/arm-none-eabi/5.2.0/../../../../arm-none-eabi/lib/armv7e-m/libc_nano.a(lib_a-memmove.o)
 .debug_info    0x0000000000014770       0xda /usr/lib/gcc/arm-none-eabi/5.2.0/../../../../arm-none-eabi/lib/armv7e-m/libc_nano.a(lib_a-memset.o)
 .debug_info    0x000000000001484a      0x821 /usr/lib/gcc/arm-none-eabi/5.2.0/../../../../arm-none-eabi/lib/armv7e-m/libc_nano.a(lib_a-nano-freer.o)
 .debug_info    0x000000000001506b      0x8ec /usr/lib/gcc/arm-none-eabi/5.2.0/../../../../arm-none-eabi/lib/armv7e-m/libc_nano.a(lib_a-nano-mallocr.o)
 .debug_info    0x0000000000015957      0x786 /usr/lib/gcc/arm-none-eabi/5.2.0/../../../../arm-none-eabi/lib/armv7e-m/libc_nano.a(lib_a-realloc.o)
 .debug_info    0x00000000000160dd      0x7a1 /usr/lib/gcc/arm-none-eabi/5.2.0/../../../../arm-none-eabi/lib/armv7e-m/libc_nano.a(lib_a-sbrkr.o)
 .debug_info    0x000000000001687e      0x892 /usr/lib/gcc/arm-none-eabi/5.2.0/../../../../arm-none-eabi/lib/armv7e-m/libc_nano.a(lib_a-vsnprintf.o)
 .debug_info    0x0000000000017110      0x7da /usr/lib/gcc/arm-none-eabi/5.2.0/../../../../arm-none-eabi/lib/armv7e-m/libc_nano.a(lib_a-impure.o)
 .debug_info    0x00000000000178ea      0x878 /usr/lib/gcc/arm-none-eabi/5.2.0/../../../../arm-none-eabi/lib/armv7e-m/libc_nano.a(lib_a-nano-reallocr.o)
 .debug_info    0x0000000000018162      0xd40 /usr/lib/gcc/arm-none-eabi/5.2.0/../../../../arm-none-eabi/lib/armv7e-m/libc_nano.a(lib_a-nano-svfprintf.o)
 .debug_info    0x0000000000018ea2      0xb33 /usr/lib/gcc/arm-none-eabi/5.2.0/../../../../arm-none-eabi/lib/armv7e-m/libc_nano.a(lib_a-nano-vfprintf_i.o)
 .debug_info    0x00000000000199d5      0x8fb /usr/lib/gcc/arm-none-eabi/5.2.0/../../../../arm-none-eabi/lib/armv7e-m/libc_nano.a(lib_a-reent.o)
 .debug_info    0x000000000001a2d0       0xff /usr/lib/gcc/arm-none-eabi/5.2.0/../../../../arm-none-eabi/lib/armv7e-m/libc_nano.a(lib_a-memchr.o)
 .debug_info    0x000000000001a3cf      0x7c0 /usr/lib/gcc/arm-none-eabi/5.2.0/../../../../arm-none-eabi/lib/armv7e-m/libc_nano.a(lib_a-nano-msizer.o)
 .debug_info    0x000000000001ab8f       0xb7 /usr/lib/gcc/arm-none-eabi/5.2.0/armv7e-m/libgcc.a(_aeabi_uldivmod.o)
 .debug_info    0x000000000001ac46      0x441 /usr/lib/gcc/arm-none-eabi/5.2.0/armv7e-m/libgcc.a(_udivmoddi4.o)
 .debug_info    0x000000000001b087       0xbb /usr/lib/gcc/arm-none-eabi/5.2.0/armv7e-m/libgcc.a(_dvmd_tls.o)

.debug_abbrev   0x0000000000000000     0x5269
 .debug_abbrev  0x0000000000000000      0x121 obj/Unicast/Debug/audiocodec.o
 .debug_abbrev  0x0000000000000121      0x158 obj/Unicast/Debug/circ_buff.o
 .debug_abbrev  0x0000000000000279      0x1b7 obj/Unicast/Debug/control.o
 .debug_abbrev  0x0000000000000430      0x194 obj/Unicast/Debug/main.o
 .debug_abbrev  0x00000000000005c4      0x10c obj/Unicast/Debug/microphone.o
 .debug_abbrev  0x00000000000006d0      0x297 obj/Unicast/Debug/network.o
 .debug_abbrev  0x0000000000000967       0xea obj/Unicast/Debug/pcm_handler.o
 .debug_abbrev  0x0000000000000a51       0x37 obj/Unicast/Debug/pinmux.o
 .debug_abbrev  0x0000000000000a88       0x79 obj/Unicast/Debug/smartconfig.o
 .debug_abbrev  0x0000000000000b01      0x11d obj/Unicast/Debug/speaker.o
 .debug_abbrev  0x0000000000000c1e      0x147 obj/Unicast/Debug/uart_if.o
 .debug_abbrev  0x0000000000000d65       0xed obj/Unicast/Debug/i2c_if.o
 .debug_abbrev  0x0000000000000e52       0xe3 obj/Unicast/Debug/i2s_if.o
 .debug_abbrev  0x0000000000000f35      0x140 obj/Unicast/Debug/udma_if.o
 .debug_abbrev  0x0000000000001075      0x135 obj/Unicast/Debug/gpio_if.o
 .debug_abbrev  0x00000000000011aa      0x10b obj/Unicast/Debug/startup_gcc.o
 .debug_abbrev  0x00000000000012b5      0x25e ../../../simplelink/gcc/lib/os/Debug/libsimplelink.a(device.o)
 .debug_abbrev  0x0000000000001513      0x28e ../../../simplelink/gcc/lib/os/Debug/libsimplelink.a(driver.o)
 .debug_abbrev  0x00000000000017a1      0x29d ../../../simplelink/gcc/lib/os/Debug/libsimplelink.a(netapp.o)
 .debug_abbrev  0x0000000000001a3e      0x2d4 ../../../simplelink/gcc/lib/os/Debug/libsimplelink.a(socket.o)
 .debug_abbrev  0x0000000000001d12      0x252 ../../../simplelink/gcc/lib/os/Debug/libsimplelink.a(wlan.o)
 .debug_abbrev  0x0000000000001f64      0x1bd ../../../simplelink/gcc/lib/os/Debug/libsimplelink.a(cc_pal.o)
 .debug_abbrev  0x0000000000002121      0x207 ../../../oslib/gcc/free_rtos/Debug/free_rtos.a(osi_freertos.o)
 .debug_abbrev  0x0000000000002328      0x18f ../../../oslib/gcc/free_rtos/Debug/free_rtos.a(queue.o)
 .debug_abbrev  0x00000000000024b7      0x2a3 ../../../oslib/gcc/free_rtos/Debug/free_rtos.a(tasks.o)
 .debug_abbrev  0x000000000000275a      0x1a4 ../../../oslib/gcc/free_rtos/Debug/free_rtos.a(port.o)
 .debug_abbrev  0x00000000000028fe      0x1c5 ../../../oslib/gcc/free_rtos/Debug/free_rtos.a(timers.o)
 .debug_abbrev  0x0000000000002ac3       0xb9 ../../../oslib/gcc/free_rtos/Debug/free_rtos.a(heap_3.o)
 .debug_abbrev  0x0000000000002b7c       0xbe ../../../oslib/gcc/free_rtos/Debug/free_rtos.a(list.o)
 .debug_abbrev  0x0000000000002c3a      0x130 ../../../driverlib/gcc/lib/Debug/libdriver.a(gpio.o)
 .debug_abbrev  0x0000000000002d6a      0x120 ../../../driverlib/gcc/lib/Debug/libdriver.a(i2c.o)
 .debug_abbrev  0x0000000000002e8a      0x145 ../../../driverlib/gcc/lib/Debug/libdriver.a(interrupt.o)
 .debug_abbrev  0x0000000000002fcf      0x11f ../../../driverlib/gcc/lib/Debug/libdriver.a(i2s.o)
 .debug_abbrev  0x00000000000030ee       0xf4 ../../../driverlib/gcc/lib/Debug/libdriver.a(pin.o)
 .debug_abbrev  0x00000000000031e2      0x1cc ../../../driverlib/gcc/lib/Debug/libdriver.a(prcm.o)
 .debug_abbrev  0x00000000000033ae      0x131 ../../../driverlib/gcc/lib/Debug/libdriver.a(spi.o)
 .debug_abbrev  0x00000000000034df       0xde ../../../driverlib/gcc/lib/Debug/libdriver.a(timer.o)
 .debug_abbrev  0x00000000000035bd      0x131 ../../../driverlib/gcc/lib/Debug/libdriver.a(uart.o)
 .debug_abbrev  0x00000000000036ee      0x182 ../../../driverlib/gcc/lib/Debug/libdriver.a(udma.o)
 .debug_abbrev  0x0000000000003870       0x48 ../../../driverlib/gcc/lib/Debug/libdriver.a(utils.o)
 .debug_abbrev  0x00000000000038b8       0xb4 ../../../driverlib/gcc/lib/Debug/libdriver.a(cpu.o)
 .debug_abbrev  0x000000000000396c      0x18a /usr/lib/gcc/arm-none-eabi/5.2.0/../../../../arm-none-eabi/lib/armv7e-m/libc_nano.a(lib_a-malloc.o)
 .debug_abbrev  0x0000000000003af6       0x7f /usr/lib/gcc/arm-none-eabi/5.2.0/../../../../arm-none-eabi/lib/armv7e-m/libc_nano.a(lib_a-memcmp.o)
 .debug_abbrev  0x0000000000003b75       0xab /usr/lib/gcc/arm-none-eabi/5.2.0/../../../../arm-none-eabi/lib/armv7e-m/libc_nano.a(lib_a-memcpy.o)
 .debug_abbrev  0x0000000000003c20       0x9c /usr/lib/gcc/arm-none-eabi/5.2.0/../../../../arm-none-eabi/lib/armv7e-m/libc_nano.a(lib_a-memmove.o)
 .debug_abbrev  0x0000000000003cbc       0x8e /usr/lib/gcc/arm-none-eabi/5.2.0/../../../../arm-none-eabi/lib/armv7e-m/libc_nano.a(lib_a-memset.o)
 .debug_abbrev  0x0000000000003d4a      0x1b6 /usr/lib/gcc/arm-none-eabi/5.2.0/../../../../arm-none-eabi/lib/armv7e-m/libc_nano.a(lib_a-nano-freer.o)
 .debug_abbrev  0x0000000000003f00      0x24e /usr/lib/gcc/arm-none-eabi/5.2.0/../../../../arm-none-eabi/lib/armv7e-m/libc_nano.a(lib_a-nano-mallocr.o)
 .debug_abbrev  0x000000000000414e      0x17f /usr/lib/gcc/arm-none-eabi/5.2.0/../../../../arm-none-eabi/lib/armv7e-m/libc_nano.a(lib_a-realloc.o)
 .debug_abbrev  0x00000000000042cd      0x1a0 /usr/lib/gcc/arm-none-eabi/5.2.0/../../../../arm-none-eabi/lib/armv7e-m/libc_nano.a(lib_a-sbrkr.o)
 .debug_abbrev  0x000000000000446d      0x1bd /usr/lib/gcc/arm-none-eabi/5.2.0/../../../../arm-none-eabi/lib/armv7e-m/libc_nano.a(lib_a-vsnprintf.o)
 .debug_abbrev  0x000000000000462a      0x136 /usr/lib/gcc/arm-none-eabi/5.2.0/../../../../arm-none-eabi/lib/armv7e-m/libc_nano.a(lib_a-impure.o)
 .debug_abbrev  0x0000000000004760      0x1af /usr/lib/gcc/arm-none-eabi/5.2.0/../../../../arm-none-eabi/lib/armv7e-m/libc_nano.a(lib_a-nano-reallocr.o)
 .debug_abbrev  0x000000000000490f      0x23f /usr/lib/gcc/arm-none-eabi/5.2.0/../../../../arm-none-eabi/lib/armv7e-m/libc_nano.a(lib_a-nano-svfprintf.o)
 .debug_abbrev  0x0000000000004b4e      0x1f4 /usr/lib/gcc/arm-none-eabi/5.2.0/../../../../arm-none-eabi/lib/armv7e-m/libc_nano.a(lib_a-nano-vfprintf_i.o)
 .debug_abbrev  0x0000000000004d42      0x1f2 /usr/lib/gcc/arm-none-eabi/5.2.0/../../../../arm-none-eabi/lib/armv7e-m/libc_nano.a(lib_a-reent.o)
 .debug_abbrev  0x0000000000004f34       0xab /usr/lib/gcc/arm-none-eabi/5.2.0/../../../../arm-none-eabi/lib/armv7e-m/libc_nano.a(lib_a-memchr.o)
 .debug_abbrev  0x0000000000004fdf      0x161 /usr/lib/gcc/arm-none-eabi/5.2.0/../../../../arm-none-eabi/lib/armv7e-m/libc_nano.a(lib_a-nano-msizer.o)
 .debug_abbrev  0x0000000000005140       0x14 /usr/lib/gcc/arm-none-eabi/5.2.0/armv7e-m/libgcc.a(_aeabi_uldivmod.o)
 .debug_abbrev  0x0000000000005154      0x101 /usr/lib/gcc/arm-none-eabi/5.2.0/armv7e-m/libgcc.a(_udivmoddi4.o)
 .debug_abbrev  0x0000000000005255       0x14 /usr/lib/gcc/arm-none-eabi/5.2.0/armv7e-m/libgcc.a(_dvmd_tls.o)

.debug_aranges  0x0000000000000000     0x1c48
 .debug_aranges
                0x0000000000000000       0x68 obj/Unicast/Debug/audiocodec.o
 .debug_aranges
                0x0000000000000068       0x90 obj/Unicast/Debug/circ_buff.o
 .debug_aranges
                0x00000000000000f8       0x68 obj/Unicast/Debug/control.o
 .debug_aranges
                0x0000000000000160       0x50 obj/Unicast/Debug/main.o
 .debug_aranges
                0x00000000000001b0       0x20 obj/Unicast/Debug/microphone.o
 .debug_aranges
                0x00000000000001d0       0x70 obj/Unicast/Debug/network.o
 .debug_aranges
                0x0000000000000240       0x30 obj/Unicast/Debug/pcm_handler.o
 .debug_aranges
                0x0000000000000270       0x20 obj/Unicast/Debug/pinmux.o
 .debug_aranges
                0x0000000000000290       0x28 obj/Unicast/Debug/smartconfig.o
 .debug_aranges
                0x00000000000002b8       0x20 obj/Unicast/Debug/speaker.o
 .debug_aranges
                0x00000000000002d8       0x50 obj/Unicast/Debug/uart_if.o
 .debug_aranges
                0x0000000000000328       0x48 obj/Unicast/Debug/i2c_if.o
 .debug_aranges
                0x0000000000000370       0x48 obj/Unicast/Debug/i2s_if.o
 .debug_aranges
                0x00000000000003b8       0x68 obj/Unicast/Debug/udma_if.o
 .debug_aranges
                0x0000000000000420       0x68 obj/Unicast/Debug/gpio_if.o
 .debug_aranges
                0x0000000000000488       0x48 obj/Unicast/Debug/startup_gcc.o
 .debug_aranges
                0x00000000000004d0       0x70 ../../../simplelink/gcc/lib/os/Debug/libsimplelink.a(device.o)
 .debug_aranges
                0x0000000000000540      0x130 ../../../simplelink/gcc/lib/os/Debug/libsimplelink.a(driver.o)
 .debug_aranges
                0x0000000000000670       0xa8 ../../../simplelink/gcc/lib/os/Debug/libsimplelink.a(netapp.o)
 .debug_aranges
                0x0000000000000718       0xe0 ../../../simplelink/gcc/lib/os/Debug/libsimplelink.a(socket.o)
 .debug_aranges
                0x00000000000007f8       0xb0 ../../../simplelink/gcc/lib/os/Debug/libsimplelink.a(wlan.o)
 .debug_aranges
                0x00000000000008a8       0xc0 ../../../simplelink/gcc/lib/os/Debug/libsimplelink.a(cc_pal.o)
 .debug_aranges
                0x0000000000000968      0x128 ../../../oslib/gcc/free_rtos/Debug/free_rtos.a(osi_freertos.o)
 .debug_aranges
                0x0000000000000a90      0x120 ../../../oslib/gcc/free_rtos/Debug/free_rtos.a(queue.o)
 .debug_aranges
                0x0000000000000bb0      0x1e8 ../../../oslib/gcc/free_rtos/Debug/free_rtos.a(tasks.o)
 .debug_aranges
                0x0000000000000d98       0x90 ../../../oslib/gcc/free_rtos/Debug/free_rtos.a(port.o)
 .debug_aranges
                0x0000000000000e28       0xb0 ../../../oslib/gcc/free_rtos/Debug/free_rtos.a(timers.o)
 .debug_aranges
                0x0000000000000ed8       0x28 ../../../oslib/gcc/free_rtos/Debug/free_rtos.a(heap_3.o)
 .debug_aranges
                0x0000000000000f00       0x40 ../../../oslib/gcc/free_rtos/Debug/free_rtos.a(list.o)
 .debug_aranges
                0x0000000000000f40       0x90 ../../../driverlib/gcc/lib/Debug/libdriver.a(gpio.o)
 .debug_aranges
                0x0000000000000fd0      0x1c8 ../../../driverlib/gcc/lib/Debug/libdriver.a(i2c.o)
 .debug_aranges
                0x0000000000001198       0x98 ../../../driverlib/gcc/lib/Debug/libdriver.a(interrupt.o)
 .debug_aranges
                0x0000000000001230       0xd0 ../../../driverlib/gcc/lib/Debug/libdriver.a(i2s.o)
 .debug_aranges
                0x0000000000001300       0x90 ../../../driverlib/gcc/lib/Debug/libdriver.a(pin.o)
 .debug_aranges
                0x0000000000001390      0x1b8 ../../../driverlib/gcc/lib/Debug/libdriver.a(prcm.o)
 .debug_aranges
                0x0000000000001548      0x100 ../../../driverlib/gcc/lib/Debug/libdriver.a(spi.o)
 .debug_aranges
                0x0000000000001648       0xd8 ../../../driverlib/gcc/lib/Debug/libdriver.a(timer.o)
 .debug_aranges
                0x0000000000001720      0x140 ../../../driverlib/gcc/lib/Debug/libdriver.a(uart.o)
 .debug_aranges
                0x0000000000001860       0xd8 ../../../driverlib/gcc/lib/Debug/libdriver.a(udma.o)
 .debug_aranges
                0x0000000000001938       0x20 ../../../driverlib/gcc/lib/Debug/libdriver.a(utils.o)
 .debug_aranges
                0x0000000000001958       0x48 ../../../driverlib/gcc/lib/Debug/libdriver.a(cpu.o)
 .debug_aranges
                0x00000000000019a0       0x28 /usr/lib/gcc/arm-none-eabi/5.2.0/../../../../arm-none-eabi/lib/armv7e-m/libc_nano.a(lib_a-malloc.o)
 .debug_aranges
                0x00000000000019c8       0x20 /usr/lib/gcc/arm-none-eabi/5.2.0/../../../../arm-none-eabi/lib/armv7e-m/libc_nano.a(lib_a-memcmp.o)
 .debug_aranges
                0x00000000000019e8       0x20 /usr/lib/gcc/arm-none-eabi/5.2.0/../../../../arm-none-eabi/lib/armv7e-m/libc_nano.a(lib_a-memcpy.o)
 .debug_aranges
                0x0000000000001a08       0x20 /usr/lib/gcc/arm-none-eabi/5.2.0/../../../../arm-none-eabi/lib/armv7e-m/libc_nano.a(lib_a-memmove.o)
 .debug_aranges
                0x0000000000001a28       0x20 /usr/lib/gcc/arm-none-eabi/5.2.0/../../../../arm-none-eabi/lib/armv7e-m/libc_nano.a(lib_a-memset.o)
 .debug_aranges
                0x0000000000001a48       0x20 /usr/lib/gcc/arm-none-eabi/5.2.0/../../../../arm-none-eabi/lib/armv7e-m/libc_nano.a(lib_a-nano-freer.o)
 .debug_aranges
                0x0000000000001a68       0x20 /usr/lib/gcc/arm-none-eabi/5.2.0/../../../../arm-none-eabi/lib/armv7e-m/libc_nano.a(lib_a-nano-mallocr.o)
 .debug_aranges
                0x0000000000001a88       0x20 /usr/lib/gcc/arm-none-eabi/5.2.0/../../../../arm-none-eabi/lib/armv7e-m/libc_nano.a(lib_a-realloc.o)
 .debug_aranges
                0x0000000000001aa8       0x20 /usr/lib/gcc/arm-none-eabi/5.2.0/../../../../arm-none-eabi/lib/armv7e-m/libc_nano.a(lib_a-sbrkr.o)
 .debug_aranges
                0x0000000000001ac8       0x28 /usr/lib/gcc/arm-none-eabi/5.2.0/../../../../arm-none-eabi/lib/armv7e-m/libc_nano.a(lib_a-vsnprintf.o)
 .debug_aranges
                0x0000000000001af0       0x18 /usr/lib/gcc/arm-none-eabi/5.2.0/../../../../arm-none-eabi/lib/armv7e-m/libc_nano.a(lib_a-impure.o)
 .debug_aranges
                0x0000000000001b08       0x20 /usr/lib/gcc/arm-none-eabi/5.2.0/../../../../arm-none-eabi/lib/armv7e-m/libc_nano.a(lib_a-nano-reallocr.o)
 .debug_aranges
                0x0000000000001b28       0x30 /usr/lib/gcc/arm-none-eabi/5.2.0/../../../../arm-none-eabi/lib/armv7e-m/libc_nano.a(lib_a-nano-svfprintf.o)
 .debug_aranges
                0x0000000000001b58       0x28 /usr/lib/gcc/arm-none-eabi/5.2.0/../../../../arm-none-eabi/lib/armv7e-m/libc_nano.a(lib_a-nano-vfprintf_i.o)
 .debug_aranges
                0x0000000000001b80       0x28 /usr/lib/gcc/arm-none-eabi/5.2.0/../../../../arm-none-eabi/lib/armv7e-m/libc_nano.a(lib_a-reent.o)
 .debug_aranges
                0x0000000000001ba8       0x20 /usr/lib/gcc/arm-none-eabi/5.2.0/../../../../arm-none-eabi/lib/armv7e-m/libc_nano.a(lib_a-memchr.o)
 .debug_aranges
                0x0000000000001bc8       0x20 /usr/lib/gcc/arm-none-eabi/5.2.0/../../../../arm-none-eabi/lib/armv7e-m/libc_nano.a(lib_a-nano-msizer.o)
 .debug_aranges
                0x0000000000001be8       0x20 /usr/lib/gcc/arm-none-eabi/5.2.0/armv7e-m/libgcc.a(_aeabi_uldivmod.o)
 .debug_aranges
                0x0000000000001c08       0x20 /usr/lib/gcc/arm-none-eabi/5.2.0/armv7e-m/libgcc.a(_udivmoddi4.o)
 .debug_aranges
                0x0000000000001c28       0x20 /usr/lib/gcc/arm-none-eabi/5.2.0/armv7e-m/libgcc.a(_dvmd_tls.o)

.debug_ranges   0x0000000000000000     0x19e0
 .debug_ranges  0x0000000000000000       0x58 obj/Unicast/Debug/audiocodec.o
 .debug_ranges  0x0000000000000058       0x80 obj/Unicast/Debug/circ_buff.o
 .debug_ranges  0x00000000000000d8       0x58 obj/Unicast/Debug/control.o
 .debug_ranges  0x0000000000000130       0x40 obj/Unicast/Debug/main.o
 .debug_ranges  0x0000000000000170       0x10 obj/Unicast/Debug/microphone.o
 .debug_ranges  0x0000000000000180       0x60 obj/Unicast/Debug/network.o
 .debug_ranges  0x00000000000001e0       0x20 obj/Unicast/Debug/pcm_handler.o
 .debug_ranges  0x0000000000000200       0x10 obj/Unicast/Debug/pinmux.o
 .debug_ranges  0x0000000000000210       0x18 obj/Unicast/Debug/smartconfig.o
 .debug_ranges  0x0000000000000228       0x10 obj/Unicast/Debug/speaker.o
 .debug_ranges  0x0000000000000238       0x40 obj/Unicast/Debug/uart_if.o
 .debug_ranges  0x0000000000000278       0x38 obj/Unicast/Debug/i2c_if.o
 .debug_ranges  0x00000000000002b0       0x38 obj/Unicast/Debug/i2s_if.o
 .debug_ranges  0x00000000000002e8       0x58 obj/Unicast/Debug/udma_if.o
 .debug_ranges  0x0000000000000340       0x58 obj/Unicast/Debug/gpio_if.o
 .debug_ranges  0x0000000000000398       0x38 obj/Unicast/Debug/startup_gcc.o
 .debug_ranges  0x00000000000003d0       0x60 ../../../simplelink/gcc/lib/os/Debug/libsimplelink.a(device.o)
 .debug_ranges  0x0000000000000430      0x138 ../../../simplelink/gcc/lib/os/Debug/libsimplelink.a(driver.o)
 .debug_ranges  0x0000000000000568       0x98 ../../../simplelink/gcc/lib/os/Debug/libsimplelink.a(netapp.o)
 .debug_ranges  0x0000000000000600       0xd0 ../../../simplelink/gcc/lib/os/Debug/libsimplelink.a(socket.o)
 .debug_ranges  0x00000000000006d0       0xa0 ../../../simplelink/gcc/lib/os/Debug/libsimplelink.a(wlan.o)
 .debug_ranges  0x0000000000000770       0xb0 ../../../simplelink/gcc/lib/os/Debug/libsimplelink.a(cc_pal.o)
 .debug_ranges  0x0000000000000820      0x118 ../../../oslib/gcc/free_rtos/Debug/free_rtos.a(osi_freertos.o)
 .debug_ranges  0x0000000000000938      0x110 ../../../oslib/gcc/free_rtos/Debug/free_rtos.a(queue.o)
 .debug_ranges  0x0000000000000a48      0x1d8 ../../../oslib/gcc/free_rtos/Debug/free_rtos.a(tasks.o)
 .debug_ranges  0x0000000000000c20       0x80 ../../../oslib/gcc/free_rtos/Debug/free_rtos.a(port.o)
 .debug_ranges  0x0000000000000ca0       0xa0 ../../../oslib/gcc/free_rtos/Debug/free_rtos.a(timers.o)
 .debug_ranges  0x0000000000000d40       0x18 ../../../oslib/gcc/free_rtos/Debug/free_rtos.a(heap_3.o)
 .debug_ranges  0x0000000000000d58       0x30 ../../../oslib/gcc/free_rtos/Debug/free_rtos.a(list.o)
 .debug_ranges  0x0000000000000d88       0x80 ../../../driverlib/gcc/lib/Debug/libdriver.a(gpio.o)
 .debug_ranges  0x0000000000000e08      0x1b8 ../../../driverlib/gcc/lib/Debug/libdriver.a(i2c.o)
 .debug_ranges  0x0000000000000fc0       0x88 ../../../driverlib/gcc/lib/Debug/libdriver.a(interrupt.o)
 .debug_ranges  0x0000000000001048       0xc0 ../../../driverlib/gcc/lib/Debug/libdriver.a(i2s.o)
 .debug_ranges  0x0000000000001108       0x80 ../../../driverlib/gcc/lib/Debug/libdriver.a(pin.o)
 .debug_ranges  0x0000000000001188      0x1a8 ../../../driverlib/gcc/lib/Debug/libdriver.a(prcm.o)
 .debug_ranges  0x0000000000001330       0xf0 ../../../driverlib/gcc/lib/Debug/libdriver.a(spi.o)
 .debug_ranges  0x0000000000001420       0xc8 ../../../driverlib/gcc/lib/Debug/libdriver.a(timer.o)
 .debug_ranges  0x00000000000014e8      0x130 ../../../driverlib/gcc/lib/Debug/libdriver.a(uart.o)
 .debug_ranges  0x0000000000001618       0xc8 ../../../driverlib/gcc/lib/Debug/libdriver.a(udma.o)
 .debug_ranges  0x00000000000016e0       0x10 ../../../driverlib/gcc/lib/Debug/libdriver.a(utils.o)
 .debug_ranges  0x00000000000016f0       0x38 ../../../driverlib/gcc/lib/Debug/libdriver.a(cpu.o)
 .debug_ranges  0x0000000000001728       0x18 /usr/lib/gcc/arm-none-eabi/5.2.0/../../../../arm-none-eabi/lib/armv7e-m/libc_nano.a(lib_a-malloc.o)
 .debug_ranges  0x0000000000001740       0x10 /usr/lib/gcc/arm-none-eabi/5.2.0/../../../../arm-none-eabi/lib/armv7e-m/libc_nano.a(lib_a-memcmp.o)
 .debug_ranges  0x0000000000001750       0x10 /usr/lib/gcc/arm-none-eabi/5.2.0/../../../../arm-none-eabi/lib/armv7e-m/libc_nano.a(lib_a-memcpy.o)
 .debug_ranges  0x0000000000001760       0x10 /usr/lib/gcc/arm-none-eabi/5.2.0/../../../../arm-none-eabi/lib/armv7e-m/libc_nano.a(lib_a-memmove.o)
 .debug_ranges  0x0000000000001770       0x10 /usr/lib/gcc/arm-none-eabi/5.2.0/../../../../arm-none-eabi/lib/armv7e-m/libc_nano.a(lib_a-memset.o)
 .debug_ranges  0x0000000000001780       0x28 /usr/lib/gcc/arm-none-eabi/5.2.0/../../../../arm-none-eabi/lib/armv7e-m/libc_nano.a(lib_a-nano-freer.o)
 .debug_ranges  0x00000000000017a8       0x28 /usr/lib/gcc/arm-none-eabi/5.2.0/../../../../arm-none-eabi/lib/armv7e-m/libc_nano.a(lib_a-nano-mallocr.o)
 .debug_ranges  0x00000000000017d0       0x10 /usr/lib/gcc/arm-none-eabi/5.2.0/../../../../arm-none-eabi/lib/armv7e-m/libc_nano.a(lib_a-realloc.o)
 .debug_ranges  0x00000000000017e0       0x10 /usr/lib/gcc/arm-none-eabi/5.2.0/../../../../arm-none-eabi/lib/armv7e-m/libc_nano.a(lib_a-sbrkr.o)
 .debug_ranges  0x00000000000017f0       0x18 /usr/lib/gcc/arm-none-eabi/5.2.0/../../../../arm-none-eabi/lib/armv7e-m/libc_nano.a(lib_a-vsnprintf.o)
 .debug_ranges  0x0000000000001808       0x10 /usr/lib/gcc/arm-none-eabi/5.2.0/../../../../arm-none-eabi/lib/armv7e-m/libc_nano.a(lib_a-nano-reallocr.o)
 .debug_ranges  0x0000000000001818       0x50 /usr/lib/gcc/arm-none-eabi/5.2.0/../../../../arm-none-eabi/lib/armv7e-m/libc_nano.a(lib_a-nano-svfprintf.o)
 .debug_ranges  0x0000000000001868       0x68 /usr/lib/gcc/arm-none-eabi/5.2.0/../../../../arm-none-eabi/lib/armv7e-m/libc_nano.a(lib_a-nano-vfprintf_i.o)
 .debug_ranges  0x00000000000018d0       0x18 /usr/lib/gcc/arm-none-eabi/5.2.0/../../../../arm-none-eabi/lib/armv7e-m/libc_nano.a(lib_a-reent.o)
 .debug_ranges  0x00000000000018e8       0x10 /usr/lib/gcc/arm-none-eabi/5.2.0/../../../../arm-none-eabi/lib/armv7e-m/libc_nano.a(lib_a-memchr.o)
 .debug_ranges  0x00000000000018f8       0x10 /usr/lib/gcc/arm-none-eabi/5.2.0/../../../../arm-none-eabi/lib/armv7e-m/libc_nano.a(lib_a-nano-msizer.o)
 .debug_ranges  0x0000000000001908       0xd8 /usr/lib/gcc/arm-none-eabi/5.2.0/armv7e-m/libgcc.a(_udivmoddi4.o)

.debug_line     0x0000000000000000     0x8bae
 .debug_line    0x0000000000000000      0x17d obj/Unicast/Debug/audiocodec.o
 .debug_line    0x000000000000017d      0x19a obj/Unicast/Debug/circ_buff.o
 .debug_line    0x0000000000000317      0x268 obj/Unicast/Debug/control.o
 .debug_line    0x000000000000057f      0x19a obj/Unicast/Debug/main.o
 .debug_line    0x0000000000000719       0xae obj/Unicast/Debug/microphone.o
 .debug_line    0x00000000000007c7      0x2a9 obj/Unicast/Debug/network.o
 .debug_line    0x0000000000000a70       0xe7 obj/Unicast/Debug/pcm_handler.o
 .debug_line    0x0000000000000b57       0x4d obj/Unicast/Debug/pinmux.o
 .debug_line    0x0000000000000ba4       0x7f obj/Unicast/Debug/smartconfig.o
 .debug_line    0x0000000000000c23       0xa7 obj/Unicast/Debug/speaker.o
 .debug_line    0x0000000000000cca      0x171 obj/Unicast/Debug/uart_if.o
 .debug_line    0x0000000000000e3b      0x153 obj/Unicast/Debug/i2c_if.o
 .debug_line    0x0000000000000f8e       0xbf obj/Unicast/Debug/i2s_if.o
 .debug_line    0x000000000000104d      0x14b obj/Unicast/Debug/udma_if.o
 .debug_line    0x0000000000001198      0x13e obj/Unicast/Debug/gpio_if.o
 .debug_line    0x00000000000012d6      0x131 obj/Unicast/Debug/startup_gcc.o
 .debug_line    0x0000000000001407      0x2d9 ../../../simplelink/gcc/lib/os/Debug/libsimplelink.a(device.o)
 .debug_line    0x00000000000016e0      0x90c ../../../simplelink/gcc/lib/os/Debug/libsimplelink.a(driver.o)
 .debug_line    0x0000000000001fec      0x4a2 ../../../simplelink/gcc/lib/os/Debug/libsimplelink.a(netapp.o)
 .debug_line    0x000000000000248e      0x5d0 ../../../simplelink/gcc/lib/os/Debug/libsimplelink.a(socket.o)
 .debug_line    0x0000000000002a5e      0x554 ../../../simplelink/gcc/lib/os/Debug/libsimplelink.a(wlan.o)
 .debug_line    0x0000000000002fb2      0x30b ../../../simplelink/gcc/lib/os/Debug/libsimplelink.a(cc_pal.o)
 .debug_line    0x00000000000032bd      0x423 ../../../oslib/gcc/free_rtos/Debug/free_rtos.a(osi_freertos.o)
 .debug_line    0x00000000000036e0      0x786 ../../../oslib/gcc/free_rtos/Debug/free_rtos.a(queue.o)
 .debug_line    0x0000000000003e66      0xbe6 ../../../oslib/gcc/free_rtos/Debug/free_rtos.a(tasks.o)
 .debug_line    0x0000000000004a4c      0x284 ../../../oslib/gcc/free_rtos/Debug/free_rtos.a(port.o)
 .debug_line    0x0000000000004cd0      0x3c6 ../../../oslib/gcc/free_rtos/Debug/free_rtos.a(timers.o)
 .debug_line    0x0000000000005096       0xbd ../../../oslib/gcc/free_rtos/Debug/free_rtos.a(heap_3.o)
 .debug_line    0x0000000000005153      0x1a7 ../../../oslib/gcc/free_rtos/Debug/free_rtos.a(list.o)
 .debug_line    0x00000000000052fa      0x218 ../../../driverlib/gcc/lib/Debug/libdriver.a(gpio.o)
 .debug_line    0x0000000000005512      0x520 ../../../driverlib/gcc/lib/Debug/libdriver.a(i2c.o)
 .debug_line    0x0000000000005a32      0x210 ../../../driverlib/gcc/lib/Debug/libdriver.a(interrupt.o)
 .debug_line    0x0000000000005c42      0x250 ../../../driverlib/gcc/lib/Debug/libdriver.a(i2s.o)
 .debug_line    0x0000000000005e92      0x172 ../../../driverlib/gcc/lib/Debug/libdriver.a(pin.o)
 .debug_line    0x0000000000006004      0x4f6 ../../../driverlib/gcc/lib/Debug/libdriver.a(prcm.o)
 .debug_line    0x00000000000064fa      0x369 ../../../driverlib/gcc/lib/Debug/libdriver.a(spi.o)
 .debug_line    0x0000000000006863      0x33d ../../../driverlib/gcc/lib/Debug/libdriver.a(timer.o)
 .debug_line    0x0000000000006ba0      0x37e ../../../driverlib/gcc/lib/Debug/libdriver.a(uart.o)
 .debug_line    0x0000000000006f1e      0x2aa ../../../driverlib/gcc/lib/Debug/libdriver.a(udma.o)
 .debug_line    0x00000000000071c8       0x3d ../../../driverlib/gcc/lib/Debug/libdriver.a(utils.o)
 .debug_line    0x0000000000007205       0xa0 ../../../driverlib/gcc/lib/Debug/libdriver.a(cpu.o)
 .debug_line    0x00000000000072a5      0x148 /usr/lib/gcc/arm-none-eabi/5.2.0/../../../../arm-none-eabi/lib/armv7e-m/libc_nano.a(lib_a-malloc.o)
 .debug_line    0x00000000000073ed       0xde /usr/lib/gcc/arm-none-eabi/5.2.0/../../../../arm-none-eabi/lib/armv7e-m/libc_nano.a(lib_a-memcmp.o)
 .debug_line    0x00000000000074cb       0xdc /usr/lib/gcc/arm-none-eabi/5.2.0/../../../../arm-none-eabi/lib/armv7e-m/libc_nano.a(lib_a-memcpy.o)
 .debug_line    0x00000000000075a7       0xe9 /usr/lib/gcc/arm-none-eabi/5.2.0/../../../../arm-none-eabi/lib/armv7e-m/libc_nano.a(lib_a-memmove.o)
 .debug_line    0x0000000000007690       0xdd /usr/lib/gcc/arm-none-eabi/5.2.0/../../../../arm-none-eabi/lib/armv7e-m/libc_nano.a(lib_a-memset.o)
 .debug_line    0x000000000000776d      0x13b /usr/lib/gcc/arm-none-eabi/5.2.0/../../../../arm-none-eabi/lib/armv7e-m/libc_nano.a(lib_a-nano-freer.o)
 .debug_line    0x00000000000078a8      0x175 /usr/lib/gcc/arm-none-eabi/5.2.0/../../../../arm-none-eabi/lib/armv7e-m/libc_nano.a(lib_a-nano-mallocr.o)
 .debug_line    0x0000000000007a1d      0x137 /usr/lib/gcc/arm-none-eabi/5.2.0/../../../../arm-none-eabi/lib/armv7e-m/libc_nano.a(lib_a-realloc.o)
 .debug_line    0x0000000000007b54      0x140 /usr/lib/gcc/arm-none-eabi/5.2.0/../../../../arm-none-eabi/lib/armv7e-m/libc_nano.a(lib_a-sbrkr.o)
 .debug_line    0x0000000000007c94      0x17d /usr/lib/gcc/arm-none-eabi/5.2.0/../../../../arm-none-eabi/lib/armv7e-m/libc_nano.a(lib_a-vsnprintf.o)
 .debug_line    0x0000000000007e11       0xe0 /usr/lib/gcc/arm-none-eabi/5.2.0/../../../../arm-none-eabi/lib/armv7e-m/libc_nano.a(lib_a-impure.o)
 .debug_line    0x0000000000007ef1      0x15c /usr/lib/gcc/arm-none-eabi/5.2.0/../../../../arm-none-eabi/lib/armv7e-m/libc_nano.a(lib_a-nano-reallocr.o)
 .debug_line    0x000000000000804d      0x2ad /usr/lib/gcc/arm-none-eabi/5.2.0/../../../../arm-none-eabi/lib/armv7e-m/libc_nano.a(lib_a-nano-svfprintf.o)
 .debug_line    0x00000000000082fa      0x2e9 /usr/lib/gcc/arm-none-eabi/5.2.0/../../../../arm-none-eabi/lib/armv7e-m/libc_nano.a(lib_a-nano-vfprintf_i.o)
 .debug_line    0x00000000000085e3      0x17b /usr/lib/gcc/arm-none-eabi/5.2.0/../../../../arm-none-eabi/lib/armv7e-m/libc_nano.a(lib_a-reent.o)
 .debug_line    0x000000000000875e       0xdf /usr/lib/gcc/arm-none-eabi/5.2.0/../../../../arm-none-eabi/lib/armv7e-m/libc_nano.a(lib_a-memchr.o)
 .debug_line    0x000000000000883d       0xfc /usr/lib/gcc/arm-none-eabi/5.2.0/../../../../arm-none-eabi/lib/armv7e-m/libc_nano.a(lib_a-nano-msizer.o)
 .debug_line    0x0000000000008939       0x64 /usr/lib/gcc/arm-none-eabi/5.2.0/armv7e-m/libgcc.a(_aeabi_uldivmod.o)
 .debug_line    0x000000000000899d      0x1ad /usr/lib/gcc/arm-none-eabi/5.2.0/armv7e-m/libgcc.a(_udivmoddi4.o)
 .debug_line    0x0000000000008b4a       0x64 /usr/lib/gcc/arm-none-eabi/5.2.0/armv7e-m/libgcc.a(_dvmd_tls.o)

.debug_str      0x0000000000000000     0x925b
 .debug_str     0x0000000000000000      0x263 obj/Unicast/Debug/audiocodec.o
                                        0x2a3 (size before relaxing)
 .debug_str     0x0000000000000263      0x1bb obj/Unicast/Debug/circ_buff.o
                                        0x304 (size before relaxing)
 .debug_str     0x000000000000041e      0x3a3 obj/Unicast/Debug/control.o
                                        0x4ee (size before relaxing)
 .debug_str     0x00000000000007c1      0x16e obj/Unicast/Debug/main.o
                                        0x472 (size before relaxing)
 .debug_str     0x000000000000092f       0x65 obj/Unicast/Debug/microphone.o
                                        0x2f7 (size before relaxing)
 .debug_str     0x0000000000000994      0xab9 obj/Unicast/Debug/network.o
                                        0xe56 (size before relaxing)
 .debug_str     0x000000000000144d      0x12a obj/Unicast/Debug/pcm_handler.o
                                        0x2e3 (size before relaxing)
 .debug_str     0x0000000000001577       0x19 obj/Unicast/Debug/pinmux.o
                                         0xe1 (size before relaxing)
 .debug_str     0x0000000000001590       0x2e obj/Unicast/Debug/smartconfig.o
                                        0x18d (size before relaxing)
 .debug_str     0x00000000000015be       0x8e obj/Unicast/Debug/speaker.o
                                        0x33b (size before relaxing)
 .debug_str     0x000000000000164c       0xd0 obj/Unicast/Debug/uart_if.o
                                        0x23d (size before relaxing)
 .debug_str     0x000000000000171c       0xcd obj/Unicast/Debug/i2c_if.o
                                        0x20f (size before relaxing)
 .debug_str     0x00000000000017e9       0xc5 obj/Unicast/Debug/i2s_if.o
                                        0x229 (size before relaxing)
 .debug_str     0x00000000000018ae      0x194 obj/Unicast/Debug/udma_if.o
                                        0x329 (size before relaxing)
 .debug_str     0x0000000000001a42      0x19f obj/Unicast/Debug/gpio_if.o
                                        0x3f5 (size before relaxing)
 .debug_str     0x0000000000001be1       0xdb obj/Unicast/Debug/startup_gcc.o
                                        0x23a (size before relaxing)
 .debug_str     0x0000000000001cbc      0x8b3 ../../../simplelink/gcc/lib/os/Debug/libsimplelink.a(device.o)
                                        0xe3f (size before relaxing)
 .debug_str     0x000000000000256f      0x7d4 ../../../simplelink/gcc/lib/os/Debug/libsimplelink.a(driver.o)
                                       0x1413 (size before relaxing)
 .debug_str     0x0000000000002d43      0x94d ../../../simplelink/gcc/lib/os/Debug/libsimplelink.a(netapp.o)
                                       0x1397 (size before relaxing)
 .debug_str     0x0000000000003690      0x596 ../../../simplelink/gcc/lib/os/Debug/libsimplelink.a(socket.o)
                                        0xecd (size before relaxing)
 .debug_str     0x0000000000003c26      0xd34 ../../../simplelink/gcc/lib/os/Debug/libsimplelink.a(wlan.o)
                                       0x1102 (size before relaxing)
 .debug_str     0x000000000000495a      0x2e6 ../../../simplelink/gcc/lib/os/Debug/libsimplelink.a(cc_pal.o)
                                        0x4ba (size before relaxing)
 .debug_str     0x0000000000004c40      0x3c4 ../../../oslib/gcc/free_rtos/Debug/free_rtos.a(osi_freertos.o)
                                        0x63f (size before relaxing)
 .debug_str     0x0000000000005004      0x643 ../../../oslib/gcc/free_rtos/Debug/free_rtos.a(queue.o)
                                        0x824 (size before relaxing)
 .debug_str     0x0000000000005647      0xbeb ../../../oslib/gcc/free_rtos/Debug/free_rtos.a(tasks.o)
                                        0xf31 (size before relaxing)
 .debug_str     0x0000000000006232      0x244 ../../../oslib/gcc/free_rtos/Debug/free_rtos.a(port.o)
                                        0x3ea (size before relaxing)
 .debug_str     0x0000000000006476      0x4c7 ../../../oslib/gcc/free_rtos/Debug/free_rtos.a(timers.o)
                                        0x76b (size before relaxing)
 .debug_str     0x000000000000693d       0x5f ../../../oslib/gcc/free_rtos/Debug/free_rtos.a(heap_3.o)
                                        0x1b5 (size before relaxing)
 .debug_str     0x000000000000699c       0xb6 ../../../oslib/gcc/free_rtos/Debug/free_rtos.a(list.o)
                                        0x2a5 (size before relaxing)
 .debug_str     0x0000000000006a52      0x18e ../../../driverlib/gcc/lib/Debug/libdriver.a(gpio.o)
                                        0x239 (size before relaxing)
 .debug_str     0x0000000000006be0      0x4ec ../../../driverlib/gcc/lib/Debug/libdriver.a(i2c.o)
                                        0x65a (size before relaxing)
 .debug_str     0x00000000000070cc      0x161 ../../../driverlib/gcc/lib/Debug/libdriver.a(interrupt.o)
                                        0x296 (size before relaxing)
 .debug_str     0x000000000000722d      0x20a ../../../driverlib/gcc/lib/Debug/libdriver.a(i2s.o)
                                        0x325 (size before relaxing)
 .debug_str     0x0000000000007437      0x10d ../../../driverlib/gcc/lib/Debug/libdriver.a(pin.o)
                                        0x1fa (size before relaxing)
 .debug_str     0x0000000000007544      0x5fe ../../../driverlib/gcc/lib/Debug/libdriver.a(prcm.o)
                                        0x71d (size before relaxing)
 .debug_str     0x0000000000007b42      0x2ac ../../../driverlib/gcc/lib/Debug/libdriver.a(spi.o)
                                        0x41b (size before relaxing)
 .debug_str     0x0000000000007dee      0x1b5 ../../../driverlib/gcc/lib/Debug/libdriver.a(timer.o)
                                        0x2af (size before relaxing)
 .debug_str     0x0000000000007fa3      0x2c3 ../../../driverlib/gcc/lib/Debug/libdriver.a(uart.o)
                                        0x423 (size before relaxing)
 .debug_str     0x0000000000008266      0x2af ../../../driverlib/gcc/lib/Debug/libdriver.a(udma.o)
                                        0x3dd (size before relaxing)
 .debug_str     0x0000000000008515       0x16 ../../../driverlib/gcc/lib/Debug/libdriver.a(utils.o)
                                         0xcb (size before relaxing)
 .debug_str     0x000000000000852b       0x5c ../../../driverlib/gcc/lib/Debug/libdriver.a(cpu.o)
                                        0x109 (size before relaxing)
 .debug_str     0x0000000000008587      0x43d /usr/lib/gcc/arm-none-eabi/5.2.0/../../../../arm-none-eabi/lib/armv7e-m/libc_nano.a(lib_a-malloc.o)
                                        0x52b (size before relaxing)
 .debug_str     0x00000000000089c4       0x8f /usr/lib/gcc/arm-none-eabi/5.2.0/../../../../arm-none-eabi/lib/armv7e-m/libc_nano.a(lib_a-memcmp.o)
                                        0x1ae (size before relaxing)
 .debug_str     0x0000000000008a53       0x49 /usr/lib/gcc/arm-none-eabi/5.2.0/../../../../arm-none-eabi/lib/armv7e-m/libc_nano.a(lib_a-memcpy.o)
                                        0x1c2 (size before relaxing)
 .debug_str     0x0000000000008a9c       0x49 /usr/lib/gcc/arm-none-eabi/5.2.0/../../../../arm-none-eabi/lib/armv7e-m/libc_nano.a(lib_a-memmove.o)
                                        0x1c9 (size before relaxing)
 .debug_str     0x0000000000008ae5       0x35 /usr/lib/gcc/arm-none-eabi/5.2.0/../../../../arm-none-eabi/lib/armv7e-m/libc_nano.a(lib_a-memset.o)
                                        0x1ae (size before relaxing)
 .debug_str     0x0000000000008b1a       0x90 /usr/lib/gcc/arm-none-eabi/5.2.0/../../../../arm-none-eabi/lib/armv7e-m/libc_nano.a(lib_a-nano-freer.o)
                                        0x56f (size before relaxing)
 .debug_str     0x0000000000008baa       0x46 /usr/lib/gcc/arm-none-eabi/5.2.0/../../../../arm-none-eabi/lib/armv7e-m/libc_nano.a(lib_a-nano-mallocr.o)
                                        0x59a (size before relaxing)
 .debug_str     0x0000000000008bf0       0x3a /usr/lib/gcc/arm-none-eabi/5.2.0/../../../../arm-none-eabi/lib/armv7e-m/libc_nano.a(lib_a-realloc.o)
                                        0x51c (size before relaxing)
 .debug_str     0x0000000000008c2a       0x8f /usr/lib/gcc/arm-none-eabi/5.2.0/../../../../arm-none-eabi/lib/armv7e-m/libc_nano.a(lib_a-sbrkr.o)
                                        0x50e (size before relaxing)
 .debug_str     0x0000000000008cb9       0xad /usr/lib/gcc/arm-none-eabi/5.2.0/../../../../arm-none-eabi/lib/armv7e-m/libc_nano.a(lib_a-vsnprintf.o)
                                        0x556 (size before relaxing)
 .debug_str     0x0000000000008d66       0x8b /usr/lib/gcc/arm-none-eabi/5.2.0/../../../../arm-none-eabi/lib/armv7e-m/libc_nano.a(lib_a-impure.o)
                                        0x556 (size before relaxing)
 .debug_str     0x0000000000008df1       0x23 /usr/lib/gcc/arm-none-eabi/5.2.0/../../../../arm-none-eabi/lib/armv7e-m/libc_nano.a(lib_a-nano-reallocr.o)
                                        0x577 (size before relaxing)
 .debug_str     0x0000000000008e14      0x19a /usr/lib/gcc/arm-none-eabi/5.2.0/../../../../arm-none-eabi/lib/armv7e-m/libc_nano.a(lib_a-nano-svfprintf.o)
                                        0x677 (size before relaxing)
 .debug_str     0x0000000000008fae       0x8e /usr/lib/gcc/arm-none-eabi/5.2.0/../../../../arm-none-eabi/lib/armv7e-m/libc_nano.a(lib_a-nano-vfprintf_i.o)
                                        0x616 (size before relaxing)
 .debug_str     0x000000000000903c       0x58 /usr/lib/gcc/arm-none-eabi/5.2.0/../../../../arm-none-eabi/lib/armv7e-m/libc_nano.a(lib_a-reent.o)
                                        0x536 (size before relaxing)
 .debug_str     0x0000000000009094       0x2e /usr/lib/gcc/arm-none-eabi/5.2.0/../../../../arm-none-eabi/lib/armv7e-m/libc_nano.a(lib_a-memchr.o)
                                        0x1be (size before relaxing)
 .debug_str     0x00000000000090c2        0xf /usr/lib/gcc/arm-none-eabi/5.2.0/../../../../arm-none-eabi/lib/armv7e-m/libc_nano.a(lib_a-nano-msizer.o)
                                        0x555 (size before relaxing)
 .debug_str     0x00000000000090d1      0x18a /usr/lib/gcc/arm-none-eabi/5.2.0/armv7e-m/libgcc.a(_udivmoddi4.o)
                                        0x243 (size before relaxing)

.comment        0x0000000000000000       0x42
 .comment       0x0000000000000000       0x21 obj/Unicast/Debug/audiocodec.o
                                         0x22 (size before relaxing)
 .comment       0x0000000000000000       0x22 obj/Unicast/Debug/circ_buff.o
 .comment       0x0000000000000000       0x22 obj/Unicast/Debug/control.o
 .comment       0x0000000000000000       0x22 obj/Unicast/Debug/main.o
 .comment       0x0000000000000000       0x22 obj/Unicast/Debug/microphone.o
 .comment       0x0000000000000000       0x22 obj/Unicast/Debug/network.o
 .comment       0x0000000000000000       0x22 obj/Unicast/Debug/pcm_handler.o
 .comment       0x0000000000000000       0x22 obj/Unicast/Debug/pinmux.o
 .comment       0x0000000000000000       0x22 obj/Unicast/Debug/smartconfig.o
 .comment       0x0000000000000000       0x22 obj/Unicast/Debug/speaker.o
 .comment       0x0000000000000000       0x22 obj/Unicast/Debug/uart_if.o
 .comment       0x0000000000000000       0x22 obj/Unicast/Debug/i2c_if.o
 .comment       0x0000000000000000       0x22 obj/Unicast/Debug/i2s_if.o
 .comment       0x0000000000000000       0x22 obj/Unicast/Debug/udma_if.o
 .comment       0x0000000000000000       0x22 obj/Unicast/Debug/gpio_if.o
 .comment       0x0000000000000000       0x22 obj/Unicast/Debug/startup_gcc.o
 .comment       0x0000000000000000       0x22 ../../../simplelink/gcc/lib/os/Debug/libsimplelink.a(device.o)
 .comment       0x0000000000000000       0x22 ../../../simplelink/gcc/lib/os/Debug/libsimplelink.a(driver.o)
 .comment       0x0000000000000000       0x22 ../../../simplelink/gcc/lib/os/Debug/libsimplelink.a(netapp.o)
 .comment       0x0000000000000000       0x22 ../../../simplelink/gcc/lib/os/Debug/libsimplelink.a(socket.o)
 .comment       0x0000000000000000       0x22 ../../../simplelink/gcc/lib/os/Debug/libsimplelink.a(wlan.o)
 .comment       0x0000000000000000       0x22 ../../../simplelink/gcc/lib/os/Debug/libsimplelink.a(cc_pal.o)
 .comment       0x0000000000000000       0x22 ../../../oslib/gcc/free_rtos/Debug/free_rtos.a(osi_freertos.o)
 .comment       0x0000000000000000       0x22 ../../../oslib/gcc/free_rtos/Debug/free_rtos.a(queue.o)
 .comment       0x0000000000000000       0x22 ../../../oslib/gcc/free_rtos/Debug/free_rtos.a(tasks.o)
 .comment       0x0000000000000000       0x22 ../../../oslib/gcc/free_rtos/Debug/free_rtos.a(port.o)
 .comment       0x0000000000000000       0x22 ../../../oslib/gcc/free_rtos/Debug/free_rtos.a(timers.o)
 .comment       0x0000000000000000       0x22 ../../../oslib/gcc/free_rtos/Debug/free_rtos.a(heap_3.o)
 .comment       0x0000000000000000       0x22 ../../../oslib/gcc/free_rtos/Debug/free_rtos.a(list.o)
 .comment       0x0000000000000000       0x22 ../../../driverlib/gcc/lib/Debug/libdriver.a(gpio.o)
 .comment       0x0000000000000000       0x22 ../../../driverlib/gcc/lib/Debug/libdriver.a(i2c.o)
 .comment       0x0000000000000000       0x22 ../../../driverlib/gcc/lib/Debug/libdriver.a(interrupt.o)
 .comment       0x0000000000000000       0x22 ../../../driverlib/gcc/lib/Debug/libdriver.a(i2s.o)
 .comment       0x0000000000000000       0x22 ../../../driverlib/gcc/lib/Debug/libdriver.a(pin.o)
 .comment       0x0000000000000000       0x22 ../../../driverlib/gcc/lib/Debug/libdriver.a(prcm.o)
 .comment       0x0000000000000000       0x22 ../../../driverlib/gcc/lib/Debug/libdriver.a(spi.o)
 .comment       0x0000000000000000       0x22 ../../../driverlib/gcc/lib/Debug/libdriver.a(timer.o)
 .comment       0x0000000000000000       0x22 ../../../driverlib/gcc/lib/Debug/libdriver.a(uart.o)
 .comment       0x0000000000000000       0x22 ../../../driverlib/gcc/lib/Debug/libdriver.a(udma.o)
 .comment       0x0000000000000000       0x22 ../../../driverlib/gcc/lib/Debug/libdriver.a(utils.o)
 .comment       0x0000000000000000       0x22 ../../../driverlib/gcc/lib/Debug/libdriver.a(cpu.o)
 .comment       0x0000000000000021       0x21 /usr/lib/gcc/arm-none-eabi/5.2.0/../../../../arm-none-eabi/lib/armv7e-m/libc_nano.a(lib_a-malloc.o)
                                         0x22 (size before relaxing)
 .comment       0x0000000000000000       0x22 /usr/lib/gcc/arm-none-eabi/5.2.0/../../../../arm-none-eabi/lib/armv7e-m/libc_nano.a(lib_a-memcmp.o)
 .comment       0x0000000000000000       0x22 /usr/lib/gcc/arm-none-eabi/5.2.0/../../../../arm-none-eabi/lib/armv7e-m/libc_nano.a(lib_a-memcpy.o)
 .comment       0x0000000000000000       0x22 /usr/lib/gcc/arm-none-eabi/5.2.0/../../../../arm-none-eabi/lib/armv7e-m/libc_nano.a(lib_a-memmove.o)
 .comment       0x0000000000000000       0x22 /usr/lib/gcc/arm-none-eabi/5.2.0/../../../../arm-none-eabi/lib/armv7e-m/libc_nano.a(lib_a-memset.o)
 .comment       0x0000000000000000       0x22 /usr/lib/gcc/arm-none-eabi/5.2.0/../../../../arm-none-eabi/lib/armv7e-m/libc_nano.a(lib_a-nano-freer.o)
 .comment       0x0000000000000000       0x22 /usr/lib/gcc/arm-none-eabi/5.2.0/../../../../arm-none-eabi/lib/armv7e-m/libc_nano.a(lib_a-nano-mallocr.o)
 .comment       0x0000000000000000       0x22 /usr/lib/gcc/arm-none-eabi/5.2.0/../../../../arm-none-eabi/lib/armv7e-m/libc_nano.a(lib_a-realloc.o)
 .comment       0x0000000000000000       0x22 /usr/lib/gcc/arm-none-eabi/5.2.0/../../../../arm-none-eabi/lib/armv7e-m/libc_nano.a(lib_a-sbrkr.o)
 .comment       0x0000000000000000       0x22 /usr/lib/gcc/arm-none-eabi/5.2.0/../../../../arm-none-eabi/lib/armv7e-m/libc_nano.a(lib_a-vsnprintf.o)
 .comment       0x0000000000000000       0x22 /usr/lib/gcc/arm-none-eabi/5.2.0/../../../../arm-none-eabi/lib/armv7e-m/libc_nano.a(lib_a-impure.o)
 .comment       0x0000000000000000       0x22 /usr/lib/gcc/arm-none-eabi/5.2.0/../../../../arm-none-eabi/lib/armv7e-m/libc_nano.a(lib_a-nano-reallocr.o)
 .comment       0x0000000000000000       0x22 /usr/lib/gcc/arm-none-eabi/5.2.0/../../../../arm-none-eabi/lib/armv7e-m/libc_nano.a(lib_a-nano-svfprintf.o)
 .comment       0x0000000000000000       0x22 /usr/lib/gcc/arm-none-eabi/5.2.0/../../../../arm-none-eabi/lib/armv7e-m/libc_nano.a(lib_a-nano-vfprintf_i.o)
 .comment       0x0000000000000000       0x22 /usr/lib/gcc/arm-none-eabi/5.2.0/../../../../arm-none-eabi/lib/armv7e-m/libc_nano.a(lib_a-reent.o)
 .comment       0x0000000000000000       0x22 /usr/lib/gcc/arm-none-eabi/5.2.0/../../../../arm-none-eabi/lib/armv7e-m/libc_nano.a(lib_a-memchr.o)
 .comment       0x0000000000000000       0x22 /usr/lib/gcc/arm-none-eabi/5.2.0/../../../../arm-none-eabi/lib/armv7e-m/libc_nano.a(lib_a-nano-msizer.o)
 .comment       0x0000000000000000       0x22 /usr/lib/gcc/arm-none-eabi/5.2.0/armv7e-m/libgcc.a(_udivmoddi4.o)

.ARM.attributes
                0x0000000000000000       0x33
 .ARM.attributes
                0x0000000000000000       0x33 obj/Unicast/Debug/audiocodec.o
 .ARM.attributes
                0x0000000000000033       0x33 obj/Unicast/Debug/circ_buff.o
 .ARM.attributes
                0x0000000000000066       0x33 obj/Unicast/Debug/control.o
 .ARM.attributes
                0x0000000000000099       0x33 obj/Unicast/Debug/main.o
 .ARM.attributes
                0x00000000000000cc       0x33 obj/Unicast/Debug/microphone.o
 .ARM.attributes
                0x00000000000000ff       0x33 obj/Unicast/Debug/network.o
 .ARM.attributes
                0x0000000000000132       0x33 obj/Unicast/Debug/pcm_handler.o
 .ARM.attributes
                0x0000000000000165       0x33 obj/Unicast/Debug/pinmux.o
 .ARM.attributes
                0x0000000000000198       0x33 obj/Unicast/Debug/smartconfig.o
 .ARM.attributes
                0x00000000000001cb       0x33 obj/Unicast/Debug/speaker.o
 .ARM.attributes
                0x00000000000001fe       0x33 obj/Unicast/Debug/uart_if.o
 .ARM.attributes
                0x0000000000000231       0x33 obj/Unicast/Debug/i2c_if.o
 .ARM.attributes
                0x0000000000000264       0x33 obj/Unicast/Debug/i2s_if.o
 .ARM.attributes
                0x0000000000000297       0x33 obj/Unicast/Debug/udma_if.o
 .ARM.attributes
                0x00000000000002ca       0x33 obj/Unicast/Debug/gpio_if.o
 .ARM.attributes
                0x00000000000002fd       0x33 obj/Unicast/Debug/startup_gcc.o
 .ARM.attributes
                0x0000000000000330       0x33 ../../../simplelink/gcc/lib/os/Debug/libsimplelink.a(device.o)
 .ARM.attributes
                0x0000000000000363       0x33 ../../../simplelink/gcc/lib/os/Debug/libsimplelink.a(driver.o)
 .ARM.attributes
                0x0000000000000396       0x33 ../../../simplelink/gcc/lib/os/Debug/libsimplelink.a(netapp.o)
 .ARM.attributes
                0x00000000000003c9       0x33 ../../../simplelink/gcc/lib/os/Debug/libsimplelink.a(socket.o)
 .ARM.attributes
                0x00000000000003fc       0x33 ../../../simplelink/gcc/lib/os/Debug/libsimplelink.a(wlan.o)
 .ARM.attributes
                0x000000000000042f       0x33 ../../../simplelink/gcc/lib/os/Debug/libsimplelink.a(cc_pal.o)
 .ARM.attributes
                0x0000000000000462       0x33 ../../../oslib/gcc/free_rtos/Debug/free_rtos.a(osi_freertos.o)
 .ARM.attributes
                0x0000000000000495       0x33 ../../../oslib/gcc/free_rtos/Debug/free_rtos.a(queue.o)
 .ARM.attributes
                0x00000000000004c8       0x33 ../../../oslib/gcc/free_rtos/Debug/free_rtos.a(tasks.o)
 .ARM.attributes
                0x00000000000004fb       0x33 ../../../oslib/gcc/free_rtos/Debug/free_rtos.a(port.o)
 .ARM.attributes
                0x000000000000052e       0x33 ../../../oslib/gcc/free_rtos/Debug/free_rtos.a(timers.o)
 .ARM.attributes
                0x0000000000000561       0x33 ../../../oslib/gcc/free_rtos/Debug/free_rtos.a(heap_3.o)
 .ARM.attributes
                0x0000000000000594       0x33 ../../../oslib/gcc/free_rtos/Debug/free_rtos.a(list.o)
 .ARM.attributes
                0x00000000000005c7       0x33 ../../../driverlib/gcc/lib/Debug/libdriver.a(gpio.o)
 .ARM.attributes
                0x00000000000005fa       0x33 ../../../driverlib/gcc/lib/Debug/libdriver.a(i2c.o)
 .ARM.attributes
                0x000000000000062d       0x33 ../../../driverlib/gcc/lib/Debug/libdriver.a(interrupt.o)
 .ARM.attributes
                0x0000000000000660       0x33 ../../../driverlib/gcc/lib/Debug/libdriver.a(i2s.o)
 .ARM.attributes
                0x0000000000000693       0x33 ../../../driverlib/gcc/lib/Debug/libdriver.a(pin.o)
 .ARM.attributes
                0x00000000000006c6       0x33 ../../../driverlib/gcc/lib/Debug/libdriver.a(prcm.o)
 .ARM.attributes
                0x00000000000006f9       0x33 ../../../driverlib/gcc/lib/Debug/libdriver.a(spi.o)
 .ARM.attributes
                0x000000000000072c       0x33 ../../../driverlib/gcc/lib/Debug/libdriver.a(timer.o)
 .ARM.attributes
                0x000000000000075f       0x33 ../../../driverlib/gcc/lib/Debug/libdriver.a(uart.o)
 .ARM.attributes
                0x0000000000000792       0x33 ../../../driverlib/gcc/lib/Debug/libdriver.a(udma.o)
 .ARM.attributes
                0x00000000000007c5       0x33 ../../../driverlib/gcc/lib/Debug/libdriver.a(utils.o)
 .ARM.attributes
                0x00000000000007f8       0x33 ../../../driverlib/gcc/lib/Debug/libdriver.a(cpu.o)
 .ARM.attributes
                0x000000000000082b       0x2e /usr/lib/gcc/arm-none-eabi/5.2.0/../../../../arm-none-eabi/lib/armv7e-m/libc_nano.a(lib_a-malloc.o)
 .ARM.attributes
                0x0000000000000859       0x2e /usr/lib/gcc/arm-none-eabi/5.2.0/../../../../arm-none-eabi/lib/armv7e-m/libc_nano.a(lib_a-memcmp.o)
 .ARM.attributes
                0x0000000000000887       0x2e /usr/lib/gcc/arm-none-eabi/5.2.0/../../../../arm-none-eabi/lib/armv7e-m/libc_nano.a(lib_a-memcpy.o)
 .ARM.attributes
                0x00000000000008b5       0x2e /usr/lib/gcc/arm-none-eabi/5.2.0/../../../../arm-none-eabi/lib/armv7e-m/libc_nano.a(lib_a-memmove.o)
 .ARM.attributes
                0x00000000000008e3       0x2e /usr/lib/gcc/arm-none-eabi/5.2.0/../../../../arm-none-eabi/lib/armv7e-m/libc_nano.a(lib_a-memset.o)
 .ARM.attributes
                0x0000000000000911       0x2e /usr/lib/gcc/arm-none-eabi/5.2.0/../../../../arm-none-eabi/lib/armv7e-m/libc_nano.a(lib_a-nano-freer.o)
 .ARM.attributes
                0x000000000000093f       0x2e /usr/lib/gcc/arm-none-eabi/5.2.0/../../../../arm-none-eabi/lib/armv7e-m/libc_nano.a(lib_a-nano-mallocr.o)
 .ARM.attributes
                0x000000000000096d       0x2e /usr/lib/gcc/arm-none-eabi/5.2.0/../../../../arm-none-eabi/lib/armv7e-m/libc_nano.a(lib_a-realloc.o)
 .ARM.attributes
                0x000000000000099b       0x2e /usr/lib/gcc/arm-none-eabi/5.2.0/../../../../arm-none-eabi/lib/armv7e-m/libc_nano.a(lib_a-sbrkr.o)
 .ARM.attributes
                0x00000000000009c9       0x2e /usr/lib/gcc/arm-none-eabi/5.2.0/../../../../arm-none-eabi/lib/armv7e-m/libc_nano.a(lib_a-vsnprintf.o)
 .ARM.attributes
                0x00000000000009f7       0x2e /usr/lib/gcc/arm-none-eabi/5.2.0/../../../../arm-none-eabi/lib/armv7e-m/libc_nano.a(lib_a-impure.o)
 .ARM.attributes
                0x0000000000000a25       0x2e /usr/lib/gcc/arm-none-eabi/5.2.0/../../../../arm-none-eabi/lib/armv7e-m/libc_nano.a(lib_a-nano-reallocr.o)
 .ARM.attributes
                0x0000000000000a53       0x2e /usr/lib/gcc/arm-none-eabi/5.2.0/../../../../arm-none-eabi/lib/armv7e-m/libc_nano.a(lib_a-nano-svfprintf.o)
 .ARM.attributes
                0x0000000000000a81       0x2e /usr/lib/gcc/arm-none-eabi/5.2.0/../../../../arm-none-eabi/lib/armv7e-m/libc_nano.a(lib_a-nano-vfprintf_i.o)
 .ARM.attributes
                0x0000000000000aaf       0x2e /usr/lib/gcc/arm-none-eabi/5.2.0/../../../../arm-none-eabi/lib/armv7e-m/libc_nano.a(lib_a-reent.o)
 .ARM.attributes
                0x0000000000000add       0x2e /usr/lib/gcc/arm-none-eabi/5.2.0/../../../../arm-none-eabi/lib/armv7e-m/libc_nano.a(lib_a-memchr.o)
 .ARM.attributes
                0x0000000000000b0b       0x2e /usr/lib/gcc/arm-none-eabi/5.2.0/../../../../arm-none-eabi/lib/armv7e-m/libc_nano.a(lib_a-nano-msizer.o)
 .ARM.attributes
                0x0000000000000b39       0x1e /usr/lib/gcc/arm-none-eabi/5.2.0/armv7e-m/libgcc.a(_aeabi_uldivmod.o)
 .ARM.attributes
                0x0000000000000b57       0x2e /usr/lib/gcc/arm-none-eabi/5.2.0/armv7e-m/libgcc.a(_udivmoddi4.o)
 .ARM.attributes
                0x0000000000000b85       0x1e /usr/lib/gcc/arm-none-eabi/5.2.0/armv7e-m/libgcc.a(_dvmd_tls.o)

.debug_frame    0x0000000000000000     0x6a38
 .debug_frame   0x0000000000000000      0x180 obj/Unicast/Debug/audiocodec.o
 .debug_frame   0x0000000000000180      0x244 obj/Unicast/Debug/circ_buff.o
 .debug_frame   0x00000000000003c4      0x17c obj/Unicast/Debug/control.o
 .debug_frame   0x0000000000000540       0xe4 obj/Unicast/Debug/main.o
 .debug_frame   0x0000000000000624       0x30 obj/Unicast/Debug/microphone.o
 .debug_frame   0x0000000000000654      0x1a8 obj/Unicast/Debug/network.o
 .debug_frame   0x00000000000007fc       0x80 obj/Unicast/Debug/pcm_handler.o
 .debug_frame   0x000000000000087c       0x2c obj/Unicast/Debug/pinmux.o
 .debug_frame   0x00000000000008a8       0x5c obj/Unicast/Debug/smartconfig.o
 .debug_frame   0x0000000000000904       0x30 obj/Unicast/Debug/speaker.o
 .debug_frame   0x0000000000000934      0x12c obj/Unicast/Debug/uart_if.o
 .debug_frame   0x0000000000000a60       0xe0 obj/Unicast/Debug/i2c_if.o
 .debug_frame   0x0000000000000b40       0xdc obj/Unicast/Debug/i2s_if.o
 .debug_frame   0x0000000000000c1c      0x168 obj/Unicast/Debug/udma_if.o
 .debug_frame   0x0000000000000d84      0x180 obj/Unicast/Debug/gpio_if.o
 .debug_frame   0x0000000000000f04       0xbc obj/Unicast/Debug/startup_gcc.o
 .debug_frame   0x0000000000000fc0      0x1a8 ../../../simplelink/gcc/lib/os/Debug/libsimplelink.a(device.o)
 .debug_frame   0x0000000000001168      0x514 ../../../simplelink/gcc/lib/os/Debug/libsimplelink.a(driver.o)
 .debug_frame   0x000000000000167c      0x2ac ../../../simplelink/gcc/lib/os/Debug/libsimplelink.a(netapp.o)
 .debug_frame   0x0000000000001928      0x3b0 ../../../simplelink/gcc/lib/os/Debug/libsimplelink.a(socket.o)
 .debug_frame   0x0000000000001cd8      0x2a8 ../../../simplelink/gcc/lib/os/Debug/libsimplelink.a(wlan.o)
 .debug_frame   0x0000000000001f80      0x2d0 ../../../simplelink/gcc/lib/os/Debug/libsimplelink.a(cc_pal.o)
 .debug_frame   0x0000000000002250      0x4ac ../../../oslib/gcc/free_rtos/Debug/free_rtos.a(osi_freertos.o)
 .debug_frame   0x00000000000026fc      0x4c8 ../../../oslib/gcc/free_rtos/Debug/free_rtos.a(queue.o)
 .debug_frame   0x0000000000002bc4      0x840 ../../../oslib/gcc/free_rtos/Debug/free_rtos.a(tasks.o)
 .debug_frame   0x0000000000003404      0x19c ../../../oslib/gcc/free_rtos/Debug/free_rtos.a(port.o)
 .debug_frame   0x00000000000035a0      0x2b8 ../../../oslib/gcc/free_rtos/Debug/free_rtos.a(timers.o)
 .debug_frame   0x0000000000003858       0x58 ../../../oslib/gcc/free_rtos/Debug/free_rtos.a(heap_3.o)
 .debug_frame   0x00000000000038b0       0xd8 ../../../oslib/gcc/free_rtos/Debug/free_rtos.a(list.o)
 .debug_frame   0x0000000000003988      0x260 ../../../driverlib/gcc/lib/Debug/libdriver.a(gpio.o)
 .debug_frame   0x0000000000003be8      0x870 ../../../driverlib/gcc/lib/Debug/libdriver.a(i2c.o)
 .debug_frame   0x0000000000004458      0x258 ../../../driverlib/gcc/lib/Debug/libdriver.a(interrupt.o)
 .debug_frame   0x00000000000046b0      0x39c ../../../driverlib/gcc/lib/Debug/libdriver.a(i2s.o)
 .debug_frame   0x0000000000004a4c      0x244 ../../../driverlib/gcc/lib/Debug/libdriver.a(pin.o)
 .debug_frame   0x0000000000004c90      0x790 ../../../driverlib/gcc/lib/Debug/libdriver.a(prcm.o)
 .debug_frame   0x0000000000005420      0x480 ../../../driverlib/gcc/lib/Debug/libdriver.a(spi.o)
 .debug_frame   0x00000000000058a0      0x3c8 ../../../driverlib/gcc/lib/Debug/libdriver.a(timer.o)
 .debug_frame   0x0000000000005c68      0x5cc ../../../driverlib/gcc/lib/Debug/libdriver.a(uart.o)
 .debug_frame   0x0000000000006234      0x390 ../../../driverlib/gcc/lib/Debug/libdriver.a(udma.o)
 .debug_frame   0x00000000000065c4       0x20 ../../../driverlib/gcc/lib/Debug/libdriver.a(utils.o)
 .debug_frame   0x00000000000065e4       0x70 ../../../driverlib/gcc/lib/Debug/libdriver.a(cpu.o)
 .debug_frame   0x0000000000006654       0x30 /usr/lib/gcc/arm-none-eabi/5.2.0/../../../../arm-none-eabi/lib/armv7e-m/libc_nano.a(lib_a-malloc.o)
 .debug_frame   0x0000000000006684       0x28 /usr/lib/gcc/arm-none-eabi/5.2.0/../../../../arm-none-eabi/lib/armv7e-m/libc_nano.a(lib_a-memcmp.o)
 .debug_frame   0x00000000000066ac       0x28 /usr/lib/gcc/arm-none-eabi/5.2.0/../../../../arm-none-eabi/lib/armv7e-m/libc_nano.a(lib_a-memcpy.o)
 .debug_frame   0x00000000000066d4       0x28 /usr/lib/gcc/arm-none-eabi/5.2.0/../../../../arm-none-eabi/lib/armv7e-m/libc_nano.a(lib_a-memmove.o)
 .debug_frame   0x00000000000066fc       0x20 /usr/lib/gcc/arm-none-eabi/5.2.0/../../../../arm-none-eabi/lib/armv7e-m/libc_nano.a(lib_a-memset.o)
 .debug_frame   0x000000000000671c       0x2c /usr/lib/gcc/arm-none-eabi/5.2.0/../../../../arm-none-eabi/lib/armv7e-m/libc_nano.a(lib_a-nano-freer.o)
 .debug_frame   0x0000000000006748       0x2c /usr/lib/gcc/arm-none-eabi/5.2.0/../../../../arm-none-eabi/lib/armv7e-m/libc_nano.a(lib_a-nano-mallocr.o)
 .debug_frame   0x0000000000006774       0x20 /usr/lib/gcc/arm-none-eabi/5.2.0/../../../../arm-none-eabi/lib/armv7e-m/libc_nano.a(lib_a-realloc.o)
 .debug_frame   0x0000000000006794       0x2c /usr/lib/gcc/arm-none-eabi/5.2.0/../../../../arm-none-eabi/lib/armv7e-m/libc_nano.a(lib_a-sbrkr.o)
 .debug_frame   0x00000000000067c0       0x48 /usr/lib/gcc/arm-none-eabi/5.2.0/../../../../arm-none-eabi/lib/armv7e-m/libc_nano.a(lib_a-vsnprintf.o)
 .debug_frame   0x0000000000006808       0x3c /usr/lib/gcc/arm-none-eabi/5.2.0/../../../../arm-none-eabi/lib/armv7e-m/libc_nano.a(lib_a-nano-reallocr.o)
 .debug_frame   0x0000000000006844       0x90 /usr/lib/gcc/arm-none-eabi/5.2.0/../../../../arm-none-eabi/lib/armv7e-m/libc_nano.a(lib_a-nano-svfprintf.o)
 .debug_frame   0x00000000000068d4       0x60 /usr/lib/gcc/arm-none-eabi/5.2.0/../../../../arm-none-eabi/lib/armv7e-m/libc_nano.a(lib_a-nano-vfprintf_i.o)
 .debug_frame   0x0000000000006934       0x5c /usr/lib/gcc/arm-none-eabi/5.2.0/../../../../arm-none-eabi/lib/armv7e-m/libc_nano.a(lib_a-reent.o)
 .debug_frame   0x0000000000006990       0x28 /usr/lib/gcc/arm-none-eabi/5.2.0/../../../../arm-none-eabi/lib/armv7e-m/libc_nano.a(lib_a-memchr.o)
 .debug_frame   0x00000000000069b8       0x20 /usr/lib/gcc/arm-none-eabi/5.2.0/../../../../arm-none-eabi/lib/armv7e-m/libc_nano.a(lib_a-nano-msizer.o)
 .debug_frame   0x00000000000069d8       0x2c /usr/lib/gcc/arm-none-eabi/5.2.0/armv7e-m/libgcc.a(_aeabi_uldivmod.o)
 .debug_frame   0x0000000000006a04       0x34 /usr/lib/gcc/arm-none-eabi/5.2.0/armv7e-m/libgcc.a(_udivmoddi4.o)

.debug_loc      0x0000000000000000     0x264f
 .debug_loc     0x0000000000000000       0x58 /usr/lib/gcc/arm-none-eabi/5.2.0/../../../../arm-none-eabi/lib/armv7e-m/libc_nano.a(lib_a-malloc.o)
 .debug_loc     0x0000000000000058      0x12e /usr/lib/gcc/arm-none-eabi/5.2.0/../../../../arm-none-eabi/lib/armv7e-m/libc_nano.a(lib_a-memcmp.o)
 .debug_loc     0x0000000000000186       0x87 /usr/lib/gcc/arm-none-eabi/5.2.0/../../../../arm-none-eabi/lib/armv7e-m/libc_nano.a(lib_a-memcpy.o)
 .debug_loc     0x000000000000020d       0xde /usr/lib/gcc/arm-none-eabi/5.2.0/../../../../arm-none-eabi/lib/armv7e-m/libc_nano.a(lib_a-memmove.o)
 .debug_loc     0x00000000000002eb       0x57 /usr/lib/gcc/arm-none-eabi/5.2.0/../../../../arm-none-eabi/lib/armv7e-m/libc_nano.a(lib_a-memset.o)
 .debug_loc     0x0000000000000342      0x172 /usr/lib/gcc/arm-none-eabi/5.2.0/../../../../arm-none-eabi/lib/armv7e-m/libc_nano.a(lib_a-nano-freer.o)
 .debug_loc     0x00000000000004b4      0x311 /usr/lib/gcc/arm-none-eabi/5.2.0/../../../../arm-none-eabi/lib/armv7e-m/libc_nano.a(lib_a-nano-mallocr.o)
 .debug_loc     0x00000000000007c5       0x58 /usr/lib/gcc/arm-none-eabi/5.2.0/../../../../arm-none-eabi/lib/armv7e-m/libc_nano.a(lib_a-realloc.o)
 .debug_loc     0x000000000000081d       0x4d /usr/lib/gcc/arm-none-eabi/5.2.0/../../../../arm-none-eabi/lib/armv7e-m/libc_nano.a(lib_a-sbrkr.o)
 .debug_loc     0x000000000000086a      0x163 /usr/lib/gcc/arm-none-eabi/5.2.0/../../../../arm-none-eabi/lib/armv7e-m/libc_nano.a(lib_a-vsnprintf.o)
 .debug_loc     0x00000000000009cd      0x11b /usr/lib/gcc/arm-none-eabi/5.2.0/../../../../arm-none-eabi/lib/armv7e-m/libc_nano.a(lib_a-nano-reallocr.o)
 .debug_loc     0x0000000000000ae8      0x54e /usr/lib/gcc/arm-none-eabi/5.2.0/../../../../arm-none-eabi/lib/armv7e-m/libc_nano.a(lib_a-nano-svfprintf.o)
 .debug_loc     0x0000000000001036      0x52c /usr/lib/gcc/arm-none-eabi/5.2.0/../../../../arm-none-eabi/lib/armv7e-m/libc_nano.a(lib_a-nano-vfprintf_i.o)
 .debug_loc     0x0000000000001562       0xfa /usr/lib/gcc/arm-none-eabi/5.2.0/../../../../arm-none-eabi/lib/armv7e-m/libc_nano.a(lib_a-reent.o)
 .debug_loc     0x000000000000165c       0xaa /usr/lib/gcc/arm-none-eabi/5.2.0/../../../../arm-none-eabi/lib/armv7e-m/libc_nano.a(lib_a-memchr.o)
 .debug_loc     0x0000000000001706       0xb5 /usr/lib/gcc/arm-none-eabi/5.2.0/../../../../arm-none-eabi/lib/armv7e-m/libc_nano.a(lib_a-nano-msizer.o)
 .debug_loc     0x00000000000017bb      0xe94 /usr/lib/gcc/arm-none-eabi/5.2.0/armv7e-m/libgcc.a(_udivmoddi4.o)
