Archive member included to satisfy reference by file (symbol)

../../../netapps/mqtt/gcc/lib/client_server/Release/libmqtt.a(sl_mqtt_client.o)
                              obj/Release/main.o (sl_ExtLib_MqttClientCtxCreate)
../../../netapps/mqtt/gcc/lib/client_server/Release/libmqtt.a(sl_mqtt_server.o)
                              obj/Release/main.o (sl_ExtLib_MqttServerSend)
../../../netapps/mqtt/gcc/lib/client_server/Release/libmqtt.a(cc32xx_sl_net.o)
                              ../../../netapps/mqtt/gcc/lib/client_server/Release/libmqtt.a(sl_mqtt_client.o) (comm_open)
../../../netapps/mqtt/gcc/lib/client_server/Release/libmqtt.a(cc32xx_platform.o)
                              ../../../netapps/mqtt/gcc/lib/client_server/Release/libmqtt.a(cc32xx_sl_net.o) (platform_timer_init)
../../../netapps/mqtt/gcc/lib/client_server/Release/libmqtt.a(mqtt_client.o)
                              ../../../netapps/mqtt/gcc/lib/client_server/Release/libmqtt.a(sl_mqtt_client.o) (mqtt_disconn_send)
../../../netapps/mqtt/gcc/lib/client_server/Release/libmqtt.a(mqtt_common.o)
                              ../../../netapps/mqtt/gcc/lib/client_server/Release/libmqtt.a(mqtt_client.o) (mqp_free)
../../../netapps/mqtt/gcc/lib/client_server/Release/libmqtt.a(server_core.o)
                              ../../../netapps/mqtt/gcc/lib/client_server/Release/libmqtt.a(sl_mqtt_server.o) (mqtt_server_init)
../../../netapps/mqtt/gcc/lib/client_server/Release/libmqtt.a(server_pkts.o)
                              ../../../netapps/mqtt/gcc/lib/client_server/Release/libmqtt.a(sl_mqtt_server.o) (mqtt_server_pause_locked)
../../../netapps/mqtt/gcc/lib/client_server/Release/libmqtt.a(server_plug.o)
                              ../../../netapps/mqtt/gcc/lib/client_server/Release/libmqtt.a(server_core.o) (plugin_connect)
../../../netapps/mqtt/gcc/lib/client_server/Release/libmqtt.a(server_util.o)
                              ../../../netapps/mqtt/gcc/lib/client_server/Release/libmqtt.a(server_core.o) (mqp_new_id_server)
../../../netapps/mqtt/gcc/lib/client_server/Release/libmqtt.a(client_mgmt.o)
                              ../../../netapps/mqtt/gcc/lib/client_server/Release/libmqtt.a(server_core.o) (cl_sub_count_add)
../../../simplelink/gcc/lib/os/Release/libsimplelink.a(device.o)
                              obj/Release/network_if.o (sl_Start)
../../../simplelink/gcc/lib/os/Release/libsimplelink.a(driver.o)
                              ../../../simplelink/gcc/lib/os/Release/libsimplelink.a(device.o) (g_bDeviceRestartIsRequired)
../../../simplelink/gcc/lib/os/Release/libsimplelink.a(netapp.o)
                              obj/Release/network_if.o (sl_NetAppMDNSUnRegisterService)
../../../simplelink/gcc/lib/os/Release/libsimplelink.a(netcfg.o)
                              obj/Release/network_if.o (sl_NetCfgSet)
../../../simplelink/gcc/lib/os/Release/libsimplelink.a(socket.o)
                              ../../../netapps/mqtt/gcc/lib/client_server/Release/libmqtt.a(cc32xx_sl_net.o) (sl_Socket)
../../../simplelink/gcc/lib/os/Release/libsimplelink.a(wlan.o)
                              obj/Release/network_if.o (sl_WlanConnect)
../../../simplelink/gcc/lib/os/Release/libsimplelink.a(cc_pal.o)
                              ../../../simplelink/gcc/lib/os/Release/libsimplelink.a(device.o) (spi_Open)
../../../oslib/gcc/free_rtos/Release/free_rtos.a(osi_freertos.o)
                              obj/Release/gpio_if.o (osi_InterruptRegister)
../../../oslib/gcc/free_rtos/Release/free_rtos.a(queue.o)
                              ../../../oslib/gcc/free_rtos/Release/free_rtos.a(osi_freertos.o) (xQueueGenericCreate)
../../../oslib/gcc/free_rtos/Release/free_rtos.a(tasks.o)
                              ../../../oslib/gcc/free_rtos/Release/free_rtos.a(osi_freertos.o) (xTaskGenericCreate)
../../../oslib/gcc/free_rtos/Release/free_rtos.a(port.o)
                              ../../../oslib/gcc/free_rtos/Release/free_rtos.a(tasks.o) (pxPortInitialiseStack)
../../../oslib/gcc/free_rtos/Release/free_rtos.a(timers.o)
                              ../../../oslib/gcc/free_rtos/Release/free_rtos.a(tasks.o) (xTimerCreateTimerTask)
../../../oslib/gcc/free_rtos/Release/free_rtos.a(heap_3.o)
                              ../../../oslib/gcc/free_rtos/Release/free_rtos.a(osi_freertos.o) (pvPortMalloc)
../../../oslib/gcc/free_rtos/Release/free_rtos.a(list.o)
                              ../../../oslib/gcc/free_rtos/Release/free_rtos.a(queue.o) (vListInitialise)
../../../driverlib/gcc/lib/Release/libdriver.a(gpio.o)
                              obj/Release/button_if.o (GPIOIntStatus)
../../../driverlib/gcc/lib/Release/libdriver.a(interrupt.o)
                              obj/Release/main.o (IntMasterEnable)
../../../driverlib/gcc/lib/Release/libdriver.a(prcm.o)
                              obj/Release/pinmux.o (PRCMPeripheralClkEnable)
../../../driverlib/gcc/lib/Release/libdriver.a(spi.o)
                              ../../../simplelink/gcc/lib/os/Release/libsimplelink.a(cc_pal.o) (SPIConfigSetExpClk)
../../../driverlib/gcc/lib/Release/libdriver.a(timer.o)
                              obj/Release/timer_if.o (TimerConfigure)
../../../driverlib/gcc/lib/Release/libdriver.a(utils.o)
                              obj/Release/main.o (UtilsDelay)
../../../driverlib/gcc/lib/Release/libdriver.a(cpu.o)
                              ../../../driverlib/gcc/lib/Release/libdriver.a(interrupt.o) (CPUcpsid)
../../../driverlib/gcc/lib/Release/libdriver.a(flash.o)
                              ../../../driverlib/gcc/lib/Release/libdriver.a(prcm.o) (FlashDisable)
/usr/lib/gcc/arm-none-eabi/5.2.0/../../../../arm-none-eabi/lib/armv7e-m/libc_nano.a(lib_a-atoi.o)
                              ../../../netapps/mqtt/gcc/lib/client_server/Release/libmqtt.a(cc32xx_sl_net.o) (atoi)
/usr/lib/gcc/arm-none-eabi/5.2.0/../../../../arm-none-eabi/lib/armv7e-m/libc_nano.a(lib_a-malloc.o)
                              obj/Release/server_client_cbs.o (malloc)
/usr/lib/gcc/arm-none-eabi/5.2.0/../../../../arm-none-eabi/lib/armv7e-m/libc_nano.a(lib_a-memcmp.o)
                              ../../../oslib/gcc/free_rtos/Release/free_rtos.a(tasks.o) (memcmp)
/usr/lib/gcc/arm-none-eabi/5.2.0/../../../../arm-none-eabi/lib/armv7e-m/libc_nano.a(lib_a-memcpy.o)
                              obj/Release/server_client_cbs.o (memcpy)
/usr/lib/gcc/arm-none-eabi/5.2.0/../../../../arm-none-eabi/lib/armv7e-m/libc_nano.a(lib_a-memmove.o)
                              obj/Release/uart_if.o (memmove)
/usr/lib/gcc/arm-none-eabi/5.2.0/../../../../arm-none-eabi/lib/armv7e-m/libc_nano.a(lib_a-memset.o)
                              obj/Release/network_if.o (memset)
/usr/lib/gcc/arm-none-eabi/5.2.0/../../../../arm-none-eabi/lib/armv7e-m/libc_nano.a(lib_a-nano-freer.o)
                              /usr/lib/gcc/arm-none-eabi/5.2.0/../../../../arm-none-eabi/lib/armv7e-m/libc_nano.a(lib_a-malloc.o) (_free_r)
/usr/lib/gcc/arm-none-eabi/5.2.0/../../../../arm-none-eabi/lib/armv7e-m/libc_nano.a(lib_a-nano-mallocr.o)
                              /usr/lib/gcc/arm-none-eabi/5.2.0/../../../../arm-none-eabi/lib/armv7e-m/libc_nano.a(lib_a-malloc.o) (_malloc_r)
/usr/lib/gcc/arm-none-eabi/5.2.0/../../../../arm-none-eabi/lib/armv7e-m/libc_nano.a(lib_a-realloc.o)
                              obj/Release/uart_if.o (realloc)
/usr/lib/gcc/arm-none-eabi/5.2.0/../../../../arm-none-eabi/lib/armv7e-m/libc_nano.a(lib_a-sbrkr.o)
                              /usr/lib/gcc/arm-none-eabi/5.2.0/../../../../arm-none-eabi/lib/armv7e-m/libc_nano.a(lib_a-nano-mallocr.o) (_sbrk_r)
/usr/lib/gcc/arm-none-eabi/5.2.0/../../../../arm-none-eabi/lib/armv7e-m/libc_nano.a(lib_a-sprintf.o)
                              ../../../oslib/gcc/free_rtos/Release/free_rtos.a(tasks.o) (sprintf)
/usr/lib/gcc/arm-none-eabi/5.2.0/../../../../arm-none-eabi/lib/armv7e-m/libc_nano.a(lib_a-strcmp.o)
                              ../../../netapps/mqtt/gcc/lib/client_server/Release/libmqtt.a(server_core.o) (strcmp)
/usr/lib/gcc/arm-none-eabi/5.2.0/../../../../arm-none-eabi/lib/armv7e-m/libc_nano.a(lib_a-strcpy.o)
                              ../../../netapps/mqtt/gcc/lib/client_server/Release/libmqtt.a(cc32xx_sl_net.o) (strcpy)
/usr/lib/gcc/arm-none-eabi/5.2.0/../../../../arm-none-eabi/lib/armv7e-m/libc_nano.a(lib_a-strlen.o)
                              obj/Release/main.o (strlen)
/usr/lib/gcc/arm-none-eabi/5.2.0/../../../../arm-none-eabi/lib/armv7e-m/libc_nano.a(lib_a-strncmp.o)
                              ../../../netapps/mqtt/gcc/lib/client_server/Release/libmqtt.a(client_mgmt.o) (strncmp)
/usr/lib/gcc/arm-none-eabi/5.2.0/../../../../arm-none-eabi/lib/armv7e-m/libc_nano.a(lib_a-strncpy.o)
                              obj/Release/network_if.o (strncpy)
/usr/lib/gcc/arm-none-eabi/5.2.0/../../../../arm-none-eabi/lib/armv7e-m/libc_nano.a(lib_a-strtok.o)
                              ../../../netapps/mqtt/gcc/lib/client_server/Release/libmqtt.a(cc32xx_sl_net.o) (strtok)
/usr/lib/gcc/arm-none-eabi/5.2.0/../../../../arm-none-eabi/lib/armv7e-m/libc_nano.a(lib_a-strtok_r.o)
                              /usr/lib/gcc/arm-none-eabi/5.2.0/../../../../arm-none-eabi/lib/armv7e-m/libc_nano.a(lib_a-strtok.o) (__strtok_r)
/usr/lib/gcc/arm-none-eabi/5.2.0/../../../../arm-none-eabi/lib/armv7e-m/libc_nano.a(lib_a-strtol.o)
                              /usr/lib/gcc/arm-none-eabi/5.2.0/../../../../arm-none-eabi/lib/armv7e-m/libc_nano.a(lib_a-atoi.o) (_strtol_r)
/usr/lib/gcc/arm-none-eabi/5.2.0/../../../../arm-none-eabi/lib/armv7e-m/libc_nano.a(lib_a-vsnprintf.o)
                              obj/Release/uart_if.o (vsnprintf)
/usr/lib/gcc/arm-none-eabi/5.2.0/../../../../arm-none-eabi/lib/armv7e-m/libc_nano.a(lib_a-ctype_.o)
                              /usr/lib/gcc/arm-none-eabi/5.2.0/../../../../arm-none-eabi/lib/armv7e-m/libc_nano.a(lib_a-strtol.o) (__ctype_ptr__)
/usr/lib/gcc/arm-none-eabi/5.2.0/../../../../arm-none-eabi/lib/armv7e-m/libc_nano.a(lib_a-impure.o)
                              /usr/lib/gcc/arm-none-eabi/5.2.0/../../../../arm-none-eabi/lib/armv7e-m/libc_nano.a(lib_a-malloc.o) (_impure_ptr)
/usr/lib/gcc/arm-none-eabi/5.2.0/../../../../arm-none-eabi/lib/armv7e-m/libc_nano.a(lib_a-nano-reallocr.o)
                              /usr/lib/gcc/arm-none-eabi/5.2.0/../../../../arm-none-eabi/lib/armv7e-m/libc_nano.a(lib_a-realloc.o) (_realloc_r)
/usr/lib/gcc/arm-none-eabi/5.2.0/../../../../arm-none-eabi/lib/armv7e-m/libc_nano.a(lib_a-nano-svfprintf.o)
                              /usr/lib/gcc/arm-none-eabi/5.2.0/../../../../arm-none-eabi/lib/armv7e-m/libc_nano.a(lib_a-sprintf.o) (_svfprintf_r)
/usr/lib/gcc/arm-none-eabi/5.2.0/../../../../arm-none-eabi/lib/armv7e-m/libc_nano.a(lib_a-nano-vfprintf_i.o)
                              /usr/lib/gcc/arm-none-eabi/5.2.0/../../../../arm-none-eabi/lib/armv7e-m/libc_nano.a(lib_a-nano-svfprintf.o) (_printf_i)
/usr/lib/gcc/arm-none-eabi/5.2.0/../../../../arm-none-eabi/lib/armv7e-m/libc_nano.a(lib_a-reent.o)
                              /usr/lib/gcc/arm-none-eabi/5.2.0/../../../../arm-none-eabi/lib/armv7e-m/libc_nano.a(lib_a-sbrkr.o) (errno)
/usr/lib/gcc/arm-none-eabi/5.2.0/../../../../arm-none-eabi/lib/armv7e-m/libc_nano.a(lib_a-memchr.o)
                              /usr/lib/gcc/arm-none-eabi/5.2.0/../../../../arm-none-eabi/lib/armv7e-m/libc_nano.a(lib_a-nano-svfprintf.o) (memchr)
/usr/lib/gcc/arm-none-eabi/5.2.0/../../../../arm-none-eabi/lib/armv7e-m/libc_nano.a(lib_a-nano-msizer.o)
                              /usr/lib/gcc/arm-none-eabi/5.2.0/../../../../arm-none-eabi/lib/armv7e-m/libc_nano.a(lib_a-nano-reallocr.o) (_malloc_usable_size_r)
/usr/lib/gcc/arm-none-eabi/5.2.0/armv7e-m/libgcc.a(_aeabi_uldivmod.o)
                              ../../../driverlib/gcc/lib/Release/libdriver.a(prcm.o) (__aeabi_uldivmod)
/usr/lib/gcc/arm-none-eabi/5.2.0/armv7e-m/libgcc.a(_udivmoddi4.o)
                              /usr/lib/gcc/arm-none-eabi/5.2.0/armv7e-m/libgcc.a(_aeabi_uldivmod.o) (__udivmoddi4)
/usr/lib/gcc/arm-none-eabi/5.2.0/armv7e-m/libgcc.a(_dvmd_tls.o)
                              /usr/lib/gcc/arm-none-eabi/5.2.0/armv7e-m/libgcc.a(_aeabi_uldivmod.o) (__aeabi_ldiv0)

Allocating common symbols
Common symbol       size              file

g_srvr_wait_secs    0x4               ../../../netapps/mqtt/gcc/lib/client_server/Release/libmqtt.a(sl_mqtt_server.o)
g_rx_tx_sync_obj    0x4               ../../../netapps/mqtt/gcc/lib/client_server/Release/libmqtt.a(sl_mqtt_client.o)
mqtt_lib_lockobj    0x4               ../../../netapps/mqtt/gcc/lib/client_server/Release/libmqtt.a(sl_mqtt_client.o)
g_bDeviceRestartIsRequired
                    0x1               ../../../simplelink/gcc/lib/os/Release/libsimplelink.a(driver.o)
errno               0x4               /usr/lib/gcc/arm-none-eabi/5.2.0/../../../../arm-none-eabi/lib/armv7e-m/libc_nano.a(lib_a-reent.o)
xQueueRegistry      0x50              ../../../oslib/gcc/free_rtos/Release/free_rtos.a(queue.o)
g_usTimerInts       0x2               obj/Release/main.o
RxIrqCnt            0x1               ../../../simplelink/gcc/lib/os/Release/libsimplelink.a(driver.o)
g_ucLED1Pin         0x1               obj/Release/gpio_if.o
g_usConnectIndex    0x2               obj/Release/network_if.o
g_ucConnectionBSSID
                    0x6               obj/Release/network_if.o
g_ucLED2Pin         0x1               obj/Release/gpio_if.o
g_S3InterruptHdl    0x4               obj/Release/button_if.o
g_S2InterruptHdl    0x4               obj/Release/button_if.o
cbs_obj             0x10              ../../../netapps/mqtt/gcc/lib/client_server/Release/libmqtt.a(sl_mqtt_server.o)
g_srvr_task_priority
                    0x4               ../../../netapps/mqtt/gcc/lib/client_server/Release/libmqtt.a(sl_mqtt_server.o)
MutexLockObj        0x4               ../../../netapps/mqtt/gcc/lib/client_server/Release/libmqtt.a(sl_mqtt_server.o)
BridgeHndl          0x4               obj/Release/main.o
g_cDummy            0x4               ../../../simplelink/gcc/lib/os/Release/libsimplelink.a(cc_pal.o)
g_rx_task_hndl      0x4               ../../../netapps/mqtt/gcc/lib/client_server/Release/libmqtt.a(sl_mqtt_client.o)
g_ucConnectionSSID  0x21              obj/Release/network_if.o
app_hndl            0x4               ../../../netapps/mqtt/gcc/lib/client_server/Release/libmqtt.a(sl_mqtt_server.o)
g_wait_secs         0x4               ../../../netapps/mqtt/gcc/lib/client_server/Release/libmqtt.a(sl_mqtt_client.o)
DMAMsgQ             0x4               ../../../simplelink/gcc/lib/os/Release/libsimplelink.a(cc_pal.o)
g_PBQueue           0x4               obj/Release/main.o
g_ucDinDout         0x50              ../../../simplelink/gcc/lib/os/Release/libsimplelink.a(cc_pal.o)
client_info_table   0x4               obj/Release/server_client_cbs.o
g_ucLED3Pin         0x1               obj/Release/gpio_if.o

Discarded input sections

 .text          0x0000000000000000        0x0 obj/Release/main.o
 .data          0x0000000000000000        0x0 obj/Release/main.o
 .bss           0x0000000000000000        0x0 obj/Release/main.o
 .data.Password
                0x0000000000000000        0x4 obj/Release/main.o
 .data.Username
                0x0000000000000000        0x4 obj/Release/main.o
 .text          0x0000000000000000        0x0 obj/Release/pinmux.o
 .data          0x0000000000000000        0x0 obj/Release/pinmux.o
 .bss           0x0000000000000000        0x0 obj/Release/pinmux.o
 .text          0x0000000000000000        0x0 obj/Release/server_client_cbs.o
 .data          0x0000000000000000        0x0 obj/Release/server_client_cbs.o
 .bss           0x0000000000000000        0x0 obj/Release/server_client_cbs.o
 .text          0x0000000000000000        0x0 obj/Release/uart_if.o
 .data          0x0000000000000000        0x0 obj/Release/uart_if.o
 .bss           0x0000000000000000        0x0 obj/Release/uart_if.o
 .text.ClearTerm
                0x0000000000000000        0xc obj/Release/uart_if.o
 .text.Error    0x0000000000000000       0x34 obj/Release/uart_if.o
 .data.ilen     0x0000000000000000        0x4 obj/Release/uart_if.o
 .text          0x0000000000000000        0x0 obj/Release/network_if.o
 .data          0x0000000000000000        0x0 obj/Release/network_if.o
 .bss           0x0000000000000000        0x0 obj/Release/network_if.o
 .text.Network_IF_DeInitDriver
                0x0000000000000000       0x28 obj/Release/network_if.o
 .text.Network_IF_GetHostIP
                0x0000000000000000       0x58 obj/Release/network_if.o
 .text.Network_IF_CurrentMCUState
                0x0000000000000000        0xc obj/Release/network_if.o
 .text.Network_IF_SetMCUMachineState
                0x0000000000000000       0x14 obj/Release/network_if.o
 .text.Network_IF_UnsetMCUMachineState
                0x0000000000000000       0x18 obj/Release/network_if.o
 .text.itoa_incompat
                0x0000000000000000       0x4c obj/Release/network_if.o
 .rodata.__FUNCTION__.5989
                0x0000000000000000       0x15 obj/Release/network_if.o
 .rodata.pcDigits
                0x0000000000000000        0xb obj/Release/network_if.o
 .text          0x0000000000000000        0x0 obj/Release/gpio_if.o
 .data          0x0000000000000000        0x0 obj/Release/gpio_if.o
 .bss           0x0000000000000000        0x0 obj/Release/gpio_if.o
 .text.GPIO_IF_GetPortNPin
                0x0000000000000000       0x1c obj/Release/gpio_if.o
 .text.GPIO_IF_ConfigureNIntEnable
                0x0000000000000000       0x60 obj/Release/gpio_if.o
 .text.GPIO_IF_Get
                0x0000000000000000       0x1c obj/Release/gpio_if.o
 .text.GPIO_IF_LedStatus
                0x0000000000000000       0x44 obj/Release/gpio_if.o
 .text.GPIO_IF_LedToggle
                0x0000000000000000       0x1e obj/Release/gpio_if.o
 .rodata.ulReg  0x0000000000000000       0x14 obj/Release/gpio_if.o
 .text          0x0000000000000000        0x0 obj/Release/timer_if.o
 .data          0x0000000000000000        0x0 obj/Release/timer_if.o
 .bss           0x0000000000000000        0x0 obj/Release/timer_if.o
 .text.Timer_IF_InterruptClear
                0x0000000000000000       0x1e obj/Release/timer_if.o
 .text.Timer_IF_ReLoad
                0x0000000000000000       0x18 obj/Release/timer_if.o
 .text.Timer_IF_GetCount
                0x0000000000000000       0x10 obj/Release/timer_if.o
 .text          0x0000000000000000        0x0 obj/Release/button_if.o
 .data          0x0000000000000000        0x0 obj/Release/button_if.o
 .bss           0x0000000000000000        0x0 obj/Release/button_if.o
 .text          0x0000000000000000        0x0 obj/Release/startup_gcc.o
 .data          0x0000000000000000        0x0 obj/Release/startup_gcc.o
 .bss           0x0000000000000000        0x0 obj/Release/startup_gcc.o
 .text          0x0000000000000000        0x0 ../../../netapps/mqtt/gcc/lib/client_server/Release/libmqtt.a(sl_mqtt_client.o)
 .data          0x0000000000000000        0x0 ../../../netapps/mqtt/gcc/lib/client_server/Release/libmqtt.a(sl_mqtt_client.o)
 .bss           0x0000000000000000        0x0 ../../../netapps/mqtt/gcc/lib/client_server/Release/libmqtt.a(sl_mqtt_client.o)
 .text._sl_ExtLib_AwaitedAckSet
                0x0000000000000000        0xe ../../../netapps/mqtt/gcc/lib/client_server/Release/libmqtt.a(sl_mqtt_client.o)
 .text          0x0000000000000000        0x0 ../../../netapps/mqtt/gcc/lib/client_server/Release/libmqtt.a(sl_mqtt_server.o)
 .data          0x0000000000000000        0x0 ../../../netapps/mqtt/gcc/lib/client_server/Release/libmqtt.a(sl_mqtt_server.o)
 .bss           0x0000000000000000        0x0 ../../../netapps/mqtt/gcc/lib/client_server/Release/libmqtt.a(sl_mqtt_server.o)
 .text.sl_ExtLib_MqttTopicDisenroll
                0x0000000000000000       0x24 ../../../netapps/mqtt/gcc/lib/client_server/Release/libmqtt.a(sl_mqtt_server.o)
 .text.sl_ExtLib_MqttServerPause
                0x0000000000000000       0x48 ../../../netapps/mqtt/gcc/lib/client_server/Release/libmqtt.a(sl_mqtt_server.o)
 .text          0x0000000000000000        0x0 ../../../netapps/mqtt/gcc/lib/client_server/Release/libmqtt.a(cc32xx_sl_net.o)
 .data          0x0000000000000000        0x0 ../../../netapps/mqtt/gcc/lib/client_server/Release/libmqtt.a(cc32xx_sl_net.o)
 .bss           0x0000000000000000        0x0 ../../../netapps/mqtt/gcc/lib/client_server/Release/libmqtt.a(cc32xx_sl_net.o)
 .text          0x0000000000000000        0x0 ../../../netapps/mqtt/gcc/lib/client_server/Release/libmqtt.a(cc32xx_platform.o)
 .data          0x0000000000000000        0x0 ../../../netapps/mqtt/gcc/lib/client_server/Release/libmqtt.a(cc32xx_platform.o)
 .bss           0x0000000000000000        0x0 ../../../netapps/mqtt/gcc/lib/client_server/Release/libmqtt.a(cc32xx_platform.o)
 .text          0x0000000000000000        0x0 ../../../netapps/mqtt/gcc/lib/client_server/Release/libmqtt.a(mqtt_client.o)
 .data          0x0000000000000000        0x0 ../../../netapps/mqtt/gcc/lib/client_server/Release/libmqtt.a(mqtt_client.o)
 .bss           0x0000000000000000        0x0 ../../../netapps/mqtt/gcc/lib/client_server/Release/libmqtt.a(mqtt_client.o)
 .text.mqtt_client_new_msg_id
                0x0000000000000000       0x10 ../../../netapps/mqtt/gcc/lib/client_server/Release/libmqtt.a(mqtt_client.o)
 .text.mqtt_client_is_connected
                0x0000000000000000       0x10 ../../../netapps/mqtt/gcc/lib/client_server/Release/libmqtt.a(mqtt_client.o)
 .text.mqtt_client_pub_dispatch
                0x0000000000000000       0x1a ../../../netapps/mqtt/gcc/lib/client_server/Release/libmqtt.a(mqtt_client.o)
 .text.mqtt_unsub_dispatch
                0x0000000000000000       0x18 ../../../netapps/mqtt/gcc/lib/client_server/Release/libmqtt.a(mqtt_client.o)
 .text.mqtt_sub_dispatch
                0x0000000000000000        0x4 ../../../netapps/mqtt/gcc/lib/client_server/Release/libmqtt.a(mqtt_client.o)
 .text.mqtt_pingreq_send
                0x0000000000000000       0x38 ../../../netapps/mqtt/gcc/lib/client_server/Release/libmqtt.a(mqtt_client.o)
 .text.mqtt_client_ctx_await_msg
                0x0000000000000000       0x2c ../../../netapps/mqtt/gcc/lib/client_server/Release/libmqtt.a(mqtt_client.o)
 .text.mqtt_client_await_msg
                0x0000000000000000       0x44 ../../../netapps/mqtt/gcc/lib/client_server/Release/libmqtt.a(mqtt_client.o)
 .text          0x0000000000000000        0x0 ../../../netapps/mqtt/gcc/lib/client_server/Release/libmqtt.a(mqtt_common.o)
 .data          0x0000000000000000        0x0 ../../../netapps/mqtt/gcc/lib/client_server/Release/libmqtt.a(mqtt_common.o)
 .bss           0x0000000000000000        0x0 ../../../netapps/mqtt/gcc/lib/client_server/Release/libmqtt.a(mqtt_common.o)
 .text.mqp_proc_vh_msg_id_rx
                0x0000000000000000        0x4 ../../../netapps/mqtt/gcc/lib/client_server/Release/libmqtt.a(mqtt_common.o)
 .text          0x0000000000000000        0x0 ../../../netapps/mqtt/gcc/lib/client_server/Release/libmqtt.a(server_core.o)
 .data          0x0000000000000000        0x0 ../../../netapps/mqtt/gcc/lib/client_server/Release/libmqtt.a(server_core.o)
 .bss           0x0000000000000000        0x0 ../../../netapps/mqtt/gcc/lib/client_server/Release/libmqtt.a(server_core.o)
 .text          0x0000000000000000        0x0 ../../../netapps/mqtt/gcc/lib/client_server/Release/libmqtt.a(server_pkts.o)
 .data          0x0000000000000000        0x0 ../../../netapps/mqtt/gcc/lib/client_server/Release/libmqtt.a(server_pkts.o)
 .bss           0x0000000000000000        0x0 ../../../netapps/mqtt/gcc/lib/client_server/Release/libmqtt.a(server_pkts.o)
 .text.mqtt_vh_msg_send_locked
                0x0000000000000000       0x54 ../../../netapps/mqtt/gcc/lib/client_server/Release/libmqtt.a(server_pkts.o)
 .text.mqtt_server_pub_dispatch_locked
                0x0000000000000000       0x3c ../../../netapps/mqtt/gcc/lib/client_server/Release/libmqtt.a(server_pkts.o)
 .text.mqtt_server_pause
                0x0000000000000000        0xc ../../../netapps/mqtt/gcc/lib/client_server/Release/libmqtt.a(server_pkts.o)
 .text.mqtt_server_pause_locked
                0x0000000000000000       0x30 ../../../netapps/mqtt/gcc/lib/client_server/Release/libmqtt.a(server_pkts.o)
 .rodata.lpbk_nw_tear_msg
                0x0000000000000000        0x2 ../../../netapps/mqtt/gcc/lib/client_server/Release/libmqtt.a(server_pkts.o)
 .text          0x0000000000000000        0x0 ../../../netapps/mqtt/gcc/lib/client_server/Release/libmqtt.a(server_plug.o)
 .data          0x0000000000000000        0x0 ../../../netapps/mqtt/gcc/lib/client_server/Release/libmqtt.a(server_plug.o)
 .bss           0x0000000000000000        0x0 ../../../netapps/mqtt/gcc/lib/client_server/Release/libmqtt.a(server_plug.o)
 .text.mqtt_server_topic_disenroll
                0x0000000000000000       0x18 ../../../netapps/mqtt/gcc/lib/client_server/Release/libmqtt.a(server_plug.o)
 .text          0x0000000000000000        0x0 ../../../netapps/mqtt/gcc/lib/client_server/Release/libmqtt.a(server_util.o)
 .data          0x0000000000000000        0x0 ../../../netapps/mqtt/gcc/lib/client_server/Release/libmqtt.a(server_util.o)
 .bss           0x0000000000000000        0x0 ../../../netapps/mqtt/gcc/lib/client_server/Release/libmqtt.a(server_util.o)
 .text          0x0000000000000000        0x0 ../../../netapps/mqtt/gcc/lib/client_server/Release/libmqtt.a(client_mgmt.o)
 .data          0x0000000000000000        0x0 ../../../netapps/mqtt/gcc/lib/client_server/Release/libmqtt.a(client_mgmt.o)
 .bss           0x0000000000000000        0x0 ../../../netapps/mqtt/gcc/lib/client_server/Release/libmqtt.a(client_mgmt.o)
 .text.cl_pub_msg_send
                0x0000000000000000       0xac ../../../netapps/mqtt/gcc/lib/client_server/Release/libmqtt.a(client_mgmt.o)
 .text          0x0000000000000000        0x0 ../../../simplelink/gcc/lib/os/Release/libsimplelink.a(device.o)
 .data          0x0000000000000000        0x0 ../../../simplelink/gcc/lib/os/Release/libsimplelink.a(device.o)
 .bss           0x0000000000000000        0x0 ../../../simplelink/gcc/lib/os/Release/libsimplelink.a(device.o)
 .text.sl_Stop_WithNwpLpdsPoll
                0x0000000000000000       0x98 ../../../simplelink/gcc/lib/os/Release/libsimplelink.a(device.o)
 .text.sl_EventMaskSet
                0x0000000000000000       0x40 ../../../simplelink/gcc/lib/os/Release/libsimplelink.a(device.o)
 .text.sl_EventMaskGet
                0x0000000000000000       0x40 ../../../simplelink/gcc/lib/os/Release/libsimplelink.a(device.o)
 .text.sl_DevSet
                0x0000000000000000       0x64 ../../../simplelink/gcc/lib/os/Release/libsimplelink.a(device.o)
 .rodata._SlEventMaskGetCmdCtrl
                0x0000000000000000        0x4 ../../../simplelink/gcc/lib/os/Release/libsimplelink.a(device.o)
 .rodata._SlEventMaskSetCmdCtrl
                0x0000000000000000        0x4 ../../../simplelink/gcc/lib/os/Release/libsimplelink.a(device.o)
 .rodata._SlDeviceSetCmdCtrl
                0x0000000000000000        0x4 ../../../simplelink/gcc/lib/os/Release/libsimplelink.a(device.o)
 .text          0x0000000000000000        0x0 ../../../simplelink/gcc/lib/os/Release/libsimplelink.a(driver.o)
 .data          0x0000000000000000        0x0 ../../../simplelink/gcc/lib/os/Release/libsimplelink.a(driver.o)
 .bss           0x0000000000000000        0x0 ../../../simplelink/gcc/lib/os/Release/libsimplelink.a(driver.o)
 .text._SlDrvStartMeasureTimeout
                0x0000000000000000       0x14 ../../../simplelink/gcc/lib/os/Release/libsimplelink.a(driver.o)
 .text          0x0000000000000000        0x0 ../../../simplelink/gcc/lib/os/Release/libsimplelink.a(netapp.o)
 .data          0x0000000000000000        0x0 ../../../simplelink/gcc/lib/os/Release/libsimplelink.a(netapp.o)
 .bss           0x0000000000000000        0x0 ../../../simplelink/gcc/lib/os/Release/libsimplelink.a(netapp.o)
 .text.sl_NetAppStart
                0x0000000000000000       0x40 ../../../simplelink/gcc/lib/os/Release/libsimplelink.a(netapp.o)
 .text.sl_NetAppStop
                0x0000000000000000       0x40 ../../../simplelink/gcc/lib/os/Release/libsimplelink.a(netapp.o)
 .text.sl_NetAppGetServiceList
                0x0000000000000000       0x90 ../../../simplelink/gcc/lib/os/Release/libsimplelink.a(netapp.o)
 .text.sl_NetAppMDNSRegisterService
                0x0000000000000000       0x38 ../../../simplelink/gcc/lib/os/Release/libsimplelink.a(netapp.o)
 .text.sl_NetAppDnsGetHostByService
                0x0000000000000000       0xc0 ../../../simplelink/gcc/lib/os/Release/libsimplelink.a(netapp.o)
 .text._sl_HandleAsync_DnsGetHostByAddr
                0x0000000000000000        0x4 ../../../simplelink/gcc/lib/os/Release/libsimplelink.a(netapp.o)
 .text.sl_NetAppPingStart
                0x0000000000000000      0x158 ../../../simplelink/gcc/lib/os/Release/libsimplelink.a(netapp.o)
 .text.sl_NetAppSet
                0x0000000000000000       0x64 ../../../simplelink/gcc/lib/os/Release/libsimplelink.a(netapp.o)
 .text.sl_NetAppGet
                0x0000000000000000       0x7c ../../../simplelink/gcc/lib/os/Release/libsimplelink.a(netapp.o)
 .rodata        0x0000000000000000        0x4 ../../../simplelink/gcc/lib/os/Release/libsimplelink.a(netapp.o)
 .rodata._SlNetAppStopCtrl
                0x0000000000000000        0x4 ../../../simplelink/gcc/lib/os/Release/libsimplelink.a(netapp.o)
 .rodata._SlGetServiceListeCtrl
                0x0000000000000000        0x4 ../../../simplelink/gcc/lib/os/Release/libsimplelink.a(netapp.o)
 .rodata._SlGetHostByServiceCtrl
                0x0000000000000000        0x4 ../../../simplelink/gcc/lib/os/Release/libsimplelink.a(netapp.o)
 .rodata._SlNetAppGetCmdCtrl
                0x0000000000000000        0x4 ../../../simplelink/gcc/lib/os/Release/libsimplelink.a(netapp.o)
 .rodata._SlNetAppStartCtrl
                0x0000000000000000        0x4 ../../../simplelink/gcc/lib/os/Release/libsimplelink.a(netapp.o)
 .rodata._SlNetAppSetCmdCtrl
                0x0000000000000000        0x4 ../../../simplelink/gcc/lib/os/Release/libsimplelink.a(netapp.o)
 .rodata.CSWTCH.35
                0x0000000000000000        0x6 ../../../simplelink/gcc/lib/os/Release/libsimplelink.a(netapp.o)
 .text          0x0000000000000000        0x0 ../../../simplelink/gcc/lib/os/Release/libsimplelink.a(netcfg.o)
 .data          0x0000000000000000        0x0 ../../../simplelink/gcc/lib/os/Release/libsimplelink.a(netcfg.o)
 .bss           0x0000000000000000        0x0 ../../../simplelink/gcc/lib/os/Release/libsimplelink.a(netcfg.o)
 .text          0x0000000000000000        0x0 ../../../simplelink/gcc/lib/os/Release/libsimplelink.a(socket.o)
 .data          0x0000000000000000        0x0 ../../../simplelink/gcc/lib/os/Release/libsimplelink.a(socket.o)
 .bss           0x0000000000000000        0x0 ../../../simplelink/gcc/lib/os/Release/libsimplelink.a(socket.o)
 .text._sl_ParseAddress
                0x0000000000000000       0x30 ../../../simplelink/gcc/lib/os/Release/libsimplelink.a(socket.o)
 .text.sl_GetSockOpt
                0x0000000000000000       0x94 ../../../simplelink/gcc/lib/os/Release/libsimplelink.a(socket.o)
 .text.SL_FD_CLR
                0x0000000000000000       0x14 ../../../simplelink/gcc/lib/os/Release/libsimplelink.a(socket.o)
 .rodata._SlGetSockOptCmdCtrl
                0x0000000000000000        0x4 ../../../simplelink/gcc/lib/os/Release/libsimplelink.a(socket.o)
 .text          0x0000000000000000        0x0 ../../../simplelink/gcc/lib/os/Release/libsimplelink.a(wlan.o)
 .data          0x0000000000000000        0x0 ../../../simplelink/gcc/lib/os/Release/libsimplelink.a(wlan.o)
 .bss           0x0000000000000000        0x0 ../../../simplelink/gcc/lib/os/Release/libsimplelink.a(wlan.o)
 .text.sl_WlanPolicyGet
                0x0000000000000000       0xa8 ../../../simplelink/gcc/lib/os/Release/libsimplelink.a(wlan.o)
 .text.sl_WlanProfileAdd
                0x0000000000000000      0x1b8 ../../../simplelink/gcc/lib/os/Release/libsimplelink.a(wlan.o)
 .text.sl_WlanProfileGet
                0x0000000000000000       0xd4 ../../../simplelink/gcc/lib/os/Release/libsimplelink.a(wlan.o)
 .text.sl_WlanGetNetworkList
                0x0000000000000000       0x68 ../../../simplelink/gcc/lib/os/Release/libsimplelink.a(wlan.o)
 .text.sl_WlanRxFilterAdd
                0x0000000000000000       0x80 ../../../simplelink/gcc/lib/os/Release/libsimplelink.a(wlan.o)
 .text.sl_WlanRxFilterGet
                0x0000000000000000       0x70 ../../../simplelink/gcc/lib/os/Release/libsimplelink.a(wlan.o)
 .text.sl_WlanRxStatStart
                0x0000000000000000       0x28 ../../../simplelink/gcc/lib/os/Release/libsimplelink.a(wlan.o)
 .text.sl_WlanRxStatStop
                0x0000000000000000       0x28 ../../../simplelink/gcc/lib/os/Release/libsimplelink.a(wlan.o)
 .text.sl_WlanRxStatGet
                0x0000000000000000       0x44 ../../../simplelink/gcc/lib/os/Release/libsimplelink.a(wlan.o)
 .text.sl_WlanSmartConfigStop
                0x0000000000000000       0x28 ../../../simplelink/gcc/lib/os/Release/libsimplelink.a(wlan.o)
 .text.sl_WlanSmartConfigStart
                0x0000000000000000       0x84 ../../../simplelink/gcc/lib/os/Release/libsimplelink.a(wlan.o)
 .text.sl_WlanGet
                0x0000000000000000       0x94 ../../../simplelink/gcc/lib/os/Release/libsimplelink.a(wlan.o)
 .rodata        0x0000000000000000        0x4 ../../../simplelink/gcc/lib/os/Release/libsimplelink.a(wlan.o)
 .rodata._SlSmartConfigStartCmdCtrl
                0x0000000000000000        0x4 ../../../simplelink/gcc/lib/os/Release/libsimplelink.a(wlan.o)
 .rodata._SlRxFilterGetCmdCtrl
                0x0000000000000000        0x4 ../../../simplelink/gcc/lib/os/Release/libsimplelink.a(wlan.o)
 .rodata._SlWlanGetNetworkListCtrl
                0x0000000000000000        0x4 ../../../simplelink/gcc/lib/os/Release/libsimplelink.a(wlan.o)
 .rodata._SlRxFilterAddtCmdCtrl
                0x0000000000000000        0x4 ../../../simplelink/gcc/lib/os/Release/libsimplelink.a(wlan.o)
 .rodata._SlPolicyGetCmdCtrl
                0x0000000000000000        0x4 ../../../simplelink/gcc/lib/os/Release/libsimplelink.a(wlan.o)
 .rodata._SlProfileGetCmdCtrl
                0x0000000000000000        0x4 ../../../simplelink/gcc/lib/os/Release/libsimplelink.a(wlan.o)
 .rodata._SlWlanCfgGetCmdCtrl
                0x0000000000000000        0x4 ../../../simplelink/gcc/lib/os/Release/libsimplelink.a(wlan.o)
 .text          0x0000000000000000        0x0 ../../../simplelink/gcc/lib/os/Release/libsimplelink.a(cc_pal.o)
 .data          0x0000000000000000        0x0 ../../../simplelink/gcc/lib/os/Release/libsimplelink.a(cc_pal.o)
 .bss           0x0000000000000000        0x0 ../../../simplelink/gcc/lib/os/Release/libsimplelink.a(cc_pal.o)
 .text.NwpPowerOff_WithNwpLpdsPoll
                0x0000000000000000       0x5c ../../../simplelink/gcc/lib/os/Release/libsimplelink.a(cc_pal.o)
 .bss.g_pHostIntHdl
                0x0000000000000000        0x4 ../../../simplelink/gcc/lib/os/Release/libsimplelink.a(cc_pal.o)
 .text          0x0000000000000000        0x0 ../../../oslib/gcc/free_rtos/Release/free_rtos.a(osi_freertos.o)
 .data          0x0000000000000000        0x0 ../../../oslib/gcc/free_rtos/Release/free_rtos.a(osi_freertos.o)
 .bss           0x0000000000000000        0x0 ../../../oslib/gcc/free_rtos/Release/free_rtos.a(osi_freertos.o)
 .text.osi_SyncObjClear
                0x0000000000000000       0x1a ../../../oslib/gcc/free_rtos/Release/free_rtos.a(osi_freertos.o)
 .text.VDeleteSimpleLinkSpawnTask
                0x0000000000000000       0x28 ../../../oslib/gcc/free_rtos/Release/free_rtos.a(osi_freertos.o)
 .text.mem_Malloc
                0x0000000000000000        0x4 ../../../oslib/gcc/free_rtos/Release/free_rtos.a(osi_freertos.o)
 .text.mem_Free
                0x0000000000000000        0x4 ../../../oslib/gcc/free_rtos/Release/free_rtos.a(osi_freertos.o)
 .text.mem_set  0x0000000000000000        0x4 ../../../oslib/gcc/free_rtos/Release/free_rtos.a(osi_freertos.o)
 .text.mem_copy
                0x0000000000000000        0x4 ../../../oslib/gcc/free_rtos/Release/free_rtos.a(osi_freertos.o)
 .text.osi_TaskDisable
                0x0000000000000000        0xa ../../../oslib/gcc/free_rtos/Release/free_rtos.a(osi_freertos.o)
 .text.osi_TaskEnable
                0x0000000000000000        0x4 ../../../oslib/gcc/free_rtos/Release/free_rtos.a(osi_freertos.o)
 .text.osi_ContextSave
                0x0000000000000000        0x2 ../../../oslib/gcc/free_rtos/Release/free_rtos.a(osi_freertos.o)
 .text.osi_ContextRestore
                0x0000000000000000        0x2 ../../../oslib/gcc/free_rtos/Release/free_rtos.a(osi_freertos.o)
 .text          0x0000000000000000        0x0 ../../../oslib/gcc/free_rtos/Release/free_rtos.a(queue.o)
 .data          0x0000000000000000        0x0 ../../../oslib/gcc/free_rtos/Release/free_rtos.a(queue.o)
 .bss           0x0000000000000000        0x0 ../../../oslib/gcc/free_rtos/Release/free_rtos.a(queue.o)
 .text.xQueueCreateCountingSemaphore
                0x0000000000000000       0x44 ../../../oslib/gcc/free_rtos/Release/free_rtos.a(queue.o)
 .text.xQueueReceiveFromISR
                0x0000000000000000       0x7c ../../../oslib/gcc/free_rtos/Release/free_rtos.a(queue.o)
 .text.xQueuePeekFromISR
                0x0000000000000000       0x64 ../../../oslib/gcc/free_rtos/Release/free_rtos.a(queue.o)
 .text.uxQueueMessagesWaiting
                0x0000000000000000       0x24 ../../../oslib/gcc/free_rtos/Release/free_rtos.a(queue.o)
 .text.uxQueueSpacesAvailable
                0x0000000000000000       0x28 ../../../oslib/gcc/free_rtos/Release/free_rtos.a(queue.o)
 .text.uxQueueMessagesWaitingFromISR
                0x0000000000000000       0x18 ../../../oslib/gcc/free_rtos/Release/free_rtos.a(queue.o)
 .text.uxQueueGetQueueNumber
                0x0000000000000000        0x4 ../../../oslib/gcc/free_rtos/Release/free_rtos.a(queue.o)
 .text.vQueueSetQueueNumber
                0x0000000000000000        0x4 ../../../oslib/gcc/free_rtos/Release/free_rtos.a(queue.o)
 .text.ucQueueGetQueueType
                0x0000000000000000        0x6 ../../../oslib/gcc/free_rtos/Release/free_rtos.a(queue.o)
 .text.xQueueIsQueueEmptyFromISR
                0x0000000000000000       0x20 ../../../oslib/gcc/free_rtos/Release/free_rtos.a(queue.o)
 .text.xQueueIsQueueFullFromISR
                0x0000000000000000       0x20 ../../../oslib/gcc/free_rtos/Release/free_rtos.a(queue.o)
 .text.xQueueCreateSet
                0x0000000000000000        0x8 ../../../oslib/gcc/free_rtos/Release/free_rtos.a(queue.o)
 .text.xQueueAddToSet
                0x0000000000000000       0x22 ../../../oslib/gcc/free_rtos/Release/free_rtos.a(queue.o)
 .text.xQueueRemoveFromSet
                0x0000000000000000       0x20 ../../../oslib/gcc/free_rtos/Release/free_rtos.a(queue.o)
 .text.xQueueSelectFromSet
                0x0000000000000000       0x18 ../../../oslib/gcc/free_rtos/Release/free_rtos.a(queue.o)
 .text.xQueueSelectFromSetFromISR
                0x0000000000000000       0x16 ../../../oslib/gcc/free_rtos/Release/free_rtos.a(queue.o)
 .text          0x0000000000000000        0x0 ../../../oslib/gcc/free_rtos/Release/free_rtos.a(tasks.o)
 .data          0x0000000000000000        0x0 ../../../oslib/gcc/free_rtos/Release/free_rtos.a(tasks.o)
 .bss           0x0000000000000000        0x0 ../../../oslib/gcc/free_rtos/Release/free_rtos.a(tasks.o)
 .text.prvTaskIsTaskSuspended
                0x0000000000000000       0x38 ../../../oslib/gcc/free_rtos/Release/free_rtos.a(tasks.o)
 .text.prvListTaskWithinSingleList
                0x0000000000000000       0x98 ../../../oslib/gcc/free_rtos/Release/free_rtos.a(tasks.o)
 .text.eTaskGetState
                0x0000000000000000       0x70 ../../../oslib/gcc/free_rtos/Release/free_rtos.a(tasks.o)
 .text.uxTaskPriorityGet
                0x0000000000000000       0x1c ../../../oslib/gcc/free_rtos/Release/free_rtos.a(tasks.o)
 .text.uxTaskPriorityGetFromISR
                0x0000000000000000       0x20 ../../../oslib/gcc/free_rtos/Release/free_rtos.a(tasks.o)
 .text.vTaskPrioritySet
                0x0000000000000000       0xc4 ../../../oslib/gcc/free_rtos/Release/free_rtos.a(tasks.o)
 .text.vTaskResume
                0x0000000000000000       0x78 ../../../oslib/gcc/free_rtos/Release/free_rtos.a(tasks.o)
 .text.xTaskResumeFromISR
                0x0000000000000000       0x94 ../../../oslib/gcc/free_rtos/Release/free_rtos.a(tasks.o)
 .text.vTaskEndScheduler
                0x0000000000000000       0x18 ../../../oslib/gcc/free_rtos/Release/free_rtos.a(tasks.o)
 .text.xTaskGetTickCountFromISR
                0x0000000000000000       0x10 ../../../oslib/gcc/free_rtos/Release/free_rtos.a(tasks.o)
 .text.uxTaskGetNumberOfTasks
                0x0000000000000000        0xc ../../../oslib/gcc/free_rtos/Release/free_rtos.a(tasks.o)
 .text.pcTaskGetTaskName
                0x0000000000000000       0x24 ../../../oslib/gcc/free_rtos/Release/free_rtos.a(tasks.o)
 .text.xTaskGetIdleTaskHandle
                0x0000000000000000       0x20 ../../../oslib/gcc/free_rtos/Release/free_rtos.a(tasks.o)
 .text.vTaskDelayUntil
                0x0000000000000000       0xa4 ../../../oslib/gcc/free_rtos/Release/free_rtos.a(tasks.o)
 .text.uxTaskGetSystemState
                0x0000000000000000       0xa0 ../../../oslib/gcc/free_rtos/Release/free_rtos.a(tasks.o)
 .text.vTaskSuspend
                0x0000000000000000       0xbc ../../../oslib/gcc/free_rtos/Release/free_rtos.a(tasks.o)
 .text.vTaskPlaceOnUnorderedEventList
                0x0000000000000000       0x8c ../../../oslib/gcc/free_rtos/Release/free_rtos.a(tasks.o)
 .text.xTaskRemoveFromUnorderedEventList
                0x0000000000000000       0x84 ../../../oslib/gcc/free_rtos/Release/free_rtos.a(tasks.o)
 .text.uxTaskGetTaskNumber
                0x0000000000000000        0x6 ../../../oslib/gcc/free_rtos/Release/free_rtos.a(tasks.o)
 .text.vTaskSetTaskNumber
                0x0000000000000000        0x6 ../../../oslib/gcc/free_rtos/Release/free_rtos.a(tasks.o)
 .text.uxTaskGetStackHighWaterMark
                0x0000000000000000       0x20 ../../../oslib/gcc/free_rtos/Release/free_rtos.a(tasks.o)
 .text.xTaskGetCurrentTaskHandle
                0x0000000000000000        0xc ../../../oslib/gcc/free_rtos/Release/free_rtos.a(tasks.o)
 .text.vTaskList
                0x0000000000000000       0xc8 ../../../oslib/gcc/free_rtos/Release/free_rtos.a(tasks.o)
 .text.uxTaskResetEventItemValue
                0x0000000000000000       0x18 ../../../oslib/gcc/free_rtos/Release/free_rtos.a(tasks.o)
 .text.ulTaskNotifyTake
                0x0000000000000000       0x98 ../../../oslib/gcc/free_rtos/Release/free_rtos.a(tasks.o)
 .text.xTaskNotifyWait
                0x0000000000000000       0xc0 ../../../oslib/gcc/free_rtos/Release/free_rtos.a(tasks.o)
 .text.xTaskGenericNotify
                0x0000000000000000       0xb0 ../../../oslib/gcc/free_rtos/Release/free_rtos.a(tasks.o)
 .text.xTaskNotifyFromISR
                0x0000000000000000       0xdc ../../../oslib/gcc/free_rtos/Release/free_rtos.a(tasks.o)
 .text.vTaskNotifyGiveFromISR
                0x0000000000000000       0xac ../../../oslib/gcc/free_rtos/Release/free_rtos.a(tasks.o)
 .rodata.CSWTCH.287
                0x0000000000000000        0x4 ../../../oslib/gcc/free_rtos/Release/free_rtos.a(tasks.o)
 .text          0x0000000000000000        0x0 ../../../oslib/gcc/free_rtos/Release/free_rtos.a(port.o)
 .data          0x0000000000000000        0x0 ../../../oslib/gcc/free_rtos/Release/free_rtos.a(port.o)
 .bss           0x0000000000000000        0x0 ../../../oslib/gcc/free_rtos/Release/free_rtos.a(port.o)
 .text.vPortEndScheduler
                0x0000000000000000       0x20 ../../../oslib/gcc/free_rtos/Release/free_rtos.a(port.o)
 .text          0x0000000000000000        0x0 ../../../oslib/gcc/free_rtos/Release/free_rtos.a(timers.o)
 .data          0x0000000000000000        0x0 ../../../oslib/gcc/free_rtos/Release/free_rtos.a(timers.o)
 .bss           0x0000000000000000        0x0 ../../../oslib/gcc/free_rtos/Release/free_rtos.a(timers.o)
 .text.xTimerCreate
                0x0000000000000000       0x48 ../../../oslib/gcc/free_rtos/Release/free_rtos.a(timers.o)
 .text.xTimerGetTimerDaemonTaskHandle
                0x0000000000000000       0x20 ../../../oslib/gcc/free_rtos/Release/free_rtos.a(timers.o)
 .text.pcTimerGetTimerName
                0x0000000000000000        0x4 ../../../oslib/gcc/free_rtos/Release/free_rtos.a(timers.o)
 .text.xTimerIsTimerActive
                0x0000000000000000       0x18 ../../../oslib/gcc/free_rtos/Release/free_rtos.a(timers.o)
 .text.pvTimerGetTimerID
                0x0000000000000000       0x24 ../../../oslib/gcc/free_rtos/Release/free_rtos.a(timers.o)
 .text.vTimerSetTimerID
                0x0000000000000000       0x24 ../../../oslib/gcc/free_rtos/Release/free_rtos.a(timers.o)
 .text.xTimerPendFunctionCallFromISR
                0x0000000000000000       0x28 ../../../oslib/gcc/free_rtos/Release/free_rtos.a(timers.o)
 .text.xTimerPendFunctionCall
                0x0000000000000000       0x44 ../../../oslib/gcc/free_rtos/Release/free_rtos.a(timers.o)
 .text          0x0000000000000000        0x0 ../../../oslib/gcc/free_rtos/Release/free_rtos.a(heap_3.o)
 .data          0x0000000000000000        0x0 ../../../oslib/gcc/free_rtos/Release/free_rtos.a(heap_3.o)
 .bss           0x0000000000000000        0x0 ../../../oslib/gcc/free_rtos/Release/free_rtos.a(heap_3.o)
 .text          0x0000000000000000        0x0 ../../../oslib/gcc/free_rtos/Release/free_rtos.a(list.o)
 .data          0x0000000000000000        0x0 ../../../oslib/gcc/free_rtos/Release/free_rtos.a(list.o)
 .bss           0x0000000000000000        0x0 ../../../oslib/gcc/free_rtos/Release/free_rtos.a(list.o)
 .text          0x0000000000000000        0x0 ../../../driverlib/gcc/lib/Release/libdriver.a(gpio.o)
 .data          0x0000000000000000        0x0 ../../../driverlib/gcc/lib/Release/libdriver.a(gpio.o)
 .bss           0x0000000000000000        0x0 ../../../driverlib/gcc/lib/Release/libdriver.a(gpio.o)
 .text.GPIOGetIntNumber
                0x0000000000000000       0x3c ../../../driverlib/gcc/lib/Release/libdriver.a(gpio.o)
 .text.GPIODirModeSet
                0x0000000000000000       0x18 ../../../driverlib/gcc/lib/Release/libdriver.a(gpio.o)
 .text.GPIODirModeGet
                0x0000000000000000       0x16 ../../../driverlib/gcc/lib/Release/libdriver.a(gpio.o)
 .text.GPIOIntTypeSet
                0x0000000000000000       0x42 ../../../driverlib/gcc/lib/Release/libdriver.a(gpio.o)
 .text.GPIOIntTypeGet
                0x0000000000000000       0x34 ../../../driverlib/gcc/lib/Release/libdriver.a(gpio.o)
 .text.GPIOIntEnable
                0x0000000000000000        0xc ../../../driverlib/gcc/lib/Release/libdriver.a(gpio.o)
 .text.GPIOIntDisable
                0x0000000000000000        0xe ../../../driverlib/gcc/lib/Release/libdriver.a(gpio.o)
 .text.GPIOIntClear
                0x0000000000000000        0x6 ../../../driverlib/gcc/lib/Release/libdriver.a(gpio.o)
 .text.GPIOIntRegister
                0x0000000000000000       0x16 ../../../driverlib/gcc/lib/Release/libdriver.a(gpio.o)
 .text.GPIOIntUnregister
                0x0000000000000000       0x16 ../../../driverlib/gcc/lib/Release/libdriver.a(gpio.o)
 .text.GPIOPinRead
                0x0000000000000000        0x6 ../../../driverlib/gcc/lib/Release/libdriver.a(gpio.o)
 .text.GPIOPinWrite
                0x0000000000000000        0x6 ../../../driverlib/gcc/lib/Release/libdriver.a(gpio.o)
 .text.GPIODMATriggerEnable
                0x0000000000000000       0x54 ../../../driverlib/gcc/lib/Release/libdriver.a(gpio.o)
 .text.GPIODMATriggerDisable
                0x0000000000000000       0x54 ../../../driverlib/gcc/lib/Release/libdriver.a(gpio.o)
 .text          0x0000000000000000        0x0 ../../../driverlib/gcc/lib/Release/libdriver.a(interrupt.o)
 .data          0x0000000000000000        0x0 ../../../driverlib/gcc/lib/Release/libdriver.a(interrupt.o)
 .bss           0x0000000000000000        0x0 ../../../driverlib/gcc/lib/Release/libdriver.a(interrupt.o)
 .text.IntDefaultHandler
                0x0000000000000000        0x2 ../../../driverlib/gcc/lib/Release/libdriver.a(interrupt.o)
 .text.IntMasterDisable
                0x0000000000000000        0xa ../../../driverlib/gcc/lib/Release/libdriver.a(interrupt.o)
 .text.IntRegister
                0x0000000000000000       0x10 ../../../driverlib/gcc/lib/Release/libdriver.a(interrupt.o)
 .text.IntUnregister
                0x0000000000000000       0x14 ../../../driverlib/gcc/lib/Release/libdriver.a(interrupt.o)
 .text.IntPriorityGroupingSet
                0x0000000000000000       0x1c ../../../driverlib/gcc/lib/Release/libdriver.a(interrupt.o)
 .text.IntPriorityGroupingGet
                0x0000000000000000       0x24 ../../../driverlib/gcc/lib/Release/libdriver.a(interrupt.o)
 .text.IntPrioritySet
                0x0000000000000000       0x28 ../../../driverlib/gcc/lib/Release/libdriver.a(interrupt.o)
 .text.IntPriorityGet
                0x0000000000000000       0x1c ../../../driverlib/gcc/lib/Release/libdriver.a(interrupt.o)
 .text.IntPendSet
                0x0000000000000000       0x58 ../../../driverlib/gcc/lib/Release/libdriver.a(interrupt.o)
 .text.IntPendClear
                0x0000000000000000       0x40 ../../../driverlib/gcc/lib/Release/libdriver.a(interrupt.o)
 .text.IntPriorityMaskSet
                0x0000000000000000        0x4 ../../../driverlib/gcc/lib/Release/libdriver.a(interrupt.o)
 .text.IntPriorityMaskGet
                0x0000000000000000        0x4 ../../../driverlib/gcc/lib/Release/libdriver.a(interrupt.o)
 .rodata.g_pulPendRegs
                0x0000000000000000       0x18 ../../../driverlib/gcc/lib/Release/libdriver.a(interrupt.o)
 .rodata.g_pulUnpendRegs
                0x0000000000000000       0x18 ../../../driverlib/gcc/lib/Release/libdriver.a(interrupt.o)
 .rodata.g_pulPriority
                0x0000000000000000       0x20 ../../../driverlib/gcc/lib/Release/libdriver.a(interrupt.o)
 .rodata.g_pulRegs
                0x0000000000000000       0xd4 ../../../driverlib/gcc/lib/Release/libdriver.a(interrupt.o)
 .text          0x0000000000000000        0x0 ../../../driverlib/gcc/lib/Release/libdriver.a(prcm.o)
 .data          0x0000000000000000        0x0 ../../../driverlib/gcc/lib/Release/libdriver.a(prcm.o)
 .bss           0x0000000000000000        0x0 ../../../driverlib/gcc/lib/Release/libdriver.a(prcm.o)
 .text.PRCMMCUReset
                0x0000000000000000       0x14 ../../../driverlib/gcc/lib/Release/libdriver.a(prcm.o)
 .text.PRCMPeripheralClockGet
                0x0000000000000000       0x48 ../../../driverlib/gcc/lib/Release/libdriver.a(prcm.o)
 .text.PRCMI2SClockFreqSet
                0x0000000000000000       0x20 ../../../driverlib/gcc/lib/Release/libdriver.a(prcm.o)
 .text.PRCMLPDSRestoreInfoSet
                0x0000000000000000        0xc ../../../driverlib/gcc/lib/Release/libdriver.a(prcm.o)
 .text.PRCMLPDSEnter
                0x0000000000000000       0x38 ../../../driverlib/gcc/lib/Release/libdriver.a(prcm.o)
 .text.PRCMLPDSEnterKeepDebugIf
                0x0000000000000000       0x30 ../../../driverlib/gcc/lib/Release/libdriver.a(prcm.o)
 .text.PRCMLPDSWakeupSourceEnable
                0x0000000000000000       0x14 ../../../driverlib/gcc/lib/Release/libdriver.a(prcm.o)
 .text.PRCMLPDSWakeupSourceDisable
                0x0000000000000000       0x10 ../../../driverlib/gcc/lib/Release/libdriver.a(prcm.o)
 .text.PRCMLPDSWakeupCauseGet
                0x0000000000000000        0xc ../../../driverlib/gcc/lib/Release/libdriver.a(prcm.o)
 .text.PRCMLPDSIntervalSet
                0x0000000000000000       0x18 ../../../driverlib/gcc/lib/Release/libdriver.a(prcm.o)
 .text.PRCMLPDSWakeUpGPIOSelect
                0x0000000000000000       0x24 ../../../driverlib/gcc/lib/Release/libdriver.a(prcm.o)
 .text.PRCMSleepEnter
                0x0000000000000000        0x4 ../../../driverlib/gcc/lib/Release/libdriver.a(prcm.o)
 .text.PRCMSRAMRetentionEnable
                0x0000000000000000       0x14 ../../../driverlib/gcc/lib/Release/libdriver.a(prcm.o)
 .text.PRCMSRAMRetentionDisable
                0x0000000000000000       0x18 ../../../driverlib/gcc/lib/Release/libdriver.a(prcm.o)
 .text.PRCMHibernateWakeupSourceEnable
                0x0000000000000000       0x48 ../../../driverlib/gcc/lib/Release/libdriver.a(prcm.o)
 .text.PRCMHibernateWakeupSourceDisable
                0x0000000000000000       0x4c ../../../driverlib/gcc/lib/Release/libdriver.a(prcm.o)
 .text.PRCMHibernateWakeupCauseGet
                0x0000000000000000       0x18 ../../../driverlib/gcc/lib/Release/libdriver.a(prcm.o)
 .text.PRCMHibernateIntervalSet
                0x0000000000000000       0x70 ../../../driverlib/gcc/lib/Release/libdriver.a(prcm.o)
 .text.PRCMHibernateWakeUpGPIOSelect
                0x0000000000000000       0x50 ../../../driverlib/gcc/lib/Release/libdriver.a(prcm.o)
 .text.PRCMHibernateEnter
                0x0000000000000000       0x18 ../../../driverlib/gcc/lib/Release/libdriver.a(prcm.o)
 .text.PRCMSlowClkCtrFastGet
                0x0000000000000000       0x20 ../../../driverlib/gcc/lib/Release/libdriver.a(prcm.o)
 .text.PRCMSlowClkCtrMatchSet
                0x0000000000000000       0x28 ../../../driverlib/gcc/lib/Release/libdriver.a(prcm.o)
 .text.PRCMSlowClkCtrMatchGet
                0x0000000000000000       0x30 ../../../driverlib/gcc/lib/Release/libdriver.a(prcm.o)
 .text.PRCMOCRRegisterWrite
                0x0000000000000000       0x14 ../../../driverlib/gcc/lib/Release/libdriver.a(prcm.o)
 .text.PRCMOCRRegisterRead
                0x0000000000000000       0x18 ../../../driverlib/gcc/lib/Release/libdriver.a(prcm.o)
 .text.PRCMIntRegister
                0x0000000000000000       0x14 ../../../driverlib/gcc/lib/Release/libdriver.a(prcm.o)
 .text.PRCMIntUnregister
                0x0000000000000000       0x12 ../../../driverlib/gcc/lib/Release/libdriver.a(prcm.o)
 .text.PRCMIntEnable
                0x0000000000000000       0x38 ../../../driverlib/gcc/lib/Release/libdriver.a(prcm.o)
 .text.PRCMIntDisable
                0x0000000000000000       0x38 ../../../driverlib/gcc/lib/Release/libdriver.a(prcm.o)
 .text.PRCMIntStatus
                0x0000000000000000        0xc ../../../driverlib/gcc/lib/Release/libdriver.a(prcm.o)
 .text.PRCMRTCInUseGet
                0x0000000000000000        0xe ../../../driverlib/gcc/lib/Release/libdriver.a(prcm.o)
 .text.PRCMRTCSet
                0x0000000000000000       0x60 ../../../driverlib/gcc/lib/Release/libdriver.a(prcm.o)
 .text.PRCMRTCMatchSet
                0x0000000000000000       0x68 ../../../driverlib/gcc/lib/Release/libdriver.a(prcm.o)
 .text.PRCMRTCMatchGet
                0x0000000000000000       0x6c ../../../driverlib/gcc/lib/Release/libdriver.a(prcm.o)
 .text.PRCMHIBRegRead
                0x0000000000000000       0x10 ../../../driverlib/gcc/lib/Release/libdriver.a(prcm.o)
 .text.PRCMHIBRegWrite
                0x0000000000000000        0xa ../../../driverlib/gcc/lib/Release/libdriver.a(prcm.o)
 .text.PRCMCameraFreqSet
                0x0000000000000000       0x28 ../../../driverlib/gcc/lib/Release/libdriver.a(prcm.o)
 .text          0x0000000000000000        0x0 ../../../driverlib/gcc/lib/Release/libdriver.a(spi.o)
 .data          0x0000000000000000        0x0 ../../../driverlib/gcc/lib/Release/libdriver.a(spi.o)
 .bss           0x0000000000000000        0x0 ../../../driverlib/gcc/lib/Release/libdriver.a(spi.o)
 .text.SPIDmaMaskGet
                0x0000000000000000       0x38 ../../../driverlib/gcc/lib/Release/libdriver.a(spi.o)
 .text.SPIEnable
                0x0000000000000000        0xe ../../../driverlib/gcc/lib/Release/libdriver.a(spi.o)
 .text.SPIDisable
                0x0000000000000000        0xe ../../../driverlib/gcc/lib/Release/libdriver.a(spi.o)
 .text.SPIReset
                0x0000000000000000       0x16 ../../../driverlib/gcc/lib/Release/libdriver.a(spi.o)
 .text.SPIDataGetNonBlocking
                0x0000000000000000       0x16 ../../../driverlib/gcc/lib/Release/libdriver.a(spi.o)
 .text.SPIDataGet
                0x0000000000000000       0x10 ../../../driverlib/gcc/lib/Release/libdriver.a(spi.o)
 .text.SPIDataPutNonBlocking
                0x0000000000000000       0x14 ../../../driverlib/gcc/lib/Release/libdriver.a(spi.o)
 .text.SPIDataPut
                0x0000000000000000        0xe ../../../driverlib/gcc/lib/Release/libdriver.a(spi.o)
 .text.SPIFIFOEnable
                0x0000000000000000        0xc ../../../driverlib/gcc/lib/Release/libdriver.a(spi.o)
 .text.SPIDmaEnable
                0x0000000000000000        0x4 ../../../driverlib/gcc/lib/Release/libdriver.a(spi.o)
 .text.SPIFIFOLevelSet
                0x0000000000000000       0x18 ../../../driverlib/gcc/lib/Release/libdriver.a(spi.o)
 .text.SPIFIFOLevelGet
                0x0000000000000000       0x10 ../../../driverlib/gcc/lib/Release/libdriver.a(spi.o)
 .text.SPIWordCountSet
                0x0000000000000000       0x10 ../../../driverlib/gcc/lib/Release/libdriver.a(spi.o)
 .text.SPIIntRegister
                0x0000000000000000       0x4c ../../../driverlib/gcc/lib/Release/libdriver.a(spi.o)
 .text.SPIIntUnregister
                0x0000000000000000       0x4c ../../../driverlib/gcc/lib/Release/libdriver.a(spi.o)
 .text.SPIIntEnable
                0x0000000000000000       0x38 ../../../driverlib/gcc/lib/Release/libdriver.a(spi.o)
 .text.SPIIntDisable
                0x0000000000000000       0x3c ../../../driverlib/gcc/lib/Release/libdriver.a(spi.o)
 .text.SPIIntStatus
                0x0000000000000000       0x44 ../../../driverlib/gcc/lib/Release/libdriver.a(spi.o)
 .text.SPIIntClear
                0x0000000000000000       0x34 ../../../driverlib/gcc/lib/Release/libdriver.a(spi.o)
 .text.SPICSEnable
                0x0000000000000000        0xe ../../../driverlib/gcc/lib/Release/libdriver.a(spi.o)
 .text.SPICSDisable
                0x0000000000000000        0xe ../../../driverlib/gcc/lib/Release/libdriver.a(spi.o)
 .text.SPITransfer
                0x0000000000000000      0x180 ../../../driverlib/gcc/lib/Release/libdriver.a(spi.o)
 .rodata.g_ppulSPIIntMap
                0x0000000000000000       0x24 ../../../driverlib/gcc/lib/Release/libdriver.a(spi.o)
 .rodata.g_ulSPIDmaMaskMap
                0x0000000000000000       0x18 ../../../driverlib/gcc/lib/Release/libdriver.a(spi.o)
 .text          0x0000000000000000        0x0 ../../../driverlib/gcc/lib/Release/libdriver.a(timer.o)
 .data          0x0000000000000000        0x0 ../../../driverlib/gcc/lib/Release/libdriver.a(timer.o)
 .bss           0x0000000000000000        0x0 ../../../driverlib/gcc/lib/Release/libdriver.a(timer.o)
 .text.TimerEnable
                0x0000000000000000       0x10 ../../../driverlib/gcc/lib/Release/libdriver.a(timer.o)
 .text.TimerDisable
                0x0000000000000000       0x12 ../../../driverlib/gcc/lib/Release/libdriver.a(timer.o)
 .text.TimerControlLevel
                0x0000000000000000       0x1c ../../../driverlib/gcc/lib/Release/libdriver.a(timer.o)
 .text.TimerControlEvent
                0x0000000000000000       0x1e ../../../driverlib/gcc/lib/Release/libdriver.a(timer.o)
 .text.TimerControlStall
                0x0000000000000000       0x1c ../../../driverlib/gcc/lib/Release/libdriver.a(timer.o)
 .text.TimerPrescaleSet
                0x0000000000000000       0x12 ../../../driverlib/gcc/lib/Release/libdriver.a(timer.o)
 .text.TimerPrescaleGet
                0x0000000000000000        0xa ../../../driverlib/gcc/lib/Release/libdriver.a(timer.o)
 .text.TimerPrescaleMatchSet
                0x0000000000000000       0x12 ../../../driverlib/gcc/lib/Release/libdriver.a(timer.o)
 .text.TimerPrescaleMatchGet
                0x0000000000000000        0xa ../../../driverlib/gcc/lib/Release/libdriver.a(timer.o)
 .text.TimerLoadSet
                0x0000000000000000       0x12 ../../../driverlib/gcc/lib/Release/libdriver.a(timer.o)
 .text.TimerLoadGet
                0x0000000000000000        0xa ../../../driverlib/gcc/lib/Release/libdriver.a(timer.o)
 .text.TimerValueGet
                0x0000000000000000        0xa ../../../driverlib/gcc/lib/Release/libdriver.a(timer.o)
 .text.TimerValueSet
                0x0000000000000000        0xa ../../../driverlib/gcc/lib/Release/libdriver.a(timer.o)
 .text.TimerMatchSet
                0x0000000000000000       0x12 ../../../driverlib/gcc/lib/Release/libdriver.a(timer.o)
 .text.TimerMatchGet
                0x0000000000000000        0xa ../../../driverlib/gcc/lib/Release/libdriver.a(timer.o)
 .text.TimerIntRegister
                0x0000000000000000       0x60 ../../../driverlib/gcc/lib/Release/libdriver.a(timer.o)
 .text.TimerIntUnregister
                0x0000000000000000       0x58 ../../../driverlib/gcc/lib/Release/libdriver.a(timer.o)
 .text.TimerIntEnable
                0x0000000000000000        0x8 ../../../driverlib/gcc/lib/Release/libdriver.a(timer.o)
 .text.TimerIntDisable
                0x0000000000000000        0xa ../../../driverlib/gcc/lib/Release/libdriver.a(timer.o)
 .text.TimerDMAEventSet
                0x0000000000000000        0x4 ../../../driverlib/gcc/lib/Release/libdriver.a(timer.o)
 .text.TimerDMAEventGet
                0x0000000000000000        0x4 ../../../driverlib/gcc/lib/Release/libdriver.a(timer.o)
 .text          0x0000000000000000        0x0 ../../../driverlib/gcc/lib/Release/libdriver.a(utils.o)
 .data          0x0000000000000000        0x0 ../../../driverlib/gcc/lib/Release/libdriver.a(utils.o)
 .bss           0x0000000000000000        0x0 ../../../driverlib/gcc/lib/Release/libdriver.a(utils.o)
 .text          0x0000000000000000        0x0 ../../../driverlib/gcc/lib/Release/libdriver.a(cpu.o)
 .data          0x0000000000000000        0x0 ../../../driverlib/gcc/lib/Release/libdriver.a(cpu.o)
 .bss           0x0000000000000000        0x0 ../../../driverlib/gcc/lib/Release/libdriver.a(cpu.o)
 .text.CPUcpsid
                0x0000000000000000       0x10 ../../../driverlib/gcc/lib/Release/libdriver.a(cpu.o)
 .text.CPUprimask
                0x0000000000000000        0x6 ../../../driverlib/gcc/lib/Release/libdriver.a(cpu.o)
 .text.CPUwfi   0x0000000000000000        0xc ../../../driverlib/gcc/lib/Release/libdriver.a(cpu.o)
 .text.CPUbasepriSet
                0x0000000000000000        0xe ../../../driverlib/gcc/lib/Release/libdriver.a(cpu.o)
 .text.CPUbasepriGet
                0x0000000000000000        0x6 ../../../driverlib/gcc/lib/Release/libdriver.a(cpu.o)
 .text          0x0000000000000000        0x0 ../../../driverlib/gcc/lib/Release/libdriver.a(flash.o)
 .data          0x0000000000000000        0x0 ../../../driverlib/gcc/lib/Release/libdriver.a(flash.o)
 .bss           0x0000000000000000        0x0 ../../../driverlib/gcc/lib/Release/libdriver.a(flash.o)
 .text.FlashDisable
                0x0000000000000000       0x48 ../../../driverlib/gcc/lib/Release/libdriver.a(flash.o)
 .text.FlashErase
                0x0000000000000000       0x38 ../../../driverlib/gcc/lib/Release/libdriver.a(flash.o)
 .text.FlashEraseNonBlocking
                0x0000000000000000       0x1c ../../../driverlib/gcc/lib/Release/libdriver.a(flash.o)
 .text.FlashMassErase
                0x0000000000000000       0x34 ../../../driverlib/gcc/lib/Release/libdriver.a(flash.o)
 .text.FlashMassEraseNonBlocking
                0x0000000000000000       0x18 ../../../driverlib/gcc/lib/Release/libdriver.a(flash.o)
 .text.FlashProgram
                0x0000000000000000       0x80 ../../../driverlib/gcc/lib/Release/libdriver.a(flash.o)
 .text.FlashProgramNonBlocking
                0x0000000000000000       0x70 ../../../driverlib/gcc/lib/Release/libdriver.a(flash.o)
 .text.FlashProtectGet
                0x0000000000000000       0x44 ../../../driverlib/gcc/lib/Release/libdriver.a(flash.o)
 .text.FlashIntRegister
                0x0000000000000000       0x14 ../../../driverlib/gcc/lib/Release/libdriver.a(flash.o)
 .text.FlashIntUnregister
                0x0000000000000000       0x12 ../../../driverlib/gcc/lib/Release/libdriver.a(flash.o)
 .text.FlashIntEnable
                0x0000000000000000       0x10 ../../../driverlib/gcc/lib/Release/libdriver.a(flash.o)
 .text.FlashIntDisable
                0x0000000000000000       0x10 ../../../driverlib/gcc/lib/Release/libdriver.a(flash.o)
 .text.FlashIntStatus
                0x0000000000000000       0x14 ../../../driverlib/gcc/lib/Release/libdriver.a(flash.o)
 .text.FlashIntClear
                0x0000000000000000        0xc ../../../driverlib/gcc/lib/Release/libdriver.a(flash.o)
 .rodata.g_pulFMPPERegs
                0x0000000000000000       0x40 ../../../driverlib/gcc/lib/Release/libdriver.a(flash.o)
 .rodata.g_pulFMPRERegs
                0x0000000000000000       0x40 ../../../driverlib/gcc/lib/Release/libdriver.a(flash.o)
 .debug_info    0x0000000000000000      0x3d8 ../../../driverlib/gcc/lib/Release/libdriver.a(flash.o)
 .debug_abbrev  0x0000000000000000      0x19d ../../../driverlib/gcc/lib/Release/libdriver.a(flash.o)
 .debug_loc     0x0000000000000000      0x282 ../../../driverlib/gcc/lib/Release/libdriver.a(flash.o)
 .debug_aranges
                0x0000000000000000       0x88 ../../../driverlib/gcc/lib/Release/libdriver.a(flash.o)
 .debug_ranges  0x0000000000000000       0x78 ../../../driverlib/gcc/lib/Release/libdriver.a(flash.o)
 .debug_line    0x0000000000000000      0x201 ../../../driverlib/gcc/lib/Release/libdriver.a(flash.o)
 .debug_str     0x0000000000000000      0x2b3 ../../../driverlib/gcc/lib/Release/libdriver.a(flash.o)
 .comment       0x0000000000000000       0x22 ../../../driverlib/gcc/lib/Release/libdriver.a(flash.o)
 .ARM.attributes
                0x0000000000000000       0x33 ../../../driverlib/gcc/lib/Release/libdriver.a(flash.o)
 .debug_frame   0x0000000000000000      0x134 ../../../driverlib/gcc/lib/Release/libdriver.a(flash.o)
 .text          0x0000000000000000        0x0 /usr/lib/gcc/arm-none-eabi/5.2.0/../../../../arm-none-eabi/lib/armv7e-m/libc_nano.a(lib_a-atoi.o)
 .data          0x0000000000000000        0x0 /usr/lib/gcc/arm-none-eabi/5.2.0/../../../../arm-none-eabi/lib/armv7e-m/libc_nano.a(lib_a-atoi.o)
 .bss           0x0000000000000000        0x0 /usr/lib/gcc/arm-none-eabi/5.2.0/../../../../arm-none-eabi/lib/armv7e-m/libc_nano.a(lib_a-atoi.o)
 .text._atoi_r  0x0000000000000000        0x8 /usr/lib/gcc/arm-none-eabi/5.2.0/../../../../arm-none-eabi/lib/armv7e-m/libc_nano.a(lib_a-atoi.o)
 .text          0x0000000000000000        0x0 /usr/lib/gcc/arm-none-eabi/5.2.0/../../../../arm-none-eabi/lib/armv7e-m/libc_nano.a(lib_a-malloc.o)
 .data          0x0000000000000000        0x0 /usr/lib/gcc/arm-none-eabi/5.2.0/../../../../arm-none-eabi/lib/armv7e-m/libc_nano.a(lib_a-malloc.o)
 .bss           0x0000000000000000        0x0 /usr/lib/gcc/arm-none-eabi/5.2.0/../../../../arm-none-eabi/lib/armv7e-m/libc_nano.a(lib_a-malloc.o)
 .text          0x0000000000000000        0x0 /usr/lib/gcc/arm-none-eabi/5.2.0/../../../../arm-none-eabi/lib/armv7e-m/libc_nano.a(lib_a-memcmp.o)
 .data          0x0000000000000000        0x0 /usr/lib/gcc/arm-none-eabi/5.2.0/../../../../arm-none-eabi/lib/armv7e-m/libc_nano.a(lib_a-memcmp.o)
 .bss           0x0000000000000000        0x0 /usr/lib/gcc/arm-none-eabi/5.2.0/../../../../arm-none-eabi/lib/armv7e-m/libc_nano.a(lib_a-memcmp.o)
 .text          0x0000000000000000        0x0 /usr/lib/gcc/arm-none-eabi/5.2.0/../../../../arm-none-eabi/lib/armv7e-m/libc_nano.a(lib_a-memcpy.o)
 .data          0x0000000000000000        0x0 /usr/lib/gcc/arm-none-eabi/5.2.0/../../../../arm-none-eabi/lib/armv7e-m/libc_nano.a(lib_a-memcpy.o)
 .bss           0x0000000000000000        0x0 /usr/lib/gcc/arm-none-eabi/5.2.0/../../../../arm-none-eabi/lib/armv7e-m/libc_nano.a(lib_a-memcpy.o)
 .text          0x0000000000000000        0x0 /usr/lib/gcc/arm-none-eabi/5.2.0/../../../../arm-none-eabi/lib/armv7e-m/libc_nano.a(lib_a-memmove.o)
 .data          0x0000000000000000        0x0 /usr/lib/gcc/arm-none-eabi/5.2.0/../../../../arm-none-eabi/lib/armv7e-m/libc_nano.a(lib_a-memmove.o)
 .bss           0x0000000000000000        0x0 /usr/lib/gcc/arm-none-eabi/5.2.0/../../../../arm-none-eabi/lib/armv7e-m/libc_nano.a(lib_a-memmove.o)
 .text          0x0000000000000000        0x0 /usr/lib/gcc/arm-none-eabi/5.2.0/../../../../arm-none-eabi/lib/armv7e-m/libc_nano.a(lib_a-memset.o)
 .data          0x0000000000000000        0x0 /usr/lib/gcc/arm-none-eabi/5.2.0/../../../../arm-none-eabi/lib/armv7e-m/libc_nano.a(lib_a-memset.o)
 .bss           0x0000000000000000        0x0 /usr/lib/gcc/arm-none-eabi/5.2.0/../../../../arm-none-eabi/lib/armv7e-m/libc_nano.a(lib_a-memset.o)
 .text          0x0000000000000000        0x0 /usr/lib/gcc/arm-none-eabi/5.2.0/../../../../arm-none-eabi/lib/armv7e-m/libc_nano.a(lib_a-nano-freer.o)
 .data          0x0000000000000000        0x0 /usr/lib/gcc/arm-none-eabi/5.2.0/../../../../arm-none-eabi/lib/armv7e-m/libc_nano.a(lib_a-nano-freer.o)
 .bss           0x0000000000000000        0x0 /usr/lib/gcc/arm-none-eabi/5.2.0/../../../../arm-none-eabi/lib/armv7e-m/libc_nano.a(lib_a-nano-freer.o)
 .text          0x0000000000000000        0x0 /usr/lib/gcc/arm-none-eabi/5.2.0/../../../../arm-none-eabi/lib/armv7e-m/libc_nano.a(lib_a-nano-mallocr.o)
 .data          0x0000000000000000        0x0 /usr/lib/gcc/arm-none-eabi/5.2.0/../../../../arm-none-eabi/lib/armv7e-m/libc_nano.a(lib_a-nano-mallocr.o)
 .bss           0x0000000000000000        0x0 /usr/lib/gcc/arm-none-eabi/5.2.0/../../../../arm-none-eabi/lib/armv7e-m/libc_nano.a(lib_a-nano-mallocr.o)
 .text          0x0000000000000000        0x0 /usr/lib/gcc/arm-none-eabi/5.2.0/../../../../arm-none-eabi/lib/armv7e-m/libc_nano.a(lib_a-realloc.o)
 .data          0x0000000000000000        0x0 /usr/lib/gcc/arm-none-eabi/5.2.0/../../../../arm-none-eabi/lib/armv7e-m/libc_nano.a(lib_a-realloc.o)
 .bss           0x0000000000000000        0x0 /usr/lib/gcc/arm-none-eabi/5.2.0/../../../../arm-none-eabi/lib/armv7e-m/libc_nano.a(lib_a-realloc.o)
 .text          0x0000000000000000        0x0 /usr/lib/gcc/arm-none-eabi/5.2.0/../../../../arm-none-eabi/lib/armv7e-m/libc_nano.a(lib_a-sbrkr.o)
 .data          0x0000000000000000        0x0 /usr/lib/gcc/arm-none-eabi/5.2.0/../../../../arm-none-eabi/lib/armv7e-m/libc_nano.a(lib_a-sbrkr.o)
 .bss           0x0000000000000000        0x0 /usr/lib/gcc/arm-none-eabi/5.2.0/../../../../arm-none-eabi/lib/armv7e-m/libc_nano.a(lib_a-sbrkr.o)
 .text          0x0000000000000000        0x0 /usr/lib/gcc/arm-none-eabi/5.2.0/../../../../arm-none-eabi/lib/armv7e-m/libc_nano.a(lib_a-sprintf.o)
 .data          0x0000000000000000        0x0 /usr/lib/gcc/arm-none-eabi/5.2.0/../../../../arm-none-eabi/lib/armv7e-m/libc_nano.a(lib_a-sprintf.o)
 .bss           0x0000000000000000        0x0 /usr/lib/gcc/arm-none-eabi/5.2.0/../../../../arm-none-eabi/lib/armv7e-m/libc_nano.a(lib_a-sprintf.o)
 .text._sprintf_r
                0x0000000000000000       0x40 /usr/lib/gcc/arm-none-eabi/5.2.0/../../../../arm-none-eabi/lib/armv7e-m/libc_nano.a(lib_a-sprintf.o)
 .text.sprintf  0x0000000000000000       0x48 /usr/lib/gcc/arm-none-eabi/5.2.0/../../../../arm-none-eabi/lib/armv7e-m/libc_nano.a(lib_a-sprintf.o)
 .debug_info    0x0000000000000000      0x88c /usr/lib/gcc/arm-none-eabi/5.2.0/../../../../arm-none-eabi/lib/armv7e-m/libc_nano.a(lib_a-sprintf.o)
 .debug_abbrev  0x0000000000000000      0x1c0 /usr/lib/gcc/arm-none-eabi/5.2.0/../../../../arm-none-eabi/lib/armv7e-m/libc_nano.a(lib_a-sprintf.o)
 .debug_loc     0x0000000000000000       0x95 /usr/lib/gcc/arm-none-eabi/5.2.0/../../../../arm-none-eabi/lib/armv7e-m/libc_nano.a(lib_a-sprintf.o)
 .debug_aranges
                0x0000000000000000       0x28 /usr/lib/gcc/arm-none-eabi/5.2.0/../../../../arm-none-eabi/lib/armv7e-m/libc_nano.a(lib_a-sprintf.o)
 .debug_ranges  0x0000000000000000       0x18 /usr/lib/gcc/arm-none-eabi/5.2.0/../../../../arm-none-eabi/lib/armv7e-m/libc_nano.a(lib_a-sprintf.o)
 .debug_line    0x0000000000000000      0x190 /usr/lib/gcc/arm-none-eabi/5.2.0/../../../../arm-none-eabi/lib/armv7e-m/libc_nano.a(lib_a-sprintf.o)
 .debug_str     0x0000000000000000      0x544 /usr/lib/gcc/arm-none-eabi/5.2.0/../../../../arm-none-eabi/lib/armv7e-m/libc_nano.a(lib_a-sprintf.o)
 .comment       0x0000000000000000       0x22 /usr/lib/gcc/arm-none-eabi/5.2.0/../../../../arm-none-eabi/lib/armv7e-m/libc_nano.a(lib_a-sprintf.o)
 .debug_frame   0x0000000000000000       0x70 /usr/lib/gcc/arm-none-eabi/5.2.0/../../../../arm-none-eabi/lib/armv7e-m/libc_nano.a(lib_a-sprintf.o)
 .ARM.attributes
                0x0000000000000000       0x2e /usr/lib/gcc/arm-none-eabi/5.2.0/../../../../arm-none-eabi/lib/armv7e-m/libc_nano.a(lib_a-sprintf.o)
 .data          0x0000000000000000        0x0 /usr/lib/gcc/arm-none-eabi/5.2.0/../../../../arm-none-eabi/lib/armv7e-m/libc_nano.a(lib_a-strcmp.o)
 .bss           0x0000000000000000        0x0 /usr/lib/gcc/arm-none-eabi/5.2.0/../../../../arm-none-eabi/lib/armv7e-m/libc_nano.a(lib_a-strcmp.o)
 .eh_frame      0x0000000000000000       0x28 /usr/lib/gcc/arm-none-eabi/5.2.0/../../../../arm-none-eabi/lib/armv7e-m/libc_nano.a(lib_a-strcmp.o)
 .text          0x0000000000000000        0x0 /usr/lib/gcc/arm-none-eabi/5.2.0/../../../../arm-none-eabi/lib/armv7e-m/libc_nano.a(lib_a-strcpy.o)
 .data          0x0000000000000000        0x0 /usr/lib/gcc/arm-none-eabi/5.2.0/../../../../arm-none-eabi/lib/armv7e-m/libc_nano.a(lib_a-strcpy.o)
 .bss           0x0000000000000000        0x0 /usr/lib/gcc/arm-none-eabi/5.2.0/../../../../arm-none-eabi/lib/armv7e-m/libc_nano.a(lib_a-strcpy.o)
 .text          0x0000000000000000        0x0 /usr/lib/gcc/arm-none-eabi/5.2.0/../../../../arm-none-eabi/lib/armv7e-m/libc_nano.a(lib_a-strlen.o)
 .data          0x0000000000000000        0x0 /usr/lib/gcc/arm-none-eabi/5.2.0/../../../../arm-none-eabi/lib/armv7e-m/libc_nano.a(lib_a-strlen.o)
 .bss           0x0000000000000000        0x0 /usr/lib/gcc/arm-none-eabi/5.2.0/../../../../arm-none-eabi/lib/armv7e-m/libc_nano.a(lib_a-strlen.o)
 .text          0x0000000000000000        0x0 /usr/lib/gcc/arm-none-eabi/5.2.0/../../../../arm-none-eabi/lib/armv7e-m/libc_nano.a(lib_a-strncmp.o)
 .data          0x0000000000000000        0x0 /usr/lib/gcc/arm-none-eabi/5.2.0/../../../../arm-none-eabi/lib/armv7e-m/libc_nano.a(lib_a-strncmp.o)
 .bss           0x0000000000000000        0x0 /usr/lib/gcc/arm-none-eabi/5.2.0/../../../../arm-none-eabi/lib/armv7e-m/libc_nano.a(lib_a-strncmp.o)
 .text          0x0000000000000000        0x0 /usr/lib/gcc/arm-none-eabi/5.2.0/../../../../arm-none-eabi/lib/armv7e-m/libc_nano.a(lib_a-strncpy.o)
 .data          0x0000000000000000        0x0 /usr/lib/gcc/arm-none-eabi/5.2.0/../../../../arm-none-eabi/lib/armv7e-m/libc_nano.a(lib_a-strncpy.o)
 .bss           0x0000000000000000        0x0 /usr/lib/gcc/arm-none-eabi/5.2.0/../../../../arm-none-eabi/lib/armv7e-m/libc_nano.a(lib_a-strncpy.o)
 .text          0x0000000000000000        0x0 /usr/lib/gcc/arm-none-eabi/5.2.0/../../../../arm-none-eabi/lib/armv7e-m/libc_nano.a(lib_a-strtok.o)
 .data          0x0000000000000000        0x0 /usr/lib/gcc/arm-none-eabi/5.2.0/../../../../arm-none-eabi/lib/armv7e-m/libc_nano.a(lib_a-strtok.o)
 .bss           0x0000000000000000        0x0 /usr/lib/gcc/arm-none-eabi/5.2.0/../../../../arm-none-eabi/lib/armv7e-m/libc_nano.a(lib_a-strtok.o)
 .text          0x0000000000000000        0x0 /usr/lib/gcc/arm-none-eabi/5.2.0/../../../../arm-none-eabi/lib/armv7e-m/libc_nano.a(lib_a-strtok_r.o)
 .data          0x0000000000000000        0x0 /usr/lib/gcc/arm-none-eabi/5.2.0/../../../../arm-none-eabi/lib/armv7e-m/libc_nano.a(lib_a-strtok_r.o)
 .bss           0x0000000000000000        0x0 /usr/lib/gcc/arm-none-eabi/5.2.0/../../../../arm-none-eabi/lib/armv7e-m/libc_nano.a(lib_a-strtok_r.o)
 .text.strtok_r
                0x0000000000000000        0x6 /usr/lib/gcc/arm-none-eabi/5.2.0/../../../../arm-none-eabi/lib/armv7e-m/libc_nano.a(lib_a-strtok_r.o)
 .text          0x0000000000000000        0x0 /usr/lib/gcc/arm-none-eabi/5.2.0/../../../../arm-none-eabi/lib/armv7e-m/libc_nano.a(lib_a-strtol.o)
 .data          0x0000000000000000        0x0 /usr/lib/gcc/arm-none-eabi/5.2.0/../../../../arm-none-eabi/lib/armv7e-m/libc_nano.a(lib_a-strtol.o)
 .bss           0x0000000000000000        0x0 /usr/lib/gcc/arm-none-eabi/5.2.0/../../../../arm-none-eabi/lib/armv7e-m/libc_nano.a(lib_a-strtol.o)
 .text          0x0000000000000000        0x0 /usr/lib/gcc/arm-none-eabi/5.2.0/../../../../arm-none-eabi/lib/armv7e-m/libc_nano.a(lib_a-vsnprintf.o)
 .data          0x0000000000000000        0x0 /usr/lib/gcc/arm-none-eabi/5.2.0/../../../../arm-none-eabi/lib/armv7e-m/libc_nano.a(lib_a-vsnprintf.o)
 .bss           0x0000000000000000        0x0 /usr/lib/gcc/arm-none-eabi/5.2.0/../../../../arm-none-eabi/lib/armv7e-m/libc_nano.a(lib_a-vsnprintf.o)
 .text          0x0000000000000000        0x0 /usr/lib/gcc/arm-none-eabi/5.2.0/../../../../arm-none-eabi/lib/armv7e-m/libc_nano.a(lib_a-ctype_.o)
 .data          0x0000000000000000        0x0 /usr/lib/gcc/arm-none-eabi/5.2.0/../../../../arm-none-eabi/lib/armv7e-m/libc_nano.a(lib_a-ctype_.o)
 .bss           0x0000000000000000        0x0 /usr/lib/gcc/arm-none-eabi/5.2.0/../../../../arm-none-eabi/lib/armv7e-m/libc_nano.a(lib_a-ctype_.o)
 .text          0x0000000000000000        0x0 /usr/lib/gcc/arm-none-eabi/5.2.0/../../../../arm-none-eabi/lib/armv7e-m/libc_nano.a(lib_a-impure.o)
 .data          0x0000000000000000        0x0 /usr/lib/gcc/arm-none-eabi/5.2.0/../../../../arm-none-eabi/lib/armv7e-m/libc_nano.a(lib_a-impure.o)
 .bss           0x0000000000000000        0x0 /usr/lib/gcc/arm-none-eabi/5.2.0/../../../../arm-none-eabi/lib/armv7e-m/libc_nano.a(lib_a-impure.o)
 .rodata._global_impure_ptr
                0x0000000000000000        0x4 /usr/lib/gcc/arm-none-eabi/5.2.0/../../../../arm-none-eabi/lib/armv7e-m/libc_nano.a(lib_a-impure.o)
 .text          0x0000000000000000        0x0 /usr/lib/gcc/arm-none-eabi/5.2.0/../../../../arm-none-eabi/lib/armv7e-m/libc_nano.a(lib_a-nano-reallocr.o)
 .data          0x0000000000000000        0x0 /usr/lib/gcc/arm-none-eabi/5.2.0/../../../../arm-none-eabi/lib/armv7e-m/libc_nano.a(lib_a-nano-reallocr.o)
 .bss           0x0000000000000000        0x0 /usr/lib/gcc/arm-none-eabi/5.2.0/../../../../arm-none-eabi/lib/armv7e-m/libc_nano.a(lib_a-nano-reallocr.o)
 .text          0x0000000000000000        0x0 /usr/lib/gcc/arm-none-eabi/5.2.0/../../../../arm-none-eabi/lib/armv7e-m/libc_nano.a(lib_a-nano-svfprintf.o)
 .data          0x0000000000000000        0x0 /usr/lib/gcc/arm-none-eabi/5.2.0/../../../../arm-none-eabi/lib/armv7e-m/libc_nano.a(lib_a-nano-svfprintf.o)
 .bss           0x0000000000000000        0x0 /usr/lib/gcc/arm-none-eabi/5.2.0/../../../../arm-none-eabi/lib/armv7e-m/libc_nano.a(lib_a-nano-svfprintf.o)
 .text.__ssprint_r
                0x0000000000000000       0xfe /usr/lib/gcc/arm-none-eabi/5.2.0/../../../../arm-none-eabi/lib/armv7e-m/libc_nano.a(lib_a-nano-svfprintf.o)
 .text          0x0000000000000000        0x0 /usr/lib/gcc/arm-none-eabi/5.2.0/../../../../arm-none-eabi/lib/armv7e-m/libc_nano.a(lib_a-nano-vfprintf_i.o)
 .data          0x0000000000000000        0x0 /usr/lib/gcc/arm-none-eabi/5.2.0/../../../../arm-none-eabi/lib/armv7e-m/libc_nano.a(lib_a-nano-vfprintf_i.o)
 .bss           0x0000000000000000        0x0 /usr/lib/gcc/arm-none-eabi/5.2.0/../../../../arm-none-eabi/lib/armv7e-m/libc_nano.a(lib_a-nano-vfprintf_i.o)
 .text          0x0000000000000000        0x0 /usr/lib/gcc/arm-none-eabi/5.2.0/../../../../arm-none-eabi/lib/armv7e-m/libc_nano.a(lib_a-reent.o)
 .data          0x0000000000000000        0x0 /usr/lib/gcc/arm-none-eabi/5.2.0/../../../../arm-none-eabi/lib/armv7e-m/libc_nano.a(lib_a-reent.o)
 .bss           0x0000000000000000        0x0 /usr/lib/gcc/arm-none-eabi/5.2.0/../../../../arm-none-eabi/lib/armv7e-m/libc_nano.a(lib_a-reent.o)
 .text.cleanup_glue
                0x0000000000000000       0x1a /usr/lib/gcc/arm-none-eabi/5.2.0/../../../../arm-none-eabi/lib/armv7e-m/libc_nano.a(lib_a-reent.o)
 .text._reclaim_reent
                0x0000000000000000       0xb4 /usr/lib/gcc/arm-none-eabi/5.2.0/../../../../arm-none-eabi/lib/armv7e-m/libc_nano.a(lib_a-reent.o)
 .text          0x0000000000000000        0x0 /usr/lib/gcc/arm-none-eabi/5.2.0/../../../../arm-none-eabi/lib/armv7e-m/libc_nano.a(lib_a-memchr.o)
 .data          0x0000000000000000        0x0 /usr/lib/gcc/arm-none-eabi/5.2.0/../../../../arm-none-eabi/lib/armv7e-m/libc_nano.a(lib_a-memchr.o)
 .bss           0x0000000000000000        0x0 /usr/lib/gcc/arm-none-eabi/5.2.0/../../../../arm-none-eabi/lib/armv7e-m/libc_nano.a(lib_a-memchr.o)
 .text          0x0000000000000000        0x0 /usr/lib/gcc/arm-none-eabi/5.2.0/../../../../arm-none-eabi/lib/armv7e-m/libc_nano.a(lib_a-nano-msizer.o)
 .data          0x0000000000000000        0x0 /usr/lib/gcc/arm-none-eabi/5.2.0/../../../../arm-none-eabi/lib/armv7e-m/libc_nano.a(lib_a-nano-msizer.o)
 .bss           0x0000000000000000        0x0 /usr/lib/gcc/arm-none-eabi/5.2.0/../../../../arm-none-eabi/lib/armv7e-m/libc_nano.a(lib_a-nano-msizer.o)
 .text          0x0000000000000000       0x30 /usr/lib/gcc/arm-none-eabi/5.2.0/armv7e-m/libgcc.a(_aeabi_uldivmod.o)
 .data          0x0000000000000000        0x0 /usr/lib/gcc/arm-none-eabi/5.2.0/armv7e-m/libgcc.a(_aeabi_uldivmod.o)
 .bss           0x0000000000000000        0x0 /usr/lib/gcc/arm-none-eabi/5.2.0/armv7e-m/libgcc.a(_aeabi_uldivmod.o)
 .debug_line    0x0000000000000000       0x64 /usr/lib/gcc/arm-none-eabi/5.2.0/armv7e-m/libgcc.a(_aeabi_uldivmod.o)
 .debug_info    0x0000000000000000       0xb7 /usr/lib/gcc/arm-none-eabi/5.2.0/armv7e-m/libgcc.a(_aeabi_uldivmod.o)
 .debug_abbrev  0x0000000000000000       0x14 /usr/lib/gcc/arm-none-eabi/5.2.0/armv7e-m/libgcc.a(_aeabi_uldivmod.o)
 .debug_aranges
                0x0000000000000000       0x20 /usr/lib/gcc/arm-none-eabi/5.2.0/armv7e-m/libgcc.a(_aeabi_uldivmod.o)
 .debug_frame   0x0000000000000000       0x2c /usr/lib/gcc/arm-none-eabi/5.2.0/armv7e-m/libgcc.a(_aeabi_uldivmod.o)
 .ARM.attributes
                0x0000000000000000       0x1e /usr/lib/gcc/arm-none-eabi/5.2.0/armv7e-m/libgcc.a(_aeabi_uldivmod.o)
 .text          0x0000000000000000      0x2e4 /usr/lib/gcc/arm-none-eabi/5.2.0/armv7e-m/libgcc.a(_udivmoddi4.o)
 .data          0x0000000000000000        0x0 /usr/lib/gcc/arm-none-eabi/5.2.0/armv7e-m/libgcc.a(_udivmoddi4.o)
 .bss           0x0000000000000000        0x0 /usr/lib/gcc/arm-none-eabi/5.2.0/armv7e-m/libgcc.a(_udivmoddi4.o)
 .ARM.extab     0x0000000000000000        0x0 /usr/lib/gcc/arm-none-eabi/5.2.0/armv7e-m/libgcc.a(_udivmoddi4.o)
 .ARM.exidx     0x0000000000000000        0x8 /usr/lib/gcc/arm-none-eabi/5.2.0/armv7e-m/libgcc.a(_udivmoddi4.o)
 .debug_info    0x0000000000000000      0x441 /usr/lib/gcc/arm-none-eabi/5.2.0/armv7e-m/libgcc.a(_udivmoddi4.o)
 .debug_abbrev  0x0000000000000000      0x101 /usr/lib/gcc/arm-none-eabi/5.2.0/armv7e-m/libgcc.a(_udivmoddi4.o)
 .debug_loc     0x0000000000000000      0xe94 /usr/lib/gcc/arm-none-eabi/5.2.0/armv7e-m/libgcc.a(_udivmoddi4.o)
 .debug_aranges
                0x0000000000000000       0x20 /usr/lib/gcc/arm-none-eabi/5.2.0/armv7e-m/libgcc.a(_udivmoddi4.o)
 .debug_ranges  0x0000000000000000       0xd8 /usr/lib/gcc/arm-none-eabi/5.2.0/armv7e-m/libgcc.a(_udivmoddi4.o)
 .debug_line    0x0000000000000000      0x1ad /usr/lib/gcc/arm-none-eabi/5.2.0/armv7e-m/libgcc.a(_udivmoddi4.o)
 .debug_str     0x0000000000000000      0x243 /usr/lib/gcc/arm-none-eabi/5.2.0/armv7e-m/libgcc.a(_udivmoddi4.o)
 .comment       0x0000000000000000       0x22 /usr/lib/gcc/arm-none-eabi/5.2.0/armv7e-m/libgcc.a(_udivmoddi4.o)
 .debug_frame   0x0000000000000000       0x34 /usr/lib/gcc/arm-none-eabi/5.2.0/armv7e-m/libgcc.a(_udivmoddi4.o)
 .ARM.attributes
                0x0000000000000000       0x2e /usr/lib/gcc/arm-none-eabi/5.2.0/armv7e-m/libgcc.a(_udivmoddi4.o)
 .text          0x0000000000000000        0x4 /usr/lib/gcc/arm-none-eabi/5.2.0/armv7e-m/libgcc.a(_dvmd_tls.o)
 .data          0x0000000000000000        0x0 /usr/lib/gcc/arm-none-eabi/5.2.0/armv7e-m/libgcc.a(_dvmd_tls.o)
 .bss           0x0000000000000000        0x0 /usr/lib/gcc/arm-none-eabi/5.2.0/armv7e-m/libgcc.a(_dvmd_tls.o)
 .debug_line    0x0000000000000000       0x64 /usr/lib/gcc/arm-none-eabi/5.2.0/armv7e-m/libgcc.a(_dvmd_tls.o)
 .debug_info    0x0000000000000000       0xbb /usr/lib/gcc/arm-none-eabi/5.2.0/armv7e-m/libgcc.a(_dvmd_tls.o)
 .debug_abbrev  0x0000000000000000       0x14 /usr/lib/gcc/arm-none-eabi/5.2.0/armv7e-m/libgcc.a(_dvmd_tls.o)
 .debug_aranges
                0x0000000000000000       0x20 /usr/lib/gcc/arm-none-eabi/5.2.0/armv7e-m/libgcc.a(_dvmd_tls.o)
 .ARM.attributes
                0x0000000000000000       0x1e /usr/lib/gcc/arm-none-eabi/5.2.0/armv7e-m/libgcc.a(_dvmd_tls.o)

Memory Configuration

Name             Origin             Length             Attributes
SRAM             0x0000000020000000 0x0000000000040000 xrw
*default*        0x0000000000000000 0xffffffffffffffff

Linker script and memory map

                0x0000000000004000                BOOTLOADER_SIZE = 0x4000

.bootloader     0x0000000020000000     0x4000
                0x0000000020000000                _heap2 = .
                0x0000000020004000                . = (. + BOOTLOADER_SIZE)
 *fill*         0x0000000020000000     0x4000 
                0x0000000020004000                . = ALIGN (0x8)
                0x0000000020004000                _eheap2 = .

.text           0x0000000020004000     0xd9b8
                0x0000000020004000                _text = .
 *(.intvecs)
 .intvecs       0x0000000020004000      0x400 obj/Release/startup_gcc.o
                0x0000000020004000                g_pfnVectors
 *(.text*)
 .text.pushButtonInterruptHandler2
                0x0000000020004400       0x1c obj/Release/main.o
                0x0000000020004400                pushButtonInterruptHandler2
 .text.pushButtonInterruptHandler3
                0x000000002000441c       0x1c obj/Release/main.o
                0x000000002000441c                pushButtonInterruptHandler3
 .text.TimerPeriodicIntHandler
                0x0000000020004438       0x3c obj/Release/main.o
                0x0000000020004438                TimerPeriodicIntHandler
 .text.LedTimerConfigNStart
                0x0000000020004474       0x38 obj/Release/main.o
                0x0000000020004474                LedTimerConfigNStart
 .text.LedTimerDeinitStop
                0x00000000200044ac       0x1c obj/Release/main.o
                0x00000000200044ac                LedTimerDeinitStop
 .text.MqttClientServer
                0x00000000200044c8      0x2dc obj/Release/main.o
                0x00000000200044c8                MqttClientServer
 .text.BoardInit
                0x00000000200047a4       0x20 obj/Release/main.o
                0x00000000200047a4                BoardInit
 .text.startup.main
                0x00000000200047c4       0xac obj/Release/main.o
                0x00000000200047c4                main
 .text.PinMuxConfig
                0x0000000020004870       0xbc obj/Release/pinmux.o
                0x0000000020004870                PinMuxConfig
 .text.connect_cb
                0x000000002000492c       0x44 obj/Release/server_client_cbs.o
                0x000000002000492c                connect_cb
 .text.disconnectbridge_cb
                0x0000000020004970        0xc obj/Release/server_client_cbs.o
                0x0000000020004970                disconnectbridge_cb
 .text.recv_cb  0x000000002000497c       0xdc obj/Release/server_client_cbs.o
                0x000000002000497c                recv_cb
 .text.disconnect_cb
                0x0000000020004a58       0x2c obj/Release/server_client_cbs.o
                0x0000000020004a58                disconnect_cb
 .text.recv_client_cb
                0x0000000020004a84       0xe0 obj/Release/server_client_cbs.o
                0x0000000020004a84                recv_client_cb
 .text.event_client_cb
                0x0000000020004b64       0x6c obj/Release/server_client_cbs.o
                0x0000000020004b64                event_client_cb
 .text.InitTerm
                0x0000000020004bd0       0x34 obj/Release/uart_if.o
                0x0000000020004bd0                InitTerm
 .text.Message  0x0000000020004c04       0x20 obj/Release/uart_if.o
                0x0000000020004c04                Message
 .text.TrimSpace
                0x0000000020004c24       0x4e obj/Release/uart_if.o
                0x0000000020004c24                TrimSpace
 *fill*         0x0000000020004c72        0x2 
 .text.Report   0x0000000020004c74       0x68 obj/Release/uart_if.o
                0x0000000020004c74                Report
 .text.GetCmd   0x0000000020004cdc       0xa0 obj/Release/uart_if.o
                0x0000000020004cdc                GetCmd
 .text.vAssertCalled
                0x0000000020004d7c        0x2 obj/Release/network_if.o
                0x0000000020004d7c                vAssertCalled
 .text.vApplicationIdleHook
                0x0000000020004d7e        0x2 obj/Release/network_if.o
                0x0000000020004d7e                vApplicationIdleHook
 .text.vApplicationMallocFailedHook
                0x0000000020004d80        0x2 obj/Release/network_if.o
                0x0000000020004d80                vApplicationMallocFailedHook
 .text.vApplicationStackOverflowHook
                0x0000000020004d82        0x2 obj/Release/network_if.o
                0x0000000020004d82                vApplicationStackOverflowHook
 .text.SimpleLinkWlanEventHandler
                0x0000000020004d84      0x13c obj/Release/network_if.o
                0x0000000020004d84                SimpleLinkWlanEventHandler
 .text.SimpleLinkNetAppEventHandler
                0x0000000020004ec0       0x70 obj/Release/network_if.o
                0x0000000020004ec0                SimpleLinkNetAppEventHandler
 .text.SimpleLinkGeneralEventHandler
                0x0000000020004f30       0x14 obj/Release/network_if.o
                0x0000000020004f30                SimpleLinkGeneralEventHandler
 .text.SimpleLinkSockEventHandler
                0x0000000020004f44       0x6c obj/Release/network_if.o
                0x0000000020004f44                SimpleLinkSockEventHandler
 .text.SimpleLinkHttpServerCallback
                0x0000000020004fb0        0x2 obj/Release/network_if.o
                0x0000000020004fb0                SimpleLinkHttpServerCallback
 *fill*         0x0000000020004fb2        0x2 
 .text.InitializeAppVariables
                0x0000000020004fb4       0x38 obj/Release/network_if.o
                0x0000000020004fb4                InitializeAppVariables
 .text.ConfigureSimpleLinkToDefaultState
                0x0000000020004fec      0x228 obj/Release/network_if.o
                0x0000000020004fec                ConfigureSimpleLinkToDefaultState
 .text.Network_IF_InitDriver
                0x0000000020005214      0x148 obj/Release/network_if.o
                0x0000000020005214                Network_IF_InitDriver
 .text.Network_IF_DisconnectFromAP
                0x000000002000535c       0x2c obj/Release/network_if.o
                0x000000002000535c                Network_IF_DisconnectFromAP
 .text.Network_IF_IpConfigGet
                0x0000000020005388       0x58 obj/Release/network_if.o
                0x0000000020005388                Network_IF_IpConfigGet
 .text.Network_IF_ConnectAP
                0x00000000200053e0      0x1c8 obj/Release/network_if.o
                0x00000000200053e0                Network_IF_ConnectAP
 .text.Network_IF_ResetMCUStateMachine
                0x00000000200055a8        0xc obj/Release/network_if.o
                0x00000000200055a8                Network_IF_ResetMCUStateMachine
 .text.GPIO_IF_LedConfigure
                0x00000000200055b4       0x50 obj/Release/gpio_if.o
                0x00000000200055b4                GPIO_IF_LedConfigure
 .text.GPIO_IF_Set
                0x0000000020005604       0x1e obj/Release/gpio_if.o
                0x0000000020005604                GPIO_IF_Set
 *fill*         0x0000000020005622        0x2 
 .text.GPIO_IF_LedOn
                0x0000000020005624       0x84 obj/Release/gpio_if.o
                0x0000000020005624                GPIO_IF_LedOn
 .text.GPIO_IF_LedOff
                0x00000000200056a8       0x84 obj/Release/gpio_if.o
                0x00000000200056a8                GPIO_IF_LedOff
 .text.Timer_IF_Init
                0x000000002000572c       0x38 obj/Release/timer_if.o
                0x000000002000572c                Timer_IF_Init
 .text.Timer_IF_IntSetup
                0x0000000020005764       0xe8 obj/Release/timer_if.o
                0x0000000020005764                Timer_IF_IntSetup
 .text.Timer_IF_Start
                0x000000002000584c       0x28 obj/Release/timer_if.o
                0x000000002000584c                Timer_IF_Start
 .text.Timer_IF_Stop
                0x0000000020005874        0xa obj/Release/timer_if.o
                0x0000000020005874                Timer_IF_Stop
 .text.Timer_IF_DeInit
                0x000000002000587e       0x22 obj/Release/timer_if.o
                0x000000002000587e                Timer_IF_DeInit
 .text.Button_IF_Init
                0x00000000200058a0       0x8c obj/Release/button_if.o
                0x00000000200058a0                Button_IF_Init
 .text.Button_IF_EnableInterrupt
                0x000000002000592c       0x70 obj/Release/button_if.o
                0x000000002000592c                Button_IF_EnableInterrupt
 .text.Button_IF_DisableInterrupt
                0x000000002000599c       0x58 obj/Release/button_if.o
                0x000000002000599c                Button_IF_DisableInterrupt
 .text.GPIOs3IntHandler
                0x00000000200059f4       0x28 obj/Release/button_if.o
                0x00000000200059f4                GPIOs3IntHandler
 .text.GPIOs2IntHandler
                0x0000000020005a1c       0x28 obj/Release/button_if.o
                0x0000000020005a1c                GPIOs2IntHandler
 .text.NmiSR    0x0000000020005a44        0x2 obj/Release/startup_gcc.o
 .text.FaultISR
                0x0000000020005a46        0x2 obj/Release/startup_gcc.o
 .text.BusFaultHandler
                0x0000000020005a48        0x2 obj/Release/startup_gcc.o
 .text.IntDefaultHandler
                0x0000000020005a4a        0x2 obj/Release/startup_gcc.o
 .text.ResetISR
                0x0000000020005a4c       0x5c obj/Release/startup_gcc.o
                0x0000000020005a4c                ResetISR
 .text._sbrk    0x0000000020005aa8       0x3c obj/Release/startup_gcc.o
                0x0000000020005aa8                _sbrk
 .text.mutex_lockup
                0x0000000020005ae4        0x8 ../../../netapps/mqtt/gcc/lib/client_server/Release/libmqtt.a(sl_mqtt_client.o)
                0x0000000020005ae4                mutex_lockup
 .text.process_publish_rx_cb
                0x0000000020005aec       0x74 ../../../netapps/mqtt/gcc/lib/client_server/Release/libmqtt.a(sl_mqtt_client.o)
 .text.mutex_unlock
                0x0000000020005b60        0x4 ../../../netapps/mqtt/gcc/lib/client_server/Release/libmqtt.a(sl_mqtt_client.o)
                0x0000000020005b60                mutex_unlock
 .text.VMqttRecvTask
                0x0000000020005b64       0x40 ../../../netapps/mqtt/gcc/lib/client_server/Release/libmqtt.a(sl_mqtt_client.o)
                0x0000000020005b64                VMqttRecvTask
 .text.process_disconn_cb
                0x0000000020005ba4       0x34 ../../../netapps/mqtt/gcc/lib/client_server/Release/libmqtt.a(sl_mqtt_client.o)
 .text.process_notify_ack_cb
                0x0000000020005bd8       0x8c ../../../netapps/mqtt/gcc/lib/client_server/Release/libmqtt.a(sl_mqtt_client.o)
 .text._sl_ExtLib_ServerAckLockedWait
                0x0000000020005c64       0x4c ../../../netapps/mqtt/gcc/lib/client_server/Release/libmqtt.a(sl_mqtt_client.o)
                0x0000000020005c64                _sl_ExtLib_ServerAckLockedWait
 .text._sl_ExtLib_AwaitedAckLockedSet
                0x0000000020005cb0       0x2c ../../../netapps/mqtt/gcc/lib/client_server/Release/libmqtt.a(sl_mqtt_client.o)
                0x0000000020005cb0                _sl_ExtLib_AwaitedAckLockedSet
 .text.sl_ExtLib_MqttClientCtxCreate
                0x0000000020005cdc      0x11c ../../../netapps/mqtt/gcc/lib/client_server/Release/libmqtt.a(sl_mqtt_client.o)
                0x0000000020005cdc                sl_ExtLib_MqttClientCtxCreate
 .text.sl_ExtLib_MqttClientCtxDelete
                0x0000000020005df8       0x2a ../../../netapps/mqtt/gcc/lib/client_server/Release/libmqtt.a(sl_mqtt_client.o)
                0x0000000020005df8                sl_ExtLib_MqttClientCtxDelete
 *fill*         0x0000000020005e22        0x2 
 .text.sl_ExtLib_MqttClientInit
                0x0000000020005e24       0xd8 ../../../netapps/mqtt/gcc/lib/client_server/Release/libmqtt.a(sl_mqtt_client.o)
                0x0000000020005e24                sl_ExtLib_MqttClientInit
 .text.sl_ExtLib_MqttClientExit
                0x0000000020005efc       0x58 ../../../netapps/mqtt/gcc/lib/client_server/Release/libmqtt.a(sl_mqtt_client.o)
                0x0000000020005efc                sl_ExtLib_MqttClientExit
 .text.sl_ExtLib_MqttClientSet
                0x0000000020005f54       0x2a ../../../netapps/mqtt/gcc/lib/client_server/Release/libmqtt.a(sl_mqtt_client.o)
                0x0000000020005f54                sl_ExtLib_MqttClientSet
 *fill*         0x0000000020005f7e        0x2 
 .text.sl_ExtLib_MqttClientConnect
                0x0000000020005f80      0x138 ../../../netapps/mqtt/gcc/lib/client_server/Release/libmqtt.a(sl_mqtt_client.o)
                0x0000000020005f80                sl_ExtLib_MqttClientConnect
 .text.sl_ExtLib_MqttClientDisconnect
                0x00000000200060b8       0x2e ../../../netapps/mqtt/gcc/lib/client_server/Release/libmqtt.a(sl_mqtt_client.o)
                0x00000000200060b8                sl_ExtLib_MqttClientDisconnect
 *fill*         0x00000000200060e6        0x2 
 .text.sl_ExtLib_MqttClientSub
                0x00000000200060e8       0xb8 ../../../netapps/mqtt/gcc/lib/client_server/Release/libmqtt.a(sl_mqtt_client.o)
                0x00000000200060e8                sl_ExtLib_MqttClientSub
 .text.sl_ExtLib_MqttClientUnsub
                0x00000000200061a0       0x80 ../../../netapps/mqtt/gcc/lib/client_server/Release/libmqtt.a(sl_mqtt_client.o)
                0x00000000200061a0                sl_ExtLib_MqttClientUnsub
 .text.sl_ExtLib_MqttClientSend
                0x0000000020006220       0xac ../../../netapps/mqtt/gcc/lib/client_server/Release/libmqtt.a(sl_mqtt_client.o)
                0x0000000020006220                sl_ExtLib_MqttClientSend
 .text.sl_server_connect_cb
                0x00000000200062cc       0x44 ../../../netapps/mqtt/gcc/lib/client_server/Release/libmqtt.a(sl_mqtt_server.o)
                0x00000000200062cc                sl_server_connect_cb
 .text.sl_server_publish_cb
                0x0000000020006310       0x34 ../../../netapps/mqtt/gcc/lib/client_server/Release/libmqtt.a(sl_mqtt_server.o)
                0x0000000020006310                sl_server_publish_cb
 .text.sl_server_disconn_cb
                0x0000000020006344        0xc ../../../netapps/mqtt/gcc/lib/client_server/Release/libmqtt.a(sl_mqtt_server.o)
                0x0000000020006344                sl_server_disconn_cb
 .text.mutex_unlock
                0x0000000020006350        0x4 ../../../netapps/mqtt/gcc/lib/client_server/Release/libmqtt.a(sl_mqtt_server.o)
 .text.mutex_lock
                0x0000000020006354        0x8 ../../../netapps/mqtt/gcc/lib/client_server/Release/libmqtt.a(sl_mqtt_server.o)
 .text._sl_MqttServerStateSet
                0x000000002000635c       0x18 ../../../netapps/mqtt/gcc/lib/client_server/Release/libmqtt.a(sl_mqtt_server.o)
 .text._sl_MqttServerStateGet
                0x0000000020006374       0x18 ../../../netapps/mqtt/gcc/lib/client_server/Release/libmqtt.a(sl_mqtt_server.o)
 .text.VMqttServerRunTask
                0x000000002000638c       0x64 ../../../netapps/mqtt/gcc/lib/client_server/Release/libmqtt.a(sl_mqtt_server.o)
 .text.sl_ExtLib_MqttServerSend
                0x00000000200063f0       0x2c ../../../netapps/mqtt/gcc/lib/client_server/Release/libmqtt.a(sl_mqtt_server.o)
                0x00000000200063f0                sl_ExtLib_MqttServerSend
 .text.sl_ExtLib_MqttTopicEnroll
                0x000000002000641c       0x28 ../../../netapps/mqtt/gcc/lib/client_server/Release/libmqtt.a(sl_mqtt_server.o)
                0x000000002000641c                sl_ExtLib_MqttTopicEnroll
 .text.sl_ExtLib_MqttServerInit
                0x0000000020006444      0x114 ../../../netapps/mqtt/gcc/lib/client_server/Release/libmqtt.a(sl_mqtt_server.o)
                0x0000000020006444                sl_ExtLib_MqttServerInit
 .text.sl_ExtLib_MqttServerActivate
                0x0000000020006558       0x50 ../../../netapps/mqtt/gcc/lib/client_server/Release/libmqtt.a(sl_mqtt_server.o)
                0x0000000020006558                sl_ExtLib_MqttServerActivate
 .text.comm_open
                0x00000000200065a8      0x218 ../../../netapps/mqtt/gcc/lib/client_server/Release/libmqtt.a(cc32xx_sl_net.o)
                0x00000000200065a8                comm_open
 .text.tcp_send
                0x00000000200067c0        0xe ../../../netapps/mqtt/gcc/lib/client_server/Release/libmqtt.a(cc32xx_sl_net.o)
                0x00000000200067c0                tcp_send
 .text.tcp_recv
                0x00000000200067ce       0x42 ../../../netapps/mqtt/gcc/lib/client_server/Release/libmqtt.a(cc32xx_sl_net.o)
                0x00000000200067ce                tcp_recv
 .text.comm_close
                0x0000000020006810       0x16 ../../../netapps/mqtt/gcc/lib/client_server/Release/libmqtt.a(cc32xx_sl_net.o)
                0x0000000020006810                comm_close
 .text.rtc_secs
                0x0000000020006826        0x4 ../../../netapps/mqtt/gcc/lib/client_server/Release/libmqtt.a(cc32xx_sl_net.o)
                0x0000000020006826                rtc_secs
 .text.tcp_listen
                0x000000002000682a       0x4e ../../../netapps/mqtt/gcc/lib/client_server/Release/libmqtt.a(cc32xx_sl_net.o)
                0x000000002000682a                tcp_listen
 .text.tcp_select
                0x0000000020006878       0x7a ../../../netapps/mqtt/gcc/lib/client_server/Release/libmqtt.a(cc32xx_sl_net.o)
                0x0000000020006878                tcp_select
 .text.tcp_accept
                0x00000000200068f2       0x4a ../../../netapps/mqtt/gcc/lib/client_server/Release/libmqtt.a(cc32xx_sl_net.o)
                0x00000000200068f2                tcp_accept
 .text.send_dest
                0x000000002000693c       0x64 ../../../netapps/mqtt/gcc/lib/client_server/Release/libmqtt.a(cc32xx_sl_net.o)
                0x000000002000693c                send_dest
 .text.recv_from
                0x00000000200069a0       0x72 ../../../netapps/mqtt/gcc/lib/client_server/Release/libmqtt.a(cc32xx_sl_net.o)
                0x00000000200069a0                recv_from
 .text.platform_timer_init
                0x0000000020006a12        0x4 ../../../netapps/mqtt/gcc/lib/client_server/Release/libmqtt.a(cc32xx_platform.o)
                0x0000000020006a12                platform_timer_init
 .text.platform_get_time_in_secs
                0x0000000020006a16       0x1a ../../../netapps/mqtt/gcc/lib/client_server/Release/libmqtt.a(cc32xx_platform.o)
                0x0000000020006a16                platform_get_time_in_secs
 .text.loopb_trigger
                0x0000000020006a30       0x48 ../../../netapps/mqtt/gcc/lib/client_server/Release/libmqtt.a(mqtt_client.o)
 .text.is_valid_utf8_string
                0x0000000020006a78       0x12 ../../../netapps/mqtt/gcc/lib/client_server/Release/libmqtt.a(mqtt_client.o)
 *fill*         0x0000000020006a8a        0x2 
 .text.grp_net_setup_create
                0x0000000020006a8c       0x48 ../../../netapps/mqtt/gcc/lib/client_server/Release/libmqtt.a(mqtt_client.o)
 .text.free_mqp
                0x0000000020006ad4       0x10 ../../../netapps/mqtt/gcc/lib/client_server/Release/libmqtt.a(mqtt_client.o)
 .text.mqp_free_locked
                0x0000000020006ae4       0x34 ../../../netapps/mqtt/gcc/lib/client_server/Release/libmqtt.a(mqtt_client.o)
 .text.session_delete
                0x0000000020006b18       0x3c ../../../netapps/mqtt/gcc/lib/client_server/Release/libmqtt.a(mqtt_client.o)
 .text.do_net_close
                0x0000000020006b54       0x98 ../../../netapps/mqtt/gcc/lib/client_server/Release/libmqtt.a(mqtt_client.o)
 .text.do_net_close_tx
                0x0000000020006bec       0x48 ../../../netapps/mqtt/gcc/lib/client_server/Release/libmqtt.a(mqtt_client.o)
 .text.cl_ctx_seg1_send
                0x0000000020006c34      0x164 ../../../netapps/mqtt/gcc/lib/client_server/Release/libmqtt.a(mqtt_client.o)
 .text.pingreq_send
                0x0000000020006d98       0x2c ../../../netapps/mqtt/gcc/lib/client_server/Release/libmqtt.a(mqtt_client.o)
 .text.do_net_close_rx
                0x0000000020006dc4       0x50 ../../../netapps/mqtt/gcc/lib/client_server/Release/libmqtt.a(mqtt_client.o)
 .text._msg_dispatch
                0x0000000020006e14       0x90 ../../../netapps/mqtt/gcc/lib/client_server/Release/libmqtt.a(mqtt_client.o)
 .text.single_ctx_adj_wait_secs_get.isra.4
                0x0000000020006ea4       0x2c ../../../netapps/mqtt/gcc/lib/client_server/Release/libmqtt.a(mqtt_client.o)
 .text.single_ctx_rx_prep_locked
                0x0000000020006ed0       0xc4 ../../../netapps/mqtt/gcc/lib/client_server/Release/libmqtt.a(mqtt_client.o)
 .text.ack1_wl_rmfree
                0x0000000020006f94       0x2c ../../../netapps/mqtt/gcc/lib/client_server/Release/libmqtt.a(mqtt_client.o)
 .text.vh_msg_send.constprop.9
                0x0000000020006fc0       0x32 ../../../netapps/mqtt/gcc/lib/client_server/Release/libmqtt.a(mqtt_client.o)
 .text.client_reset
                0x0000000020006ff2       0x70 ../../../netapps/mqtt/gcc/lib/client_server/Release/libmqtt.a(mqtt_client.o)
 *fill*         0x0000000020007062        0x2 
 .text.mqtt_disconn_send
                0x0000000020007064       0x58 ../../../netapps/mqtt/gcc/lib/client_server/Release/libmqtt.a(mqtt_client.o)
                0x0000000020007064                mqtt_disconn_send
 .text.mqp_client_alloc
                0x00000000200070bc       0x78 ../../../netapps/mqtt/gcc/lib/client_server/Release/libmqtt.a(mqtt_client.o)
                0x00000000200070bc                mqp_client_alloc
 .text.utf8_array_send
                0x0000000020007134      0x130 ../../../netapps/mqtt/gcc/lib/client_server/Release/libmqtt.a(mqtt_client.o)
 .text.mqtt_sub_msg_send
                0x0000000020007264        0x8 ../../../netapps/mqtt/gcc/lib/client_server/Release/libmqtt.a(mqtt_client.o)
                0x0000000020007264                mqtt_sub_msg_send
 .text.mqtt_unsub_msg_send
                0x000000002000726c        0xa ../../../netapps/mqtt/gcc/lib/client_server/Release/libmqtt.a(mqtt_client.o)
                0x000000002000726c                mqtt_unsub_msg_send
 *fill*         0x0000000020007276        0x2 
 .text.mqp_setup_proc_ctx_data_recv
                0x0000000020007278      0x450 ../../../netapps/mqtt/gcc/lib/client_server/Release/libmqtt.a(mqtt_client.o)
 .text.cl_ctx_recv
                0x00000000200076c8       0x46 ../../../netapps/mqtt/gcc/lib/client_server/Release/libmqtt.a(mqtt_client.o)
 .text.mqtt_client_ctx_run
                0x000000002000770e       0x1e ../../../netapps/mqtt/gcc/lib/client_server/Release/libmqtt.a(mqtt_client.o)
                0x000000002000770e                mqtt_client_ctx_run
 .text.cl_recv  0x000000002000772c      0x148 ../../../netapps/mqtt/gcc/lib/client_server/Release/libmqtt.a(mqtt_client.o)
 .text.mqtt_client_run
                0x0000000020007874       0x3c ../../../netapps/mqtt/gcc/lib/client_server/Release/libmqtt.a(mqtt_client.o)
                0x0000000020007874                mqtt_client_run
 .text.mqtt_client_pub_msg_send
                0x00000000200078b0       0x98 ../../../netapps/mqtt/gcc/lib/client_server/Release/libmqtt.a(mqtt_client.o)
                0x00000000200078b0                mqtt_client_pub_msg_send
 .text.mqtt_connect_msg_send
                0x0000000020007948      0x25c ../../../netapps/mqtt/gcc/lib/client_server/Release/libmqtt.a(mqtt_client.o)
                0x0000000020007948                mqtt_connect_msg_send
 .text.mqtt_client_buffers_register
                0x0000000020007ba4       0x44 ../../../netapps/mqtt/gcc/lib/client_server/Release/libmqtt.a(mqtt_client.o)
                0x0000000020007ba4                mqtt_client_buffers_register
 .text.mqtt_client_ctx_will_register
                0x0000000020007be8       0x44 ../../../netapps/mqtt/gcc/lib/client_server/Release/libmqtt.a(mqtt_client.o)
                0x0000000020007be8                mqtt_client_ctx_will_register
 .text.mqtt_client_ctx_info_register
                0x0000000020007c2c       0x3a ../../../netapps/mqtt/gcc/lib/client_server/Release/libmqtt.a(mqtt_client.o)
                0x0000000020007c2c                mqtt_client_ctx_info_register
 *fill*         0x0000000020007c66        0x2 
 .text.mqtt_client_net_svc_register
                0x0000000020007c68       0x34 ../../../netapps/mqtt/gcc/lib/client_server/Release/libmqtt.a(mqtt_client.o)
                0x0000000020007c68                mqtt_client_net_svc_register
 .text.mqtt_client_ctx_create
                0x0000000020007c9c       0xc0 ../../../netapps/mqtt/gcc/lib/client_server/Release/libmqtt.a(mqtt_client.o)
                0x0000000020007c9c                mqtt_client_ctx_create
 .text.mqtt_client_ctx_delete
                0x0000000020007d5c       0x64 ../../../netapps/mqtt/gcc/lib/client_server/Release/libmqtt.a(mqtt_client.o)
                0x0000000020007d5c                mqtt_client_ctx_delete
 .text.mqtt_client_lib_init
                0x0000000020007dc0      0x108 ../../../netapps/mqtt/gcc/lib/client_server/Release/libmqtt.a(mqtt_client.o)
                0x0000000020007dc0                mqtt_client_lib_init
 .text.mqtt_client_lib_exit
                0x0000000020007ec8       0x28 ../../../netapps/mqtt/gcc/lib/client_server/Release/libmqtt.a(mqtt_client.o)
                0x0000000020007ec8                mqtt_client_lib_exit
 .text.free_mqp
                0x0000000020007ef0       0x12 ../../../netapps/mqtt/gcc/lib/client_server/Release/libmqtt.a(mqtt_common.o)
 .text.proc_vh_msg_id_rx
                0x0000000020007f02       0x30 ../../../netapps/mqtt/gcc/lib/client_server/Release/libmqtt.a(mqtt_common.o)
 .text.buf_wr_utf8
                0x0000000020007f32       0x26 ../../../netapps/mqtt/gcc/lib/client_server/Release/libmqtt.a(mqtt_common.o)
 .text.buf_tail_wr_remlen
                0x0000000020007f58       0x3a ../../../netapps/mqtt/gcc/lib/client_server/Release/libmqtt.a(mqtt_common.o)
 .text.mqp_free
                0x0000000020007f92        0x4 ../../../netapps/mqtt/gcc/lib/client_server/Release/libmqtt.a(mqtt_common.o)
                0x0000000020007f92                mqp_free
 .text.mqp_reset
                0x0000000020007f96       0x12 ../../../netapps/mqtt/gcc/lib/client_server/Release/libmqtt.a(mqtt_common.o)
                0x0000000020007f96                mqp_reset
 .text.mqp_init
                0x0000000020007fa8       0x1a ../../../netapps/mqtt/gcc/lib/client_server/Release/libmqtt.a(mqtt_common.o)
                0x0000000020007fa8                mqp_init
 .text.mqp_buf_wr_utf8
                0x0000000020007fc2        0x4 ../../../netapps/mqtt/gcc/lib/client_server/Release/libmqtt.a(mqtt_common.o)
                0x0000000020007fc2                mqp_buf_wr_utf8
 .text.mqp_buf_tail_wr_remlen
                0x0000000020007fc6        0x4 ../../../netapps/mqtt/gcc/lib/client_server/Release/libmqtt.a(mqtt_common.o)
                0x0000000020007fc6                mqp_buf_tail_wr_remlen
 .text.mqp_buf_rd_remlen
                0x0000000020007fca       0x34 ../../../netapps/mqtt/gcc/lib/client_server/Release/libmqtt.a(mqtt_common.o)
                0x0000000020007fca                mqp_buf_rd_remlen
 .text.mqp_pub_append_topic
                0x0000000020007ffe       0x64 ../../../netapps/mqtt/gcc/lib/client_server/Release/libmqtt.a(mqtt_common.o)
                0x0000000020007ffe                mqp_pub_append_topic
 .text.mqp_pub_append_data
                0x0000000020008062       0x56 ../../../netapps/mqtt/gcc/lib/client_server/Release/libmqtt.a(mqtt_common.o)
                0x0000000020008062                mqp_pub_append_data
 .text.mqp_proc_msg_id_ack_rx
                0x00000000200080b8       0x1c ../../../netapps/mqtt/gcc/lib/client_server/Release/libmqtt.a(mqtt_common.o)
                0x00000000200080b8                mqp_proc_msg_id_ack_rx
 .text.mqp_proc_pub_rx
                0x00000000200080d4       0x52 ../../../netapps/mqtt/gcc/lib/client_server/Release/libmqtt.a(mqtt_common.o)
                0x00000000200080d4                mqp_proc_pub_rx
 .text.mqp_ack_wlist_append
                0x0000000020008126       0x16 ../../../netapps/mqtt/gcc/lib/client_server/Release/libmqtt.a(mqtt_common.o)
                0x0000000020008126                mqp_ack_wlist_append
 .text.mqp_ack_wlist_remove
                0x000000002000813c       0x32 ../../../netapps/mqtt/gcc/lib/client_server/Release/libmqtt.a(mqtt_common.o)
                0x000000002000813c                mqp_ack_wlist_remove
 .text.mqp_ack_wlist_purge
                0x000000002000816e       0x18 ../../../netapps/mqtt/gcc/lib/client_server/Release/libmqtt.a(mqtt_common.o)
                0x000000002000816e                mqp_ack_wlist_purge
 .text.secure_conn_struct_init
                0x0000000020008186       0x10 ../../../netapps/mqtt/gcc/lib/client_server/Release/libmqtt.a(mqtt_common.o)
                0x0000000020008186                secure_conn_struct_init
 .text.mqp_prep_fh
                0x0000000020008196       0x36 ../../../netapps/mqtt/gcc/lib/client_server/Release/libmqtt.a(mqtt_common.o)
                0x0000000020008196                mqp_prep_fh
 .text.mqp_recv
                0x00000000200081cc       0xfa ../../../netapps/mqtt/gcc/lib/client_server/Release/libmqtt.a(mqtt_common.o)
                0x00000000200081cc                mqp_recv
 .text.qos2_pub_cq_reset
                0x00000000200082c6       0x22 ../../../netapps/mqtt/gcc/lib/client_server/Release/libmqtt.a(mqtt_common.o)
                0x00000000200082c6                qos2_pub_cq_reset
 .text.qos2_pub_cq_logup
                0x00000000200082e8       0x1e ../../../netapps/mqtt/gcc/lib/client_server/Release/libmqtt.a(mqtt_common.o)
                0x00000000200082e8                qos2_pub_cq_logup
 .text.qos2_pub_cq_unlog
                0x0000000020008306       0x2a ../../../netapps/mqtt/gcc/lib/client_server/Release/libmqtt.a(mqtt_common.o)
                0x0000000020008306                qos2_pub_cq_unlog
 .text.qos2_pub_cq_check
                0x0000000020008330       0x30 ../../../netapps/mqtt/gcc/lib/client_server/Release/libmqtt.a(mqtt_common.o)
                0x0000000020008330                qos2_pub_cq_check
 .text.cl_ctx_reset
                0x0000000020008360       0x16 ../../../netapps/mqtt/gcc/lib/client_server/Release/libmqtt.a(mqtt_common.o)
                0x0000000020008360                cl_ctx_reset
 .text.cl_ctx_timeout_insert
                0x0000000020008376       0x2e ../../../netapps/mqtt/gcc/lib/client_server/Release/libmqtt.a(mqtt_common.o)
                0x0000000020008376                cl_ctx_timeout_insert
 .text.cl_ctx_remove
                0x00000000200083a4       0x22 ../../../netapps/mqtt/gcc/lib/client_server/Release/libmqtt.a(mqtt_common.o)
                0x00000000200083a4                cl_ctx_remove
 .text.cl_ctx_timeout_update
                0x00000000200083c6       0x16 ../../../netapps/mqtt/gcc/lib/client_server/Release/libmqtt.a(mqtt_common.o)
                0x00000000200083c6                cl_ctx_timeout_update
 .text.stack_add
                0x00000000200083dc       0x24 ../../../netapps/mqtt/gcc/lib/client_server/Release/libmqtt.a(server_core.o)
 .text.stack_pop
                0x0000000020008400       0x1c ../../../netapps/mqtt/gcc/lib/client_server/Release/libmqtt.a(server_core.o)
 .text.free_node
                0x000000002000841c       0x30 ../../../netapps/mqtt/gcc/lib/client_server/Release/libmqtt.a(server_core.o)
 .text.node_delete
                0x000000002000844c       0x6c ../../../netapps/mqtt/gcc/lib/client_server/Release/libmqtt.a(server_core.o)
 .text.try_node_delete
                0x00000000200084b8       0x2c ../../../netapps/mqtt/gcc/lib/client_server/Release/libmqtt.a(server_core.o)
 .text.proc_forward_slash
                0x00000000200084e4       0x44 ../../../netapps/mqtt/gcc/lib/client_server/Release/libmqtt.a(server_core.o)
 .text.leaf_un_sub
                0x0000000020008528       0x3c ../../../netapps/mqtt/gcc/lib/client_server/Release/libmqtt.a(server_core.o)
 .text.pub_msg_send
                0x0000000020008564       0x6e ../../../netapps/mqtt/gcc/lib/client_server/Release/libmqtt.a(server_core.o)
 .text.proc_pub_leaf
                0x00000000200085d2       0x3c ../../../netapps/mqtt/gcc/lib/client_server/Release/libmqtt.a(server_core.o)
 .text.proc_notify_ack_locked
                0x000000002000860e        0x4 ../../../netapps/mqtt/gcc/lib/client_server/Release/libmqtt.a(server_core.o)
 *fill*         0x0000000020008612        0x2 
 .text.subtop_read
                0x0000000020008614       0x74 ../../../netapps/mqtt/gcc/lib/client_server/Release/libmqtt.a(server_core.o)
 .text.topbuf_add
                0x0000000020008688       0x4c ../../../netapps/mqtt/gcc/lib/client_server/Release/libmqtt.a(server_core.o)
 .text.pub_hier_search
                0x00000000200086d4       0x9c ../../../netapps/mqtt/gcc/lib/client_server/Release/libmqtt.a(server_core.o)
 .text.proc_pub_tree_SUBtop
                0x0000000020008770       0x6c ../../../netapps/mqtt/gcc/lib/client_server/Release/libmqtt.a(server_core.o)
 .text.proc_sub_tree_topPUB
                0x00000000200087dc      0x118 ../../../netapps/mqtt/gcc/lib/client_server/Release/libmqtt.a(server_core.o)
 .text.node_data_update
                0x00000000200088f4       0x86 ../../../netapps/mqtt/gcc/lib/client_server/Release/libmqtt.a(server_core.o)
 *fill*         0x000000002000897a        0x2 
 .text.utf8_str_rd.constprop.12
                0x000000002000897c       0x3c ../../../netapps/mqtt/gcc/lib/client_server/Release/libmqtt.a(server_core.o)
 .text.is_first_subtop
                0x00000000200089b8       0x3c ../../../netapps/mqtt/gcc/lib/client_server/Release/libmqtt.a(server_core.o)
                0x00000000200089b8                is_first_subtop
 .text.subtop_nhbr_node_find
                0x00000000200089f4       0x20 ../../../netapps/mqtt/gcc/lib/client_server/Release/libmqtt.a(server_core.o)
                0x00000000200089f4                subtop_nhbr_node_find
 .text.nhbr_node_find
                0x0000000020008a14       0x14 ../../../netapps/mqtt/gcc/lib/client_server/Release/libmqtt.a(server_core.o)
                0x0000000020008a14                nhbr_node_find
 .text.leaf_node_find
                0x0000000020008a28       0x38 ../../../netapps/mqtt/gcc/lib/client_server/Release/libmqtt.a(server_core.o)
                0x0000000020008a28                leaf_node_find
 .text.proc_topic_cancel_locked
                0x0000000020008a60       0x5c ../../../netapps/mqtt/gcc/lib/client_server/Release/libmqtt.a(server_core.o)
 .text.proc_un_sub_msg_locked
                0x0000000020008abc       0x98 ../../../netapps/mqtt/gcc/lib/client_server/Release/libmqtt.a(server_core.o)
 .text.topic_node_create
                0x0000000020008b54      0x17c ../../../netapps/mqtt/gcc/lib/client_server/Release/libmqtt.a(server_core.o)
                0x0000000020008b54                topic_node_create
 .text._proc_pub_msg_rx
                0x0000000020008cd0      0x120 ../../../netapps/mqtt/gcc/lib/client_server/Release/libmqtt.a(server_core.o)
 .text.proc_app_pub_send_locked
                0x0000000020008df0       0x3a ../../../netapps/mqtt/gcc/lib/client_server/Release/libmqtt.a(server_core.o)
 .text.proc_pub_msg_rx_locked
                0x0000000020008e2a       0x1c ../../../netapps/mqtt/gcc/lib/client_server/Release/libmqtt.a(server_core.o)
 *fill*         0x0000000020008e46        0x2 
 .text.proc_topic_enroll_locked
                0x0000000020008e48       0x74 ../../../netapps/mqtt/gcc/lib/client_server/Release/libmqtt.a(server_core.o)
 .text.SUB_node_create
                0x0000000020008ebc       0x50 ../../../netapps/mqtt/gcc/lib/client_server/Release/libmqtt.a(server_core.o)
 .text.proc_sub_msg_rx_locked
                0x0000000020008f0c      0x3b0 ../../../netapps/mqtt/gcc/lib/client_server/Release/libmqtt.a(server_core.o)
 .text.proc_connect_rx_locked
                0x00000000200092bc       0xcc ../../../netapps/mqtt/gcc/lib/client_server/Release/libmqtt.a(server_core.o)
 .text.session_tree_delete
                0x0000000020009388       0x84 ../../../netapps/mqtt/gcc/lib/client_server/Release/libmqtt.a(server_core.o)
                0x0000000020009388                session_tree_delete
 .text.on_connack_send_locked
                0x000000002000940c       0x18 ../../../netapps/mqtt/gcc/lib/client_server/Release/libmqtt.a(server_core.o)
 .text.on_cl_net_close_locked
                0x0000000020009424       0xc0 ../../../netapps/mqtt/gcc/lib/client_server/Release/libmqtt.a(server_core.o)
 .text.mqtt_server_init
                0x00000000200094e4       0xb4 ../../../netapps/mqtt/gcc/lib/client_server/Release/libmqtt.a(server_core.o)
                0x00000000200094e4                mqtt_server_init
 .text.mqp_buf_rd_utf8
                0x0000000020009598       0x30 ../../../netapps/mqtt/gcc/lib/client_server/Release/libmqtt.a(server_pkts.o)
 .text.mqp_proc_vh_msg_id_rx.constprop.16
                0x00000000200095c8       0x38 ../../../netapps/mqtt/gcc/lib/client_server/Release/libmqtt.a(server_pkts.o)
 .text.loopb_trigger.constprop.19
                0x0000000020009600       0x74 ../../../netapps/mqtt/gcc/lib/client_server/Release/libmqtt.a(server_pkts.o)
 .text.cl_ctx_send
                0x0000000020009674       0x7c ../../../netapps/mqtt/gcc/lib/client_server/Release/libmqtt.a(server_pkts.o)
 .text.vh_msg_send
                0x00000000200096f0       0x48 ../../../netapps/mqtt/gcc/lib/client_server/Release/libmqtt.a(server_pkts.o)
 .text._mqtt_server_pub_dispatch
                0x0000000020009738       0x2c ../../../netapps/mqtt/gcc/lib/client_server/Release/libmqtt.a(server_pkts.o)
 .text.rx_timeout_update
                0x0000000020009764       0x38 ../../../netapps/mqtt/gcc/lib/client_server/Release/libmqtt.a(server_pkts.o)
 .text.do_net_close_rx
                0x000000002000979c       0x68 ../../../netapps/mqtt/gcc/lib/client_server/Release/libmqtt.a(server_pkts.o)
 .text.mqtt_vh_msg_send
                0x0000000020009804       0x18 ../../../netapps/mqtt/gcc/lib/client_server/Release/libmqtt.a(server_pkts.o)
                0x0000000020009804                mqtt_vh_msg_send
 .text.mqtt_server_pub_dispatch
                0x000000002000981c        0x4 ../../../netapps/mqtt/gcc/lib/client_server/Release/libmqtt.a(server_pkts.o)
                0x000000002000981c                mqtt_server_pub_dispatch
 .text.proc_connect_pl_rx
                0x0000000020009820       0x90 ../../../netapps/mqtt/gcc/lib/client_server/Release/libmqtt.a(server_pkts.o)
                0x0000000020009820                proc_connect_pl_rx
 .text.mqtt_server_run
                0x00000000200098b0      0x7c0 ../../../netapps/mqtt/gcc/lib/client_server/Release/libmqtt.a(server_pkts.o)
                0x00000000200098b0                mqtt_server_run
 .text.mqtt_server_register_net_svc
                0x000000002000a070       0x2c ../../../netapps/mqtt/gcc/lib/client_server/Release/libmqtt.a(server_pkts.o)
                0x000000002000a070                mqtt_server_register_net_svc
 .text.mqtt_server_lib_init
                0x000000002000a09c      0x108 ../../../netapps/mqtt/gcc/lib/client_server/Release/libmqtt.a(server_pkts.o)
                0x000000002000a09c                mqtt_server_lib_init
 .text.plugin_connect
                0x000000002000a1a4       0x20 ../../../netapps/mqtt/gcc/lib/client_server/Release/libmqtt.a(server_plug.o)
                0x000000002000a1a4                plugin_connect
 .text.plugin_publish
                0x000000002000a1c4       0x88 ../../../netapps/mqtt/gcc/lib/client_server/Release/libmqtt.a(server_plug.o)
                0x000000002000a1c4                plugin_publish
 .text.plugin_disconn
                0x000000002000a24c       0x14 ../../../netapps/mqtt/gcc/lib/client_server/Release/libmqtt.a(server_plug.o)
                0x000000002000a24c                plugin_disconn
 .text.mqtt_server_topic_enroll
                0x000000002000a260       0x18 ../../../netapps/mqtt/gcc/lib/client_server/Release/libmqtt.a(server_plug.o)
                0x000000002000a260                mqtt_server_topic_enroll
 .text.mqtt_server_app_pub_send
                0x000000002000a278       0x18 ../../../netapps/mqtt/gcc/lib/client_server/Release/libmqtt.a(server_plug.o)
                0x000000002000a278                mqtt_server_app_pub_send
 .text.mqtt_server_app_register
                0x000000002000a290       0xc4 ../../../netapps/mqtt/gcc/lib/client_server/Release/libmqtt.a(server_plug.o)
                0x000000002000a290                mqtt_server_app_register
 .text.plugin_init
                0x000000002000a354       0x88 ../../../netapps/mqtt/gcc/lib/client_server/Release/libmqtt.a(server_plug.o)
                0x000000002000a354                plugin_init
 .text.server_mqp_alloc
                0x000000002000a3dc       0x60 ../../../netapps/mqtt/gcc/lib/client_server/Release/libmqtt.a(server_util.o)
 .text.my_pkt_free
                0x000000002000a43c        0x4 ../../../netapps/mqtt/gcc/lib/client_server/Release/libmqtt.a(server_util.o)
 .text.mqp_new_id_server
                0x000000002000a440       0x10 ../../../netapps/mqtt/gcc/lib/client_server/Release/libmqtt.a(server_util.o)
                0x000000002000a440                mqp_new_id_server
 .text.mqp_server_alloc
                0x000000002000a450        0x6 ../../../netapps/mqtt/gcc/lib/client_server/Release/libmqtt.a(server_util.o)
                0x000000002000a450                mqp_server_alloc
 .text.mqp_server_copy
                0x000000002000a456       0x42 ../../../netapps/mqtt/gcc/lib/client_server/Release/libmqtt.a(server_util.o)
                0x000000002000a456                mqp_server_copy
 .text.util_mutex_lockin
                0x000000002000a498       0x18 ../../../netapps/mqtt/gcc/lib/client_server/Release/libmqtt.a(server_util.o)
                0x000000002000a498                util_mutex_lockin
 .text.util_mutex_unlock
                0x000000002000a4b0       0x18 ../../../netapps/mqtt/gcc/lib/client_server/Release/libmqtt.a(server_util.o)
                0x000000002000a4b0                util_mutex_unlock
 .text.util_params_set
                0x000000002000a4c8       0x24 ../../../netapps/mqtt/gcc/lib/client_server/Release/libmqtt.a(server_util.o)
                0x000000002000a4c8                util_params_set
 .text.wl_remove
                0x000000002000a4ec       0x1a ../../../netapps/mqtt/gcc/lib/client_server/Release/libmqtt.a(client_mgmt.o)
 *fill*         0x000000002000a506        0x2 
 .text.has_session_data
                0x000000002000a508       0x3c ../../../netapps/mqtt/gcc/lib/client_server/Release/libmqtt.a(client_mgmt.o)
 .text.cl_usr_free
                0x000000002000a544       0x2a ../../../netapps/mqtt/gcc/lib/client_server/Release/libmqtt.a(client_mgmt.o)
 .text.wl_qos2_mqp_count.isra.6
                0x000000002000a56e       0x24 ../../../netapps/mqtt/gcc/lib/client_server/Release/libmqtt.a(client_mgmt.o)
 *fill*         0x000000002000a592        0x2 
 .text.pub_dispatch
                0x000000002000a594      0x11c ../../../netapps/mqtt/gcc/lib/client_server/Release/libmqtt.a(client_mgmt.o)
 .text.wl_purge.isra.9
                0x000000002000a6b0       0x3c ../../../netapps/mqtt/gcc/lib/client_server/Release/libmqtt.a(client_mgmt.o)
 .text.session_delete
                0x000000002000a6ec       0x30 ../../../netapps/mqtt/gcc/lib/client_server/Release/libmqtt.a(client_mgmt.o)
 .text.cl_sub_count_add
                0x000000002000a71c       0x24 ../../../netapps/mqtt/gcc/lib/client_server/Release/libmqtt.a(client_mgmt.o)
                0x000000002000a71c                cl_sub_count_add
 .text.cl_sub_count_del
                0x000000002000a740       0x24 ../../../netapps/mqtt/gcc/lib/client_server/Release/libmqtt.a(client_mgmt.o)
                0x000000002000a740                cl_sub_count_del
 .text.cl_mgmt_qos2_pub_rx_update
                0x000000002000a764       0x2c ../../../netapps/mqtt/gcc/lib/client_server/Release/libmqtt.a(client_mgmt.o)
                0x000000002000a764                cl_mgmt_qos2_pub_rx_update
 .text.cl_bmap_get
                0x000000002000a790       0x18 ../../../netapps/mqtt/gcc/lib/client_server/Release/libmqtt.a(client_mgmt.o)
                0x000000002000a790                cl_bmap_get
 .text.cl_app_hndl_get
                0x000000002000a7a8       0x12 ../../../netapps/mqtt/gcc/lib/client_server/Release/libmqtt.a(client_mgmt.o)
                0x000000002000a7a8                cl_app_hndl_get
 .text.cl_will_hndl_get
                0x000000002000a7ba       0x12 ../../../netapps/mqtt/gcc/lib/client_server/Release/libmqtt.a(client_mgmt.o)
                0x000000002000a7ba                cl_will_hndl_get
 .text.cl_pub_dispatch
                0x000000002000a7cc        0x4 ../../../netapps/mqtt/gcc/lib/client_server/Release/libmqtt.a(client_mgmt.o)
                0x000000002000a7cc                cl_pub_dispatch
 .text.cl_can_session_delete
                0x000000002000a7d0       0x20 ../../../netapps/mqtt/gcc/lib/client_server/Release/libmqtt.a(client_mgmt.o)
                0x000000002000a7d0                cl_can_session_delete
 .text.cl_on_net_close
                0x000000002000a7f0       0x36 ../../../netapps/mqtt/gcc/lib/client_server/Release/libmqtt.a(client_mgmt.o)
                0x000000002000a7f0                cl_on_net_close
 *fill*         0x000000002000a826        0x2 
 .text.cl_notify_ack
                0x000000002000a828       0xf0 ../../../netapps/mqtt/gcc/lib/client_server/Release/libmqtt.a(client_mgmt.o)
                0x000000002000a828                cl_notify_ack
 .text.cl_connect_rx
                0x000000002000a918      0x114 ../../../netapps/mqtt/gcc/lib/client_server/Release/libmqtt.a(client_mgmt.o)
                0x000000002000a918                cl_connect_rx
 .text.cl_on_connack_send
                0x000000002000aa2c      0x120 ../../../netapps/mqtt/gcc/lib/client_server/Release/libmqtt.a(client_mgmt.o)
                0x000000002000aa2c                cl_on_connack_send
 .text.cl_mgmt_init
                0x000000002000ab4c       0x44 ../../../netapps/mqtt/gcc/lib/client_server/Release/libmqtt.a(client_mgmt.o)
                0x000000002000ab4c                cl_mgmt_init
 .text.sl_Start
                0x000000002000ab90       0xcc ../../../simplelink/gcc/lib/os/Release/libsimplelink.a(device.o)
                0x000000002000ab90                sl_Start
 .text._sl_HandleAsync_InitComplete
                0x000000002000ac5c       0x6c ../../../simplelink/gcc/lib/os/Release/libsimplelink.a(device.o)
                0x000000002000ac5c                _sl_HandleAsync_InitComplete
 .text._sl_HandleAsync_Stop
                0x000000002000acc8       0x38 ../../../simplelink/gcc/lib/os/Release/libsimplelink.a(device.o)
                0x000000002000acc8                _sl_HandleAsync_Stop
 .text.sl_Stop  0x000000002000ad00       0xa0 ../../../simplelink/gcc/lib/os/Release/libsimplelink.a(device.o)
                0x000000002000ad00                sl_Stop
 .text.sl_DevGet
                0x000000002000ada0       0x8c ../../../simplelink/gcc/lib/os/Release/libsimplelink.a(device.o)
                0x000000002000ada0                sl_DevGet
 .text._SlDrvDeviceEventHandler
                0x000000002000ae2c       0x66 ../../../simplelink/gcc/lib/os/Release/libsimplelink.a(device.o)
                0x000000002000ae2c                _SlDrvDeviceEventHandler
 *fill*         0x000000002000ae92        0x2 
 .text._SlAsyncEventGenericHandler
                0x000000002000ae94       0x54 ../../../simplelink/gcc/lib/os/Release/libsimplelink.a(driver.o)
 .text._SlRemoveFromList
                0x000000002000aee8       0x44 ../../../simplelink/gcc/lib/os/Release/libsimplelink.a(driver.o)
 .text._SlFindAndSetActiveObj
                0x000000002000af2c       0x94 ../../../simplelink/gcc/lib/os/Release/libsimplelink.a(driver.o)
 .text._SlDrvObjGlobalLockWaitForever
                0x000000002000afc0       0x2c ../../../simplelink/gcc/lib/os/Release/libsimplelink.a(driver.o)
 .text._SlDrvMsgWrite
                0x000000002000afec      0x108 ../../../simplelink/gcc/lib/os/Release/libsimplelink.a(driver.o)
 .text._SlDrvDriverCBDeinit
                0x000000002000b0f4       0xa0 ../../../simplelink/gcc/lib/os/Release/libsimplelink.a(driver.o)
                0x000000002000b0f4                _SlDrvDriverCBDeinit
 .text._SlDrvRxIrqHandler
                0x000000002000b194       0x44 ../../../simplelink/gcc/lib/os/Release/libsimplelink.a(driver.o)
                0x000000002000b194                _SlDrvRxIrqHandler
 .text._SlDrvCmdSend
                0x000000002000b1d8       0x74 ../../../simplelink/gcc/lib/os/Release/libsimplelink.a(driver.o)
                0x000000002000b1d8                _SlDrvCmdSend
 .text._SlDrvDispatchHttpServerEvents
                0x000000002000b24c        0x4 ../../../simplelink/gcc/lib/os/Release/libsimplelink.a(driver.o)
                0x000000002000b24c                _SlDrvDispatchHttpServerEvents
 .text._SlDrvSyncObjSignal
                0x000000002000b250        0x8 ../../../simplelink/gcc/lib/os/Release/libsimplelink.a(driver.o)
                0x000000002000b250                _SlDrvSyncObjSignal
 .text._SlDrvObjLockWaitForever
                0x000000002000b258        0xc ../../../simplelink/gcc/lib/os/Release/libsimplelink.a(driver.o)
                0x000000002000b258                _SlDrvObjLockWaitForever
 .text._SlDrvProtectionObjLockWaitForever
                0x000000002000b264       0x18 ../../../simplelink/gcc/lib/os/Release/libsimplelink.a(driver.o)
                0x000000002000b264                _SlDrvProtectionObjLockWaitForever
 .text._SlDrvObjUnLock
                0x000000002000b27c        0x8 ../../../simplelink/gcc/lib/os/Release/libsimplelink.a(driver.o)
                0x000000002000b27c                _SlDrvObjUnLock
 .text._SlDrvProtectionObjUnLock
                0x000000002000b284       0x14 ../../../simplelink/gcc/lib/os/Release/libsimplelink.a(driver.o)
                0x000000002000b284                _SlDrvProtectionObjUnLock
 .text._SlDrvReleasePoolObj
                0x000000002000b298       0xc0 ../../../simplelink/gcc/lib/os/Release/libsimplelink.a(driver.o)
                0x000000002000b298                _SlDrvReleasePoolObj
 .text._SlDrvGlobalObjUnLock
                0x000000002000b358       0x14 ../../../simplelink/gcc/lib/os/Release/libsimplelink.a(driver.o)
                0x000000002000b358                _SlDrvGlobalObjUnLock
 .text._SlDrvMemZero
                0x000000002000b36c        0x8 ../../../simplelink/gcc/lib/os/Release/libsimplelink.a(driver.o)
                0x000000002000b36c                _SlDrvMemZero
 .text._SlDrvDriverCBInit
                0x000000002000b374       0xe0 ../../../simplelink/gcc/lib/os/Release/libsimplelink.a(driver.o)
                0x000000002000b374                _SlDrvDriverCBInit
 .text._SlDrvResetCmdExt
                0x000000002000b454        0x6 ../../../simplelink/gcc/lib/os/Release/libsimplelink.a(driver.o)
                0x000000002000b454                _SlDrvResetCmdExt
 *fill*         0x000000002000b45a        0x2 
 .text._SlDrvSyncObjWaitForever
                0x000000002000b45c       0x20 ../../../simplelink/gcc/lib/os/Release/libsimplelink.a(driver.o)
                0x000000002000b45c                _SlDrvSyncObjWaitForever
 .text._SlDrvDataWriteOp
                0x000000002000b47c       0xe0 ../../../simplelink/gcc/lib/os/Release/libsimplelink.a(driver.o)
                0x000000002000b47c                _SlDrvDataWriteOp
 .text._SlDrvWaitForPoolObj
                0x000000002000b55c       0xc8 ../../../simplelink/gcc/lib/os/Release/libsimplelink.a(driver.o)
                0x000000002000b55c                _SlDrvWaitForPoolObj
 .text._SlDrvProtectAsyncRespSetting
                0x000000002000b624       0x30 ../../../simplelink/gcc/lib/os/Release/libsimplelink.a(driver.o)
                0x000000002000b624                _SlDrvProtectAsyncRespSetting
 .text._SlDriverHandleError
                0x000000002000b654       0x68 ../../../simplelink/gcc/lib/os/Release/libsimplelink.a(driver.o)
                0x000000002000b654                _SlDriverHandleError
 .text._SlDrvSyncObjWaitTimeout
                0x000000002000b6bc       0x34 ../../../simplelink/gcc/lib/os/Release/libsimplelink.a(driver.o)
                0x000000002000b6bc                _SlDrvSyncObjWaitTimeout
 .text._SlDrvDataReadOp
                0x000000002000b6f0      0x128 ../../../simplelink/gcc/lib/os/Release/libsimplelink.a(driver.o)
                0x000000002000b6f0                _SlDrvDataReadOp
 .text._SlDrvIsTimeoutExpired
                0x000000002000b818       0x48 ../../../simplelink/gcc/lib/os/Release/libsimplelink.a(driver.o)
                0x000000002000b818                _SlDrvIsTimeoutExpired
 .text._SlDrvMsgRead
                0x000000002000b860      0x520 ../../../simplelink/gcc/lib/os/Release/libsimplelink.a(driver.o)
 .text._SlDrvCmdOp
                0x000000002000bd80      0x158 ../../../simplelink/gcc/lib/os/Release/libsimplelink.a(driver.o)
                0x000000002000bd80                _SlDrvCmdOp
 .text._SlDrvBasicCmd
                0x000000002000bed8       0x32 ../../../simplelink/gcc/lib/os/Release/libsimplelink.a(driver.o)
                0x000000002000bed8                _SlDrvBasicCmd
 *fill*         0x000000002000bf0a        0x2 
 .text._SlDrvMsgReadSpawnCtx
                0x000000002000bf0c       0x78 ../../../simplelink/gcc/lib/os/Release/libsimplelink.a(driver.o)
                0x000000002000bf0c                _SlDrvMsgReadSpawnCtx
 .text.sl_NetAppMDNSRegisterUnregisterService
                0x000000002000bf84       0x98 ../../../simplelink/gcc/lib/os/Release/libsimplelink.a(netapp.o)
                0x000000002000bf84                sl_NetAppMDNSRegisterUnregisterService
 .text.sl_NetAppMDNSUnRegisterService
                0x000000002000c01c       0x38 ../../../simplelink/gcc/lib/os/Release/libsimplelink.a(netapp.o)
                0x000000002000c01c                sl_NetAppMDNSUnRegisterService
 .text._sl_HandleAsync_DnsGetHostByService
                0x000000002000c054       0x5c ../../../simplelink/gcc/lib/os/Release/libsimplelink.a(netapp.o)
                0x000000002000c054                _sl_HandleAsync_DnsGetHostByService
 .text.sl_NetAppDnsGetHostByName
                0x000000002000c0b0       0xcc ../../../simplelink/gcc/lib/os/Release/libsimplelink.a(netapp.o)
                0x000000002000c0b0                sl_NetAppDnsGetHostByName
 .text._sl_HandleAsync_DnsGetHostByName
                0x000000002000c17c       0x5c ../../../simplelink/gcc/lib/os/Release/libsimplelink.a(netapp.o)
                0x000000002000c17c                _sl_HandleAsync_DnsGetHostByName
 .text._sl_HandleAsync_PingResponse
                0x000000002000c1d8       0x7c ../../../simplelink/gcc/lib/os/Release/libsimplelink.a(netapp.o)
                0x000000002000c1d8                _sl_HandleAsync_PingResponse
 .text._sl_NetAppSendTokenValue
                0x000000002000c254       0x50 ../../../simplelink/gcc/lib/os/Release/libsimplelink.a(netapp.o)
                0x000000002000c254                _sl_NetAppSendTokenValue
 .text._SlDrvNetAppEventHandler
                0x000000002000c2a4       0xdc ../../../simplelink/gcc/lib/os/Release/libsimplelink.a(netapp.o)
                0x000000002000c2a4                _SlDrvNetAppEventHandler
 .text.sl_NetCfgSet
                0x000000002000c380       0x64 ../../../simplelink/gcc/lib/os/Release/libsimplelink.a(netcfg.o)
                0x000000002000c380                sl_NetCfgSet
 .text.sl_NetCfgGet
                0x000000002000c3e4       0x94 ../../../simplelink/gcc/lib/os/Release/libsimplelink.a(netcfg.o)
                0x000000002000c3e4                sl_NetCfgGet
 .text._sl_BuildAddress
                0x000000002000c478       0x28 ../../../simplelink/gcc/lib/os/Release/libsimplelink.a(socket.o)
 .text.sl_Socket
                0x000000002000c4a0       0x50 ../../../simplelink/gcc/lib/os/Release/libsimplelink.a(socket.o)
                0x000000002000c4a0                sl_Socket
 .text.sl_Close
                0x000000002000c4f0       0x40 ../../../simplelink/gcc/lib/os/Release/libsimplelink.a(socket.o)
                0x000000002000c4f0                sl_Close
 .text.sl_Bind  0x000000002000c530       0x80 ../../../simplelink/gcc/lib/os/Release/libsimplelink.a(socket.o)
                0x000000002000c530                sl_Bind
 .text.sl_SendTo
                0x000000002000c5b0       0xe8 ../../../simplelink/gcc/lib/os/Release/libsimplelink.a(socket.o)
                0x000000002000c5b0                sl_SendTo
 .text.sl_RecvFrom
                0x000000002000c698       0xc8 ../../../simplelink/gcc/lib/os/Release/libsimplelink.a(socket.o)
                0x000000002000c698                sl_RecvFrom
 .text.sl_Connect
                0x000000002000c760       0xf8 ../../../simplelink/gcc/lib/os/Release/libsimplelink.a(socket.o)
                0x000000002000c760                sl_Connect
 .text._sl_HandleAsync_Connect
                0x000000002000c858       0x54 ../../../simplelink/gcc/lib/os/Release/libsimplelink.a(socket.o)
                0x000000002000c858                _sl_HandleAsync_Connect
 .text.sl_Send  0x000000002000c8ac       0xd8 ../../../simplelink/gcc/lib/os/Release/libsimplelink.a(socket.o)
                0x000000002000c8ac                sl_Send
 .text.sl_Listen
                0x000000002000c984       0x44 ../../../simplelink/gcc/lib/os/Release/libsimplelink.a(socket.o)
                0x000000002000c984                sl_Listen
 .text.sl_Accept
                0x000000002000c9c8      0x114 ../../../simplelink/gcc/lib/os/Release/libsimplelink.a(socket.o)
                0x000000002000c9c8                sl_Accept
 .text.sl_Htonl
                0x000000002000cadc       0x22 ../../../simplelink/gcc/lib/os/Release/libsimplelink.a(socket.o)
                0x000000002000cadc                sl_Htonl
 .text.sl_Htons
                0x000000002000cafe       0x14 ../../../simplelink/gcc/lib/os/Release/libsimplelink.a(socket.o)
                0x000000002000cafe                sl_Htons
 *fill*         0x000000002000cb12        0x2 
 .text._sl_HandleAsync_Accept
                0x000000002000cb14       0x54 ../../../simplelink/gcc/lib/os/Release/libsimplelink.a(socket.o)
                0x000000002000cb14                _sl_HandleAsync_Accept
 .text._sl_HandleAsync_Select
                0x000000002000cb68       0x40 ../../../simplelink/gcc/lib/os/Release/libsimplelink.a(socket.o)
                0x000000002000cb68                _sl_HandleAsync_Select
 .text.sl_Recv  0x000000002000cba8       0x64 ../../../simplelink/gcc/lib/os/Release/libsimplelink.a(socket.o)
                0x000000002000cba8                sl_Recv
 .text.sl_SetSockOpt
                0x000000002000cc0c       0x6c ../../../simplelink/gcc/lib/os/Release/libsimplelink.a(socket.o)
                0x000000002000cc0c                sl_SetSockOpt
 .text.sl_Select
                0x000000002000cc78       0xf4 ../../../simplelink/gcc/lib/os/Release/libsimplelink.a(socket.o)
                0x000000002000cc78                sl_Select
 .text.SL_FD_SET
                0x000000002000cd6c       0x12 ../../../simplelink/gcc/lib/os/Release/libsimplelink.a(socket.o)
                0x000000002000cd6c                SL_FD_SET
 .text.SL_FD_ISSET
                0x000000002000cd7e       0x16 ../../../simplelink/gcc/lib/os/Release/libsimplelink.a(socket.o)
                0x000000002000cd7e                SL_FD_ISSET
 .text.SL_FD_ZERO
                0x000000002000cd94        0x6 ../../../simplelink/gcc/lib/os/Release/libsimplelink.a(socket.o)
                0x000000002000cd94                SL_FD_ZERO
 *fill*         0x000000002000cd9a        0x2 
 .text.sl_WlanConnect
                0x000000002000cd9c      0x1c0 ../../../simplelink/gcc/lib/os/Release/libsimplelink.a(wlan.o)
                0x000000002000cd9c                sl_WlanConnect
 .text.sl_WlanDisconnect
                0x000000002000cf5c       0x28 ../../../simplelink/gcc/lib/os/Release/libsimplelink.a(wlan.o)
                0x000000002000cf5c                sl_WlanDisconnect
 .text.sl_WlanPolicySet
                0x000000002000cf84       0x5c ../../../simplelink/gcc/lib/os/Release/libsimplelink.a(wlan.o)
                0x000000002000cf84                sl_WlanPolicySet
 .text.sl_WlanProfileDel
                0x000000002000cfe0       0x40 ../../../simplelink/gcc/lib/os/Release/libsimplelink.a(wlan.o)
                0x000000002000cfe0                sl_WlanProfileDel
 .text.sl_WlanRxFilterSet
                0x000000002000d020       0x58 ../../../simplelink/gcc/lib/os/Release/libsimplelink.a(wlan.o)
                0x000000002000d020                sl_WlanRxFilterSet
 .text.sl_WlanSetMode
                0x000000002000d078       0x40 ../../../simplelink/gcc/lib/os/Release/libsimplelink.a(wlan.o)
                0x000000002000d078                sl_WlanSetMode
 .text.sl_WlanSet
                0x000000002000d0b8       0x64 ../../../simplelink/gcc/lib/os/Release/libsimplelink.a(wlan.o)
                0x000000002000d0b8                sl_WlanSet
 .text.DmaSpiSwIntHandler
                0x000000002000d11c       0x38 ../../../simplelink/gcc/lib/os/Release/libsimplelink.a(cc_pal.o)
                0x000000002000d11c                DmaSpiSwIntHandler
 .text.cc_UDMAChannelSelect.part.0
                0x000000002000d154       0x1c ../../../simplelink/gcc/lib/os/Release/libsimplelink.a(cc_pal.o)
 .text.cc_SetupTransfer.constprop.1
                0x000000002000d170       0x48 ../../../simplelink/gcc/lib/os/Release/libsimplelink.a(cc_pal.o)
 .text.SetupDMAReceive
                0x000000002000d1b8       0x5c ../../../simplelink/gcc/lib/os/Release/libsimplelink.a(cc_pal.o)
 .text.spi_Open
                0x000000002000d214      0x13c ../../../simplelink/gcc/lib/os/Release/libsimplelink.a(cc_pal.o)
                0x000000002000d214                spi_Open
 .text.spi_Close
                0x000000002000d350       0x84 ../../../simplelink/gcc/lib/os/Release/libsimplelink.a(cc_pal.o)
                0x000000002000d350                spi_Close
 .text.spi_Read
                0x000000002000d3d4      0x100 ../../../simplelink/gcc/lib/os/Release/libsimplelink.a(cc_pal.o)
                0x000000002000d3d4                spi_Read
 .text.spi_Write
                0x000000002000d4d4       0xec ../../../simplelink/gcc/lib/os/Release/libsimplelink.a(cc_pal.o)
                0x000000002000d4d4                spi_Write
 .text.NwpRegisterInterruptHandler
                0x000000002000d5c0       0x28 ../../../simplelink/gcc/lib/os/Release/libsimplelink.a(cc_pal.o)
                0x000000002000d5c0                NwpRegisterInterruptHandler
 .text.NwpMaskInterrupt
                0x000000002000d5e8        0xc ../../../simplelink/gcc/lib/os/Release/libsimplelink.a(cc_pal.o)
                0x000000002000d5e8                NwpMaskInterrupt
 .text.NwpUnMaskInterrupt
                0x000000002000d5f4        0xc ../../../simplelink/gcc/lib/os/Release/libsimplelink.a(cc_pal.o)
                0x000000002000d5f4                NwpUnMaskInterrupt
 .text.NwpPowerOn
                0x000000002000d600       0x38 ../../../simplelink/gcc/lib/os/Release/libsimplelink.a(cc_pal.o)
                0x000000002000d600                NwpPowerOn
 .text.NwpPowerOff
                0x000000002000d638       0x3c ../../../simplelink/gcc/lib/os/Release/libsimplelink.a(cc_pal.o)
                0x000000002000d638                NwpPowerOff
 .text.NwpPowerOnPreamble
                0x000000002000d674       0x60 ../../../simplelink/gcc/lib/os/Release/libsimplelink.a(cc_pal.o)
                0x000000002000d674                NwpPowerOnPreamble
 .text.NwpPrePowerOffTimout0
                0x000000002000d6d4       0x20 ../../../simplelink/gcc/lib/os/Release/libsimplelink.a(cc_pal.o)
                0x000000002000d6d4                NwpPrePowerOffTimout0
 .text.simplelink_timerA2_start
                0x000000002000d6f4       0x4c ../../../simplelink/gcc/lib/os/Release/libsimplelink.a(cc_pal.o)
                0x000000002000d6f4                simplelink_timerA2_start
 .text.TimerGetCurrentTimestamp
                0x000000002000d740       0x24 ../../../simplelink/gcc/lib/os/Release/libsimplelink.a(cc_pal.o)
                0x000000002000d740                TimerGetCurrentTimestamp
 .text.vSimpleLinkSpawnTask
                0x000000002000d764       0x24 ../../../oslib/gcc/free_rtos/Release/free_rtos.a(osi_freertos.o)
 .text.osi_InterruptRegister
                0x000000002000d788       0x24 ../../../oslib/gcc/free_rtos/Release/free_rtos.a(osi_freertos.o)
                0x000000002000d788                osi_InterruptRegister
 .text.osi_InterruptDeRegister
                0x000000002000d7ac       0x18 ../../../oslib/gcc/free_rtos/Release/free_rtos.a(osi_freertos.o)
                0x000000002000d7ac                osi_InterruptDeRegister
 .text.osi_SyncObjCreate
                0x000000002000d7c4       0x22 ../../../oslib/gcc/free_rtos/Release/free_rtos.a(osi_freertos.o)
                0x000000002000d7c4                osi_SyncObjCreate
 .text.osi_SyncObjSignal
                0x000000002000d7e6       0x1a ../../../oslib/gcc/free_rtos/Release/free_rtos.a(osi_freertos.o)
                0x000000002000d7e6                osi_SyncObjSignal
 .text.osi_SyncObjSignalFromISR
                0x000000002000d800       0x30 ../../../oslib/gcc/free_rtos/Release/free_rtos.a(osi_freertos.o)
                0x000000002000d800                osi_SyncObjSignalFromISR
 .text.osi_LockObjCreate
                0x000000002000d830       0x18 ../../../oslib/gcc/free_rtos/Release/free_rtos.a(osi_freertos.o)
                0x000000002000d830                osi_LockObjCreate
 .text.osi_TaskCreate
                0x000000002000d848       0x24 ../../../oslib/gcc/free_rtos/Release/free_rtos.a(osi_freertos.o)
                0x000000002000d848                osi_TaskCreate
 .text.osi_TaskDelete
                0x000000002000d86c        0x6 ../../../oslib/gcc/free_rtos/Release/free_rtos.a(osi_freertos.o)
                0x000000002000d86c                osi_TaskDelete
 .text.osi_LockObjDelete
                0x000000002000d872        0xc ../../../oslib/gcc/free_rtos/Release/free_rtos.a(osi_freertos.o)
                0x000000002000d872                osi_LockObjDelete
 .text.osi_LockObjLock
                0x000000002000d87e       0x20 ../../../oslib/gcc/free_rtos/Release/free_rtos.a(osi_freertos.o)
                0x000000002000d87e                osi_LockObjLock
 .text.osi_SyncObjWait
                0x000000002000d89e        0x4 ../../../oslib/gcc/free_rtos/Release/free_rtos.a(osi_freertos.o)
                0x000000002000d89e                osi_SyncObjWait
 .text.osi_LockObjUnlock
                0x000000002000d8a2       0x20 ../../../oslib/gcc/free_rtos/Release/free_rtos.a(osi_freertos.o)
                0x000000002000d8a2                osi_LockObjUnlock
 *fill*         0x000000002000d8c2        0x2 
 .text.osi_Spawn
                0x000000002000d8c4       0x3c ../../../oslib/gcc/free_rtos/Release/free_rtos.a(osi_freertos.o)
                0x000000002000d8c4                osi_Spawn
 .text.VStartSimpleLinkSpawnTask
                0x000000002000d900       0x50 ../../../oslib/gcc/free_rtos/Release/free_rtos.a(osi_freertos.o)
                0x000000002000d900                VStartSimpleLinkSpawnTask
 .text.osi_MsgQCreate
                0x000000002000d950       0x22 ../../../oslib/gcc/free_rtos/Release/free_rtos.a(osi_freertos.o)
                0x000000002000d950                osi_MsgQCreate
 .text.osi_MsgQDelete
                0x000000002000d972       0x14 ../../../oslib/gcc/free_rtos/Release/free_rtos.a(osi_freertos.o)
                0x000000002000d972                osi_MsgQDelete
 .text.osi_SyncObjDelete
                0x000000002000d986        0x4 ../../../oslib/gcc/free_rtos/Release/free_rtos.a(osi_freertos.o)
                0x000000002000d986                osi_SyncObjDelete
 *fill*         0x000000002000d98a        0x2 
 .text.osi_MsgQWrite
                0x000000002000d98c       0x28 ../../../oslib/gcc/free_rtos/Release/free_rtos.a(osi_freertos.o)
                0x000000002000d98c                osi_MsgQWrite
 .text.osi_MsgQRead
                0x000000002000d9b4       0x1c ../../../oslib/gcc/free_rtos/Release/free_rtos.a(osi_freertos.o)
                0x000000002000d9b4                osi_MsgQRead
 .text.osi_EnterCritical
                0x000000002000d9d0        0xa ../../../oslib/gcc/free_rtos/Release/free_rtos.a(osi_freertos.o)
                0x000000002000d9d0                osi_EnterCritical
 .text.osi_ExitCritical
                0x000000002000d9da        0x4 ../../../oslib/gcc/free_rtos/Release/free_rtos.a(osi_freertos.o)
                0x000000002000d9da                osi_ExitCritical
 .text.osi_start
                0x000000002000d9de        0x4 ../../../oslib/gcc/free_rtos/Release/free_rtos.a(osi_freertos.o)
                0x000000002000d9de                osi_start
 .text.osi_Sleep
                0x000000002000d9e2        0x4 ../../../oslib/gcc/free_rtos/Release/free_rtos.a(osi_freertos.o)
                0x000000002000d9e2                osi_Sleep
 .text.prvCopyDataToQueue
                0x000000002000d9e6       0x6a ../../../oslib/gcc/free_rtos/Release/free_rtos.a(queue.o)
 .text.prvNotifyQueueSetContainer
                0x000000002000da50       0x68 ../../../oslib/gcc/free_rtos/Release/free_rtos.a(queue.o)
 .text.prvCopyDataFromQueue
                0x000000002000dab8       0x26 ../../../oslib/gcc/free_rtos/Release/free_rtos.a(queue.o)
 .text.prvUnlockQueue
                0x000000002000dade       0x7c ../../../oslib/gcc/free_rtos/Release/free_rtos.a(queue.o)
 *fill*         0x000000002000db5a        0x2 
 .text.xQueueGenericReset
                0x000000002000db5c       0x6c ../../../oslib/gcc/free_rtos/Release/free_rtos.a(queue.o)
                0x000000002000db5c                xQueueGenericReset
 .text.xQueueGenericCreate
                0x000000002000dbc8       0x60 ../../../oslib/gcc/free_rtos/Release/free_rtos.a(queue.o)
                0x000000002000dbc8                xQueueGenericCreate
 .text.xQueueGenericSend
                0x000000002000dc28      0x144 ../../../oslib/gcc/free_rtos/Release/free_rtos.a(queue.o)
                0x000000002000dc28                xQueueGenericSend
 .text.xQueueCreateMutex
                0x000000002000dd6c       0x5c ../../../oslib/gcc/free_rtos/Release/free_rtos.a(queue.o)
                0x000000002000dd6c                xQueueCreateMutex
 .text.xQueueGenericSendFromISR
                0x000000002000ddc8       0xb4 ../../../oslib/gcc/free_rtos/Release/free_rtos.a(queue.o)
                0x000000002000ddc8                xQueueGenericSendFromISR
 .text.xQueueGiveFromISR
                0x000000002000de7c       0x98 ../../../oslib/gcc/free_rtos/Release/free_rtos.a(queue.o)
                0x000000002000de7c                xQueueGiveFromISR
 .text.xQueueGenericReceive
                0x000000002000df14      0x14c ../../../oslib/gcc/free_rtos/Release/free_rtos.a(queue.o)
                0x000000002000df14                xQueueGenericReceive
 .text.vQueueAddToRegistry
                0x000000002000e060       0x28 ../../../oslib/gcc/free_rtos/Release/free_rtos.a(queue.o)
                0x000000002000e060                vQueueAddToRegistry
 .text.vQueueUnregisterQueue
                0x000000002000e088       0x24 ../../../oslib/gcc/free_rtos/Release/free_rtos.a(queue.o)
                0x000000002000e088                vQueueUnregisterQueue
 .text.vQueueDelete
                0x000000002000e0ac       0x24 ../../../oslib/gcc/free_rtos/Release/free_rtos.a(queue.o)
                0x000000002000e0ac                vQueueDelete
 .text.vQueueWaitForMessageRestricted
                0x000000002000e0d0       0x3a ../../../oslib/gcc/free_rtos/Release/free_rtos.a(queue.o)
                0x000000002000e0d0                vQueueWaitForMessageRestricted
 *fill*         0x000000002000e10a        0x2 
 .text.prvResetNextTaskUnblockTime
                0x000000002000e10c       0x24 ../../../oslib/gcc/free_rtos/Release/free_rtos.a(tasks.o)
 .text.prvAddCurrentTaskToDelayedList
                0x000000002000e130       0x50 ../../../oslib/gcc/free_rtos/Release/free_rtos.a(tasks.o)
 .text.xTaskGenericCreate
                0x000000002000e180      0x1d4 ../../../oslib/gcc/free_rtos/Release/free_rtos.a(tasks.o)
                0x000000002000e180                xTaskGenericCreate
 .text.vTaskDelete
                0x000000002000e354       0xb8 ../../../oslib/gcc/free_rtos/Release/free_rtos.a(tasks.o)
                0x000000002000e354                vTaskDelete
 .text.vTaskStartScheduler
                0x000000002000e40c       0x70 ../../../oslib/gcc/free_rtos/Release/free_rtos.a(tasks.o)
                0x000000002000e40c                vTaskStartScheduler
 .text.vTaskSuspendAll
                0x000000002000e47c       0x10 ../../../oslib/gcc/free_rtos/Release/free_rtos.a(tasks.o)
                0x000000002000e47c                vTaskSuspendAll
 .text.xTaskGetTickCount
                0x000000002000e48c        0xc ../../../oslib/gcc/free_rtos/Release/free_rtos.a(tasks.o)
                0x000000002000e48c                xTaskGetTickCount
 .text.xTaskIncrementTick
                0x000000002000e498      0x104 ../../../oslib/gcc/free_rtos/Release/free_rtos.a(tasks.o)
                0x000000002000e498                xTaskIncrementTick
 .text.xTaskResumeAll
                0x000000002000e59c       0xd8 ../../../oslib/gcc/free_rtos/Release/free_rtos.a(tasks.o)
                0x000000002000e59c                xTaskResumeAll
 .text.vTaskDelay
                0x000000002000e674       0x6c ../../../oslib/gcc/free_rtos/Release/free_rtos.a(tasks.o)
                0x000000002000e674                vTaskDelay
 .text.prvIdleTask
                0x000000002000e6e0       0x5c ../../../oslib/gcc/free_rtos/Release/free_rtos.a(tasks.o)
 .text.vTaskSwitchContext
                0x000000002000e73c       0xa8 ../../../oslib/gcc/free_rtos/Release/free_rtos.a(tasks.o)
                0x000000002000e73c                vTaskSwitchContext
 .text.vTaskPlaceOnEventList
                0x000000002000e7e4       0x70 ../../../oslib/gcc/free_rtos/Release/free_rtos.a(tasks.o)
                0x000000002000e7e4                vTaskPlaceOnEventList
 .text.vTaskPlaceOnEventListRestricted
                0x000000002000e854       0x58 ../../../oslib/gcc/free_rtos/Release/free_rtos.a(tasks.o)
                0x000000002000e854                vTaskPlaceOnEventListRestricted
 .text.xTaskRemoveFromEventList
                0x000000002000e8ac       0x80 ../../../oslib/gcc/free_rtos/Release/free_rtos.a(tasks.o)
                0x000000002000e8ac                xTaskRemoveFromEventList
 .text.vTaskSetTimeOutState
                0x000000002000e92c       0x2c ../../../oslib/gcc/free_rtos/Release/free_rtos.a(tasks.o)
                0x000000002000e92c                vTaskSetTimeOutState
 .text.xTaskCheckForTimeOut
                0x000000002000e958       0x68 ../../../oslib/gcc/free_rtos/Release/free_rtos.a(tasks.o)
                0x000000002000e958                xTaskCheckForTimeOut
 .text.vTaskMissedYield
                0x000000002000e9c0        0xc ../../../oslib/gcc/free_rtos/Release/free_rtos.a(tasks.o)
                0x000000002000e9c0                vTaskMissedYield
 .text.xTaskGetSchedulerState
                0x000000002000e9cc       0x20 ../../../oslib/gcc/free_rtos/Release/free_rtos.a(tasks.o)
                0x000000002000e9cc                xTaskGetSchedulerState
 .text.vTaskPriorityInherit
                0x000000002000e9ec       0x8c ../../../oslib/gcc/free_rtos/Release/free_rtos.a(tasks.o)
                0x000000002000e9ec                vTaskPriorityInherit
 .text.xTaskPriorityDisinherit
                0x000000002000ea78       0x98 ../../../oslib/gcc/free_rtos/Release/free_rtos.a(tasks.o)
                0x000000002000ea78                xTaskPriorityDisinherit
 .text.pvTaskIncrementMutexHeldCount
                0x000000002000eb10       0x18 ../../../oslib/gcc/free_rtos/Release/free_rtos.a(tasks.o)
                0x000000002000eb10                pvTaskIncrementMutexHeldCount
 .text.prvPortStartFirstTask
                0x000000002000eb28       0x20 ../../../oslib/gcc/free_rtos/Release/free_rtos.a(port.o)
 .text.pxPortInitialiseStack
                0x000000002000eb48       0x1c ../../../oslib/gcc/free_rtos/Release/free_rtos.a(port.o)
                0x000000002000eb48                pxPortInitialiseStack
 .text.vPortSVCHandler
                0x000000002000eb64       0x24 ../../../oslib/gcc/free_rtos/Release/free_rtos.a(port.o)
                0x000000002000eb64                vPortSVCHandler
 .text.vPortYield
                0x000000002000eb88       0x18 ../../../oslib/gcc/free_rtos/Release/free_rtos.a(port.o)
                0x000000002000eb88                vPortYield
 .text.ulPortSetInterruptMask
                0x000000002000eba0       0x10 ../../../oslib/gcc/free_rtos/Release/free_rtos.a(port.o)
                0x000000002000eba0                ulPortSetInterruptMask
 .text.prvTaskExitError
                0x000000002000ebb0       0x20 ../../../oslib/gcc/free_rtos/Release/free_rtos.a(port.o)
 .text.vPortEnterCritical
                0x000000002000ebd0       0x40 ../../../oslib/gcc/free_rtos/Release/free_rtos.a(port.o)
                0x000000002000ebd0                vPortEnterCritical
 .text.vPortClearInterruptMask
                0x000000002000ec10        0x6 ../../../oslib/gcc/free_rtos/Release/free_rtos.a(port.o)
                0x000000002000ec10                vPortClearInterruptMask
 *fill*         0x000000002000ec16        0x2 
 .text.vPortExitCritical
                0x000000002000ec18       0x2c ../../../oslib/gcc/free_rtos/Release/free_rtos.a(port.o)
                0x000000002000ec18                vPortExitCritical
 .text.xPortPendSVHandler
                0x000000002000ec44       0x44 ../../../oslib/gcc/free_rtos/Release/free_rtos.a(port.o)
                0x000000002000ec44                xPortPendSVHandler
 .text.xPortSysTickHandler
                0x000000002000ec88       0x24 ../../../oslib/gcc/free_rtos/Release/free_rtos.a(port.o)
                0x000000002000ec88                xPortSysTickHandler
 .text.vPortSetupTimerInterrupt
                0x000000002000ecac       0x18 ../../../oslib/gcc/free_rtos/Release/free_rtos.a(port.o)
                0x000000002000ecac                vPortSetupTimerInterrupt
 .text.xPortStartScheduler
                0x000000002000ecc4       0x98 ../../../oslib/gcc/free_rtos/Release/free_rtos.a(port.o)
                0x000000002000ecc4                xPortStartScheduler
 .text.vPortValidateInterruptPriority
                0x000000002000ed5c       0x54 ../../../oslib/gcc/free_rtos/Release/free_rtos.a(port.o)
                0x000000002000ed5c                vPortValidateInterruptPriority
 .text.prvCheckForValidListAndQueue
                0x000000002000edb0       0x6c ../../../oslib/gcc/free_rtos/Release/free_rtos.a(timers.o)
 .text.prvInsertTimerInActiveList
                0x000000002000ee1c       0x3c ../../../oslib/gcc/free_rtos/Release/free_rtos.a(timers.o)
 .text.xTimerCreateTimerTask
                0x000000002000ee58       0x50 ../../../oslib/gcc/free_rtos/Release/free_rtos.a(timers.o)
                0x000000002000ee58                xTimerCreateTimerTask
 .text.xTimerGenericCommand
                0x000000002000eea8       0x44 ../../../oslib/gcc/free_rtos/Release/free_rtos.a(timers.o)
                0x000000002000eea8                xTimerGenericCommand
 .text.prvSwitchTimerLists
                0x000000002000eeec       0x7c ../../../oslib/gcc/free_rtos/Release/free_rtos.a(timers.o)
 .text.prvTimerTask
                0x000000002000ef68      0x190 ../../../oslib/gcc/free_rtos/Release/free_rtos.a(timers.o)
 .text.pvPortMalloc
                0x000000002000f0f8       0x1e ../../../oslib/gcc/free_rtos/Release/free_rtos.a(heap_3.o)
                0x000000002000f0f8                pvPortMalloc
 .text.vPortFree
                0x000000002000f116       0x1a ../../../oslib/gcc/free_rtos/Release/free_rtos.a(heap_3.o)
                0x000000002000f116                vPortFree
 .text.vListInitialise
                0x000000002000f130       0x16 ../../../oslib/gcc/free_rtos/Release/free_rtos.a(list.o)
                0x000000002000f130                vListInitialise
 .text.vListInitialiseItem
                0x000000002000f146        0x6 ../../../oslib/gcc/free_rtos/Release/free_rtos.a(list.o)
                0x000000002000f146                vListInitialiseItem
 .text.vListInsertEnd
                0x000000002000f14c       0x18 ../../../oslib/gcc/free_rtos/Release/free_rtos.a(list.o)
                0x000000002000f14c                vListInsertEnd
 .text.vListInsert
                0x000000002000f164       0x30 ../../../oslib/gcc/free_rtos/Release/free_rtos.a(list.o)
                0x000000002000f164                vListInsert
 .text.uxListRemove
                0x000000002000f194       0x20 ../../../oslib/gcc/free_rtos/Release/free_rtos.a(list.o)
                0x000000002000f194                uxListRemove
 .text.GPIOIntStatus
                0x000000002000f1b4        0xe ../../../driverlib/gcc/lib/Release/libdriver.a(gpio.o)
                0x000000002000f1b4                GPIOIntStatus
 .text.IntMasterEnable
                0x000000002000f1c2        0xa ../../../driverlib/gcc/lib/Release/libdriver.a(interrupt.o)
                0x000000002000f1c2                IntMasterEnable
 .text.IntVTableBaseSet
                0x000000002000f1cc        0xc ../../../driverlib/gcc/lib/Release/libdriver.a(interrupt.o)
                0x000000002000f1cc                IntVTableBaseSet
 .text.IntEnable
                0x000000002000f1d8       0x68 ../../../driverlib/gcc/lib/Release/libdriver.a(interrupt.o)
                0x000000002000f1d8                IntEnable
 .text.IntDisable
                0x000000002000f240       0x68 ../../../driverlib/gcc/lib/Release/libdriver.a(interrupt.o)
                0x000000002000f240                IntDisable
 .text.IsRTCUsed
                0x000000002000f2a8       0x18 ../../../driverlib/gcc/lib/Release/libdriver.a(prcm.o)
 .text.PRCMSysResetCauseGet
                0x000000002000f2c0       0x2c ../../../driverlib/gcc/lib/Release/libdriver.a(prcm.o)
                0x000000002000f2c0                PRCMSysResetCauseGet
 .text.PRCMPeripheralClkEnable
                0x000000002000f2ec       0x2c ../../../driverlib/gcc/lib/Release/libdriver.a(prcm.o)
                0x000000002000f2ec                PRCMPeripheralClkEnable
 .text.PRCMPeripheralClkDisable
                0x000000002000f318       0x1c ../../../driverlib/gcc/lib/Release/libdriver.a(prcm.o)
                0x000000002000f318                PRCMPeripheralClkDisable
 .text.PRCMPeripheralReset
                0x000000002000f334       0x40 ../../../driverlib/gcc/lib/Release/libdriver.a(prcm.o)
                0x000000002000f334                PRCMPeripheralReset
 .text.PRCMPeripheralStatusGet
                0x000000002000f374       0x1c ../../../driverlib/gcc/lib/Release/libdriver.a(prcm.o)
                0x000000002000f374                PRCMPeripheralStatusGet
 .text.PRCMSlowClkCtrGet
                0x000000002000f390       0x40 ../../../driverlib/gcc/lib/Release/libdriver.a(prcm.o)
                0x000000002000f390                PRCMSlowClkCtrGet
 .text.PRCMRTCInUseSet
                0x000000002000f3d0       0x20 ../../../driverlib/gcc/lib/Release/libdriver.a(prcm.o)
                0x000000002000f3d0                PRCMRTCInUseSet
 .text.PRCMRTCGet
                0x000000002000f3f0       0x64 ../../../driverlib/gcc/lib/Release/libdriver.a(prcm.o)
                0x000000002000f3f0                PRCMRTCGet
 .text.PRCMCC3200MCUInit
                0x000000002000f454      0x150 ../../../driverlib/gcc/lib/Release/libdriver.a(prcm.o)
                0x000000002000f454                PRCMCC3200MCUInit
 .text.SPIConfigSetExpClk
                0x000000002000f5a4       0x5a ../../../driverlib/gcc/lib/Release/libdriver.a(spi.o)
                0x000000002000f5a4                SPIConfigSetExpClk
 .text.SPIFIFODisable
                0x000000002000f5fe        0xe ../../../driverlib/gcc/lib/Release/libdriver.a(spi.o)
                0x000000002000f5fe                SPIFIFODisable
 .text.SPIDmaDisable
                0x000000002000f60c        0x4 ../../../driverlib/gcc/lib/Release/libdriver.a(spi.o)
                0x000000002000f60c                SPIDmaDisable
 .text.TimerConfigure
                0x000000002000f610       0x28 ../../../driverlib/gcc/lib/Release/libdriver.a(timer.o)
                0x000000002000f610                TimerConfigure
 .text.TimerIntStatus
                0x000000002000f638        0xa ../../../driverlib/gcc/lib/Release/libdriver.a(timer.o)
                0x000000002000f638                TimerIntStatus
 .text.TimerIntClear
                0x000000002000f642        0x4 ../../../driverlib/gcc/lib/Release/libdriver.a(timer.o)
                0x000000002000f642                TimerIntClear
 .text.UtilsDelay
                0x000000002000f646        0x8 ../../../driverlib/gcc/lib/Release/libdriver.a(utils.o)
                0x000000002000f646                UtilsDelay
 .text.CPUcpsie
                0x000000002000f64e       0x10 ../../../driverlib/gcc/lib/Release/libdriver.a(cpu.o)
                0x000000002000f64e                CPUcpsie
 .text.atoi     0x000000002000f65e        0x8 /usr/lib/gcc/arm-none-eabi/5.2.0/../../../../arm-none-eabi/lib/armv7e-m/libc_nano.a(lib_a-atoi.o)
                0x000000002000f65e                atoi
 *fill*         0x000000002000f666        0x2 
 .text.malloc   0x000000002000f668       0x10 /usr/lib/gcc/arm-none-eabi/5.2.0/../../../../arm-none-eabi/lib/armv7e-m/libc_nano.a(lib_a-malloc.o)
                0x000000002000f668                malloc
 .text.free     0x000000002000f678       0x10 /usr/lib/gcc/arm-none-eabi/5.2.0/../../../../arm-none-eabi/lib/armv7e-m/libc_nano.a(lib_a-malloc.o)
                0x000000002000f678                free
 .text.memcmp   0x000000002000f688       0x1e /usr/lib/gcc/arm-none-eabi/5.2.0/../../../../arm-none-eabi/lib/armv7e-m/libc_nano.a(lib_a-memcmp.o)
                0x000000002000f688                memcmp
 .text.memcpy   0x000000002000f6a6       0x16 /usr/lib/gcc/arm-none-eabi/5.2.0/../../../../arm-none-eabi/lib/armv7e-m/libc_nano.a(lib_a-memcpy.o)
                0x000000002000f6a6                memcpy
 .text.memmove  0x000000002000f6bc       0x36 /usr/lib/gcc/arm-none-eabi/5.2.0/../../../../arm-none-eabi/lib/armv7e-m/libc_nano.a(lib_a-memmove.o)
                0x000000002000f6bc                memmove
 .text.memset   0x000000002000f6f2       0x10 /usr/lib/gcc/arm-none-eabi/5.2.0/../../../../arm-none-eabi/lib/armv7e-m/libc_nano.a(lib_a-memset.o)
                0x000000002000f6f2                memset
 *fill*         0x000000002000f702        0x2 
 .text._free_r  0x000000002000f704       0x8c /usr/lib/gcc/arm-none-eabi/5.2.0/../../../../arm-none-eabi/lib/armv7e-m/libc_nano.a(lib_a-nano-freer.o)
                0x000000002000f704                _free_r
 .text._malloc_r
                0x000000002000f790       0xa8 /usr/lib/gcc/arm-none-eabi/5.2.0/../../../../arm-none-eabi/lib/armv7e-m/libc_nano.a(lib_a-nano-mallocr.o)
                0x000000002000f790                _malloc_r
 .text.realloc  0x000000002000f838       0x10 /usr/lib/gcc/arm-none-eabi/5.2.0/../../../../arm-none-eabi/lib/armv7e-m/libc_nano.a(lib_a-realloc.o)
                0x000000002000f838                realloc
 .text._sbrk_r  0x000000002000f848       0x20 /usr/lib/gcc/arm-none-eabi/5.2.0/../../../../arm-none-eabi/lib/armv7e-m/libc_nano.a(lib_a-sbrkr.o)
                0x000000002000f848                _sbrk_r
 .text          0x000000002000f868       0x14 /usr/lib/gcc/arm-none-eabi/5.2.0/../../../../arm-none-eabi/lib/armv7e-m/libc_nano.a(lib_a-strcmp.o)
                0x000000002000f868                strcmp
 .text.strcpy   0x000000002000f87c       0x10 /usr/lib/gcc/arm-none-eabi/5.2.0/../../../../arm-none-eabi/lib/armv7e-m/libc_nano.a(lib_a-strcpy.o)
                0x000000002000f87c                strcpy
 .text.strlen   0x000000002000f88c       0x10 /usr/lib/gcc/arm-none-eabi/5.2.0/../../../../arm-none-eabi/lib/armv7e-m/libc_nano.a(lib_a-strlen.o)
                0x000000002000f88c                strlen
 .text.strncmp  0x000000002000f89c       0x2a /usr/lib/gcc/arm-none-eabi/5.2.0/../../../../arm-none-eabi/lib/armv7e-m/libc_nano.a(lib_a-strncmp.o)
                0x000000002000f89c                strncmp
 .text.strncpy  0x000000002000f8c6       0x26 /usr/lib/gcc/arm-none-eabi/5.2.0/../../../../arm-none-eabi/lib/armv7e-m/libc_nano.a(lib_a-strncpy.o)
                0x000000002000f8c6                strncpy
 .text.strtok   0x000000002000f8ec       0x64 /usr/lib/gcc/arm-none-eabi/5.2.0/../../../../arm-none-eabi/lib/armv7e-m/libc_nano.a(lib_a-strtok.o)
                0x000000002000f8ec                strtok
 .text.__strtok_r
                0x000000002000f950       0x56 /usr/lib/gcc/arm-none-eabi/5.2.0/../../../../arm-none-eabi/lib/armv7e-m/libc_nano.a(lib_a-strtok_r.o)
                0x000000002000f950                __strtok_r
 *fill*         0x000000002000f9a6        0x2 
 .text._strtol_r
                0x000000002000f9a8      0x10c /usr/lib/gcc/arm-none-eabi/5.2.0/../../../../arm-none-eabi/lib/armv7e-m/libc_nano.a(lib_a-strtol.o)
                0x000000002000f9a8                _strtol_r
 .text.strtol   0x000000002000fab4       0x14 /usr/lib/gcc/arm-none-eabi/5.2.0/../../../../arm-none-eabi/lib/armv7e-m/libc_nano.a(lib_a-strtol.o)
                0x000000002000fab4                strtol
 .text._vsnprintf_r
                0x000000002000fac8       0x56 /usr/lib/gcc/arm-none-eabi/5.2.0/../../../../arm-none-eabi/lib/armv7e-m/libc_nano.a(lib_a-vsnprintf.o)
                0x000000002000fac8                _vsnprintf_r
                0x000000002000fac8                _vsniprintf_r
 *fill*         0x000000002000fb1e        0x2 
 .text.vsnprintf
                0x000000002000fb20       0x1c /usr/lib/gcc/arm-none-eabi/5.2.0/../../../../arm-none-eabi/lib/armv7e-m/libc_nano.a(lib_a-vsnprintf.o)
                0x000000002000fb20                vsnprintf
                0x000000002000fb20                vsniprintf
 .text._realloc_r
                0x000000002000fb3c       0x4c /usr/lib/gcc/arm-none-eabi/5.2.0/../../../../arm-none-eabi/lib/armv7e-m/libc_nano.a(lib_a-nano-reallocr.o)
                0x000000002000fb3c                _realloc_r
 .text.__ssputs_r
                0x000000002000fb88       0xb2 /usr/lib/gcc/arm-none-eabi/5.2.0/../../../../arm-none-eabi/lib/armv7e-m/libc_nano.a(lib_a-nano-svfprintf.o)
                0x000000002000fb88                __ssputs_r
 *fill*         0x000000002000fc3a        0x2 
 .text._svfprintf_r
                0x000000002000fc3c      0x1e8 /usr/lib/gcc/arm-none-eabi/5.2.0/../../../../arm-none-eabi/lib/armv7e-m/libc_nano.a(lib_a-nano-svfprintf.o)
                0x000000002000fc3c                _svfprintf_r
                0x000000002000fc3c                _svfiprintf_r
 .text._printf_common
                0x000000002000fe24       0xec /usr/lib/gcc/arm-none-eabi/5.2.0/../../../../arm-none-eabi/lib/armv7e-m/libc_nano.a(lib_a-nano-vfprintf_i.o)
                0x000000002000fe24                _printf_common
 .text._printf_i
                0x000000002000ff10      0x24c /usr/lib/gcc/arm-none-eabi/5.2.0/../../../../arm-none-eabi/lib/armv7e-m/libc_nano.a(lib_a-nano-vfprintf_i.o)
                0x000000002000ff10                _printf_i
 .text.memchr   0x000000002001015c       0x1e /usr/lib/gcc/arm-none-eabi/5.2.0/../../../../arm-none-eabi/lib/armv7e-m/libc_nano.a(lib_a-memchr.o)
                0x000000002001015c                memchr
 .text._malloc_usable_size_r
                0x000000002001017a       0x14 /usr/lib/gcc/arm-none-eabi/5.2.0/../../../../arm-none-eabi/lib/armv7e-m/libc_nano.a(lib_a-nano-msizer.o)
                0x000000002001017a                _malloc_usable_size_r
 *(.rodata*)
 .rodata.str1.1
                0x000000002001018e      0x331 obj/Release/main.o
                                        0x332 (size before relaxing)
 .rodata.__FUNCTION__.7330
                0x00000000200104bf        0x5 obj/Release/main.o
 .rodata.str1.1
                0x00000000200104c4      0x117 obj/Release/server_client_cbs.o
                                        0x139 (size before relaxing)
 .rodata.str1.1
                0x00000000200105db       0x24 obj/Release/uart_if.o
                                         0x27 (size before relaxing)
 .rodata.__FUNCTION__.5920
                0x00000000200105ff       0x22 obj/Release/network_if.o
 .rodata.__FUNCTION__.5983
                0x0000000020010621       0x17 obj/Release/network_if.o
 .rodata.str1.1
                0x0000000020010638      0x689 obj/Release/network_if.o
                                        0x6b7 (size before relaxing)
 .rodata.__FUNCTION__.5933
                0x0000000020010cc1       0x16 obj/Release/network_if.o
 .rodata.__FUNCTION__.5953
                0x0000000020010cd7       0x15 obj/Release/network_if.o
 .rodata        0x0000000020010cec        0x3 ../../../netapps/mqtt/gcc/lib/client_server/Release/libmqtt.a(sl_mqtt_client.o)
 .rodata.str1.1
                0x0000000020010cef       0x22 ../../../netapps/mqtt/gcc/lib/client_server/Release/libmqtt.a(sl_mqtt_client.o)
 .rodata.qos    0x0000000020010d11        0x3 ../../../netapps/mqtt/gcc/lib/client_server/Release/libmqtt.a(sl_mqtt_client.o)
 .rodata.str1.1
                0x0000000020010d14       0x13 ../../../netapps/mqtt/gcc/lib/client_server/Release/libmqtt.a(sl_mqtt_server.o)
 .rodata.str1.1
                0x0000000020010d27        0x2 ../../../netapps/mqtt/gcc/lib/client_server/Release/libmqtt.a(cc32xx_sl_net.o)
 .rodata        0x0000000020010d29        0x9 ../../../netapps/mqtt/gcc/lib/client_server/Release/libmqtt.a(mqtt_client.o)
 .rodata.str1.1
                0x0000000020010d32      0x29f ../../../netapps/mqtt/gcc/lib/client_server/Release/libmqtt.a(mqtt_client.o)
 .rodata.LOOP_DATA
                0x0000000020010fd1        0x2 ../../../netapps/mqtt/gcc/lib/client_server/Release/libmqtt.a(mqtt_client.o)
 *fill*         0x0000000020010fd3        0x1 
 .rodata        0x0000000020010fd4       0x30 ../../../netapps/mqtt/gcc/lib/client_server/Release/libmqtt.a(server_core.o)
 .rodata.str1.1
                0x0000000020011004      0x208 ../../../netapps/mqtt/gcc/lib/client_server/Release/libmqtt.a(server_core.o)
                                        0x210 (size before relaxing)
 .rodata        0x000000002001120c        0x4 ../../../netapps/mqtt/gcc/lib/client_server/Release/libmqtt.a(server_pkts.o)
 .rodata.str1.1
                0x0000000020011210      0x196 ../../../netapps/mqtt/gcc/lib/client_server/Release/libmqtt.a(server_pkts.o)
                                        0x1a5 (size before relaxing)
 .rodata.lpbk_wake_up_msg
                0x00000000200113a6        0x2 ../../../netapps/mqtt/gcc/lib/client_server/Release/libmqtt.a(server_pkts.o)
 .rodata.str1.1
                0x00000000200113a8       0x6a ../../../netapps/mqtt/gcc/lib/client_server/Release/libmqtt.a(server_plug.o)
 .rodata.str1.1
                0x0000000020011412       0x55 ../../../netapps/mqtt/gcc/lib/client_server/Release/libmqtt.a(server_util.o)
 .rodata.str1.1
                0x0000000020011467      0x12c ../../../netapps/mqtt/gcc/lib/client_server/Release/libmqtt.a(client_mgmt.o)
                                        0x134 (size before relaxing)
 *fill*         0x0000000020011593        0x1 
 .rodata._SlDeviceGetCmdCtrl
                0x0000000020011594        0x4 ../../../simplelink/gcc/lib/os/Release/libsimplelink.a(device.o)
 .rodata._SlStopCmdCtrl
                0x0000000020011598        0x4 ../../../simplelink/gcc/lib/os/Release/libsimplelink.a(device.o)
 .rodata.StartResponseLUT
                0x000000002001159c        0x8 ../../../simplelink/gcc/lib/os/Release/libsimplelink.a(device.o)
 .rodata.g_H2NSyncPattern
                0x00000000200115a4        0x8 ../../../simplelink/gcc/lib/os/Release/libsimplelink.a(driver.o)
 .rodata.g_H2NCnysPattern
                0x00000000200115ac        0x8 ../../../simplelink/gcc/lib/os/Release/libsimplelink.a(driver.o)
 .rodata._SlActionLookupTable
                0x00000000200115b4       0x38 ../../../simplelink/gcc/lib/os/Release/libsimplelink.a(driver.o)
                0x00000000200115b4                _SlActionLookupTable
 .rodata.OpcodeTranslateTable
                0x00000000200115ec       0x3c ../../../simplelink/gcc/lib/os/Release/libsimplelink.a(driver.o)
                0x00000000200115ec                OpcodeTranslateTable
 .rodata.RxMsgClassLUT
                0x0000000020011628       0x20 ../../../simplelink/gcc/lib/os/Release/libsimplelink.a(driver.o)
 .rodata._SlGetHostByNameCtrl
                0x0000000020011648        0x4 ../../../simplelink/gcc/lib/os/Release/libsimplelink.a(netapp.o)
 .rodata._SlNetAppSendTokenValueCmdCtrl
                0x000000002001164c        0x4 ../../../simplelink/gcc/lib/os/Release/libsimplelink.a(netapp.o)
                0x000000002001164c                _SlNetAppSendTokenValueCmdCtrl
 .rodata._SlRegisterServiceCtrl
                0x0000000020011650        0x4 ../../../simplelink/gcc/lib/os/Release/libsimplelink.a(netapp.o)
 .rodata._SlNetCfgGetCmdCtrl
                0x0000000020011654        0x4 ../../../simplelink/gcc/lib/os/Release/libsimplelink.a(netcfg.o)
 .rodata._SlNetCfgSetCmdCtrl
                0x0000000020011658        0x4 ../../../simplelink/gcc/lib/os/Release/libsimplelink.a(netcfg.o)
 .rodata._SlSelectCmdCtrl
                0x000000002001165c        0x4 ../../../simplelink/gcc/lib/os/Release/libsimplelink.a(socket.o)
 .rodata._SlSendCmdCtrl
                0x0000000020011660        0x4 ../../../simplelink/gcc/lib/os/Release/libsimplelink.a(socket.o)
 .rodata._SlSockSocketCmdCtrl
                0x0000000020011664        0x4 ../../../simplelink/gcc/lib/os/Release/libsimplelink.a(socket.o)
 .rodata._SlPayloadByProtocolLUT
                0x0000000020011668       0x10 ../../../simplelink/gcc/lib/os/Release/libsimplelink.a(socket.o)
 .rodata._SlListenCmdCtrl
                0x0000000020011678        0x4 ../../../simplelink/gcc/lib/os/Release/libsimplelink.a(socket.o)
 .rodata._SlSockCloseCmdCtrl
                0x000000002001167c        0x4 ../../../simplelink/gcc/lib/os/Release/libsimplelink.a(socket.o)
 .rodata._SlRecvCmdCtrl
                0x0000000020011680        0x4 ../../../simplelink/gcc/lib/os/Release/libsimplelink.a(socket.o)
 .rodata._SlAcceptCmdCtrl
                0x0000000020011684        0x4 ../../../simplelink/gcc/lib/os/Release/libsimplelink.a(socket.o)
 .rodata._SlRecvfomCmdCtrl
                0x0000000020011688        0x4 ../../../simplelink/gcc/lib/os/Release/libsimplelink.a(socket.o)
 .rodata._SlSetSockOptCmdCtrl
                0x000000002001168c        0x4 ../../../simplelink/gcc/lib/os/Release/libsimplelink.a(socket.o)
 .rodata._SlWlanCfgSetCmdCtrl
                0x0000000020011690        0x4 ../../../simplelink/gcc/lib/os/Release/libsimplelink.a(wlan.o)
 .rodata._SlProfileDelCmdCtrl
                0x0000000020011694        0x4 ../../../simplelink/gcc/lib/os/Release/libsimplelink.a(wlan.o)
 .rodata._SlWlanSetModeCmdCtrl
                0x0000000020011698        0x4 ../../../simplelink/gcc/lib/os/Release/libsimplelink.a(wlan.o)
 .rodata._SlRxFilterSetCmdCtrl
                0x000000002001169c        0x4 ../../../simplelink/gcc/lib/os/Release/libsimplelink.a(wlan.o)
 .rodata._SlPolicySetCmdCtrl
                0x00000000200116a0        0x4 ../../../simplelink/gcc/lib/os/Release/libsimplelink.a(wlan.o)
 .rodata.str1.1
                0x00000000200116a4        0x9 ../../../simplelink/gcc/lib/os/Release/libsimplelink.a(cc_pal.o)
 .rodata.str1.1
                0x00000000200116ad        0x8 ../../../oslib/gcc/free_rtos/Release/free_rtos.a(osi_freertos.o)
 .rodata.str1.1
                0x00000000200116b5       0x2a ../../../oslib/gcc/free_rtos/Release/free_rtos.a(queue.o)
 .rodata.ucExpectedStackBytes.5776
                0x00000000200116df       0x14 ../../../oslib/gcc/free_rtos/Release/free_rtos.a(tasks.o)
 .rodata.str1.1
                0x00000000200116f3       0x3e ../../../oslib/gcc/free_rtos/Release/free_rtos.a(tasks.o)
 .rodata.str1.1
                0x0000000020011731       0x3e ../../../oslib/gcc/free_rtos/Release/free_rtos.a(port.o)
 .rodata.str1.1
                0x000000002001176f       0x38 ../../../oslib/gcc/free_rtos/Release/free_rtos.a(timers.o)
 *fill*         0x00000000200117a7        0x1 
 .rodata.g_pulEnRegs
                0x00000000200117a8       0x18 ../../../driverlib/gcc/lib/Release/libdriver.a(interrupt.o)
 .rodata.g_pulDisRegs
                0x00000000200117c0       0x18 ../../../driverlib/gcc/lib/Release/libdriver.a(interrupt.o)
 .rodata.PRCM_PeriphRegsList
                0x00000000200117d8       0xa8 ../../../driverlib/gcc/lib/Release/libdriver.a(prcm.o)
 .rodata._ctype_
                0x0000000020011880      0x101 /usr/lib/gcc/arm-none-eabi/5.2.0/../../../../arm-none-eabi/lib/armv7e-m/libc_nano.a(lib_a-ctype_.o)
                0x0000000020011880                _ctype_
 .rodata.str1.1
                0x0000000020011981        0x2 /usr/lib/gcc/arm-none-eabi/5.2.0/../../../../arm-none-eabi/lib/armv7e-m/libc_nano.a(lib_a-impure.o)
 .rodata.str1.1
                0x0000000020011983       0x11 /usr/lib/gcc/arm-none-eabi/5.2.0/../../../../arm-none-eabi/lib/armv7e-m/libc_nano.a(lib_a-nano-svfprintf.o)
 .rodata.str1.1
                0x0000000020011994       0x22 /usr/lib/gcc/arm-none-eabi/5.2.0/../../../../arm-none-eabi/lib/armv7e-m/libc_nano.a(lib_a-nano-vfprintf_i.o)
 *(.ARM.extab* .gnu.linkonce.armextab.*)
                0x00000000200119b8                . = ALIGN (0x8)
 *fill*         0x00000000200119b6        0x2 
                0x00000000200119b8                _etext = .

.glue_7         0x00000000200119b8        0x0
 .glue_7        0x0000000000000000        0x0 linker stubs

.glue_7t        0x00000000200119b8        0x0
 .glue_7t       0x0000000000000000        0x0 linker stubs

.vfp11_veneer   0x00000000200119b8        0x0
 .vfp11_veneer  0x0000000000000000        0x0 linker stubs

.v4_bx          0x00000000200119b8        0x0
 .v4_bx         0x0000000000000000        0x0 linker stubs

.iplt           0x00000000200119b8        0x0
 .iplt          0x0000000000000000        0x0 obj/Release/main.o

.rel.dyn        0x00000000200119b8        0x0
 .rel.iplt      0x0000000000000000        0x0 obj/Release/main.o

.ARM            0x00000000200119b8        0x0
                0x00000000200119b8                __exidx_start = .
 *(.ARM.exidx*)
                0x00000000200119b8                __exidx_end = .
                0x00000000200119b8                __init_data = .

.data           0x00000000200119b8      0x1c8
                0x00000000200119b8                _data = .
 *(.data*)
 .data.qos      0x00000000200119b8        0x1 obj/Release/main.o
                0x00000000200119b8                qos
 *fill*         0x00000000200119b9        0x3 
 .data.Mqtt_Server
                0x00000000200119bc       0x2c obj/Release/main.o
                0x00000000200119bc                Mqtt_Server
 .data.data     0x00000000200119e8        0x4 obj/Release/main.o
                0x00000000200119e8                data
 .data.will_param
                0x00000000200119ec        0xc obj/Release/main.o
                0x00000000200119ec                will_param
 .data.Mqtt_ClientCfg
                0x00000000200119f8       0x14 obj/Release/main.o
                0x00000000200119f8                Mqtt_ClientCfg
 .data.topic    0x0000000020011a0c        0x4 obj/Release/main.o
                0x0000000020011a0c                topic
 .data.ClientId
                0x0000000020011a10        0x4 obj/Release/main.o
                0x0000000020011a10                ClientId
 .data.Mqtt_ClientCtx
                0x0000000020011a14       0x24 obj/Release/main.o
                0x0000000020011a14                Mqtt_ClientCtx
 .data.pub_topic
                0x0000000020011a38        0x4 obj/Release/main.o
                0x0000000020011a38                pub_topic
 .data.client_callbacks
                0x0000000020011a3c        0xc obj/Release/server_client_cbs.o
                0x0000000020011a3c                client_callbacks
 .data.server_callbacks
                0x0000000020011a48       0x10 obj/Release/server_client_cbs.o
                0x0000000020011a48                server_callbacks
 .data.net      0x0000000020011a58       0x28 ../../../netapps/mqtt/gcc/lib/client_server/Release/libmqtt.a(sl_mqtt_client.o)
                0x0000000020011a58                net
 .data.server_cfg
                0x0000000020011a80       0x1c ../../../netapps/mqtt/gcc/lib/client_server/Release/libmqtt.a(sl_mqtt_server.o)
                0x0000000020011a80                server_cfg
 .data.net_ops  0x0000000020011a9c       0x28 ../../../netapps/mqtt/gcc/lib/client_server/Release/libmqtt.a(sl_mqtt_server.o)
                0x0000000020011a9c                net_ops
 .data.initFn_awaits
                0x0000000020011ac4        0x1 ../../../netapps/mqtt/gcc/lib/client_server/Release/libmqtt.a(sl_mqtt_server.o)
 .data.serverState
                0x0000000020011ac5        0x1 ../../../netapps/mqtt/gcc/lib/client_server/Release/libmqtt.a(sl_mqtt_server.o)
 *fill*         0x0000000020011ac6        0x2 
 .data.server_appcallbacks
                0x0000000020011ac8        0xc ../../../netapps/mqtt/gcc/lib/client_server/Release/libmqtt.a(sl_mqtt_server.o)
                0x0000000020011ac8                server_appcallbacks
 .data.mqtt310  0x0000000020011ad4        0x9 ../../../netapps/mqtt/gcc/lib/client_server/Release/libmqtt.a(mqtt_client.o)
 .data.mqtt311  0x0000000020011add        0x7 ../../../netapps/mqtt/gcc/lib/client_server/Release/libmqtt.a(mqtt_client.o)
 .data.send_hvec
                0x0000000020011ae4        0x4 ../../../netapps/mqtt/gcc/lib/client_server/Release/libmqtt.a(mqtt_client.o)
 .data.msg_id   0x0000000020011ae8        0x2 ../../../netapps/mqtt/gcc/lib/client_server/Release/libmqtt.a(mqtt_client.o)
 *fill*         0x0000000020011aea        0x2 
 .data.rsvd_hvec
                0x0000000020011aec        0x4 ../../../netapps/mqtt/gcc/lib/client_server/Release/libmqtt.a(mqtt_client.o)
 .data.loopb_net
                0x0000000020011af0        0x4 ../../../netapps/mqtt/gcc/lib/client_server/Release/libmqtt.a(mqtt_client.o)
 .data.listen_net
                0x0000000020011af4        0x4 ../../../netapps/mqtt/gcc/lib/client_server/Release/libmqtt.a(server_pkts.o)
 .data.rsvd_hvec.6966
                0x0000000020011af8        0x4 ../../../netapps/mqtt/gcc/lib/client_server/Release/libmqtt.a(server_pkts.o)
 .data.mon_loop_flag
                0x0000000020011afc        0x1 ../../../netapps/mqtt/gcc/lib/client_server/Release/libmqtt.a(server_pkts.o)
 *fill*         0x0000000020011afd        0x3 
 .data.send_hvec.6965
                0x0000000020011b00        0x4 ../../../netapps/mqtt/gcc/lib/client_server/Release/libmqtt.a(server_pkts.o)
 .data.loopb_net
                0x0000000020011b04        0x4 ../../../netapps/mqtt/gcc/lib/client_server/Release/libmqtt.a(server_pkts.o)
 .data.msg_id   0x0000000020011b08        0x2 ../../../netapps/mqtt/gcc/lib/client_server/Release/libmqtt.a(server_util.o)
 *fill*         0x0000000020011b0a        0x2 
 .data.xNextTaskUnblockTime
                0x0000000020011b0c        0x4 ../../../oslib/gcc/free_rtos/Release/free_rtos.a(tasks.o)
 .data.uxCriticalNesting
                0x0000000020011b10        0x4 ../../../oslib/gcc/free_rtos/Release/free_rtos.a(port.o)
 .data.__ctype_ptr__
                0x0000000020011b14        0x4 /usr/lib/gcc/arm-none-eabi/5.2.0/../../../../arm-none-eabi/lib/armv7e-m/libc_nano.a(lib_a-ctype_.o)
                0x0000000020011b14                __ctype_ptr__
 .data.impure_data
                0x0000000020011b18       0x60 /usr/lib/gcc/arm-none-eabi/5.2.0/../../../../arm-none-eabi/lib/armv7e-m/libc_nano.a(lib_a-impure.o)
 .data._impure_ptr
                0x0000000020011b78        0x4 /usr/lib/gcc/arm-none-eabi/5.2.0/../../../../arm-none-eabi/lib/armv7e-m/libc_nano.a(lib_a-impure.o)
                0x0000000020011b78                _impure_ptr
                0x0000000020011b80                . = ALIGN (0x8)
 *fill*         0x0000000020011b7c        0x4 
                0x0000000020011b80                _edata = .

.igot.plt       0x0000000020011b80        0x0
 .igot.plt      0x0000000000000000        0x0 obj/Release/main.o

.bss            0x0000000020011b80     0x4680
                0x0000000020011b80                _bss = .
 *(.bss*)
 .bss.SecurityParams
                0x0000000020011b80        0xc obj/Release/main.o
                0x0000000020011b80                SecurityParams
 .bss.__Errorlog
                0x0000000020011b8c        0x4 obj/Release/uart_if.o
 .bss.g_ulStatus
                0x0000000020011b90        0x4 obj/Release/network_if.o
                0x0000000020011b90                g_ulStatus
 .bss.g_ulStaIp
                0x0000000020011b94        0x4 obj/Release/network_if.o
                0x0000000020011b94                g_ulStaIp
 .bss.g_ulGatewayIP
                0x0000000020011b98        0x4 obj/Release/network_if.o
                0x0000000020011b98                g_ulGatewayIP
 .bss.g_uiLED3Port
                0x0000000020011b9c        0x4 obj/Release/gpio_if.o
                0x0000000020011b9c                g_uiLED3Port
 .bss.g_uiLED1Port
                0x0000000020011ba0        0x4 obj/Release/gpio_if.o
                0x0000000020011ba0                g_uiLED1Port
 .bss.g_uiLED2Port
                0x0000000020011ba4        0x4 obj/Release/gpio_if.o
                0x0000000020011ba4                g_uiLED2Port
 .bss.pui32Stack
                0x0000000020011ba8     0x1000 obj/Release/startup_gcc.o
 .bss.heap_end  0x0000000020012ba8        0x4 obj/Release/startup_gcc.o
 .bss.heap2_end
                0x0000000020012bac        0x4 obj/Release/startup_gcc.o
 .bss.buf_vec   0x0000000020012bb0     0x1000 ../../../netapps/mqtt/gcc/lib/client_server/Release/libmqtt.a(sl_mqtt_client.o)
 .bss.sl_cli_ctx
                0x0000000020013bb0       0xf0 ../../../netapps/mqtt/gcc/lib/client_server/Release/libmqtt.a(sl_mqtt_client.o)
 .bss.g_multi_srvr_conn
                0x0000000020013ca0        0x1 ../../../netapps/mqtt/gcc/lib/client_server/Release/libmqtt.a(sl_mqtt_client.o)
                0x0000000020013ca0                g_multi_srvr_conn
 *fill*         0x0000000020013ca1        0x3 
 .bss.mqp_vec   0x0000000020013ca4       0x48 ../../../netapps/mqtt/gcc/lib/client_server/Release/libmqtt.a(sl_mqtt_client.o)
 .bss.mt_lock   0x0000000020013cec        0x4 ../../../netapps/mqtt/gcc/lib/client_server/Release/libmqtt.a(sl_mqtt_client.o)
 .bss.rxTaskSem
                0x0000000020013cf0        0x4 ../../../netapps/mqtt/gcc/lib/client_server/Release/libmqtt.a(sl_mqtt_server.o)
 .bss.app_config
                0x0000000020013cf4        0x4 ../../../netapps/mqtt/gcc/lib/client_server/Release/libmqtt.a(sl_mqtt_server.o)
                0x0000000020013cf4                app_config
 .bss.pSemTsk   0x0000000020013cf8        0x4 ../../../netapps/mqtt/gcc/lib/client_server/Release/libmqtt.a(sl_mqtt_server.o)
 .bss.cbs_ptr   0x0000000020013cfc        0x4 ../../../netapps/mqtt/gcc/lib/client_server/Release/libmqtt.a(sl_mqtt_server.o)
                0x0000000020013cfc                cbs_ptr
 .bss.pSemObj   0x0000000020013d00        0x4 ../../../netapps/mqtt/gcc/lib/client_server/Release/libmqtt.a(sl_mqtt_server.o)
 .bss.serverSem
                0x0000000020013d04        0x4 ../../../netapps/mqtt/gcc/lib/client_server/Release/libmqtt.a(sl_mqtt_server.o)
 .bss.free_list
                0x0000000020013d08        0x4 ../../../netapps/mqtt/gcc/lib/client_server/Release/libmqtt.a(mqtt_client.o)
 .bss.clients   0x0000000020013d0c      0x2f0 ../../../netapps/mqtt/gcc/lib/client_server/Release/libmqtt.a(mqtt_client.o)
 .bss.mutex_unlock
                0x0000000020013ffc        0x4 ../../../netapps/mqtt/gcc/lib/client_server/Release/libmqtt.a(mqtt_client.o)
 .bss.mutex_lockin
                0x0000000020014000        0x4 ../../../netapps/mqtt/gcc/lib/client_server/Release/libmqtt.a(mqtt_client.o)
 .bss.mutex     0x0000000020014004        0x4 ../../../netapps/mqtt/gcc/lib/client_server/Release/libmqtt.a(mqtt_client.o)
 .bss.free_ctxs
                0x0000000020014008        0x4 ../../../netapps/mqtt/gcc/lib/client_server/Release/libmqtt.a(mqtt_client.o)
 .bss.conn_ctxs
                0x000000002001400c        0x4 ../../../netapps/mqtt/gcc/lib/client_server/Release/libmqtt.a(mqtt_client.o)
 .bss.loopb_portid
                0x0000000020014010        0x2 ../../../netapps/mqtt/gcc/lib/client_server/Release/libmqtt.a(mqtt_client.o)
 *fill*         0x0000000020014012        0x2 
 .bss.debug_printf
                0x0000000020014014        0x4 ../../../netapps/mqtt/gcc/lib/client_server/Release/libmqtt.a(mqtt_client.o)
                0x0000000020014014                debug_printf
 .bss.grp_has_cbfn
                0x0000000020014018        0x1 ../../../netapps/mqtt/gcc/lib/client_server/Release/libmqtt.a(mqtt_client.o)
 *fill*         0x0000000020014019        0x3 
 .bss.used_ctxs
                0x000000002001401c        0x4 ../../../netapps/mqtt/gcc/lib/client_server/Release/libmqtt.a(mqtt_client.o)
 .bss.cl_lib_state
                0x0000000020014020        0x1 ../../../netapps/mqtt/gcc/lib/client_server/Release/libmqtt.a(mqtt_client.o)
 *fill*         0x0000000020014021        0x3 
 .bss.recv_hvec
                0x0000000020014024       0x18 ../../../netapps/mqtt/gcc/lib/client_server/Release/libmqtt.a(mqtt_client.o)
 .bss.aux_dbg_enbl
                0x000000002001403c        0x1 ../../../netapps/mqtt/gcc/lib/client_server/Release/libmqtt.a(mqtt_client.o)
 *fill*         0x000000002001403d        0x3 
 .bss.net_ops   0x0000000020014040        0x4 ../../../netapps/mqtt/gcc/lib/client_server/Release/libmqtt.a(mqtt_client.o)
 .bss.free_nodes
                0x0000000020014044        0x4 ../../../netapps/mqtt/gcc/lib/client_server/Release/libmqtt.a(server_core.o)
 .bss.stack_idx
                0x0000000020014048        0x4 ../../../netapps/mqtt/gcc/lib/client_server/Release/libmqtt.a(server_core.o)
 .bss.work_buf  0x000000002001404c      0x400 ../../../netapps/mqtt/gcc/lib/client_server/Release/libmqtt.a(server_core.o)
 .bss.root_node
                0x000000002001444c        0x4 ../../../netapps/mqtt/gcc/lib/client_server/Release/libmqtt.a(server_core.o)
 .bss.node_stack
                0x0000000020014450      0x180 ../../../netapps/mqtt/gcc/lib/client_server/Release/libmqtt.a(server_core.o)
 .bss.nodes     0x00000000200145d0      0x980 ../../../netapps/mqtt/gcc/lib/client_server/Release/libmqtt.a(server_core.o)
 .bss.mutex_lockin
                0x0000000020014f50        0x4 ../../../netapps/mqtt/gcc/lib/client_server/Release/libmqtt.a(server_pkts.o)
 .bss.loopback_port
                0x0000000020014f54        0x2 ../../../netapps/mqtt/gcc/lib/client_server/Release/libmqtt.a(server_pkts.o)
 *fill*         0x0000000020014f56        0x2 
 .bss.net_ops   0x0000000020014f58        0x4 ../../../netapps/mqtt/gcc/lib/client_server/Release/libmqtt.a(server_pkts.o)
 .bss.rx_mqp    0x0000000020014f5c       0x24 ../../../netapps/mqtt/gcc/lib/client_server/Release/libmqtt.a(server_pkts.o)
 .bss.aux_dbg_enbl
                0x0000000020014f80        0x1 ../../../netapps/mqtt/gcc/lib/client_server/Release/libmqtt.a(server_pkts.o)
 *fill*         0x0000000020014f81        0x3 
 .bss.nw_security
                0x0000000020014f84        0x4 ../../../netapps/mqtt/gcc/lib/client_server/Release/libmqtt.a(server_pkts.o)
 .bss.mutex     0x0000000020014f88        0x4 ../../../netapps/mqtt/gcc/lib/client_server/Release/libmqtt.a(server_pkts.o)
 .bss.used_ctxs
                0x0000000020014f8c        0x4 ../../../netapps/mqtt/gcc/lib/client_server/Release/libmqtt.a(server_pkts.o)
 .bss.contexts  0x0000000020014f90      0x108 ../../../netapps/mqtt/gcc/lib/client_server/Release/libmqtt.a(server_pkts.o)
 .bss.usr_obj   0x0000000020015098       0x1c ../../../netapps/mqtt/gcc/lib/client_server/Release/libmqtt.a(server_pkts.o)
 .bss.listener_port
                0x00000000200150b4        0x2 ../../../netapps/mqtt/gcc/lib/client_server/Release/libmqtt.a(server_pkts.o)
 *fill*         0x00000000200150b6        0x2 
 .bss.usr_cbs   0x00000000200150b8        0x4 ../../../netapps/mqtt/gcc/lib/client_server/Release/libmqtt.a(server_pkts.o)
 .bss.debug_printf
                0x00000000200150bc        0x4 ../../../netapps/mqtt/gcc/lib/client_server/Release/libmqtt.a(server_pkts.o)
 .bss.rxb       0x00000000200150c0      0x400 ../../../netapps/mqtt/gcc/lib/client_server/Release/libmqtt.a(server_pkts.o)
 .bss.nw_sec_obj
                0x00000000200154c0       0x18 ../../../netapps/mqtt/gcc/lib/client_server/Release/libmqtt.a(server_pkts.o)
 .bss.free_ctxs
                0x00000000200154d8        0x4 ../../../netapps/mqtt/gcc/lib/client_server/Release/libmqtt.a(server_pkts.o)
 .bss.mutex_unlock
                0x00000000200154dc        0x4 ../../../netapps/mqtt/gcc/lib/client_server/Release/libmqtt.a(server_pkts.o)
 .bss.pending_trigs
                0x00000000200154e0        0x1 ../../../netapps/mqtt/gcc/lib/client_server/Release/libmqtt.a(server_pkts.o)
 *fill*         0x00000000200154e1        0x3 
 .bss.recv_hvec.6964
                0x00000000200154e4       0x24 ../../../netapps/mqtt/gcc/lib/client_server/Release/libmqtt.a(server_pkts.o)
 .bss.plugins   0x0000000020015508       0x50 ../../../netapps/mqtt/gcc/lib/client_server/Release/libmqtt.a(server_plug.o)
 .bss.msg_cbs   0x0000000020015558        0x4 ../../../netapps/mqtt/gcc/lib/client_server/Release/libmqtt.a(server_plug.o)
 .bss.inited    0x000000002001555c        0x1 ../../../netapps/mqtt/gcc/lib/client_server/Release/libmqtt.a(server_plug.o)
 *fill*         0x000000002001555d        0x3 
 .bss.msg_cbacks
                0x0000000020015560        0xc ../../../netapps/mqtt/gcc/lib/client_server/Release/libmqtt.a(server_plug.o)
 .bss.acl_pg    0x000000002001556c        0x4 ../../../netapps/mqtt/gcc/lib/client_server/Release/libmqtt.a(server_plug.o)
 .bss.lockin_mutex
                0x0000000020015570        0x4 ../../../netapps/mqtt/gcc/lib/client_server/Release/libmqtt.a(server_util.o)
 .bss.util_prn_aux
                0x0000000020015574        0x1 ../../../netapps/mqtt/gcc/lib/client_server/Release/libmqtt.a(server_util.o)
                0x0000000020015574                util_prn_aux
 *fill*         0x0000000020015575        0x3 
 .bss.util_dbg_prn
                0x0000000020015578        0x4 ../../../netapps/mqtt/gcc/lib/client_server/Release/libmqtt.a(server_util.o)
                0x0000000020015578                util_dbg_prn
 .bss.mutex_hnd
                0x000000002001557c        0x4 ../../../netapps/mqtt/gcc/lib/client_server/Release/libmqtt.a(server_util.o)
 .bss.unlock_mutex
                0x0000000020015580        0x4 ../../../netapps/mqtt/gcc/lib/client_server/Release/libmqtt.a(server_util.o)
 .bss.wl_mqp_sess
                0x0000000020015584        0x8 ../../../netapps/mqtt/gcc/lib/client_server/Release/libmqtt.a(client_mgmt.o)
 .bss.wl_qos_ack1
                0x000000002001558c        0x8 ../../../netapps/mqtt/gcc/lib/client_server/Release/libmqtt.a(client_mgmt.o)
 .bss.users     0x0000000020015594      0x800 ../../../netapps/mqtt/gcc/lib/client_server/Release/libmqtt.a(client_mgmt.o)
 .bss.g_StatMem
                0x0000000020015d94      0x178 ../../../simplelink/gcc/lib/os/Release/libsimplelink.a(driver.o)
 .bss.g_SlDeviceStatus
                0x0000000020015f0c        0x2 ../../../simplelink/gcc/lib/os/Release/libsimplelink.a(driver.o)
                0x0000000020015f0c                g_SlDeviceStatus
 .bss.gFirstCmdMode
                0x0000000020015f0e        0x1 ../../../simplelink/gcc/lib/os/Release/libsimplelink.a(driver.o)
 *fill*         0x0000000020015f0f        0x1 
 .bss.pPingCallBackFunc
                0x0000000020015f10        0x4 ../../../simplelink/gcc/lib/os/Release/libsimplelink.a(driver.o)
                0x0000000020015f10                pPingCallBackFunc
 .bss.g_pCB     0x0000000020015f14        0x4 ../../../simplelink/gcc/lib/os/Release/libsimplelink.a(driver.o)
                0x0000000020015f14                g_pCB
 .bss.g_SpiFd   0x0000000020015f18        0x4 ../../../simplelink/gcc/lib/os/Release/libsimplelink.a(cc_pal.o)
                0x0000000020015f18                g_SpiFd
 .bss.g_ucDMAEnabled
                0x0000000020015f1c        0x1 ../../../simplelink/gcc/lib/os/Release/libsimplelink.a(cc_pal.o)
                0x0000000020015f1c                g_ucDMAEnabled
 *fill*         0x0000000020015f1d        0x3 
 .bss.xSimpleLinkSpawnQueue
                0x0000000020015f20        0x4 ../../../oslib/gcc/free_rtos/Release/free_rtos.a(osi_freertos.o)
                0x0000000020015f20                xSimpleLinkSpawnQueue
 .bss.xSimpleLinkSpawnTaskHndl
                0x0000000020015f24        0x4 ../../../oslib/gcc/free_rtos/Release/free_rtos.a(osi_freertos.o)
                0x0000000020015f24                xSimpleLinkSpawnTaskHndl
 .bss.xHigherPriorityTaskWoken
                0x0000000020015f28        0x4 ../../../oslib/gcc/free_rtos/Release/free_rtos.a(osi_freertos.o)
                0x0000000020015f28                xHigherPriorityTaskWoken
 .bss.xPendingReadyList
                0x0000000020015f2c       0x14 ../../../oslib/gcc/free_rtos/Release/free_rtos.a(tasks.o)
 .bss.uxTopReadyPriority
                0x0000000020015f40        0x4 ../../../oslib/gcc/free_rtos/Release/free_rtos.a(tasks.o)
 .bss.uxTasksDeleted
                0x0000000020015f44        0x4 ../../../oslib/gcc/free_rtos/Release/free_rtos.a(tasks.o)
 .bss.xTickCount
                0x0000000020015f48        0x4 ../../../oslib/gcc/free_rtos/Release/free_rtos.a(tasks.o)
 .bss.pxReadyTasksLists
                0x0000000020015f4c       0xc8 ../../../oslib/gcc/free_rtos/Release/free_rtos.a(tasks.o)
 .bss.pxOverflowDelayedTaskList
                0x0000000020016014        0x4 ../../../oslib/gcc/free_rtos/Release/free_rtos.a(tasks.o)
 .bss.xTasksWaitingTermination
                0x0000000020016018       0x14 ../../../oslib/gcc/free_rtos/Release/free_rtos.a(tasks.o)
 .bss.pxDelayedTaskList
                0x000000002001602c        0x4 ../../../oslib/gcc/free_rtos/Release/free_rtos.a(tasks.o)
 .bss.xSchedulerRunning
                0x0000000020016030        0x4 ../../../oslib/gcc/free_rtos/Release/free_rtos.a(tasks.o)
 .bss.pxCurrentTCB
                0x0000000020016034        0x4 ../../../oslib/gcc/free_rtos/Release/free_rtos.a(tasks.o)
                0x0000000020016034                pxCurrentTCB
 .bss.uxPendedTicks
                0x0000000020016038        0x4 ../../../oslib/gcc/free_rtos/Release/free_rtos.a(tasks.o)
 .bss.xSuspendedTaskList
                0x000000002001603c       0x14 ../../../oslib/gcc/free_rtos/Release/free_rtos.a(tasks.o)
 .bss.uxCurrentNumberOfTasks
                0x0000000020016050        0x4 ../../../oslib/gcc/free_rtos/Release/free_rtos.a(tasks.o)
 .bss.xDelayedTaskList1
                0x0000000020016054       0x14 ../../../oslib/gcc/free_rtos/Release/free_rtos.a(tasks.o)
 .bss.xDelayedTaskList2
                0x0000000020016068       0x14 ../../../oslib/gcc/free_rtos/Release/free_rtos.a(tasks.o)
 .bss.uxTaskNumber
                0x000000002001607c        0x4 ../../../oslib/gcc/free_rtos/Release/free_rtos.a(tasks.o)
 .bss.xIdleTaskHandle
                0x0000000020016080        0x4 ../../../oslib/gcc/free_rtos/Release/free_rtos.a(tasks.o)
 .bss.xYieldPending
                0x0000000020016084        0x4 ../../../oslib/gcc/free_rtos/Release/free_rtos.a(tasks.o)
 .bss.uxSchedulerSuspended
                0x0000000020016088        0x4 ../../../oslib/gcc/free_rtos/Release/free_rtos.a(tasks.o)
 .bss.xNumOfOverflows
                0x000000002001608c        0x4 ../../../oslib/gcc/free_rtos/Release/free_rtos.a(tasks.o)
 .bss.ucMaxSysCallPriority
                0x0000000020016090        0x1 ../../../oslib/gcc/free_rtos/Release/free_rtos.a(port.o)
 *fill*         0x0000000020016091        0x3 
 .bss.ulMaxPRIGROUPValue
                0x0000000020016094        0x4 ../../../oslib/gcc/free_rtos/Release/free_rtos.a(port.o)
 .bss.pxCurrentTimerList
                0x0000000020016098        0x4 ../../../oslib/gcc/free_rtos/Release/free_rtos.a(timers.o)
 .bss.xActiveTimerList1
                0x000000002001609c       0x14 ../../../oslib/gcc/free_rtos/Release/free_rtos.a(timers.o)
 .bss.xActiveTimerList2
                0x00000000200160b0       0x14 ../../../oslib/gcc/free_rtos/Release/free_rtos.a(timers.o)
 .bss.xLastTime.4980
                0x00000000200160c4        0x4 ../../../oslib/gcc/free_rtos/Release/free_rtos.a(timers.o)
 .bss.xTimerQueue
                0x00000000200160c8        0x4 ../../../oslib/gcc/free_rtos/Release/free_rtos.a(timers.o)
 .bss.pxOverflowTimerList
                0x00000000200160cc        0x4 ../../../oslib/gcc/free_rtos/Release/free_rtos.a(timers.o)
 .bss.xTimerTaskHandle
                0x00000000200160d0        0x4 ../../../oslib/gcc/free_rtos/Release/free_rtos.a(timers.o)
 .bss.__malloc_sbrk_start
                0x00000000200160d4        0x4 /usr/lib/gcc/arm-none-eabi/5.2.0/../../../../arm-none-eabi/lib/armv7e-m/libc_nano.a(lib_a-nano-mallocr.o)
                0x00000000200160d4                __malloc_sbrk_start
 .bss.__malloc_free_list
                0x00000000200160d8        0x4 /usr/lib/gcc/arm-none-eabi/5.2.0/../../../../arm-none-eabi/lib/armv7e-m/libc_nano.a(lib_a-nano-mallocr.o)
                0x00000000200160d8                __malloc_free_list
 *(COMMON)
 COMMON         0x00000000200160dc        0xc obj/Release/main.o
                0x00000000200160dc                g_usTimerInts
                0x00000000200160e0                BridgeHndl
                0x00000000200160e4                g_PBQueue
 COMMON         0x00000000200160e8        0x4 obj/Release/server_client_cbs.o
                0x00000000200160e8                client_info_table
 COMMON         0x00000000200160ec       0x29 obj/Release/network_if.o
                0x00000000200160ec                g_usConnectIndex
                0x00000000200160ee                g_ucConnectionBSSID
                0x00000000200160f4                g_ucConnectionSSID
 COMMON         0x0000000020016115        0x3 obj/Release/gpio_if.o
                0x0000000020016115                g_ucLED1Pin
                0x0000000020016116                g_ucLED2Pin
                0x0000000020016117                g_ucLED3Pin
 COMMON         0x0000000020016118        0x8 obj/Release/button_if.o
                0x0000000020016118                g_S3InterruptHdl
                0x000000002001611c                g_S2InterruptHdl
 COMMON         0x0000000020016120       0x10 ../../../netapps/mqtt/gcc/lib/client_server/Release/libmqtt.a(sl_mqtt_client.o)
                0x0000000020016120                g_rx_tx_sync_obj
                0x0000000020016124                mqtt_lib_lockobj
                0x0000000020016128                g_rx_task_hndl
                0x000000002001612c                g_wait_secs
 COMMON         0x0000000020016130       0x20 ../../../netapps/mqtt/gcc/lib/client_server/Release/libmqtt.a(sl_mqtt_server.o)
                0x0000000020016130                g_srvr_wait_secs
                0x0000000020016134                cbs_obj
                0x0000000020016144                g_srvr_task_priority
                0x0000000020016148                MutexLockObj
                0x000000002001614c                app_hndl
 COMMON         0x0000000020016150        0x2 ../../../simplelink/gcc/lib/os/Release/libsimplelink.a(driver.o)
                0x0000000020016150                g_bDeviceRestartIsRequired
                0x0000000020016151                RxIrqCnt
 *fill*         0x0000000020016152        0x2 
 COMMON         0x0000000020016154       0x58 ../../../simplelink/gcc/lib/os/Release/libsimplelink.a(cc_pal.o)
                0x0000000020016154                g_cDummy
                0x0000000020016158                DMAMsgQ
                0x000000002001615c                g_ucDinDout
 COMMON         0x00000000200161ac       0x50 ../../../oslib/gcc/free_rtos/Release/free_rtos.a(queue.o)
                0x00000000200161ac                xQueueRegistry
 COMMON         0x00000000200161fc        0x4 /usr/lib/gcc/arm-none-eabi/5.2.0/../../../../arm-none-eabi/lib/armv7e-m/libc_nano.a(lib_a-reent.o)
                0x00000000200161fc                errno
                0x0000000020016200                _ebss = .

.heap           0x0000000020016200    0x29a00
                0x0000000020016200                _heap = .
                0x000000002003fc00                . = (((((((. + 0x40000) - SIZEOF (.bss)) - SIZEOF (.data)) - SIZEOF (.ARM)) - SIZEOF (.text)) - SIZEOF (.bootloader)) - 0x400)
 *fill*         0x0000000020016200    0x29a00 
                0x000000002003fc00                . = ALIGN (0x400)
                0x000000002003fc00                _eheap = .
LOAD obj/Release/main.o
LOAD obj/Release/pinmux.o
LOAD obj/Release/server_client_cbs.o
LOAD obj/Release/uart_if.o
LOAD obj/Release/network_if.o
LOAD obj/Release/gpio_if.o
LOAD obj/Release/timer_if.o
LOAD obj/Release/button_if.o
LOAD obj/Release/startup_gcc.o
LOAD ../../../netapps/mqtt/gcc/lib/client_server/Release/libmqtt.a
LOAD ../../../simplelink/gcc/lib/os/Release/libsimplelink.a
LOAD ../../../oslib/gcc/free_rtos/Release/free_rtos.a
LOAD ../../../driverlib/gcc/lib/Release/libdriver.a
LOAD /usr/lib/gcc/arm-none-eabi/5.2.0/../../../../arm-none-eabi/lib/armv7e-m/libc_nano.a
LOAD /usr/lib/gcc/arm-none-eabi/5.2.0/../../../../arm-none-eabi/lib/armv7e-m/libm.a
LOAD /usr/lib/gcc/arm-none-eabi/5.2.0/armv7e-m/libgcc.a
LOAD /usr/lib/gcc/arm-none-eabi/5.2.0/../../../../arm-none-eabi/lib/armv7e-m/libnosys.a
OUTPUT(bin/Release/mqtt_server.elf elf32-littlearm)

.debug_info     0x0000000000000000    0x34d4c
 .debug_info    0x0000000000000000     0x124b obj/Release/main.o
 .debug_info    0x000000000000124b      0x1c8 obj/Release/pinmux.o
 .debug_info    0x0000000000001413      0x9d3 obj/Release/server_client_cbs.o
 .debug_info    0x0000000000001de6      0x544 obj/Release/uart_if.o
 .debug_info    0x000000000000232a     0x1bb7 obj/Release/network_if.o
 .debug_info    0x0000000000003ee1      0x5fe obj/Release/gpio_if.o
 .debug_info    0x00000000000044df      0x51d obj/Release/timer_if.o
 .debug_info    0x00000000000049fc      0x487 obj/Release/button_if.o
 .debug_info    0x0000000000004e83      0x221 obj/Release/startup_gcc.o
 .debug_info    0x00000000000050a4     0x1c03 ../../../netapps/mqtt/gcc/lib/client_server/Release/libmqtt.a(sl_mqtt_client.o)
 .debug_info    0x0000000000006ca7     0x1024 ../../../netapps/mqtt/gcc/lib/client_server/Release/libmqtt.a(sl_mqtt_server.o)
 .debug_info    0x0000000000007ccb     0x104c ../../../netapps/mqtt/gcc/lib/client_server/Release/libmqtt.a(cc32xx_sl_net.o)
 .debug_info    0x0000000000008d17      0x111 ../../../netapps/mqtt/gcc/lib/client_server/Release/libmqtt.a(cc32xx_platform.o)
 .debug_info    0x0000000000008e28     0x43f6 ../../../netapps/mqtt/gcc/lib/client_server/Release/libmqtt.a(mqtt_client.o)
 .debug_info    0x000000000000d21e     0x1223 ../../../netapps/mqtt/gcc/lib/client_server/Release/libmqtt.a(mqtt_common.o)
 .debug_info    0x000000000000e441     0x3d96 ../../../netapps/mqtt/gcc/lib/client_server/Release/libmqtt.a(server_core.o)
 .debug_info    0x00000000000121d7     0x299e ../../../netapps/mqtt/gcc/lib/client_server/Release/libmqtt.a(server_pkts.o)
 .debug_info    0x0000000000014b75      0x881 ../../../netapps/mqtt/gcc/lib/client_server/Release/libmqtt.a(server_plug.o)
 .debug_info    0x00000000000153f6      0x539 ../../../netapps/mqtt/gcc/lib/client_server/Release/libmqtt.a(server_util.o)
 .debug_info    0x000000000001592f     0x1c4c ../../../netapps/mqtt/gcc/lib/client_server/Release/libmqtt.a(client_mgmt.o)
 .debug_info    0x000000000001757b     0x13a1 ../../../simplelink/gcc/lib/os/Release/libsimplelink.a(device.o)
 .debug_info    0x000000000001891c     0x275c ../../../simplelink/gcc/lib/os/Release/libsimplelink.a(driver.o)
 .debug_info    0x000000000001b078     0x1ec1 ../../../simplelink/gcc/lib/os/Release/libsimplelink.a(netapp.o)
 .debug_info    0x000000000001cf39      0x470 ../../../simplelink/gcc/lib/os/Release/libsimplelink.a(netcfg.o)
 .debug_info    0x000000000001d3a9     0x1f33 ../../../simplelink/gcc/lib/os/Release/libsimplelink.a(socket.o)
 .debug_info    0x000000000001f2dc     0x1fdc ../../../simplelink/gcc/lib/os/Release/libsimplelink.a(wlan.o)
 .debug_info    0x00000000000212b8     0x10de ../../../simplelink/gcc/lib/os/Release/libsimplelink.a(cc_pal.o)
 .debug_info    0x0000000000022396      0xccb ../../../oslib/gcc/free_rtos/Release/free_rtos.a(osi_freertos.o)
 .debug_info    0x0000000000023061     0x1a31 ../../../oslib/gcc/free_rtos/Release/free_rtos.a(queue.o)
 .debug_info    0x0000000000024a92     0x29c5 ../../../oslib/gcc/free_rtos/Release/free_rtos.a(tasks.o)
 .debug_info    0x0000000000027457      0x44d ../../../oslib/gcc/free_rtos/Release/free_rtos.a(port.o)
 .debug_info    0x00000000000278a4     0x114e ../../../oslib/gcc/free_rtos/Release/free_rtos.a(timers.o)
 .debug_info    0x00000000000289f2      0x186 ../../../oslib/gcc/free_rtos/Release/free_rtos.a(heap_3.o)
 .debug_info    0x0000000000028b78      0x29a ../../../oslib/gcc/free_rtos/Release/free_rtos.a(list.o)
 .debug_info    0x0000000000028e12      0x444 ../../../driverlib/gcc/lib/Release/libdriver.a(gpio.o)
 .debug_info    0x0000000000029256      0x3ea ../../../driverlib/gcc/lib/Release/libdriver.a(interrupt.o)
 .debug_info    0x0000000000029640     0x1648 ../../../driverlib/gcc/lib/Release/libdriver.a(prcm.o)
 .debug_info    0x000000000002ac88      0xb9e ../../../driverlib/gcc/lib/Release/libdriver.a(spi.o)
 .debug_info    0x000000000002b826      0x67d ../../../driverlib/gcc/lib/Release/libdriver.a(timer.o)
 .debug_info    0x000000000002bea3       0x50 ../../../driverlib/gcc/lib/Release/libdriver.a(utils.o)
 .debug_info    0x000000000002bef3       0xfe ../../../driverlib/gcc/lib/Release/libdriver.a(cpu.o)
 .debug_info    0x000000000002bff1      0x7c5 /usr/lib/gcc/arm-none-eabi/5.2.0/../../../../arm-none-eabi/lib/armv7e-m/libc_nano.a(lib_a-atoi.o)
 .debug_info    0x000000000002c7b6      0x7b2 /usr/lib/gcc/arm-none-eabi/5.2.0/../../../../arm-none-eabi/lib/armv7e-m/libc_nano.a(lib_a-malloc.o)
 .debug_info    0x000000000002cf68       0xf8 /usr/lib/gcc/arm-none-eabi/5.2.0/../../../../arm-none-eabi/lib/armv7e-m/libc_nano.a(lib_a-memcmp.o)
 .debug_info    0x000000000002d060      0x115 /usr/lib/gcc/arm-none-eabi/5.2.0/../../../../arm-none-eabi/lib/armv7e-m/libc_nano.a(lib_a-memcpy.o)
 .debug_info    0x000000000002d175      0x109 /usr/lib/gcc/arm-none-eabi/5.2.0/../../../../arm-none-eabi/lib/armv7e-m/libc_nano.a(lib_a-memmove.o)
 .debug_info    0x000000000002d27e       0xda /usr/lib/gcc/arm-none-eabi/5.2.0/../../../../arm-none-eabi/lib/armv7e-m/libc_nano.a(lib_a-memset.o)
 .debug_info    0x000000000002d358      0x821 /usr/lib/gcc/arm-none-eabi/5.2.0/../../../../arm-none-eabi/lib/armv7e-m/libc_nano.a(lib_a-nano-freer.o)
 .debug_info    0x000000000002db79      0x8ec /usr/lib/gcc/arm-none-eabi/5.2.0/../../../../arm-none-eabi/lib/armv7e-m/libc_nano.a(lib_a-nano-mallocr.o)
 .debug_info    0x000000000002e465      0x786 /usr/lib/gcc/arm-none-eabi/5.2.0/../../../../arm-none-eabi/lib/armv7e-m/libc_nano.a(lib_a-realloc.o)
 .debug_info    0x000000000002ebeb      0x7a1 /usr/lib/gcc/arm-none-eabi/5.2.0/../../../../arm-none-eabi/lib/armv7e-m/libc_nano.a(lib_a-sbrkr.o)
 .debug_info    0x000000000002f38c       0xc4 /usr/lib/gcc/arm-none-eabi/5.2.0/../../../../arm-none-eabi/lib/armv7e-m/libc_nano.a(lib_a-strcmp.o)
 .debug_info    0x000000000002f450       0xc4 /usr/lib/gcc/arm-none-eabi/5.2.0/../../../../arm-none-eabi/lib/armv7e-m/libc_nano.a(lib_a-strcpy.o)
 .debug_info    0x000000000002f514       0xd4 /usr/lib/gcc/arm-none-eabi/5.2.0/../../../../arm-none-eabi/lib/armv7e-m/libc_nano.a(lib_a-strlen.o)
 .debug_info    0x000000000002f5e8       0xd6 /usr/lib/gcc/arm-none-eabi/5.2.0/../../../../arm-none-eabi/lib/armv7e-m/libc_nano.a(lib_a-strncmp.o)
 .debug_info    0x000000000002f6be      0x10a /usr/lib/gcc/arm-none-eabi/5.2.0/../../../../arm-none-eabi/lib/armv7e-m/libc_nano.a(lib_a-strncpy.o)
 .debug_info    0x000000000002f7c8      0x802 /usr/lib/gcc/arm-none-eabi/5.2.0/../../../../arm-none-eabi/lib/armv7e-m/libc_nano.a(lib_a-strtok.o)
 .debug_info    0x000000000002ffca      0x19e /usr/lib/gcc/arm-none-eabi/5.2.0/../../../../arm-none-eabi/lib/armv7e-m/libc_nano.a(lib_a-strtok_r.o)
 .debug_info    0x0000000000030168      0x864 /usr/lib/gcc/arm-none-eabi/5.2.0/../../../../arm-none-eabi/lib/armv7e-m/libc_nano.a(lib_a-strtol.o)
 .debug_info    0x00000000000309cc      0x892 /usr/lib/gcc/arm-none-eabi/5.2.0/../../../../arm-none-eabi/lib/armv7e-m/libc_nano.a(lib_a-vsnprintf.o)
 .debug_info    0x000000000003125e       0x6f /usr/lib/gcc/arm-none-eabi/5.2.0/../../../../arm-none-eabi/lib/armv7e-m/libc_nano.a(lib_a-ctype_.o)
 .debug_info    0x00000000000312cd      0x7da /usr/lib/gcc/arm-none-eabi/5.2.0/../../../../arm-none-eabi/lib/armv7e-m/libc_nano.a(lib_a-impure.o)
 .debug_info    0x0000000000031aa7      0x878 /usr/lib/gcc/arm-none-eabi/5.2.0/../../../../arm-none-eabi/lib/armv7e-m/libc_nano.a(lib_a-nano-reallocr.o)
 .debug_info    0x000000000003231f      0xd40 /usr/lib/gcc/arm-none-eabi/5.2.0/../../../../arm-none-eabi/lib/armv7e-m/libc_nano.a(lib_a-nano-svfprintf.o)
 .debug_info    0x000000000003305f      0xb33 /usr/lib/gcc/arm-none-eabi/5.2.0/../../../../arm-none-eabi/lib/armv7e-m/libc_nano.a(lib_a-nano-vfprintf_i.o)
 .debug_info    0x0000000000033b92      0x8fb /usr/lib/gcc/arm-none-eabi/5.2.0/../../../../arm-none-eabi/lib/armv7e-m/libc_nano.a(lib_a-reent.o)
 .debug_info    0x000000000003448d       0xff /usr/lib/gcc/arm-none-eabi/5.2.0/../../../../arm-none-eabi/lib/armv7e-m/libc_nano.a(lib_a-memchr.o)
 .debug_info    0x000000000003458c      0x7c0 /usr/lib/gcc/arm-none-eabi/5.2.0/../../../../arm-none-eabi/lib/armv7e-m/libc_nano.a(lib_a-nano-msizer.o)

.debug_abbrev   0x0000000000000000     0x86ae
 .debug_abbrev  0x0000000000000000      0x2f9 obj/Release/main.o
 .debug_abbrev  0x00000000000002f9       0x7a obj/Release/pinmux.o
 .debug_abbrev  0x0000000000000373      0x272 obj/Release/server_client_cbs.o
 .debug_abbrev  0x00000000000005e5      0x1d0 obj/Release/uart_if.o
 .debug_abbrev  0x00000000000007b5      0x401 obj/Release/network_if.o
 .debug_abbrev  0x0000000000000bb6      0x23d obj/Release/gpio_if.o
 .debug_abbrev  0x0000000000000df3      0x153 obj/Release/timer_if.o
 .debug_abbrev  0x0000000000000f46      0x17d obj/Release/button_if.o
 .debug_abbrev  0x00000000000010c3      0x149 obj/Release/startup_gcc.o
 .debug_abbrev  0x000000000000120c      0x434 ../../../netapps/mqtt/gcc/lib/client_server/Release/libmqtt.a(sl_mqtt_client.o)
 .debug_abbrev  0x0000000000001640      0x2a9 ../../../netapps/mqtt/gcc/lib/client_server/Release/libmqtt.a(sl_mqtt_server.o)
 .debug_abbrev  0x00000000000018e9      0x280 ../../../netapps/mqtt/gcc/lib/client_server/Release/libmqtt.a(cc32xx_sl_net.o)
 .debug_abbrev  0x0000000000001b69       0xae ../../../netapps/mqtt/gcc/lib/client_server/Release/libmqtt.a(cc32xx_platform.o)
 .debug_abbrev  0x0000000000001c17      0x57a ../../../netapps/mqtt/gcc/lib/client_server/Release/libmqtt.a(mqtt_client.o)
 .debug_abbrev  0x0000000000002191      0x3d0 ../../../netapps/mqtt/gcc/lib/client_server/Release/libmqtt.a(mqtt_common.o)
 .debug_abbrev  0x0000000000002561      0x489 ../../../netapps/mqtt/gcc/lib/client_server/Release/libmqtt.a(server_core.o)
 .debug_abbrev  0x00000000000029ea      0x501 ../../../netapps/mqtt/gcc/lib/client_server/Release/libmqtt.a(server_pkts.o)
 .debug_abbrev  0x0000000000002eeb      0x267 ../../../netapps/mqtt/gcc/lib/client_server/Release/libmqtt.a(server_plug.o)
 .debug_abbrev  0x0000000000003152      0x29f ../../../netapps/mqtt/gcc/lib/client_server/Release/libmqtt.a(server_util.o)
 .debug_abbrev  0x00000000000033f1      0x449 ../../../netapps/mqtt/gcc/lib/client_server/Release/libmqtt.a(client_mgmt.o)
 .debug_abbrev  0x000000000000383a      0x327 ../../../simplelink/gcc/lib/os/Release/libsimplelink.a(device.o)
 .debug_abbrev  0x0000000000003b61      0x3c2 ../../../simplelink/gcc/lib/os/Release/libsimplelink.a(driver.o)
 .debug_abbrev  0x0000000000003f23      0x353 ../../../simplelink/gcc/lib/os/Release/libsimplelink.a(netapp.o)
 .debug_abbrev  0x0000000000004276      0x184 ../../../simplelink/gcc/lib/os/Release/libsimplelink.a(netcfg.o)
 .debug_abbrev  0x00000000000043fa      0x3ae ../../../simplelink/gcc/lib/os/Release/libsimplelink.a(socket.o)
 .debug_abbrev  0x00000000000047a8      0x2b2 ../../../simplelink/gcc/lib/os/Release/libsimplelink.a(wlan.o)
 .debug_abbrev  0x0000000000004a5a      0x316 ../../../simplelink/gcc/lib/os/Release/libsimplelink.a(cc_pal.o)
 .debug_abbrev  0x0000000000004d70      0x292 ../../../oslib/gcc/free_rtos/Release/free_rtos.a(osi_freertos.o)
 .debug_abbrev  0x0000000000005002      0x283 ../../../oslib/gcc/free_rtos/Release/free_rtos.a(queue.o)
 .debug_abbrev  0x0000000000005285      0x377 ../../../oslib/gcc/free_rtos/Release/free_rtos.a(tasks.o)
 .debug_abbrev  0x00000000000055fc      0x21a ../../../oslib/gcc/free_rtos/Release/free_rtos.a(port.o)
 .debug_abbrev  0x0000000000005816      0x2bb ../../../oslib/gcc/free_rtos/Release/free_rtos.a(timers.o)
 .debug_abbrev  0x0000000000005ad1      0x111 ../../../oslib/gcc/free_rtos/Release/free_rtos.a(heap_3.o)
 .debug_abbrev  0x0000000000005be2       0xdc ../../../oslib/gcc/free_rtos/Release/free_rtos.a(list.o)
 .debug_abbrev  0x0000000000005cbe      0x163 ../../../driverlib/gcc/lib/Release/libdriver.a(gpio.o)
 .debug_abbrev  0x0000000000005e21      0x178 ../../../driverlib/gcc/lib/Release/libdriver.a(interrupt.o)
 .debug_abbrev  0x0000000000005f99      0x31a ../../../driverlib/gcc/lib/Release/libdriver.a(prcm.o)
 .debug_abbrev  0x00000000000062b3      0x1f4 ../../../driverlib/gcc/lib/Release/libdriver.a(spi.o)
 .debug_abbrev  0x00000000000064a7      0x100 ../../../driverlib/gcc/lib/Release/libdriver.a(timer.o)
 .debug_abbrev  0x00000000000065a7       0x48 ../../../driverlib/gcc/lib/Release/libdriver.a(utils.o)
 .debug_abbrev  0x00000000000065ef       0xb4 ../../../driverlib/gcc/lib/Release/libdriver.a(cpu.o)
 .debug_abbrev  0x00000000000066a3      0x15f /usr/lib/gcc/arm-none-eabi/5.2.0/../../../../arm-none-eabi/lib/armv7e-m/libc_nano.a(lib_a-atoi.o)
 .debug_abbrev  0x0000000000006802      0x18a /usr/lib/gcc/arm-none-eabi/5.2.0/../../../../arm-none-eabi/lib/armv7e-m/libc_nano.a(lib_a-malloc.o)
 .debug_abbrev  0x000000000000698c       0x7f /usr/lib/gcc/arm-none-eabi/5.2.0/../../../../arm-none-eabi/lib/armv7e-m/libc_nano.a(lib_a-memcmp.o)
 .debug_abbrev  0x0000000000006a0b       0xab /usr/lib/gcc/arm-none-eabi/5.2.0/../../../../arm-none-eabi/lib/armv7e-m/libc_nano.a(lib_a-memcpy.o)
 .debug_abbrev  0x0000000000006ab6       0x9c /usr/lib/gcc/arm-none-eabi/5.2.0/../../../../arm-none-eabi/lib/armv7e-m/libc_nano.a(lib_a-memmove.o)
 .debug_abbrev  0x0000000000006b52       0x8e /usr/lib/gcc/arm-none-eabi/5.2.0/../../../../arm-none-eabi/lib/armv7e-m/libc_nano.a(lib_a-memset.o)
 .debug_abbrev  0x0000000000006be0      0x1b6 /usr/lib/gcc/arm-none-eabi/5.2.0/../../../../arm-none-eabi/lib/armv7e-m/libc_nano.a(lib_a-nano-freer.o)
 .debug_abbrev  0x0000000000006d96      0x24e /usr/lib/gcc/arm-none-eabi/5.2.0/../../../../arm-none-eabi/lib/armv7e-m/libc_nano.a(lib_a-nano-mallocr.o)
 .debug_abbrev  0x0000000000006fe4      0x17f /usr/lib/gcc/arm-none-eabi/5.2.0/../../../../arm-none-eabi/lib/armv7e-m/libc_nano.a(lib_a-realloc.o)
 .debug_abbrev  0x0000000000007163      0x1a0 /usr/lib/gcc/arm-none-eabi/5.2.0/../../../../arm-none-eabi/lib/armv7e-m/libc_nano.a(lib_a-sbrkr.o)
 .debug_abbrev  0x0000000000007303       0x14 /usr/lib/gcc/arm-none-eabi/5.2.0/../../../../arm-none-eabi/lib/armv7e-m/libc_nano.a(lib_a-strcmp.o)
 .debug_abbrev  0x0000000000007317       0x72 /usr/lib/gcc/arm-none-eabi/5.2.0/../../../../arm-none-eabi/lib/armv7e-m/libc_nano.a(lib_a-strcpy.o)
 .debug_abbrev  0x0000000000007389       0x8c /usr/lib/gcc/arm-none-eabi/5.2.0/../../../../arm-none-eabi/lib/armv7e-m/libc_nano.a(lib_a-strlen.o)
 .debug_abbrev  0x0000000000007415       0x70 /usr/lib/gcc/arm-none-eabi/5.2.0/../../../../arm-none-eabi/lib/armv7e-m/libc_nano.a(lib_a-strncmp.o)
 .debug_abbrev  0x0000000000007485       0x97 /usr/lib/gcc/arm-none-eabi/5.2.0/../../../../arm-none-eabi/lib/armv7e-m/libc_nano.a(lib_a-strncpy.o)
 .debug_abbrev  0x000000000000751c      0x1e4 /usr/lib/gcc/arm-none-eabi/5.2.0/../../../../arm-none-eabi/lib/armv7e-m/libc_nano.a(lib_a-strtok.o)
 .debug_abbrev  0x0000000000007700       0xda /usr/lib/gcc/arm-none-eabi/5.2.0/../../../../arm-none-eabi/lib/armv7e-m/libc_nano.a(lib_a-strtok_r.o)
 .debug_abbrev  0x00000000000077da      0x1b3 /usr/lib/gcc/arm-none-eabi/5.2.0/../../../../arm-none-eabi/lib/armv7e-m/libc_nano.a(lib_a-strtol.o)
 .debug_abbrev  0x000000000000798d      0x1bd /usr/lib/gcc/arm-none-eabi/5.2.0/../../../../arm-none-eabi/lib/armv7e-m/libc_nano.a(lib_a-vsnprintf.o)
 .debug_abbrev  0x0000000000007b4a       0x4e /usr/lib/gcc/arm-none-eabi/5.2.0/../../../../arm-none-eabi/lib/armv7e-m/libc_nano.a(lib_a-ctype_.o)
 .debug_abbrev  0x0000000000007b98      0x136 /usr/lib/gcc/arm-none-eabi/5.2.0/../../../../arm-none-eabi/lib/armv7e-m/libc_nano.a(lib_a-impure.o)
 .debug_abbrev  0x0000000000007cce      0x1af /usr/lib/gcc/arm-none-eabi/5.2.0/../../../../arm-none-eabi/lib/armv7e-m/libc_nano.a(lib_a-nano-reallocr.o)
 .debug_abbrev  0x0000000000007e7d      0x23f /usr/lib/gcc/arm-none-eabi/5.2.0/../../../../arm-none-eabi/lib/armv7e-m/libc_nano.a(lib_a-nano-svfprintf.o)
 .debug_abbrev  0x00000000000080bc      0x1f4 /usr/lib/gcc/arm-none-eabi/5.2.0/../../../../arm-none-eabi/lib/armv7e-m/libc_nano.a(lib_a-nano-vfprintf_i.o)
 .debug_abbrev  0x00000000000082b0      0x1f2 /usr/lib/gcc/arm-none-eabi/5.2.0/../../../../arm-none-eabi/lib/armv7e-m/libc_nano.a(lib_a-reent.o)
 .debug_abbrev  0x00000000000084a2       0xab /usr/lib/gcc/arm-none-eabi/5.2.0/../../../../arm-none-eabi/lib/armv7e-m/libc_nano.a(lib_a-memchr.o)
 .debug_abbrev  0x000000000000854d      0x161 /usr/lib/gcc/arm-none-eabi/5.2.0/../../../../arm-none-eabi/lib/armv7e-m/libc_nano.a(lib_a-nano-msizer.o)

.debug_loc      0x0000000000000000    0x1d5e1
 .debug_loc     0x0000000000000000      0x2a7 obj/Release/main.o
 .debug_loc     0x00000000000002a7      0x821 obj/Release/server_client_cbs.o
 .debug_loc     0x0000000000000ac8      0x2be obj/Release/uart_if.o
 .debug_loc     0x0000000000000d86      0x8f3 obj/Release/network_if.o
 .debug_loc     0x0000000000001679      0x3cd obj/Release/gpio_if.o
 .debug_loc     0x0000000000001a46      0x689 obj/Release/timer_if.o
 .debug_loc     0x00000000000020cf      0x11b obj/Release/button_if.o
 .debug_loc     0x00000000000021ea       0x65 obj/Release/startup_gcc.o
 .debug_loc     0x000000000000224f      0xf47 ../../../netapps/mqtt/gcc/lib/client_server/Release/libmqtt.a(sl_mqtt_client.o)
 .debug_loc     0x0000000000003196      0x4ff ../../../netapps/mqtt/gcc/lib/client_server/Release/libmqtt.a(sl_mqtt_server.o)
 .debug_loc     0x0000000000003695      0x920 ../../../netapps/mqtt/gcc/lib/client_server/Release/libmqtt.a(cc32xx_sl_net.o)
 .debug_loc     0x0000000000003fb5     0x37a7 ../../../netapps/mqtt/gcc/lib/client_server/Release/libmqtt.a(mqtt_client.o)
 .debug_loc     0x000000000000775c      0xe81 ../../../netapps/mqtt/gcc/lib/client_server/Release/libmqtt.a(mqtt_common.o)
 .debug_loc     0x00000000000085dd     0x31d5 ../../../netapps/mqtt/gcc/lib/client_server/Release/libmqtt.a(server_core.o)
 .debug_loc     0x000000000000b7b2     0x1cff ../../../netapps/mqtt/gcc/lib/client_server/Release/libmqtt.a(server_pkts.o)
 .debug_loc     0x000000000000d4b1      0x6e9 ../../../netapps/mqtt/gcc/lib/client_server/Release/libmqtt.a(server_plug.o)
 .debug_loc     0x000000000000db9a      0x2c5 ../../../netapps/mqtt/gcc/lib/client_server/Release/libmqtt.a(server_util.o)
 .debug_loc     0x000000000000de5f     0x193a ../../../netapps/mqtt/gcc/lib/client_server/Release/libmqtt.a(client_mgmt.o)
 .debug_loc     0x000000000000f799      0x79f ../../../simplelink/gcc/lib/os/Release/libsimplelink.a(device.o)
 .debug_loc     0x000000000000ff38     0x1689 ../../../simplelink/gcc/lib/os/Release/libsimplelink.a(driver.o)
 .debug_loc     0x00000000000115c1     0x117e ../../../simplelink/gcc/lib/os/Release/libsimplelink.a(netapp.o)
 .debug_loc     0x000000000001273f      0x203 ../../../simplelink/gcc/lib/os/Release/libsimplelink.a(netcfg.o)
 .debug_loc     0x0000000000012942      0xfab ../../../simplelink/gcc/lib/os/Release/libsimplelink.a(socket.o)
 .debug_loc     0x00000000000138ed      0xf55 ../../../simplelink/gcc/lib/os/Release/libsimplelink.a(wlan.o)
 .debug_loc     0x0000000000014842      0x8e9 ../../../simplelink/gcc/lib/os/Release/libsimplelink.a(cc_pal.o)
 .debug_loc     0x000000000001512b      0x841 ../../../oslib/gcc/free_rtos/Release/free_rtos.a(osi_freertos.o)
 .debug_loc     0x000000000001596c     0x134e ../../../oslib/gcc/free_rtos/Release/free_rtos.a(queue.o)
 .debug_loc     0x0000000000016cba     0x1b04 ../../../oslib/gcc/free_rtos/Release/free_rtos.a(tasks.o)
 .debug_loc     0x00000000000187be       0x99 ../../../oslib/gcc/free_rtos/Release/free_rtos.a(port.o)
 .debug_loc     0x0000000000018857      0x913 ../../../oslib/gcc/free_rtos/Release/free_rtos.a(timers.o)
 .debug_loc     0x000000000001916a       0x81 ../../../oslib/gcc/free_rtos/Release/free_rtos.a(heap_3.o)
 .debug_loc     0x00000000000191eb       0x94 ../../../oslib/gcc/free_rtos/Release/free_rtos.a(list.o)
 .debug_loc     0x000000000001927f      0x31c ../../../driverlib/gcc/lib/Release/libdriver.a(gpio.o)
 .debug_loc     0x000000000001959b      0x165 ../../../driverlib/gcc/lib/Release/libdriver.a(interrupt.o)
 .debug_loc     0x0000000000019700      0xfa1 ../../../driverlib/gcc/lib/Release/libdriver.a(prcm.o)
 .debug_loc     0x000000000001a6a1      0xbbe ../../../driverlib/gcc/lib/Release/libdriver.a(spi.o)
 .debug_loc     0x000000000001b25f      0x465 ../../../driverlib/gcc/lib/Release/libdriver.a(timer.o)
 .debug_loc     0x000000000001b6c4       0x63 /usr/lib/gcc/arm-none-eabi/5.2.0/../../../../arm-none-eabi/lib/armv7e-m/libc_nano.a(lib_a-atoi.o)
 .debug_loc     0x000000000001b727       0x58 /usr/lib/gcc/arm-none-eabi/5.2.0/../../../../arm-none-eabi/lib/armv7e-m/libc_nano.a(lib_a-malloc.o)
 .debug_loc     0x000000000001b77f      0x12e /usr/lib/gcc/arm-none-eabi/5.2.0/../../../../arm-none-eabi/lib/armv7e-m/libc_nano.a(lib_a-memcmp.o)
 .debug_loc     0x000000000001b8ad       0x87 /usr/lib/gcc/arm-none-eabi/5.2.0/../../../../arm-none-eabi/lib/armv7e-m/libc_nano.a(lib_a-memcpy.o)
 .debug_loc     0x000000000001b934       0xde /usr/lib/gcc/arm-none-eabi/5.2.0/../../../../arm-none-eabi/lib/armv7e-m/libc_nano.a(lib_a-memmove.o)
 .debug_loc     0x000000000001ba12       0x57 /usr/lib/gcc/arm-none-eabi/5.2.0/../../../../arm-none-eabi/lib/armv7e-m/libc_nano.a(lib_a-memset.o)
 .debug_loc     0x000000000001ba69      0x172 /usr/lib/gcc/arm-none-eabi/5.2.0/../../../../arm-none-eabi/lib/armv7e-m/libc_nano.a(lib_a-nano-freer.o)
 .debug_loc     0x000000000001bbdb      0x311 /usr/lib/gcc/arm-none-eabi/5.2.0/../../../../arm-none-eabi/lib/armv7e-m/libc_nano.a(lib_a-nano-mallocr.o)
 .debug_loc     0x000000000001beec       0x58 /usr/lib/gcc/arm-none-eabi/5.2.0/../../../../arm-none-eabi/lib/armv7e-m/libc_nano.a(lib_a-realloc.o)
 .debug_loc     0x000000000001bf44       0x4d /usr/lib/gcc/arm-none-eabi/5.2.0/../../../../arm-none-eabi/lib/armv7e-m/libc_nano.a(lib_a-sbrkr.o)
 .debug_loc     0x000000000001bf91       0x21 /usr/lib/gcc/arm-none-eabi/5.2.0/../../../../arm-none-eabi/lib/armv7e-m/libc_nano.a(lib_a-strcpy.o)
 .debug_loc     0x000000000001bfb2       0x21 /usr/lib/gcc/arm-none-eabi/5.2.0/../../../../arm-none-eabi/lib/armv7e-m/libc_nano.a(lib_a-strlen.o)
 .debug_loc     0x000000000001bfd3       0x80 /usr/lib/gcc/arm-none-eabi/5.2.0/../../../../arm-none-eabi/lib/armv7e-m/libc_nano.a(lib_a-strncmp.o)
 .debug_loc     0x000000000001c053       0xdb /usr/lib/gcc/arm-none-eabi/5.2.0/../../../../arm-none-eabi/lib/armv7e-m/libc_nano.a(lib_a-strncpy.o)
 .debug_loc     0x000000000001c12e       0x94 /usr/lib/gcc/arm-none-eabi/5.2.0/../../../../arm-none-eabi/lib/armv7e-m/libc_nano.a(lib_a-strtok.o)
 .debug_loc     0x000000000001c1c2      0x1a3 /usr/lib/gcc/arm-none-eabi/5.2.0/../../../../arm-none-eabi/lib/armv7e-m/libc_nano.a(lib_a-strtok_r.o)
 .debug_loc     0x000000000001c365      0x32b /usr/lib/gcc/arm-none-eabi/5.2.0/../../../../arm-none-eabi/lib/armv7e-m/libc_nano.a(lib_a-strtol.o)
 .debug_loc     0x000000000001c690      0x163 /usr/lib/gcc/arm-none-eabi/5.2.0/../../../../arm-none-eabi/lib/armv7e-m/libc_nano.a(lib_a-vsnprintf.o)
 .debug_loc     0x000000000001c7f3      0x11b /usr/lib/gcc/arm-none-eabi/5.2.0/../../../../arm-none-eabi/lib/armv7e-m/libc_nano.a(lib_a-nano-reallocr.o)
 .debug_loc     0x000000000001c90e      0x54e /usr/lib/gcc/arm-none-eabi/5.2.0/../../../../arm-none-eabi/lib/armv7e-m/libc_nano.a(lib_a-nano-svfprintf.o)
 .debug_loc     0x000000000001ce5c      0x52c /usr/lib/gcc/arm-none-eabi/5.2.0/../../../../arm-none-eabi/lib/armv7e-m/libc_nano.a(lib_a-nano-vfprintf_i.o)
 .debug_loc     0x000000000001d388       0xfa /usr/lib/gcc/arm-none-eabi/5.2.0/../../../../arm-none-eabi/lib/armv7e-m/libc_nano.a(lib_a-reent.o)
 .debug_loc     0x000000000001d482       0xaa /usr/lib/gcc/arm-none-eabi/5.2.0/../../../../arm-none-eabi/lib/armv7e-m/libc_nano.a(lib_a-memchr.o)
 .debug_loc     0x000000000001d52c       0xb5 /usr/lib/gcc/arm-none-eabi/5.2.0/../../../../arm-none-eabi/lib/armv7e-m/libc_nano.a(lib_a-nano-msizer.o)

.debug_aranges  0x0000000000000000     0x1cc8
 .debug_aranges
                0x0000000000000000       0x58 obj/Release/main.o
 .debug_aranges
                0x0000000000000058       0x20 obj/Release/pinmux.o
 .debug_aranges
                0x0000000000000078       0x48 obj/Release/server_client_cbs.o
 .debug_aranges
                0x00000000000000c0       0x50 obj/Release/uart_if.o
 .debug_aranges
                0x0000000000000110       0xc8 obj/Release/network_if.o
 .debug_aranges
                0x00000000000001d8       0x60 obj/Release/gpio_if.o
 .debug_aranges
                0x0000000000000238       0x58 obj/Release/timer_if.o
 .debug_aranges
                0x0000000000000290       0x40 obj/Release/button_if.o
 .debug_aranges
                0x00000000000002d0       0x48 obj/Release/startup_gcc.o
 .debug_aranges
                0x0000000000000318       0xb0 ../../../netapps/mqtt/gcc/lib/client_server/Release/libmqtt.a(sl_mqtt_client.o)
 .debug_aranges
                0x00000000000003c8       0x88 ../../../netapps/mqtt/gcc/lib/client_server/Release/libmqtt.a(sl_mqtt_server.o)
 .debug_aranges
                0x0000000000000450       0x68 ../../../netapps/mqtt/gcc/lib/client_server/Release/libmqtt.a(cc32xx_sl_net.o)
 .debug_aranges
                0x00000000000004b8       0x28 ../../../netapps/mqtt/gcc/lib/client_server/Release/libmqtt.a(cc32xx_platform.o)
 .debug_aranges
                0x00000000000004e0      0x178 ../../../netapps/mqtt/gcc/lib/client_server/Release/libmqtt.a(mqtt_client.o)
 .debug_aranges
                0x0000000000000658      0x100 ../../../netapps/mqtt/gcc/lib/client_server/Release/libmqtt.a(mqtt_common.o)
 .debug_aranges
                0x0000000000000758      0x130 ../../../netapps/mqtt/gcc/lib/client_server/Release/libmqtt.a(server_core.o)
 .debug_aranges
                0x0000000000000888       0xa8 ../../../netapps/mqtt/gcc/lib/client_server/Release/libmqtt.a(server_pkts.o)
 .debug_aranges
                0x0000000000000930       0x58 ../../../netapps/mqtt/gcc/lib/client_server/Release/libmqtt.a(server_plug.o)
 .debug_aranges
                0x0000000000000988       0x58 ../../../netapps/mqtt/gcc/lib/client_server/Release/libmqtt.a(server_util.o)
 .debug_aranges
                0x00000000000009e0       0xc0 ../../../netapps/mqtt/gcc/lib/client_server/Release/libmqtt.a(client_mgmt.o)
 .debug_aranges
                0x0000000000000aa0       0x68 ../../../simplelink/gcc/lib/os/Release/libsimplelink.a(device.o)
 .debug_aranges
                0x0000000000000b08      0x118 ../../../simplelink/gcc/lib/os/Release/libsimplelink.a(driver.o)
 .debug_aranges
                0x0000000000000c20       0xa0 ../../../simplelink/gcc/lib/os/Release/libsimplelink.a(netapp.o)
 .debug_aranges
                0x0000000000000cc0       0x28 ../../../simplelink/gcc/lib/os/Release/libsimplelink.a(netcfg.o)
 .debug_aranges
                0x0000000000000ce8       0xd8 ../../../simplelink/gcc/lib/os/Release/libsimplelink.a(socket.o)
 .debug_aranges
                0x0000000000000dc0       0xb0 ../../../simplelink/gcc/lib/os/Release/libsimplelink.a(wlan.o)
 .debug_aranges
                0x0000000000000e70       0xa8 ../../../simplelink/gcc/lib/os/Release/libsimplelink.a(cc_pal.o)
 .debug_aranges
                0x0000000000000f18      0x110 ../../../oslib/gcc/free_rtos/Release/free_rtos.a(osi_freertos.o)
 .debug_aranges
                0x0000000000001028      0x110 ../../../oslib/gcc/free_rtos/Release/free_rtos.a(queue.o)
 .debug_aranges
                0x0000000000001138      0x1b0 ../../../oslib/gcc/free_rtos/Release/free_rtos.a(tasks.o)
 .debug_aranges
                0x00000000000012e8       0x90 ../../../oslib/gcc/free_rtos/Release/free_rtos.a(port.o)
 .debug_aranges
                0x0000000000001378       0x88 ../../../oslib/gcc/free_rtos/Release/free_rtos.a(timers.o)
 .debug_aranges
                0x0000000000001400       0x28 ../../../oslib/gcc/free_rtos/Release/free_rtos.a(heap_3.o)
 .debug_aranges
                0x0000000000001428       0x40 ../../../oslib/gcc/free_rtos/Release/free_rtos.a(list.o)
 .debug_aranges
                0x0000000000001468       0x90 ../../../driverlib/gcc/lib/Release/libdriver.a(gpio.o)
 .debug_aranges
                0x00000000000014f8       0x98 ../../../driverlib/gcc/lib/Release/libdriver.a(interrupt.o)
 .debug_aranges
                0x0000000000001590      0x190 ../../../driverlib/gcc/lib/Release/libdriver.a(prcm.o)
 .debug_aranges
                0x0000000000001720       0xd0 ../../../driverlib/gcc/lib/Release/libdriver.a(spi.o)
 .debug_aranges
                0x00000000000017f0       0xd8 ../../../driverlib/gcc/lib/Release/libdriver.a(timer.o)
 .debug_aranges
                0x00000000000018c8       0x20 ../../../driverlib/gcc/lib/Release/libdriver.a(utils.o)
 .debug_aranges
                0x00000000000018e8       0x48 ../../../driverlib/gcc/lib/Release/libdriver.a(cpu.o)
 .debug_aranges
                0x0000000000001930       0x28 /usr/lib/gcc/arm-none-eabi/5.2.0/../../../../arm-none-eabi/lib/armv7e-m/libc_nano.a(lib_a-atoi.o)
 .debug_aranges
                0x0000000000001958       0x28 /usr/lib/gcc/arm-none-eabi/5.2.0/../../../../arm-none-eabi/lib/armv7e-m/libc_nano.a(lib_a-malloc.o)
 .debug_aranges
                0x0000000000001980       0x20 /usr/lib/gcc/arm-none-eabi/5.2.0/../../../../arm-none-eabi/lib/armv7e-m/libc_nano.a(lib_a-memcmp.o)
 .debug_aranges
                0x00000000000019a0       0x20 /usr/lib/gcc/arm-none-eabi/5.2.0/../../../../arm-none-eabi/lib/armv7e-m/libc_nano.a(lib_a-memcpy.o)
 .debug_aranges
                0x00000000000019c0       0x20 /usr/lib/gcc/arm-none-eabi/5.2.0/../../../../arm-none-eabi/lib/armv7e-m/libc_nano.a(lib_a-memmove.o)
 .debug_aranges
                0x00000000000019e0       0x20 /usr/lib/gcc/arm-none-eabi/5.2.0/../../../../arm-none-eabi/lib/armv7e-m/libc_nano.a(lib_a-memset.o)
 .debug_aranges
                0x0000000000001a00       0x20 /usr/lib/gcc/arm-none-eabi/5.2.0/../../../../arm-none-eabi/lib/armv7e-m/libc_nano.a(lib_a-nano-freer.o)
 .debug_aranges
                0x0000000000001a20       0x20 /usr/lib/gcc/arm-none-eabi/5.2.0/../../../../arm-none-eabi/lib/armv7e-m/libc_nano.a(lib_a-nano-mallocr.o)
 .debug_aranges
                0x0000000000001a40       0x20 /usr/lib/gcc/arm-none-eabi/5.2.0/../../../../arm-none-eabi/lib/armv7e-m/libc_nano.a(lib_a-realloc.o)
 .debug_aranges
                0x0000000000001a60       0x20 /usr/lib/gcc/arm-none-eabi/5.2.0/../../../../arm-none-eabi/lib/armv7e-m/libc_nano.a(lib_a-sbrkr.o)
 .debug_aranges
                0x0000000000001a80       0x20 /usr/lib/gcc/arm-none-eabi/5.2.0/../../../../arm-none-eabi/lib/armv7e-m/libc_nano.a(lib_a-strcmp.o)
 .debug_aranges
                0x0000000000001aa0       0x20 /usr/lib/gcc/arm-none-eabi/5.2.0/../../../../arm-none-eabi/lib/armv7e-m/libc_nano.a(lib_a-strcpy.o)
 .debug_aranges
                0x0000000000001ac0       0x20 /usr/lib/gcc/arm-none-eabi/5.2.0/../../../../arm-none-eabi/lib/armv7e-m/libc_nano.a(lib_a-strlen.o)
 .debug_aranges
                0x0000000000001ae0       0x20 /usr/lib/gcc/arm-none-eabi/5.2.0/../../../../arm-none-eabi/lib/armv7e-m/libc_nano.a(lib_a-strncmp.o)
 .debug_aranges
                0x0000000000001b00       0x20 /usr/lib/gcc/arm-none-eabi/5.2.0/../../../../arm-none-eabi/lib/armv7e-m/libc_nano.a(lib_a-strncpy.o)
 .debug_aranges
                0x0000000000001b20       0x20 /usr/lib/gcc/arm-none-eabi/5.2.0/../../../../arm-none-eabi/lib/armv7e-m/libc_nano.a(lib_a-strtok.o)
 .debug_aranges
                0x0000000000001b40       0x28 /usr/lib/gcc/arm-none-eabi/5.2.0/../../../../arm-none-eabi/lib/armv7e-m/libc_nano.a(lib_a-strtok_r.o)
 .debug_aranges
                0x0000000000001b68       0x28 /usr/lib/gcc/arm-none-eabi/5.2.0/../../../../arm-none-eabi/lib/armv7e-m/libc_nano.a(lib_a-strtol.o)
 .debug_aranges
                0x0000000000001b90       0x28 /usr/lib/gcc/arm-none-eabi/5.2.0/../../../../arm-none-eabi/lib/armv7e-m/libc_nano.a(lib_a-vsnprintf.o)
 .debug_aranges
                0x0000000000001bb8       0x18 /usr/lib/gcc/arm-none-eabi/5.2.0/../../../../arm-none-eabi/lib/armv7e-m/libc_nano.a(lib_a-ctype_.o)
 .debug_aranges
                0x0000000000001bd0       0x18 /usr/lib/gcc/arm-none-eabi/5.2.0/../../../../arm-none-eabi/lib/armv7e-m/libc_nano.a(lib_a-impure.o)
 .debug_aranges
                0x0000000000001be8       0x20 /usr/lib/gcc/arm-none-eabi/5.2.0/../../../../arm-none-eabi/lib/armv7e-m/libc_nano.a(lib_a-nano-reallocr.o)
 .debug_aranges
                0x0000000000001c08       0x30 /usr/lib/gcc/arm-none-eabi/5.2.0/../../../../arm-none-eabi/lib/armv7e-m/libc_nano.a(lib_a-nano-svfprintf.o)
 .debug_aranges
                0x0000000000001c38       0x28 /usr/lib/gcc/arm-none-eabi/5.2.0/../../../../arm-none-eabi/lib/armv7e-m/libc_nano.a(lib_a-nano-vfprintf_i.o)
 .debug_aranges
                0x0000000000001c60       0x28 /usr/lib/gcc/arm-none-eabi/5.2.0/../../../../arm-none-eabi/lib/armv7e-m/libc_nano.a(lib_a-reent.o)
 .debug_aranges
                0x0000000000001c88       0x20 /usr/lib/gcc/arm-none-eabi/5.2.0/../../../../arm-none-eabi/lib/armv7e-m/libc_nano.a(lib_a-memchr.o)
 .debug_aranges
                0x0000000000001ca8       0x20 /usr/lib/gcc/arm-none-eabi/5.2.0/../../../../arm-none-eabi/lib/armv7e-m/libc_nano.a(lib_a-nano-msizer.o)

.debug_ranges   0x0000000000000000     0x2ed8
 .debug_ranges  0x0000000000000000       0x48 obj/Release/main.o
 .debug_ranges  0x0000000000000048       0x10 obj/Release/pinmux.o
 .debug_ranges  0x0000000000000058       0x38 obj/Release/server_client_cbs.o
 .debug_ranges  0x0000000000000090       0x40 obj/Release/uart_if.o
 .debug_ranges  0x00000000000000d0       0xb8 obj/Release/network_if.o
 .debug_ranges  0x0000000000000188       0x68 obj/Release/gpio_if.o
 .debug_ranges  0x00000000000001f0       0x48 obj/Release/timer_if.o
 .debug_ranges  0x0000000000000238       0x78 obj/Release/button_if.o
 .debug_ranges  0x00000000000002b0       0x38 obj/Release/startup_gcc.o
 .debug_ranges  0x00000000000002e8       0xf8 ../../../netapps/mqtt/gcc/lib/client_server/Release/libmqtt.a(sl_mqtt_client.o)
 .debug_ranges  0x00000000000003e0       0x78 ../../../netapps/mqtt/gcc/lib/client_server/Release/libmqtt.a(sl_mqtt_server.o)
 .debug_ranges  0x0000000000000458       0x70 ../../../netapps/mqtt/gcc/lib/client_server/Release/libmqtt.a(cc32xx_sl_net.o)
 .debug_ranges  0x00000000000004c8       0x18 ../../../netapps/mqtt/gcc/lib/client_server/Release/libmqtt.a(cc32xx_platform.o)
 .debug_ranges  0x00000000000004e0      0x478 ../../../netapps/mqtt/gcc/lib/client_server/Release/libmqtt.a(mqtt_client.o)
 .debug_ranges  0x0000000000000958      0x138 ../../../netapps/mqtt/gcc/lib/client_server/Release/libmqtt.a(mqtt_common.o)
 .debug_ranges  0x0000000000000a90      0x590 ../../../netapps/mqtt/gcc/lib/client_server/Release/libmqtt.a(server_core.o)
 .debug_ranges  0x0000000000001020      0x398 ../../../netapps/mqtt/gcc/lib/client_server/Release/libmqtt.a(server_pkts.o)
 .debug_ranges  0x00000000000013b8       0x90 ../../../netapps/mqtt/gcc/lib/client_server/Release/libmqtt.a(server_plug.o)
 .debug_ranges  0x0000000000001448       0x48 ../../../netapps/mqtt/gcc/lib/client_server/Release/libmqtt.a(server_util.o)
 .debug_ranges  0x0000000000001490      0x218 ../../../netapps/mqtt/gcc/lib/client_server/Release/libmqtt.a(client_mgmt.o)
 .debug_ranges  0x00000000000016a8       0xe0 ../../../simplelink/gcc/lib/os/Release/libsimplelink.a(device.o)
 .debug_ranges  0x0000000000001788      0x270 ../../../simplelink/gcc/lib/os/Release/libsimplelink.a(driver.o)
 .debug_ranges  0x00000000000019f8      0x128 ../../../simplelink/gcc/lib/os/Release/libsimplelink.a(netapp.o)
 .debug_ranges  0x0000000000001b20       0x30 ../../../simplelink/gcc/lib/os/Release/libsimplelink.a(netcfg.o)
 .debug_ranges  0x0000000000001b50      0x150 ../../../simplelink/gcc/lib/os/Release/libsimplelink.a(socket.o)
 .debug_ranges  0x0000000000001ca0      0x180 ../../../simplelink/gcc/lib/os/Release/libsimplelink.a(wlan.o)
 .debug_ranges  0x0000000000001e20       0xf8 ../../../simplelink/gcc/lib/os/Release/libsimplelink.a(cc_pal.o)
 .debug_ranges  0x0000000000001f18      0x100 ../../../oslib/gcc/free_rtos/Release/free_rtos.a(osi_freertos.o)
 .debug_ranges  0x0000000000002018      0x100 ../../../oslib/gcc/free_rtos/Release/free_rtos.a(queue.o)
 .debug_ranges  0x0000000000002118      0x250 ../../../oslib/gcc/free_rtos/Release/free_rtos.a(tasks.o)
 .debug_ranges  0x0000000000002368       0x80 ../../../oslib/gcc/free_rtos/Release/free_rtos.a(port.o)
 .debug_ranges  0x00000000000023e8       0x90 ../../../oslib/gcc/free_rtos/Release/free_rtos.a(timers.o)
 .debug_ranges  0x0000000000002478       0x18 ../../../oslib/gcc/free_rtos/Release/free_rtos.a(heap_3.o)
 .debug_ranges  0x0000000000002490       0x30 ../../../oslib/gcc/free_rtos/Release/free_rtos.a(list.o)
 .debug_ranges  0x00000000000024c0       0x80 ../../../driverlib/gcc/lib/Release/libdriver.a(gpio.o)
 .debug_ranges  0x0000000000002540       0x88 ../../../driverlib/gcc/lib/Release/libdriver.a(interrupt.o)
 .debug_ranges  0x00000000000025c8      0x480 ../../../driverlib/gcc/lib/Release/libdriver.a(prcm.o)
 .debug_ranges  0x0000000000002a48       0xf0 ../../../driverlib/gcc/lib/Release/libdriver.a(spi.o)
 .debug_ranges  0x0000000000002b38       0xc8 ../../../driverlib/gcc/lib/Release/libdriver.a(timer.o)
 .debug_ranges  0x0000000000002c00       0x10 ../../../driverlib/gcc/lib/Release/libdriver.a(utils.o)
 .debug_ranges  0x0000000000002c10       0x38 ../../../driverlib/gcc/lib/Release/libdriver.a(cpu.o)
 .debug_ranges  0x0000000000002c48       0x18 /usr/lib/gcc/arm-none-eabi/5.2.0/../../../../arm-none-eabi/lib/armv7e-m/libc_nano.a(lib_a-atoi.o)
 .debug_ranges  0x0000000000002c60       0x18 /usr/lib/gcc/arm-none-eabi/5.2.0/../../../../arm-none-eabi/lib/armv7e-m/libc_nano.a(lib_a-malloc.o)
 .debug_ranges  0x0000000000002c78       0x10 /usr/lib/gcc/arm-none-eabi/5.2.0/../../../../arm-none-eabi/lib/armv7e-m/libc_nano.a(lib_a-memcmp.o)
 .debug_ranges  0x0000000000002c88       0x10 /usr/lib/gcc/arm-none-eabi/5.2.0/../../../../arm-none-eabi/lib/armv7e-m/libc_nano.a(lib_a-memcpy.o)
 .debug_ranges  0x0000000000002c98       0x10 /usr/lib/gcc/arm-none-eabi/5.2.0/../../../../arm-none-eabi/lib/armv7e-m/libc_nano.a(lib_a-memmove.o)
 .debug_ranges  0x0000000000002ca8       0x10 /usr/lib/gcc/arm-none-eabi/5.2.0/../../../../arm-none-eabi/lib/armv7e-m/libc_nano.a(lib_a-memset.o)
 .debug_ranges  0x0000000000002cb8       0x28 /usr/lib/gcc/arm-none-eabi/5.2.0/../../../../arm-none-eabi/lib/armv7e-m/libc_nano.a(lib_a-nano-freer.o)
 .debug_ranges  0x0000000000002ce0       0x28 /usr/lib/gcc/arm-none-eabi/5.2.0/../../../../arm-none-eabi/lib/armv7e-m/libc_nano.a(lib_a-nano-mallocr.o)
 .debug_ranges  0x0000000000002d08       0x10 /usr/lib/gcc/arm-none-eabi/5.2.0/../../../../arm-none-eabi/lib/armv7e-m/libc_nano.a(lib_a-realloc.o)
 .debug_ranges  0x0000000000002d18       0x10 /usr/lib/gcc/arm-none-eabi/5.2.0/../../../../arm-none-eabi/lib/armv7e-m/libc_nano.a(lib_a-sbrkr.o)
 .debug_ranges  0x0000000000002d28       0x10 /usr/lib/gcc/arm-none-eabi/5.2.0/../../../../arm-none-eabi/lib/armv7e-m/libc_nano.a(lib_a-strcpy.o)
 .debug_ranges  0x0000000000002d38       0x10 /usr/lib/gcc/arm-none-eabi/5.2.0/../../../../arm-none-eabi/lib/armv7e-m/libc_nano.a(lib_a-strlen.o)
 .debug_ranges  0x0000000000002d48       0x10 /usr/lib/gcc/arm-none-eabi/5.2.0/../../../../arm-none-eabi/lib/armv7e-m/libc_nano.a(lib_a-strncmp.o)
 .debug_ranges  0x0000000000002d58       0x10 /usr/lib/gcc/arm-none-eabi/5.2.0/../../../../arm-none-eabi/lib/armv7e-m/libc_nano.a(lib_a-strncpy.o)
 .debug_ranges  0x0000000000002d68       0x28 /usr/lib/gcc/arm-none-eabi/5.2.0/../../../../arm-none-eabi/lib/armv7e-m/libc_nano.a(lib_a-strtok.o)
 .debug_ranges  0x0000000000002d90       0x18 /usr/lib/gcc/arm-none-eabi/5.2.0/../../../../arm-none-eabi/lib/armv7e-m/libc_nano.a(lib_a-strtok_r.o)
 .debug_ranges  0x0000000000002da8       0x18 /usr/lib/gcc/arm-none-eabi/5.2.0/../../../../arm-none-eabi/lib/armv7e-m/libc_nano.a(lib_a-strtol.o)
 .debug_ranges  0x0000000000002dc0       0x18 /usr/lib/gcc/arm-none-eabi/5.2.0/../../../../arm-none-eabi/lib/armv7e-m/libc_nano.a(lib_a-vsnprintf.o)
 .debug_ranges  0x0000000000002dd8       0x10 /usr/lib/gcc/arm-none-eabi/5.2.0/../../../../arm-none-eabi/lib/armv7e-m/libc_nano.a(lib_a-nano-reallocr.o)
 .debug_ranges  0x0000000000002de8       0x50 /usr/lib/gcc/arm-none-eabi/5.2.0/../../../../arm-none-eabi/lib/armv7e-m/libc_nano.a(lib_a-nano-svfprintf.o)
 .debug_ranges  0x0000000000002e38       0x68 /usr/lib/gcc/arm-none-eabi/5.2.0/../../../../arm-none-eabi/lib/armv7e-m/libc_nano.a(lib_a-nano-vfprintf_i.o)
 .debug_ranges  0x0000000000002ea0       0x18 /usr/lib/gcc/arm-none-eabi/5.2.0/../../../../arm-none-eabi/lib/armv7e-m/libc_nano.a(lib_a-reent.o)
 .debug_ranges  0x0000000000002eb8       0x10 /usr/lib/gcc/arm-none-eabi/5.2.0/../../../../arm-none-eabi/lib/armv7e-m/libc_nano.a(lib_a-memchr.o)
 .debug_ranges  0x0000000000002ec8       0x10 /usr/lib/gcc/arm-none-eabi/5.2.0/../../../../arm-none-eabi/lib/armv7e-m/libc_nano.a(lib_a-nano-msizer.o)

.debug_line     0x0000000000000000     0xab3e
 .debug_line    0x0000000000000000      0x2dc obj/Release/main.o
 .debug_line    0x00000000000002dc       0x71 obj/Release/pinmux.o
 .debug_line    0x000000000000034d      0x1c7 obj/Release/server_client_cbs.o
 .debug_line    0x0000000000000514      0x1dd obj/Release/uart_if.o
 .debug_line    0x00000000000006f1      0x4bc obj/Release/network_if.o
 .debug_line    0x0000000000000bad      0x178 obj/Release/gpio_if.o
 .debug_line    0x0000000000000d25      0x15e obj/Release/timer_if.o
 .debug_line    0x0000000000000e83      0x132 obj/Release/button_if.o
 .debug_line    0x0000000000000fb5      0x127 obj/Release/startup_gcc.o
 .debug_line    0x00000000000010dc      0x458 ../../../netapps/mqtt/gcc/lib/client_server/Release/libmqtt.a(sl_mqtt_client.o)
 .debug_line    0x0000000000001534      0x2ba ../../../netapps/mqtt/gcc/lib/client_server/Release/libmqtt.a(sl_mqtt_server.o)
 .debug_line    0x00000000000017ee      0x294 ../../../netapps/mqtt/gcc/lib/client_server/Release/libmqtt.a(cc32xx_sl_net.o)
 .debug_line    0x0000000000001a82       0x8f ../../../netapps/mqtt/gcc/lib/client_server/Release/libmqtt.a(cc32xx_platform.o)
 .debug_line    0x0000000000001b11      0xac1 ../../../netapps/mqtt/gcc/lib/client_server/Release/libmqtt.a(mqtt_client.o)
 .debug_line    0x00000000000025d2      0x3e3 ../../../netapps/mqtt/gcc/lib/client_server/Release/libmqtt.a(mqtt_common.o)
 .debug_line    0x00000000000029b5      0x86f ../../../netapps/mqtt/gcc/lib/client_server/Release/libmqtt.a(server_core.o)
 .debug_line    0x0000000000003224      0x54f ../../../netapps/mqtt/gcc/lib/client_server/Release/libmqtt.a(server_pkts.o)
 .debug_line    0x0000000000003773      0x21d ../../../netapps/mqtt/gcc/lib/client_server/Release/libmqtt.a(server_plug.o)
 .debug_line    0x0000000000003990      0x15b ../../../netapps/mqtt/gcc/lib/client_server/Release/libmqtt.a(server_util.o)
 .debug_line    0x0000000000003aeb      0x4d6 ../../../netapps/mqtt/gcc/lib/client_server/Release/libmqtt.a(client_mgmt.o)
 .debug_line    0x0000000000003fc1      0x291 ../../../simplelink/gcc/lib/os/Release/libsimplelink.a(device.o)
 .debug_line    0x0000000000004252      0x6e2 ../../../simplelink/gcc/lib/os/Release/libsimplelink.a(driver.o)
 .debug_line    0x0000000000004934      0x425 ../../../simplelink/gcc/lib/os/Release/libsimplelink.a(netapp.o)
 .debug_line    0x0000000000004d59       0xf0 ../../../simplelink/gcc/lib/os/Release/libsimplelink.a(netcfg.o)
 .debug_line    0x0000000000004e49      0x51b ../../../simplelink/gcc/lib/os/Release/libsimplelink.a(socket.o)
 .debug_line    0x0000000000005364      0x48c ../../../simplelink/gcc/lib/os/Release/libsimplelink.a(wlan.o)
 .debug_line    0x00000000000057f0      0x376 ../../../simplelink/gcc/lib/os/Release/libsimplelink.a(cc_pal.o)
 .debug_line    0x0000000000005b66      0x437 ../../../oslib/gcc/free_rtos/Release/free_rtos.a(osi_freertos.o)
 .debug_line    0x0000000000005f9d      0x6c2 ../../../oslib/gcc/free_rtos/Release/free_rtos.a(queue.o)
 .debug_line    0x000000000000665f      0xb33 ../../../oslib/gcc/free_rtos/Release/free_rtos.a(tasks.o)
 .debug_line    0x0000000000007192      0x2c0 ../../../oslib/gcc/free_rtos/Release/free_rtos.a(port.o)
 .debug_line    0x0000000000007452      0x380 ../../../oslib/gcc/free_rtos/Release/free_rtos.a(timers.o)
 .debug_line    0x00000000000077d2      0x118 ../../../oslib/gcc/free_rtos/Release/free_rtos.a(heap_3.o)
 .debug_line    0x00000000000078ea      0x1aa ../../../oslib/gcc/free_rtos/Release/free_rtos.a(list.o)
 .debug_line    0x0000000000007a94      0x1bf ../../../driverlib/gcc/lib/Release/libdriver.a(gpio.o)
 .debug_line    0x0000000000007c53      0x1b7 ../../../driverlib/gcc/lib/Release/libdriver.a(interrupt.o)
 .debug_line    0x0000000000007e0a      0x686 ../../../driverlib/gcc/lib/Release/libdriver.a(prcm.o)
 .debug_line    0x0000000000008490      0x336 ../../../driverlib/gcc/lib/Release/libdriver.a(spi.o)
 .debug_line    0x00000000000087c6      0x2ac ../../../driverlib/gcc/lib/Release/libdriver.a(timer.o)
 .debug_line    0x0000000000008a72       0x3c ../../../driverlib/gcc/lib/Release/libdriver.a(utils.o)
 .debug_line    0x0000000000008aae       0x9d ../../../driverlib/gcc/lib/Release/libdriver.a(cpu.o)
 .debug_line    0x0000000000008b4b      0x146 /usr/lib/gcc/arm-none-eabi/5.2.0/../../../../arm-none-eabi/lib/armv7e-m/libc_nano.a(lib_a-atoi.o)
 .debug_line    0x0000000000008c91      0x148 /usr/lib/gcc/arm-none-eabi/5.2.0/../../../../arm-none-eabi/lib/armv7e-m/libc_nano.a(lib_a-malloc.o)
 .debug_line    0x0000000000008dd9       0xde /usr/lib/gcc/arm-none-eabi/5.2.0/../../../../arm-none-eabi/lib/armv7e-m/libc_nano.a(lib_a-memcmp.o)
 .debug_line    0x0000000000008eb7       0xdc /usr/lib/gcc/arm-none-eabi/5.2.0/../../../../arm-none-eabi/lib/armv7e-m/libc_nano.a(lib_a-memcpy.o)
 .debug_line    0x0000000000008f93       0xe9 /usr/lib/gcc/arm-none-eabi/5.2.0/../../../../arm-none-eabi/lib/armv7e-m/libc_nano.a(lib_a-memmove.o)
 .debug_line    0x000000000000907c       0xdd /usr/lib/gcc/arm-none-eabi/5.2.0/../../../../arm-none-eabi/lib/armv7e-m/libc_nano.a(lib_a-memset.o)
 .debug_line    0x0000000000009159      0x13b /usr/lib/gcc/arm-none-eabi/5.2.0/../../../../arm-none-eabi/lib/armv7e-m/libc_nano.a(lib_a-nano-freer.o)
 .debug_line    0x0000000000009294      0x175 /usr/lib/gcc/arm-none-eabi/5.2.0/../../../../arm-none-eabi/lib/armv7e-m/libc_nano.a(lib_a-nano-mallocr.o)
 .debug_line    0x0000000000009409      0x137 /usr/lib/gcc/arm-none-eabi/5.2.0/../../../../arm-none-eabi/lib/armv7e-m/libc_nano.a(lib_a-realloc.o)
 .debug_line    0x0000000000009540      0x140 /usr/lib/gcc/arm-none-eabi/5.2.0/../../../../arm-none-eabi/lib/armv7e-m/libc_nano.a(lib_a-sbrkr.o)
 .debug_line    0x0000000000009680       0x75 /usr/lib/gcc/arm-none-eabi/5.2.0/../../../../arm-none-eabi/lib/armv7e-m/libc_nano.a(lib_a-strcmp.o)
 .debug_line    0x00000000000096f5       0xab /usr/lib/gcc/arm-none-eabi/5.2.0/../../../../arm-none-eabi/lib/armv7e-m/libc_nano.a(lib_a-strcpy.o)
 .debug_line    0x00000000000097a0       0xe4 /usr/lib/gcc/arm-none-eabi/5.2.0/../../../../arm-none-eabi/lib/armv7e-m/libc_nano.a(lib_a-strlen.o)
 .debug_line    0x0000000000009884       0xeb /usr/lib/gcc/arm-none-eabi/5.2.0/../../../../arm-none-eabi/lib/armv7e-m/libc_nano.a(lib_a-strncmp.o)
 .debug_line    0x000000000000996f       0xe3 /usr/lib/gcc/arm-none-eabi/5.2.0/../../../../arm-none-eabi/lib/armv7e-m/libc_nano.a(lib_a-strncpy.o)
 .debug_line    0x0000000000009a52      0x147 /usr/lib/gcc/arm-none-eabi/5.2.0/../../../../arm-none-eabi/lib/armv7e-m/libc_nano.a(lib_a-strtok.o)
 .debug_line    0x0000000000009b99       0xdc /usr/lib/gcc/arm-none-eabi/5.2.0/../../../../arm-none-eabi/lib/armv7e-m/libc_nano.a(lib_a-strtok_r.o)
 .debug_line    0x0000000000009c75      0x1c3 /usr/lib/gcc/arm-none-eabi/5.2.0/../../../../arm-none-eabi/lib/armv7e-m/libc_nano.a(lib_a-strtol.o)
 .debug_line    0x0000000000009e38      0x17d /usr/lib/gcc/arm-none-eabi/5.2.0/../../../../arm-none-eabi/lib/armv7e-m/libc_nano.a(lib_a-vsnprintf.o)
 .debug_line    0x0000000000009fb5       0x61 /usr/lib/gcc/arm-none-eabi/5.2.0/../../../../arm-none-eabi/lib/armv7e-m/libc_nano.a(lib_a-ctype_.o)
 .debug_line    0x000000000000a016       0xe0 /usr/lib/gcc/arm-none-eabi/5.2.0/../../../../arm-none-eabi/lib/armv7e-m/libc_nano.a(lib_a-impure.o)
 .debug_line    0x000000000000a0f6      0x15c /usr/lib/gcc/arm-none-eabi/5.2.0/../../../../arm-none-eabi/lib/armv7e-m/libc_nano.a(lib_a-nano-reallocr.o)
 .debug_line    0x000000000000a252      0x2ad /usr/lib/gcc/arm-none-eabi/5.2.0/../../../../arm-none-eabi/lib/armv7e-m/libc_nano.a(lib_a-nano-svfprintf.o)
 .debug_line    0x000000000000a4ff      0x2e9 /usr/lib/gcc/arm-none-eabi/5.2.0/../../../../arm-none-eabi/lib/armv7e-m/libc_nano.a(lib_a-nano-vfprintf_i.o)
 .debug_line    0x000000000000a7e8      0x17b /usr/lib/gcc/arm-none-eabi/5.2.0/../../../../arm-none-eabi/lib/armv7e-m/libc_nano.a(lib_a-reent.o)
 .debug_line    0x000000000000a963       0xdf /usr/lib/gcc/arm-none-eabi/5.2.0/../../../../arm-none-eabi/lib/armv7e-m/libc_nano.a(lib_a-memchr.o)
 .debug_line    0x000000000000aa42       0xfc /usr/lib/gcc/arm-none-eabi/5.2.0/../../../../arm-none-eabi/lib/armv7e-m/libc_nano.a(lib_a-nano-msizer.o)

.debug_str      0x0000000000000000     0xae9a
 .debug_str     0x0000000000000000      0x9db obj/Release/main.o
                                        0xa4d (size before relaxing)
 .debug_str     0x00000000000009db       0x24 obj/Release/pinmux.o
                                         0xf6 (size before relaxing)
 .debug_str     0x00000000000009ff      0x13e obj/Release/server_client_cbs.o
                                        0x398 (size before relaxing)
 .debug_str     0x0000000000000b3d       0xec obj/Release/uart_if.o
                                        0x27a (size before relaxing)
 .debug_str     0x0000000000000c29      0xf5b obj/Release/network_if.o
                                       0x1256 (size before relaxing)
 .debug_str     0x0000000000001b84      0x183 obj/Release/gpio_if.o
                                        0x408 (size before relaxing)
 .debug_str     0x0000000000001d07       0xca obj/Release/timer_if.o
                                        0x297 (size before relaxing)
 .debug_str     0x0000000000001dd1       0xc4 obj/Release/button_if.o
                                        0x273 (size before relaxing)
 .debug_str     0x0000000000001e95       0xdb obj/Release/startup_gcc.o
                                        0x23c (size before relaxing)
 .debug_str     0x0000000000001f70      0x751 ../../../netapps/mqtt/gcc/lib/client_server/Release/libmqtt.a(sl_mqtt_client.o)
                                        0xbd8 (size before relaxing)
 .debug_str     0x00000000000026c1      0x363 ../../../netapps/mqtt/gcc/lib/client_server/Release/libmqtt.a(sl_mqtt_server.o)
                                        0x86a (size before relaxing)
 .debug_str     0x0000000000002a24      0x38a ../../../netapps/mqtt/gcc/lib/client_server/Release/libmqtt.a(cc32xx_sl_net.o)
                                        0x5e9 (size before relaxing)
 .debug_str     0x0000000000002dae       0x39 ../../../netapps/mqtt/gcc/lib/client_server/Release/libmqtt.a(cc32xx_platform.o)
                                        0x1a1 (size before relaxing)
 .debug_str     0x0000000000002de7      0xa52 ../../../netapps/mqtt/gcc/lib/client_server/Release/libmqtt.a(mqtt_client.o)
                                       0x10d8 (size before relaxing)
 .debug_str     0x0000000000003839       0x88 ../../../netapps/mqtt/gcc/lib/client_server/Release/libmqtt.a(mqtt_common.o)
                                        0x5c7 (size before relaxing)
 .debug_str     0x00000000000038c1      0x906 ../../../netapps/mqtt/gcc/lib/client_server/Release/libmqtt.a(server_core.o)
                                        0xdc6 (size before relaxing)
 .debug_str     0x00000000000041c7      0x2f6 ../../../netapps/mqtt/gcc/lib/client_server/Release/libmqtt.a(server_pkts.o)
                                        0xa42 (size before relaxing)
 .debug_str     0x00000000000044bd       0x86 ../../../netapps/mqtt/gcc/lib/client_server/Release/libmqtt.a(server_plug.o)
                                        0x3b9 (size before relaxing)
 .debug_str     0x0000000000004543       0x77 ../../../netapps/mqtt/gcc/lib/client_server/Release/libmqtt.a(server_util.o)
                                        0x2de (size before relaxing)
 .debug_str     0x00000000000045ba      0x20b ../../../netapps/mqtt/gcc/lib/client_server/Release/libmqtt.a(client_mgmt.o)
                                        0x7cf (size before relaxing)
 .debug_str     0x00000000000047c5      0xa94 ../../../simplelink/gcc/lib/os/Release/libsimplelink.a(device.o)
                                        0xff6 (size before relaxing)
 .debug_str     0x0000000000005259      0x730 ../../../simplelink/gcc/lib/os/Release/libsimplelink.a(driver.o)
                                       0x155b (size before relaxing)
 .debug_str     0x0000000000005989      0x91f ../../../simplelink/gcc/lib/os/Release/libsimplelink.a(netapp.o)
                                       0x14f3 (size before relaxing)
 .debug_str     0x00000000000062a8       0x83 ../../../simplelink/gcc/lib/os/Release/libsimplelink.a(netcfg.o)
                                        0x4c7 (size before relaxing)
 .debug_str     0x000000000000632b      0x4d9 ../../../simplelink/gcc/lib/os/Release/libsimplelink.a(socket.o)
                                        0xfc4 (size before relaxing)
 .debug_str     0x0000000000006804      0xc94 ../../../simplelink/gcc/lib/os/Release/libsimplelink.a(wlan.o)
                                       0x1144 (size before relaxing)
 .debug_str     0x0000000000007498      0x2d1 ../../../simplelink/gcc/lib/os/Release/libsimplelink.a(cc_pal.o)
                                        0x5c0 (size before relaxing)
 .debug_str     0x0000000000007769      0x371 ../../../oslib/gcc/free_rtos/Release/free_rtos.a(osi_freertos.o)
                                        0x759 (size before relaxing)
 .debug_str     0x0000000000007ada      0x708 ../../../oslib/gcc/free_rtos/Release/free_rtos.a(queue.o)
                                        0x9e9 (size before relaxing)
 .debug_str     0x00000000000081e2      0xb3a ../../../oslib/gcc/free_rtos/Release/free_rtos.a(tasks.o)
                                       0x10b4 (size before relaxing)
 .debug_str     0x0000000000008d1c      0x18a ../../../oslib/gcc/free_rtos/Release/free_rtos.a(port.o)
                                        0x40b (size before relaxing)
 .debug_str     0x0000000000008ea6      0x4b1 ../../../oslib/gcc/free_rtos/Release/free_rtos.a(timers.o)
                                        0x8df (size before relaxing)
 .debug_str     0x0000000000009357       0x48 ../../../oslib/gcc/free_rtos/Release/free_rtos.a(heap_3.o)
                                        0x1e0 (size before relaxing)
 .debug_str     0x000000000000939f       0x6a ../../../oslib/gcc/free_rtos/Release/free_rtos.a(list.o)
                                        0x2a5 (size before relaxing)
 .debug_str     0x0000000000009409      0x171 ../../../driverlib/gcc/lib/Release/libdriver.a(gpio.o)
                                        0x268 (size before relaxing)
 .debug_str     0x000000000000957a      0x179 ../../../driverlib/gcc/lib/Release/libdriver.a(interrupt.o)
                                        0x2c4 (size before relaxing)
 .debug_str     0x00000000000096f3      0x592 ../../../driverlib/gcc/lib/Release/libdriver.a(prcm.o)
                                        0x778 (size before relaxing)
 .debug_str     0x0000000000009c85      0x286 ../../../driverlib/gcc/lib/Release/libdriver.a(spi.o)
                                        0x42f (size before relaxing)
 .debug_str     0x0000000000009f0b      0x181 ../../../driverlib/gcc/lib/Release/libdriver.a(timer.o)
                                        0x2de (size before relaxing)
 .debug_str     0x000000000000a08c        0xb ../../../driverlib/gcc/lib/Release/libdriver.a(utils.o)
                                         0xcb (size before relaxing)
 .debug_str     0x000000000000a097       0x27 ../../../driverlib/gcc/lib/Release/libdriver.a(cpu.o)
                                        0x109 (size before relaxing)
 .debug_str     0x000000000000a0be      0x40a /usr/lib/gcc/arm-none-eabi/5.2.0/../../../../arm-none-eabi/lib/armv7e-m/libc_nano.a(lib_a-atoi.o)
                                        0x50a (size before relaxing)
 .debug_str     0x000000000000a4c8       0x45 /usr/lib/gcc/arm-none-eabi/5.2.0/../../../../arm-none-eabi/lib/armv7e-m/libc_nano.a(lib_a-malloc.o)
                                        0x52b (size before relaxing)
 .debug_str     0x000000000000a50d       0x88 /usr/lib/gcc/arm-none-eabi/5.2.0/../../../../arm-none-eabi/lib/armv7e-m/libc_nano.a(lib_a-memcmp.o)
                                        0x1ae (size before relaxing)
 .debug_str     0x000000000000a595       0x42 /usr/lib/gcc/arm-none-eabi/5.2.0/../../../../arm-none-eabi/lib/armv7e-m/libc_nano.a(lib_a-memcpy.o)
                                        0x1c2 (size before relaxing)
 .debug_str     0x000000000000a5d7       0x41 /usr/lib/gcc/arm-none-eabi/5.2.0/../../../../arm-none-eabi/lib/armv7e-m/libc_nano.a(lib_a-memmove.o)
                                        0x1c9 (size before relaxing)
 .debug_str     0x000000000000a618       0x2e /usr/lib/gcc/arm-none-eabi/5.2.0/../../../../arm-none-eabi/lib/armv7e-m/libc_nano.a(lib_a-memset.o)
                                        0x1ae (size before relaxing)
 .debug_str     0x000000000000a646       0x90 /usr/lib/gcc/arm-none-eabi/5.2.0/../../../../arm-none-eabi/lib/armv7e-m/libc_nano.a(lib_a-nano-freer.o)
                                        0x56f (size before relaxing)
 .debug_str     0x000000000000a6d6       0x46 /usr/lib/gcc/arm-none-eabi/5.2.0/../../../../arm-none-eabi/lib/armv7e-m/libc_nano.a(lib_a-nano-mallocr.o)
                                        0x59a (size before relaxing)
 .debug_str     0x000000000000a71c       0x3a /usr/lib/gcc/arm-none-eabi/5.2.0/../../../../arm-none-eabi/lib/armv7e-m/libc_nano.a(lib_a-realloc.o)
                                        0x51c (size before relaxing)
 .debug_str     0x000000000000a756       0x8f /usr/lib/gcc/arm-none-eabi/5.2.0/../../../../arm-none-eabi/lib/armv7e-m/libc_nano.a(lib_a-sbrkr.o)
                                        0x50e (size before relaxing)
 .debug_str     0x000000000000a7e5       0x95 /usr/lib/gcc/arm-none-eabi/5.2.0/../../../../arm-none-eabi/lib/armv7e-m/libc_nano.a(lib_a-strcpy.o)
                                        0x1b4 (size before relaxing)
 .debug_str     0x000000000000a87a       0x3e /usr/lib/gcc/arm-none-eabi/5.2.0/../../../../arm-none-eabi/lib/armv7e-m/libc_nano.a(lib_a-strlen.o)
                                        0x1c3 (size before relaxing)
 .debug_str     0x000000000000a8b8       0x2f /usr/lib/gcc/arm-none-eabi/5.2.0/../../../../arm-none-eabi/lib/armv7e-m/libc_nano.a(lib_a-strncmp.o)
                                        0x1b0 (size before relaxing)
 .debug_str     0x000000000000a8e7       0x3b /usr/lib/gcc/arm-none-eabi/5.2.0/../../../../arm-none-eabi/lib/armv7e-m/libc_nano.a(lib_a-strncpy.o)
                                        0x1cc (size before relaxing)
 .debug_str     0x000000000000a922       0x39 /usr/lib/gcc/arm-none-eabi/5.2.0/../../../../arm-none-eabi/lib/armv7e-m/libc_nano.a(lib_a-strtok.o)
                                        0x51f (size before relaxing)
 .debug_str     0x000000000000a95b       0x54 /usr/lib/gcc/arm-none-eabi/5.2.0/../../../../arm-none-eabi/lib/armv7e-m/libc_nano.a(lib_a-strtok_r.o)
                                        0x1e0 (size before relaxing)
 .debug_str     0x000000000000a9af       0x5b /usr/lib/gcc/arm-none-eabi/5.2.0/../../../../arm-none-eabi/lib/armv7e-m/libc_nano.a(lib_a-strtol.o)
                                        0x53d (size before relaxing)
 .debug_str     0x000000000000aa0a       0xa3 /usr/lib/gcc/arm-none-eabi/5.2.0/../../../../arm-none-eabi/lib/armv7e-m/libc_nano.a(lib_a-vsnprintf.o)
                                        0x556 (size before relaxing)
 .debug_str     0x000000000000aaad       0x8e /usr/lib/gcc/arm-none-eabi/5.2.0/../../../../arm-none-eabi/lib/armv7e-m/libc_nano.a(lib_a-ctype_.o)
                                        0x124 (size before relaxing)
 .debug_str     0x000000000000ab3b       0x8b /usr/lib/gcc/arm-none-eabi/5.2.0/../../../../arm-none-eabi/lib/armv7e-m/libc_nano.a(lib_a-impure.o)
                                        0x556 (size before relaxing)
 .debug_str     0x000000000000abc6       0x23 /usr/lib/gcc/arm-none-eabi/5.2.0/../../../../arm-none-eabi/lib/armv7e-m/libc_nano.a(lib_a-nano-reallocr.o)
                                        0x577 (size before relaxing)
 .debug_str     0x000000000000abe9      0x195 /usr/lib/gcc/arm-none-eabi/5.2.0/../../../../arm-none-eabi/lib/armv7e-m/libc_nano.a(lib_a-nano-svfprintf.o)
                                        0x677 (size before relaxing)
 .debug_str     0x000000000000ad7e       0x87 /usr/lib/gcc/arm-none-eabi/5.2.0/../../../../arm-none-eabi/lib/armv7e-m/libc_nano.a(lib_a-nano-vfprintf_i.o)
                                        0x616 (size before relaxing)
 .debug_str     0x000000000000ae05       0x58 /usr/lib/gcc/arm-none-eabi/5.2.0/../../../../arm-none-eabi/lib/armv7e-m/libc_nano.a(lib_a-reent.o)
                                        0x536 (size before relaxing)
 .debug_str     0x000000000000ae5d       0x2e /usr/lib/gcc/arm-none-eabi/5.2.0/../../../../arm-none-eabi/lib/armv7e-m/libc_nano.a(lib_a-memchr.o)
                                        0x1be (size before relaxing)
 .debug_str     0x000000000000ae8b        0xf /usr/lib/gcc/arm-none-eabi/5.2.0/../../../../arm-none-eabi/lib/armv7e-m/libc_nano.a(lib_a-nano-msizer.o)
                                        0x555 (size before relaxing)

.comment        0x0000000000000000       0x42
 .comment       0x0000000000000000       0x21 obj/Release/main.o
                                         0x22 (size before relaxing)
 .comment       0x0000000000000000       0x22 obj/Release/pinmux.o
 .comment       0x0000000000000000       0x22 obj/Release/server_client_cbs.o
 .comment       0x0000000000000000       0x22 obj/Release/uart_if.o
 .comment       0x0000000000000000       0x22 obj/Release/network_if.o
 .comment       0x0000000000000000       0x22 obj/Release/gpio_if.o
 .comment       0x0000000000000000       0x22 obj/Release/timer_if.o
 .comment       0x0000000000000000       0x22 obj/Release/button_if.o
 .comment       0x0000000000000000       0x22 obj/Release/startup_gcc.o
 .comment       0x0000000000000000       0x22 ../../../netapps/mqtt/gcc/lib/client_server/Release/libmqtt.a(sl_mqtt_client.o)
 .comment       0x0000000000000000       0x22 ../../../netapps/mqtt/gcc/lib/client_server/Release/libmqtt.a(sl_mqtt_server.o)
 .comment       0x0000000000000000       0x22 ../../../netapps/mqtt/gcc/lib/client_server/Release/libmqtt.a(cc32xx_sl_net.o)
 .comment       0x0000000000000000       0x22 ../../../netapps/mqtt/gcc/lib/client_server/Release/libmqtt.a(cc32xx_platform.o)
 .comment       0x0000000000000000       0x22 ../../../netapps/mqtt/gcc/lib/client_server/Release/libmqtt.a(mqtt_client.o)
 .comment       0x0000000000000000       0x22 ../../../netapps/mqtt/gcc/lib/client_server/Release/libmqtt.a(mqtt_common.o)
 .comment       0x0000000000000000       0x22 ../../../netapps/mqtt/gcc/lib/client_server/Release/libmqtt.a(server_core.o)
 .comment       0x0000000000000000       0x22 ../../../netapps/mqtt/gcc/lib/client_server/Release/libmqtt.a(server_pkts.o)
 .comment       0x0000000000000000       0x22 ../../../netapps/mqtt/gcc/lib/client_server/Release/libmqtt.a(server_plug.o)
 .comment       0x0000000000000000       0x22 ../../../netapps/mqtt/gcc/lib/client_server/Release/libmqtt.a(server_util.o)
 .comment       0x0000000000000000       0x22 ../../../netapps/mqtt/gcc/lib/client_server/Release/libmqtt.a(client_mgmt.o)
 .comment       0x0000000000000000       0x22 ../../../simplelink/gcc/lib/os/Release/libsimplelink.a(device.o)
 .comment       0x0000000000000000       0x22 ../../../simplelink/gcc/lib/os/Release/libsimplelink.a(driver.o)
 .comment       0x0000000000000000       0x22 ../../../simplelink/gcc/lib/os/Release/libsimplelink.a(netapp.o)
 .comment       0x0000000000000000       0x22 ../../../simplelink/gcc/lib/os/Release/libsimplelink.a(netcfg.o)
 .comment       0x0000000000000000       0x22 ../../../simplelink/gcc/lib/os/Release/libsimplelink.a(socket.o)
 .comment       0x0000000000000000       0x22 ../../../simplelink/gcc/lib/os/Release/libsimplelink.a(wlan.o)
 .comment       0x0000000000000000       0x22 ../../../simplelink/gcc/lib/os/Release/libsimplelink.a(cc_pal.o)
 .comment       0x0000000000000000       0x22 ../../../oslib/gcc/free_rtos/Release/free_rtos.a(osi_freertos.o)
 .comment       0x0000000000000000       0x22 ../../../oslib/gcc/free_rtos/Release/free_rtos.a(queue.o)
 .comment       0x0000000000000000       0x22 ../../../oslib/gcc/free_rtos/Release/free_rtos.a(tasks.o)
 .comment       0x0000000000000000       0x22 ../../../oslib/gcc/free_rtos/Release/free_rtos.a(port.o)
 .comment       0x0000000000000000       0x22 ../../../oslib/gcc/free_rtos/Release/free_rtos.a(timers.o)
 .comment       0x0000000000000000       0x22 ../../../oslib/gcc/free_rtos/Release/free_rtos.a(heap_3.o)
 .comment       0x0000000000000000       0x22 ../../../oslib/gcc/free_rtos/Release/free_rtos.a(list.o)
 .comment       0x0000000000000000       0x22 ../../../driverlib/gcc/lib/Release/libdriver.a(gpio.o)
 .comment       0x0000000000000000       0x22 ../../../driverlib/gcc/lib/Release/libdriver.a(interrupt.o)
 .comment       0x0000000000000000       0x22 ../../../driverlib/gcc/lib/Release/libdriver.a(prcm.o)
 .comment       0x0000000000000000       0x22 ../../../driverlib/gcc/lib/Release/libdriver.a(spi.o)
 .comment       0x0000000000000000       0x22 ../../../driverlib/gcc/lib/Release/libdriver.a(timer.o)
 .comment       0x0000000000000000       0x22 ../../../driverlib/gcc/lib/Release/libdriver.a(utils.o)
 .comment       0x0000000000000000       0x22 ../../../driverlib/gcc/lib/Release/libdriver.a(cpu.o)
 .comment       0x0000000000000021       0x21 /usr/lib/gcc/arm-none-eabi/5.2.0/../../../../arm-none-eabi/lib/armv7e-m/libc_nano.a(lib_a-atoi.o)
                                         0x22 (size before relaxing)
 .comment       0x0000000000000000       0x22 /usr/lib/gcc/arm-none-eabi/5.2.0/../../../../arm-none-eabi/lib/armv7e-m/libc_nano.a(lib_a-malloc.o)
 .comment       0x0000000000000000       0x22 /usr/lib/gcc/arm-none-eabi/5.2.0/../../../../arm-none-eabi/lib/armv7e-m/libc_nano.a(lib_a-memcmp.o)
 .comment       0x0000000000000000       0x22 /usr/lib/gcc/arm-none-eabi/5.2.0/../../../../arm-none-eabi/lib/armv7e-m/libc_nano.a(lib_a-memcpy.o)
 .comment       0x0000000000000000       0x22 /usr/lib/gcc/arm-none-eabi/5.2.0/../../../../arm-none-eabi/lib/armv7e-m/libc_nano.a(lib_a-memmove.o)
 .comment       0x0000000000000000       0x22 /usr/lib/gcc/arm-none-eabi/5.2.0/../../../../arm-none-eabi/lib/armv7e-m/libc_nano.a(lib_a-memset.o)
 .comment       0x0000000000000000       0x22 /usr/lib/gcc/arm-none-eabi/5.2.0/../../../../arm-none-eabi/lib/armv7e-m/libc_nano.a(lib_a-nano-freer.o)
 .comment       0x0000000000000000       0x22 /usr/lib/gcc/arm-none-eabi/5.2.0/../../../../arm-none-eabi/lib/armv7e-m/libc_nano.a(lib_a-nano-mallocr.o)
 .comment       0x0000000000000000       0x22 /usr/lib/gcc/arm-none-eabi/5.2.0/../../../../arm-none-eabi/lib/armv7e-m/libc_nano.a(lib_a-realloc.o)
 .comment       0x0000000000000000       0x22 /usr/lib/gcc/arm-none-eabi/5.2.0/../../../../arm-none-eabi/lib/armv7e-m/libc_nano.a(lib_a-sbrkr.o)
 .comment       0x0000000000000000       0x22 /usr/lib/gcc/arm-none-eabi/5.2.0/../../../../arm-none-eabi/lib/armv7e-m/libc_nano.a(lib_a-strcpy.o)
 .comment       0x0000000000000000       0x22 /usr/lib/gcc/arm-none-eabi/5.2.0/../../../../arm-none-eabi/lib/armv7e-m/libc_nano.a(lib_a-strlen.o)
 .comment       0x0000000000000000       0x22 /usr/lib/gcc/arm-none-eabi/5.2.0/../../../../arm-none-eabi/lib/armv7e-m/libc_nano.a(lib_a-strncmp.o)
 .comment       0x0000000000000000       0x22 /usr/lib/gcc/arm-none-eabi/5.2.0/../../../../arm-none-eabi/lib/armv7e-m/libc_nano.a(lib_a-strncpy.o)
 .comment       0x0000000000000000       0x22 /usr/lib/gcc/arm-none-eabi/5.2.0/../../../../arm-none-eabi/lib/armv7e-m/libc_nano.a(lib_a-strtok.o)
 .comment       0x0000000000000000       0x22 /usr/lib/gcc/arm-none-eabi/5.2.0/../../../../arm-none-eabi/lib/armv7e-m/libc_nano.a(lib_a-strtok_r.o)
 .comment       0x0000000000000000       0x22 /usr/lib/gcc/arm-none-eabi/5.2.0/../../../../arm-none-eabi/lib/armv7e-m/libc_nano.a(lib_a-strtol.o)
 .comment       0x0000000000000000       0x22 /usr/lib/gcc/arm-none-eabi/5.2.0/../../../../arm-none-eabi/lib/armv7e-m/libc_nano.a(lib_a-vsnprintf.o)
 .comment       0x0000000000000000       0x22 /usr/lib/gcc/arm-none-eabi/5.2.0/../../../../arm-none-eabi/lib/armv7e-m/libc_nano.a(lib_a-ctype_.o)
 .comment       0x0000000000000000       0x22 /usr/lib/gcc/arm-none-eabi/5.2.0/../../../../arm-none-eabi/lib/armv7e-m/libc_nano.a(lib_a-impure.o)
 .comment       0x0000000000000000       0x22 /usr/lib/gcc/arm-none-eabi/5.2.0/../../../../arm-none-eabi/lib/armv7e-m/libc_nano.a(lib_a-nano-reallocr.o)
 .comment       0x0000000000000000       0x22 /usr/lib/gcc/arm-none-eabi/5.2.0/../../../../arm-none-eabi/lib/armv7e-m/libc_nano.a(lib_a-nano-svfprintf.o)
 .comment       0x0000000000000000       0x22 /usr/lib/gcc/arm-none-eabi/5.2.0/../../../../arm-none-eabi/lib/armv7e-m/libc_nano.a(lib_a-nano-vfprintf_i.o)
 .comment       0x0000000000000000       0x22 /usr/lib/gcc/arm-none-eabi/5.2.0/../../../../arm-none-eabi/lib/armv7e-m/libc_nano.a(lib_a-reent.o)
 .comment       0x0000000000000000       0x22 /usr/lib/gcc/arm-none-eabi/5.2.0/../../../../arm-none-eabi/lib/armv7e-m/libc_nano.a(lib_a-memchr.o)
 .comment       0x0000000000000000       0x22 /usr/lib/gcc/arm-none-eabi/5.2.0/../../../../arm-none-eabi/lib/armv7e-m/libc_nano.a(lib_a-nano-msizer.o)

.ARM.attributes
                0x0000000000000000       0x31
 .ARM.attributes
                0x0000000000000000       0x33 obj/Release/main.o
 .ARM.attributes
                0x0000000000000033       0x33 obj/Release/pinmux.o
 .ARM.attributes
                0x0000000000000066       0x33 obj/Release/server_client_cbs.o
 .ARM.attributes
                0x0000000000000099       0x33 obj/Release/uart_if.o
 .ARM.attributes
                0x00000000000000cc       0x33 obj/Release/network_if.o
 .ARM.attributes
                0x00000000000000ff       0x33 obj/Release/gpio_if.o
 .ARM.attributes
                0x0000000000000132       0x33 obj/Release/timer_if.o
 .ARM.attributes
                0x0000000000000165       0x33 obj/Release/button_if.o
 .ARM.attributes
                0x0000000000000198       0x33 obj/Release/startup_gcc.o
 .ARM.attributes
                0x00000000000001cb       0x33 ../../../netapps/mqtt/gcc/lib/client_server/Release/libmqtt.a(sl_mqtt_client.o)
 .ARM.attributes
                0x00000000000001fe       0x33 ../../../netapps/mqtt/gcc/lib/client_server/Release/libmqtt.a(sl_mqtt_server.o)
 .ARM.attributes
                0x0000000000000231       0x33 ../../../netapps/mqtt/gcc/lib/client_server/Release/libmqtt.a(cc32xx_sl_net.o)
 .ARM.attributes
                0x0000000000000264       0x33 ../../../netapps/mqtt/gcc/lib/client_server/Release/libmqtt.a(cc32xx_platform.o)
 .ARM.attributes
                0x0000000000000297       0x33 ../../../netapps/mqtt/gcc/lib/client_server/Release/libmqtt.a(mqtt_client.o)
 .ARM.attributes
                0x00000000000002ca       0x33 ../../../netapps/mqtt/gcc/lib/client_server/Release/libmqtt.a(mqtt_common.o)
 .ARM.attributes
                0x00000000000002fd       0x33 ../../../netapps/mqtt/gcc/lib/client_server/Release/libmqtt.a(server_core.o)
 .ARM.attributes
                0x0000000000000330       0x33 ../../../netapps/mqtt/gcc/lib/client_server/Release/libmqtt.a(server_pkts.o)
 .ARM.attributes
                0x0000000000000363       0x33 ../../../netapps/mqtt/gcc/lib/client_server/Release/libmqtt.a(server_plug.o)
 .ARM.attributes
                0x0000000000000396       0x33 ../../../netapps/mqtt/gcc/lib/client_server/Release/libmqtt.a(server_util.o)
 .ARM.attributes
                0x00000000000003c9       0x33 ../../../netapps/mqtt/gcc/lib/client_server/Release/libmqtt.a(client_mgmt.o)
 .ARM.attributes
                0x00000000000003fc       0x33 ../../../simplelink/gcc/lib/os/Release/libsimplelink.a(device.o)
 .ARM.attributes
                0x000000000000042f       0x33 ../../../simplelink/gcc/lib/os/Release/libsimplelink.a(driver.o)
 .ARM.attributes
                0x0000000000000462       0x33 ../../../simplelink/gcc/lib/os/Release/libsimplelink.a(netapp.o)
 .ARM.attributes
                0x0000000000000495       0x33 ../../../simplelink/gcc/lib/os/Release/libsimplelink.a(netcfg.o)
 .ARM.attributes
                0x00000000000004c8       0x33 ../../../simplelink/gcc/lib/os/Release/libsimplelink.a(socket.o)
 .ARM.attributes
                0x00000000000004fb       0x33 ../../../simplelink/gcc/lib/os/Release/libsimplelink.a(wlan.o)
 .ARM.attributes
                0x000000000000052e       0x33 ../../../simplelink/gcc/lib/os/Release/libsimplelink.a(cc_pal.o)
 .ARM.attributes
                0x0000000000000561       0x33 ../../../oslib/gcc/free_rtos/Release/free_rtos.a(osi_freertos.o)
 .ARM.attributes
                0x0000000000000594       0x33 ../../../oslib/gcc/free_rtos/Release/free_rtos.a(queue.o)
 .ARM.attributes
                0x00000000000005c7       0x33 ../../../oslib/gcc/free_rtos/Release/free_rtos.a(tasks.o)
 .ARM.attributes
                0x00000000000005fa       0x33 ../../../oslib/gcc/free_rtos/Release/free_rtos.a(port.o)
 .ARM.attributes
                0x000000000000062d       0x33 ../../../oslib/gcc/free_rtos/Release/free_rtos.a(timers.o)
 .ARM.attributes
                0x0000000000000660       0x33 ../../../oslib/gcc/free_rtos/Release/free_rtos.a(heap_3.o)
 .ARM.attributes
                0x0000000000000693       0x33 ../../../oslib/gcc/free_rtos/Release/free_rtos.a(list.o)
 .ARM.attributes
                0x00000000000006c6       0x33 ../../../driverlib/gcc/lib/Release/libdriver.a(gpio.o)
 .ARM.attributes
                0x00000000000006f9       0x33 ../../../driverlib/gcc/lib/Release/libdriver.a(interrupt.o)
 .ARM.attributes
                0x000000000000072c       0x33 ../../../driverlib/gcc/lib/Release/libdriver.a(prcm.o)
 .ARM.attributes
                0x000000000000075f       0x33 ../../../driverlib/gcc/lib/Release/libdriver.a(spi.o)
 .ARM.attributes
                0x0000000000000792       0x33 ../../../driverlib/gcc/lib/Release/libdriver.a(timer.o)
 .ARM.attributes
                0x00000000000007c5       0x33 ../../../driverlib/gcc/lib/Release/libdriver.a(utils.o)
 .ARM.attributes
                0x00000000000007f8       0x33 ../../../driverlib/gcc/lib/Release/libdriver.a(cpu.o)
 .ARM.attributes
                0x000000000000082b       0x2e /usr/lib/gcc/arm-none-eabi/5.2.0/../../../../arm-none-eabi/lib/armv7e-m/libc_nano.a(lib_a-atoi.o)
 .ARM.attributes
                0x0000000000000859       0x2e /usr/lib/gcc/arm-none-eabi/5.2.0/../../../../arm-none-eabi/lib/armv7e-m/libc_nano.a(lib_a-malloc.o)
 .ARM.attributes
                0x0000000000000887       0x2e /usr/lib/gcc/arm-none-eabi/5.2.0/../../../../arm-none-eabi/lib/armv7e-m/libc_nano.a(lib_a-memcmp.o)
 .ARM.attributes
                0x00000000000008b5       0x2e /usr/lib/gcc/arm-none-eabi/5.2.0/../../../../arm-none-eabi/lib/armv7e-m/libc_nano.a(lib_a-memcpy.o)
 .ARM.attributes
                0x00000000000008e3       0x2e /usr/lib/gcc/arm-none-eabi/5.2.0/../../../../arm-none-eabi/lib/armv7e-m/libc_nano.a(lib_a-memmove.o)
 .ARM.attributes
                0x0000000000000911       0x2e /usr/lib/gcc/arm-none-eabi/5.2.0/../../../../arm-none-eabi/lib/armv7e-m/libc_nano.a(lib_a-memset.o)
 .ARM.attributes
                0x000000000000093f       0x2e /usr/lib/gcc/arm-none-eabi/5.2.0/../../../../arm-none-eabi/lib/armv7e-m/libc_nano.a(lib_a-nano-freer.o)
 .ARM.attributes
                0x000000000000096d       0x2e /usr/lib/gcc/arm-none-eabi/5.2.0/../../../../arm-none-eabi/lib/armv7e-m/libc_nano.a(lib_a-nano-mallocr.o)
 .ARM.attributes
                0x000000000000099b       0x2e /usr/lib/gcc/arm-none-eabi/5.2.0/../../../../arm-none-eabi/lib/armv7e-m/libc_nano.a(lib_a-realloc.o)
 .ARM.attributes
                0x00000000000009c9       0x2e /usr/lib/gcc/arm-none-eabi/5.2.0/../../../../arm-none-eabi/lib/armv7e-m/libc_nano.a(lib_a-sbrkr.o)
 .ARM.attributes
                0x00000000000009f7       0x1c /usr/lib/gcc/arm-none-eabi/5.2.0/../../../../arm-none-eabi/lib/armv7e-m/libc_nano.a(lib_a-strcmp.o)
 .ARM.attributes
                0x0000000000000a13       0x2e /usr/lib/gcc/arm-none-eabi/5.2.0/../../../../arm-none-eabi/lib/armv7e-m/libc_nano.a(lib_a-strcpy.o)
 .ARM.attributes
                0x0000000000000a41       0x2e /usr/lib/gcc/arm-none-eabi/5.2.0/../../../../arm-none-eabi/lib/armv7e-m/libc_nano.a(lib_a-strlen.o)
 .ARM.attributes
                0x0000000000000a6f       0x2e /usr/lib/gcc/arm-none-eabi/5.2.0/../../../../arm-none-eabi/lib/armv7e-m/libc_nano.a(lib_a-strncmp.o)
 .ARM.attributes
                0x0000000000000a9d       0x2e /usr/lib/gcc/arm-none-eabi/5.2.0/../../../../arm-none-eabi/lib/armv7e-m/libc_nano.a(lib_a-strncpy.o)
 .ARM.attributes
                0x0000000000000acb       0x2e /usr/lib/gcc/arm-none-eabi/5.2.0/../../../../arm-none-eabi/lib/armv7e-m/libc_nano.a(lib_a-strtok.o)
 .ARM.attributes
                0x0000000000000af9       0x2e /usr/lib/gcc/arm-none-eabi/5.2.0/../../../../arm-none-eabi/lib/armv7e-m/libc_nano.a(lib_a-strtok_r.o)
 .ARM.attributes
                0x0000000000000b27       0x2e /usr/lib/gcc/arm-none-eabi/5.2.0/../../../../arm-none-eabi/lib/armv7e-m/libc_nano.a(lib_a-strtol.o)
 .ARM.attributes
                0x0000000000000b55       0x2e /usr/lib/gcc/arm-none-eabi/5.2.0/../../../../arm-none-eabi/lib/armv7e-m/libc_nano.a(lib_a-vsnprintf.o)
 .ARM.attributes
                0x0000000000000b83       0x2e /usr/lib/gcc/arm-none-eabi/5.2.0/../../../../arm-none-eabi/lib/armv7e-m/libc_nano.a(lib_a-ctype_.o)
 .ARM.attributes
                0x0000000000000bb1       0x2e /usr/lib/gcc/arm-none-eabi/5.2.0/../../../../arm-none-eabi/lib/armv7e-m/libc_nano.a(lib_a-impure.o)
 .ARM.attributes
                0x0000000000000bdf       0x2e /usr/lib/gcc/arm-none-eabi/5.2.0/../../../../arm-none-eabi/lib/armv7e-m/libc_nano.a(lib_a-nano-reallocr.o)
 .ARM.attributes
                0x0000000000000c0d       0x2e /usr/lib/gcc/arm-none-eabi/5.2.0/../../../../arm-none-eabi/lib/armv7e-m/libc_nano.a(lib_a-nano-svfprintf.o)
 .ARM.attributes
                0x0000000000000c3b       0x2e /usr/lib/gcc/arm-none-eabi/5.2.0/../../../../arm-none-eabi/lib/armv7e-m/libc_nano.a(lib_a-nano-vfprintf_i.o)
 .ARM.attributes
                0x0000000000000c69       0x2e /usr/lib/gcc/arm-none-eabi/5.2.0/../../../../arm-none-eabi/lib/armv7e-m/libc_nano.a(lib_a-reent.o)
 .ARM.attributes
                0x0000000000000c97       0x2e /usr/lib/gcc/arm-none-eabi/5.2.0/../../../../arm-none-eabi/lib/armv7e-m/libc_nano.a(lib_a-memchr.o)
 .ARM.attributes
                0x0000000000000cc5       0x2e /usr/lib/gcc/arm-none-eabi/5.2.0/../../../../arm-none-eabi/lib/armv7e-m/libc_nano.a(lib_a-nano-msizer.o)

.debug_frame    0x0000000000000000     0x4fd0
 .debug_frame   0x0000000000000000       0xfc obj/Release/main.o
 .debug_frame   0x00000000000000fc       0x34 obj/Release/pinmux.o
 .debug_frame   0x0000000000000130       0xd8 obj/Release/server_client_cbs.o
 .debug_frame   0x0000000000000208      0x110 obj/Release/uart_if.o
 .debug_frame   0x0000000000000318      0x210 obj/Release/network_if.o
 .debug_frame   0x0000000000000528       0xfc obj/Release/gpio_if.o
 .debug_frame   0x0000000000000624      0x110 obj/Release/timer_if.o
 .debug_frame   0x0000000000000734       0xc8 obj/Release/button_if.o
 .debug_frame   0x00000000000007fc       0x78 obj/Release/startup_gcc.o
 .debug_frame   0x0000000000000874      0x24c ../../../netapps/mqtt/gcc/lib/client_server/Release/libmqtt.a(sl_mqtt_client.o)
 .debug_frame   0x0000000000000ac0      0x184 ../../../netapps/mqtt/gcc/lib/client_server/Release/libmqtt.a(sl_mqtt_server.o)
 .debug_frame   0x0000000000000c44      0x164 ../../../netapps/mqtt/gcc/lib/client_server/Release/libmqtt.a(cc32xx_sl_net.o)
 .debug_frame   0x0000000000000da8       0x38 ../../../netapps/mqtt/gcc/lib/client_server/Release/libmqtt.a(cc32xx_platform.o)
 .debug_frame   0x0000000000000de0      0x550 ../../../netapps/mqtt/gcc/lib/client_server/Release/libmqtt.a(mqtt_client.o)
 .debug_frame   0x0000000000001330      0x2a4 ../../../netapps/mqtt/gcc/lib/client_server/Release/libmqtt.a(mqtt_common.o)
 .debug_frame   0x00000000000015d4      0x4a4 ../../../netapps/mqtt/gcc/lib/client_server/Release/libmqtt.a(server_core.o)
 .debug_frame   0x0000000000001a78      0x214 ../../../netapps/mqtt/gcc/lib/client_server/Release/libmqtt.a(server_pkts.o)
 .debug_frame   0x0000000000001c8c       0xf0 ../../../netapps/mqtt/gcc/lib/client_server/Release/libmqtt.a(server_plug.o)
 .debug_frame   0x0000000000001d7c       0xb4 ../../../netapps/mqtt/gcc/lib/client_server/Release/libmqtt.a(server_util.o)
 .debug_frame   0x0000000000001e30      0x254 ../../../netapps/mqtt/gcc/lib/client_server/Release/libmqtt.a(client_mgmt.o)
 .debug_frame   0x0000000000002084      0x148 ../../../simplelink/gcc/lib/os/Release/libsimplelink.a(device.o)
 .debug_frame   0x00000000000021cc      0x3cc ../../../simplelink/gcc/lib/os/Release/libsimplelink.a(driver.o)
 .debug_frame   0x0000000000002598      0x230 ../../../simplelink/gcc/lib/os/Release/libsimplelink.a(netapp.o)
 .debug_frame   0x00000000000027c8       0x58 ../../../simplelink/gcc/lib/os/Release/libsimplelink.a(netcfg.o)
 .debug_frame   0x0000000000002820      0x2bc ../../../simplelink/gcc/lib/os/Release/libsimplelink.a(socket.o)
 .debug_frame   0x0000000000002adc      0x260 ../../../simplelink/gcc/lib/os/Release/libsimplelink.a(wlan.o)
 .debug_frame   0x0000000000002d3c      0x230 ../../../simplelink/gcc/lib/os/Release/libsimplelink.a(cc_pal.o)
 .debug_frame   0x0000000000002f6c      0x2f4 ../../../oslib/gcc/free_rtos/Release/free_rtos.a(osi_freertos.o)
 .debug_frame   0x0000000000003260      0x360 ../../../oslib/gcc/free_rtos/Release/free_rtos.a(queue.o)
 .debug_frame   0x00000000000035c0      0x634 ../../../oslib/gcc/free_rtos/Release/free_rtos.a(tasks.o)
 .debug_frame   0x0000000000003bf4      0x14c ../../../oslib/gcc/free_rtos/Release/free_rtos.a(port.o)
 .debug_frame   0x0000000000003d40      0x1b0 ../../../oslib/gcc/free_rtos/Release/free_rtos.a(timers.o)
 .debug_frame   0x0000000000003ef0       0x48 ../../../oslib/gcc/free_rtos/Release/free_rtos.a(heap_3.o)
 .debug_frame   0x0000000000003f38       0x6c ../../../oslib/gcc/free_rtos/Release/free_rtos.a(list.o)
 .debug_frame   0x0000000000003fa4      0x12c ../../../driverlib/gcc/lib/Release/libdriver.a(gpio.o)
 .debug_frame   0x00000000000040d0      0x128 ../../../driverlib/gcc/lib/Release/libdriver.a(interrupt.o)
 .debug_frame   0x00000000000041f8      0x48c ../../../driverlib/gcc/lib/Release/libdriver.a(prcm.o)
 .debug_frame   0x0000000000004684      0x1f8 ../../../driverlib/gcc/lib/Release/libdriver.a(spi.o)
 .debug_frame   0x000000000000487c      0x1c0 ../../../driverlib/gcc/lib/Release/libdriver.a(timer.o)
 .debug_frame   0x0000000000004a3c       0x20 ../../../driverlib/gcc/lib/Release/libdriver.a(utils.o)
 .debug_frame   0x0000000000004a5c       0x70 ../../../driverlib/gcc/lib/Release/libdriver.a(cpu.o)
 .debug_frame   0x0000000000004acc       0x30 /usr/lib/gcc/arm-none-eabi/5.2.0/../../../../arm-none-eabi/lib/armv7e-m/libc_nano.a(lib_a-atoi.o)
 .debug_frame   0x0000000000004afc       0x30 /usr/lib/gcc/arm-none-eabi/5.2.0/../../../../arm-none-eabi/lib/armv7e-m/libc_nano.a(lib_a-malloc.o)
 .debug_frame   0x0000000000004b2c       0x28 /usr/lib/gcc/arm-none-eabi/5.2.0/../../../../arm-none-eabi/lib/armv7e-m/libc_nano.a(lib_a-memcmp.o)
 .debug_frame   0x0000000000004b54       0x28 /usr/lib/gcc/arm-none-eabi/5.2.0/../../../../arm-none-eabi/lib/armv7e-m/libc_nano.a(lib_a-memcpy.o)
 .debug_frame   0x0000000000004b7c       0x28 /usr/lib/gcc/arm-none-eabi/5.2.0/../../../../arm-none-eabi/lib/armv7e-m/libc_nano.a(lib_a-memmove.o)
 .debug_frame   0x0000000000004ba4       0x20 /usr/lib/gcc/arm-none-eabi/5.2.0/../../../../arm-none-eabi/lib/armv7e-m/libc_nano.a(lib_a-memset.o)
 .debug_frame   0x0000000000004bc4       0x2c /usr/lib/gcc/arm-none-eabi/5.2.0/../../../../arm-none-eabi/lib/armv7e-m/libc_nano.a(lib_a-nano-freer.o)
 .debug_frame   0x0000000000004bf0       0x2c /usr/lib/gcc/arm-none-eabi/5.2.0/../../../../arm-none-eabi/lib/armv7e-m/libc_nano.a(lib_a-nano-mallocr.o)
 .debug_frame   0x0000000000004c1c       0x20 /usr/lib/gcc/arm-none-eabi/5.2.0/../../../../arm-none-eabi/lib/armv7e-m/libc_nano.a(lib_a-realloc.o)
 .debug_frame   0x0000000000004c3c       0x2c /usr/lib/gcc/arm-none-eabi/5.2.0/../../../../arm-none-eabi/lib/armv7e-m/libc_nano.a(lib_a-sbrkr.o)
 .debug_frame   0x0000000000004c68       0x20 /usr/lib/gcc/arm-none-eabi/5.2.0/../../../../arm-none-eabi/lib/armv7e-m/libc_nano.a(lib_a-strcpy.o)
 .debug_frame   0x0000000000004c88       0x20 /usr/lib/gcc/arm-none-eabi/5.2.0/../../../../arm-none-eabi/lib/armv7e-m/libc_nano.a(lib_a-strlen.o)
 .debug_frame   0x0000000000004ca8       0x2c /usr/lib/gcc/arm-none-eabi/5.2.0/../../../../arm-none-eabi/lib/armv7e-m/libc_nano.a(lib_a-strncmp.o)
 .debug_frame   0x0000000000004cd4       0x28 /usr/lib/gcc/arm-none-eabi/5.2.0/../../../../arm-none-eabi/lib/armv7e-m/libc_nano.a(lib_a-strncpy.o)
 .debug_frame   0x0000000000004cfc       0x38 /usr/lib/gcc/arm-none-eabi/5.2.0/../../../../arm-none-eabi/lib/armv7e-m/libc_nano.a(lib_a-strtok.o)
 .debug_frame   0x0000000000004d34       0x40 /usr/lib/gcc/arm-none-eabi/5.2.0/../../../../arm-none-eabi/lib/armv7e-m/libc_nano.a(lib_a-strtok_r.o)
 .debug_frame   0x0000000000004d74       0x44 /usr/lib/gcc/arm-none-eabi/5.2.0/../../../../arm-none-eabi/lib/armv7e-m/libc_nano.a(lib_a-strtol.o)
 .debug_frame   0x0000000000004db8       0x48 /usr/lib/gcc/arm-none-eabi/5.2.0/../../../../arm-none-eabi/lib/armv7e-m/libc_nano.a(lib_a-vsnprintf.o)
 .debug_frame   0x0000000000004e00       0x3c /usr/lib/gcc/arm-none-eabi/5.2.0/../../../../arm-none-eabi/lib/armv7e-m/libc_nano.a(lib_a-nano-reallocr.o)
 .debug_frame   0x0000000000004e3c       0x90 /usr/lib/gcc/arm-none-eabi/5.2.0/../../../../arm-none-eabi/lib/armv7e-m/libc_nano.a(lib_a-nano-svfprintf.o)
 .debug_frame   0x0000000000004ecc       0x60 /usr/lib/gcc/arm-none-eabi/5.2.0/../../../../arm-none-eabi/lib/armv7e-m/libc_nano.a(lib_a-nano-vfprintf_i.o)
 .debug_frame   0x0000000000004f2c       0x5c /usr/lib/gcc/arm-none-eabi/5.2.0/../../../../arm-none-eabi/lib/armv7e-m/libc_nano.a(lib_a-reent.o)
 .debug_frame   0x0000000000004f88       0x28 /usr/lib/gcc/arm-none-eabi/5.2.0/../../../../arm-none-eabi/lib/armv7e-m/libc_nano.a(lib_a-memchr.o)
 .debug_frame   0x0000000000004fb0       0x20 /usr/lib/gcc/arm-none-eabi/5.2.0/../../../../arm-none-eabi/lib/armv7e-m/libc_nano.a(lib_a-nano-msizer.o)
