Archive member included to satisfy reference by file (symbol)

../../../simplelink/gcc/lib/os_PM/Debug/libsimplelink.a(device.o)
                              obj/Debug/network_if.o (sl_Start)
../../../simplelink/gcc/lib/os_PM/Debug/libsimplelink.a(driver.o)
                              ../../../simplelink/gcc/lib/os_PM/Debug/libsimplelink.a(device.o) (g_SlDeviceStatus)
../../../simplelink/gcc/lib/os_PM/Debug/libsimplelink.a(netapp.o)
                              obj/Debug/network_if.o (sl_NetAppMDNSUnRegisterService)
../../../simplelink/gcc/lib/os_PM/Debug/libsimplelink.a(netcfg.o)
                              obj/Debug/network_if.o (sl_NetCfgSet)
../../../simplelink/gcc/lib/os_PM/Debug/libsimplelink.a(socket.o)
                              obj/Debug/main.o (sl_Socket)
../../../simplelink/gcc/lib/os_PM/Debug/libsimplelink.a(wlan.o)
                              obj/Debug/network_if.o (sl_WlanConnect)
../../../simplelink/gcc/lib/os_PM/Debug/libsimplelink.a(cc_pal_pm.o)
                              ../../../simplelink/gcc/lib/os_PM/Debug/libsimplelink.a(device.o) (spi_Open)
../../../middleware/gcc/lib/Debug/middleware.a(spi_drv.o)
                              ../../../simplelink/gcc/lib/os_PM/Debug/libsimplelink.a(cc_pal_pm.o) (spi_open)
../../../middleware/gcc/lib/Debug/middleware.a(cc_pm.o)
                              ../../../middleware/gcc/lib/Debug/middleware.a(spi_drv.o) (cc_module_drv_register)
../../../middleware/gcc/lib/Debug/middleware.a(dma_hal.o)
                              ../../../middleware/gcc/lib/Debug/middleware.a(spi_drv.o) (cc_dma_alloc)
../../../middleware/gcc/lib/Debug/middleware.a(interrupt_hal.o)
                              ../../../middleware/gcc/lib/Debug/middleware.a(spi_drv.o) (register_isr)
../../../middleware/gcc/lib/Debug/middleware.a(spi_hal.o)
                              ../../../middleware/gcc/lib/Debug/middleware.a(spi_drv.o) (cc_spi_init)
../../../oslib/gcc/free_rtos/Debug/free_rtos.a(osi_freertos.o)
                              obj/Debug/timer_if.o (osi_InterruptRegister)
../../../oslib/gcc/free_rtos/Debug/free_rtos.a(queue.o)
                              ../../../oslib/gcc/free_rtos/Debug/free_rtos.a(osi_freertos.o) (xQueueGenericCreate)
../../../oslib/gcc/free_rtos/Debug/free_rtos.a(tasks.o)
                              ../../../oslib/gcc/free_rtos/Debug/free_rtos.a(osi_freertos.o) (xTaskGenericCreate)
../../../oslib/gcc/free_rtos/Debug/free_rtos.a(port.o)
                              ../../../oslib/gcc/free_rtos/Debug/free_rtos.a(tasks.o) (pxPortInitialiseStack)
../../../oslib/gcc/free_rtos/Debug/free_rtos.a(timers.o)
                              ../../../oslib/gcc/free_rtos/Debug/free_rtos.a(tasks.o) (xTimerCreateTimerTask)
../../../oslib/gcc/free_rtos/Debug/free_rtos.a(heap_3.o)
                              ../../../oslib/gcc/free_rtos/Debug/free_rtos.a(osi_freertos.o) (pvPortMalloc)
../../../oslib/gcc/free_rtos/Debug/free_rtos.a(list.o)
                              ../../../oslib/gcc/free_rtos/Debug/free_rtos.a(queue.o) (vListInitialise)
../../../driverlib/gcc/lib/Debug/libdriver.a(gpio.o)
                              obj/Debug/pinmux.o (GPIODirModeSet)
../../../driverlib/gcc/lib/Debug/libdriver.a(hwspinlock.o)
                              obj/Debug/utils_if.o (HwSpinLockTryAcquire)
../../../driverlib/gcc/lib/Debug/libdriver.a(interrupt.o)
                              obj/Debug/main.o (IntMasterEnable)
../../../driverlib/gcc/lib/Debug/libdriver.a(pin.o)
                              obj/Debug/pinmux.o (PinTypeUART)
../../../driverlib/gcc/lib/Debug/libdriver.a(prcm.o)
                              obj/Debug/main.o (PRCMSysResetCauseGet)
../../../driverlib/gcc/lib/Debug/libdriver.a(spi.o)
                              obj/Debug/utils_if.o (SPIEnable)
../../../driverlib/gcc/lib/Debug/libdriver.a(timer.o)
                              obj/Debug/timer_if.o (TimerEnable)
../../../driverlib/gcc/lib/Debug/libdriver.a(uart.o)
                              obj/Debug/uart_if.o (UARTConfigSetExpClk)
../../../driverlib/gcc/lib/Debug/libdriver.a(udma.o)
                              ../../../middleware/gcc/lib/Debug/middleware.a(dma_hal.o) (uDMAEnable)
../../../driverlib/gcc/lib/Debug/libdriver.a(utils.o)
                              obj/Debug/main.o (UtilsDelay)
../../../driverlib/gcc/lib/Debug/libdriver.a(cpu.o)
                              ../../../driverlib/gcc/lib/Debug/libdriver.a(interrupt.o) (CPUcpsid)
../../../driverlib/gcc/lib/Debug/libdriver.a(flash.o)
                              ../../../driverlib/gcc/lib/Debug/libdriver.a(prcm.o) (FlashDisable)
/usr/lib/gcc/arm-none-eabi/5.2.0/../../../../arm-none-eabi/lib/armv7e-m/libc_nano.a(lib_a-malloc.o)
                              obj/Debug/uart_if.o (malloc)
/usr/lib/gcc/arm-none-eabi/5.2.0/../../../../arm-none-eabi/lib/armv7e-m/libc_nano.a(lib_a-memcmp.o)
                              ../../../oslib/gcc/free_rtos/Debug/free_rtos.a(tasks.o) (memcmp)
/usr/lib/gcc/arm-none-eabi/5.2.0/../../../../arm-none-eabi/lib/armv7e-m/libc_nano.a(lib_a-memcpy.o)
                              obj/Debug/network_if.o (memcpy)
/usr/lib/gcc/arm-none-eabi/5.2.0/../../../../arm-none-eabi/lib/armv7e-m/libc_nano.a(lib_a-memmove.o)
                              obj/Debug/uart_if.o (memmove)
/usr/lib/gcc/arm-none-eabi/5.2.0/../../../../arm-none-eabi/lib/armv7e-m/libc_nano.a(lib_a-memset.o)
                              obj/Debug/network_if.o (memset)
/usr/lib/gcc/arm-none-eabi/5.2.0/../../../../arm-none-eabi/lib/armv7e-m/libc_nano.a(lib_a-nano-freer.o)
                              /usr/lib/gcc/arm-none-eabi/5.2.0/../../../../arm-none-eabi/lib/armv7e-m/libc_nano.a(lib_a-malloc.o) (_free_r)
/usr/lib/gcc/arm-none-eabi/5.2.0/../../../../arm-none-eabi/lib/armv7e-m/libc_nano.a(lib_a-nano-mallocr.o)
                              /usr/lib/gcc/arm-none-eabi/5.2.0/../../../../arm-none-eabi/lib/armv7e-m/libc_nano.a(lib_a-malloc.o) (_malloc_r)
/usr/lib/gcc/arm-none-eabi/5.2.0/../../../../arm-none-eabi/lib/armv7e-m/libc_nano.a(lib_a-realloc.o)
                              obj/Debug/uart_if.o (realloc)
/usr/lib/gcc/arm-none-eabi/5.2.0/../../../../arm-none-eabi/lib/armv7e-m/libc_nano.a(lib_a-sbrkr.o)
                              /usr/lib/gcc/arm-none-eabi/5.2.0/../../../../arm-none-eabi/lib/armv7e-m/libc_nano.a(lib_a-nano-mallocr.o) (_sbrk_r)
/usr/lib/gcc/arm-none-eabi/5.2.0/../../../../arm-none-eabi/lib/armv7e-m/libc_nano.a(lib_a-sprintf.o)
                              ../../../oslib/gcc/free_rtos/Debug/free_rtos.a(tasks.o) (sprintf)
/usr/lib/gcc/arm-none-eabi/5.2.0/../../../../arm-none-eabi/lib/armv7e-m/libc_nano.a(lib_a-strcpy.o)
                              ../../../oslib/gcc/free_rtos/Debug/free_rtos.a(tasks.o) (strcpy)
/usr/lib/gcc/arm-none-eabi/5.2.0/../../../../arm-none-eabi/lib/armv7e-m/libc_nano.a(lib_a-strlen.o)
                              obj/Debug/uart_if.o (strlen)
/usr/lib/gcc/arm-none-eabi/5.2.0/../../../../arm-none-eabi/lib/armv7e-m/libc_nano.a(lib_a-strncpy.o)
                              obj/Debug/network_if.o (strncpy)
/usr/lib/gcc/arm-none-eabi/5.2.0/../../../../arm-none-eabi/lib/armv7e-m/libc_nano.a(lib_a-vsnprintf.o)
                              obj/Debug/uart_if.o (vsnprintf)
/usr/lib/gcc/arm-none-eabi/5.2.0/../../../../arm-none-eabi/lib/armv7e-m/libc_nano.a(lib_a-impure.o)
                              /usr/lib/gcc/arm-none-eabi/5.2.0/../../../../arm-none-eabi/lib/armv7e-m/libc_nano.a(lib_a-malloc.o) (_impure_ptr)
/usr/lib/gcc/arm-none-eabi/5.2.0/../../../../arm-none-eabi/lib/armv7e-m/libc_nano.a(lib_a-nano-reallocr.o)
                              /usr/lib/gcc/arm-none-eabi/5.2.0/../../../../arm-none-eabi/lib/armv7e-m/libc_nano.a(lib_a-realloc.o) (_realloc_r)
/usr/lib/gcc/arm-none-eabi/5.2.0/../../../../arm-none-eabi/lib/armv7e-m/libc_nano.a(lib_a-nano-svfprintf.o)
                              /usr/lib/gcc/arm-none-eabi/5.2.0/../../../../arm-none-eabi/lib/armv7e-m/libc_nano.a(lib_a-sprintf.o) (_svfprintf_r)
/usr/lib/gcc/arm-none-eabi/5.2.0/../../../../arm-none-eabi/lib/armv7e-m/libc_nano.a(lib_a-nano-vfprintf_i.o)
                              /usr/lib/gcc/arm-none-eabi/5.2.0/../../../../arm-none-eabi/lib/armv7e-m/libc_nano.a(lib_a-nano-svfprintf.o) (_printf_i)
/usr/lib/gcc/arm-none-eabi/5.2.0/../../../../arm-none-eabi/lib/armv7e-m/libc_nano.a(lib_a-reent.o)
                              /usr/lib/gcc/arm-none-eabi/5.2.0/../../../../arm-none-eabi/lib/armv7e-m/libc_nano.a(lib_a-sbrkr.o) (errno)
/usr/lib/gcc/arm-none-eabi/5.2.0/../../../../arm-none-eabi/lib/armv7e-m/libc_nano.a(lib_a-memchr.o)
                              /usr/lib/gcc/arm-none-eabi/5.2.0/../../../../arm-none-eabi/lib/armv7e-m/libc_nano.a(lib_a-nano-svfprintf.o) (memchr)
/usr/lib/gcc/arm-none-eabi/5.2.0/../../../../arm-none-eabi/lib/armv7e-m/libc_nano.a(lib_a-nano-msizer.o)
                              /usr/lib/gcc/arm-none-eabi/5.2.0/../../../../arm-none-eabi/lib/armv7e-m/libc_nano.a(lib_a-nano-reallocr.o) (_malloc_usable_size_r)
/usr/lib/gcc/arm-none-eabi/5.2.0/armv7e-m/libgcc.a(_aeabi_uldivmod.o)
                              ../../../driverlib/gcc/lib/Debug/libdriver.a(prcm.o) (__aeabi_uldivmod)
/usr/lib/gcc/arm-none-eabi/5.2.0/armv7e-m/libgcc.a(_udivmoddi4.o)
                              /usr/lib/gcc/arm-none-eabi/5.2.0/armv7e-m/libgcc.a(_aeabi_uldivmod.o) (__udivmoddi4)
/usr/lib/gcc/arm-none-eabi/5.2.0/armv7e-m/libgcc.a(_dvmd_tls.o)
                              /usr/lib/gcc/arm-none-eabi/5.2.0/armv7e-m/libgcc.a(_aeabi_uldivmod.o) (__aeabi_ldiv0)

Allocating common symbols
Common symbol       size              file

g_bDeviceRestartIsRequired
                    0x1               ../../../simplelink/gcc/lib/os_PM/Debug/libsimplelink.a(driver.o)
errno               0x4               /usr/lib/gcc/arm-none-eabi/5.2.0/../../../../arm-none-eabi/lib/armv7e-m/libc_nano.a(lib_a-reent.o)
isr_handler_list    0x800             ../../../middleware/gcc/lib/Debug/middleware.a(interrupt_hal.o)
spi_ctrl            0xf0              ../../../middleware/gcc/lib/Debug/middleware.a(spi_hal.o)
xQueueRegistry      0x50              ../../../oslib/gcc/free_rtos/Debug/free_rtos.a(queue.o)
RxIrqCnt            0x1               ../../../simplelink/gcc/lib/os_PM/Debug/libsimplelink.a(driver.o)
g_ucLED1Pin         0x1               obj/Debug/gpio_if.o
g_usConnectIndex    0x2               obj/Debug/network_if.o
g_ucConnectionBSSID
                    0x6               obj/Debug/network_if.o
g_ucLED2Pin         0x1               obj/Debug/gpio_if.o
i                   0x4               ../../../middleware/gcc/lib/Debug/middleware.a(dma_hal.o)
spi_rtos_drv        0x9c              ../../../middleware/gcc/lib/Debug/middleware.a(spi_drv.o)
g_ucConnectionSSID  0x21              obj/Debug/network_if.o
vault_arm_registers
                    0x1c              ../../../middleware/gcc/lib/Debug/middleware.a(cc_pm.o)
g_ucLED3Pin         0x1               obj/Debug/gpio_if.o

Discarded input sections

 .text          0x0000000000000000        0x0 obj/Debug/main.o
 .data          0x0000000000000000        0x0 obj/Debug/main.o
 .bss           0x0000000000000000        0x0 obj/Debug/main.o
 .text          0x0000000000000000        0x0 obj/Debug/pinmux.o
 .data          0x0000000000000000        0x0 obj/Debug/pinmux.o
 .bss           0x0000000000000000        0x0 obj/Debug/pinmux.o
 .text          0x0000000000000000        0x0 obj/Debug/uart_if.o
 .data          0x0000000000000000        0x0 obj/Debug/uart_if.o
 .bss           0x0000000000000000        0x0 obj/Debug/uart_if.o
 .data.ilen     0x0000000000000000        0x4 obj/Debug/uart_if.o
 .text.ClearTerm
                0x0000000000000000       0x14 obj/Debug/uart_if.o
 .text.Error    0x0000000000000000       0x4c obj/Debug/uart_if.o
 .text          0x0000000000000000        0x0 obj/Debug/timer_if.o
 .data          0x0000000000000000        0x0 obj/Debug/timer_if.o
 .bss           0x0000000000000000        0x0 obj/Debug/timer_if.o
 .text.Timer_IF_InterruptClear
                0x0000000000000000       0x24 obj/Debug/timer_if.o
 .text.Timer_IF_ReLoad
                0x0000000000000000       0x2c obj/Debug/timer_if.o
 .text.Timer_IF_GetCount
                0x0000000000000000       0x20 obj/Debug/timer_if.o
 .text          0x0000000000000000        0x0 obj/Debug/gpio_if.o
 .data          0x0000000000000000        0x0 obj/Debug/gpio_if.o
 .bss           0x0000000000000000        0x0 obj/Debug/gpio_if.o
 .text.GetPeripheralIntNum
                0x0000000000000000       0x54 obj/Debug/gpio_if.o
 .text.GPIO_IF_LedStatus
                0x0000000000000000       0x84 obj/Debug/gpio_if.o
 .text.GPIO_IF_LedToggle
                0x0000000000000000       0x38 obj/Debug/gpio_if.o
 .text.GPIO_IF_ConfigureNIntEnable
                0x0000000000000000       0x4c obj/Debug/gpio_if.o
 .text.GPIO_IF_Get
                0x0000000000000000       0x34 obj/Debug/gpio_if.o
 .text          0x0000000000000000        0x0 obj/Debug/utils_if.o
 .data          0x0000000000000000        0x0 obj/Debug/utils_if.o
 .bss           0x0000000000000000        0x0 obj/Debug/utils_if.o
 .text.Utils_TriggerHibCycle
                0x0000000000000000       0x20 obj/Debug/utils_if.o
 .text          0x0000000000000000        0x0 obj/Debug/network_if.o
 .data          0x0000000000000000        0x0 obj/Debug/network_if.o
 .bss           0x0000000000000000        0x0 obj/Debug/network_if.o
 .rodata.pcDigits
                0x0000000000000000        0xc obj/Debug/network_if.o
 .text.Network_IF_GetHostIP
                0x0000000000000000       0x80 obj/Debug/network_if.o
 .text.Network_IF_CurrentMCUState
                0x0000000000000000       0x14 obj/Debug/network_if.o
 .text.Network_IF_SetMCUMachineState
                0x0000000000000000       0x2c obj/Debug/network_if.o
 .text.Network_IF_UnsetMCUMachineState
                0x0000000000000000       0x30 obj/Debug/network_if.o
 .text.itoa_incompat
                0x0000000000000000       0xb4 obj/Debug/network_if.o
 .rodata.__FUNCTION__.5987
                0x0000000000000000       0x18 obj/Debug/network_if.o
 .text          0x0000000000000000        0x0 obj/Debug/startup_gcc.o
 .data          0x0000000000000000        0x0 obj/Debug/startup_gcc.o
 .bss           0x0000000000000000        0x0 obj/Debug/startup_gcc.o
 .text          0x0000000000000000        0x0 ../../../simplelink/gcc/lib/os_PM/Debug/libsimplelink.a(device.o)
 .data          0x0000000000000000        0x0 ../../../simplelink/gcc/lib/os_PM/Debug/libsimplelink.a(device.o)
 .bss           0x0000000000000000        0x0 ../../../simplelink/gcc/lib/os_PM/Debug/libsimplelink.a(device.o)
 .text.sl_Stop_WithNwpLpdsPoll
                0x0000000000000000       0xe4 ../../../simplelink/gcc/lib/os_PM/Debug/libsimplelink.a(device.o)
 .rodata._SlEventMaskSetCmdCtrl
                0x0000000000000000        0x4 ../../../simplelink/gcc/lib/os_PM/Debug/libsimplelink.a(device.o)
 .text.sl_EventMaskSet
                0x0000000000000000       0x6c ../../../simplelink/gcc/lib/os_PM/Debug/libsimplelink.a(device.o)
 .rodata._SlEventMaskGetCmdCtrl
                0x0000000000000000        0x4 ../../../simplelink/gcc/lib/os_PM/Debug/libsimplelink.a(device.o)
 .text.sl_EventMaskGet
                0x0000000000000000       0x70 ../../../simplelink/gcc/lib/os_PM/Debug/libsimplelink.a(device.o)
 .rodata._SlDeviceSetCmdCtrl
                0x0000000000000000        0x4 ../../../simplelink/gcc/lib/os_PM/Debug/libsimplelink.a(device.o)
 .text.sl_DevSet
                0x0000000000000000       0xa0 ../../../simplelink/gcc/lib/os_PM/Debug/libsimplelink.a(device.o)
 .text          0x0000000000000000        0x0 ../../../simplelink/gcc/lib/os_PM/Debug/libsimplelink.a(driver.o)
 .data          0x0000000000000000        0x0 ../../../simplelink/gcc/lib/os_PM/Debug/libsimplelink.a(driver.o)
 .bss           0x0000000000000000        0x0 ../../../simplelink/gcc/lib/os_PM/Debug/libsimplelink.a(driver.o)
 .text._SlDrvDataReadOp
                0x0000000000000000      0x208 ../../../simplelink/gcc/lib/os_PM/Debug/libsimplelink.a(driver.o)
 .text          0x0000000000000000        0x0 ../../../simplelink/gcc/lib/os_PM/Debug/libsimplelink.a(netapp.o)
 .data          0x0000000000000000        0x0 ../../../simplelink/gcc/lib/os_PM/Debug/libsimplelink.a(netapp.o)
 .bss           0x0000000000000000        0x0 ../../../simplelink/gcc/lib/os_PM/Debug/libsimplelink.a(netapp.o)
 .rodata._SlNetAppStartCtrl
                0x0000000000000000        0x4 ../../../simplelink/gcc/lib/os_PM/Debug/libsimplelink.a(netapp.o)
 .text.sl_NetAppStart
                0x0000000000000000       0x64 ../../../simplelink/gcc/lib/os_PM/Debug/libsimplelink.a(netapp.o)
 .rodata._SlNetAppStopCtrl
                0x0000000000000000        0x4 ../../../simplelink/gcc/lib/os_PM/Debug/libsimplelink.a(netapp.o)
 .text.sl_NetAppStop
                0x0000000000000000       0x64 ../../../simplelink/gcc/lib/os_PM/Debug/libsimplelink.a(netapp.o)
 .rodata._SlGetServiceListeCtrl
                0x0000000000000000        0x4 ../../../simplelink/gcc/lib/os_PM/Debug/libsimplelink.a(netapp.o)
 .text.sl_NetAppGetServiceList
                0x0000000000000000       0xe8 ../../../simplelink/gcc/lib/os_PM/Debug/libsimplelink.a(netapp.o)
 .text.sl_NetAppMDNSRegisterService
                0x0000000000000000       0x6c ../../../simplelink/gcc/lib/os_PM/Debug/libsimplelink.a(netapp.o)
 .rodata._SlGetHostByServiceCtrl
                0x0000000000000000        0x4 ../../../simplelink/gcc/lib/os_PM/Debug/libsimplelink.a(netapp.o)
 .text.sl_NetAppDnsGetHostByService
                0x0000000000000000      0x144 ../../../simplelink/gcc/lib/os_PM/Debug/libsimplelink.a(netapp.o)
 .text._sl_HandleAsync_DnsGetHostByAddr
                0x0000000000000000       0x18 ../../../simplelink/gcc/lib/os_PM/Debug/libsimplelink.a(netapp.o)
 .rodata._SlGetHostByNameCtrl
                0x0000000000000000        0x4 ../../../simplelink/gcc/lib/os_PM/Debug/libsimplelink.a(netapp.o)
 .text.sl_NetAppDnsGetHostByName
                0x0000000000000000      0x16c ../../../simplelink/gcc/lib/os_PM/Debug/libsimplelink.a(netapp.o)
 .rodata        0x0000000000000000        0x4 ../../../simplelink/gcc/lib/os_PM/Debug/libsimplelink.a(netapp.o)
 .text.sl_NetAppPingStart
                0x0000000000000000      0x1f8 ../../../simplelink/gcc/lib/os_PM/Debug/libsimplelink.a(netapp.o)
 .rodata._SlNetAppSetCmdCtrl
                0x0000000000000000        0x4 ../../../simplelink/gcc/lib/os_PM/Debug/libsimplelink.a(netapp.o)
 .text.sl_NetAppSet
                0x0000000000000000       0xa0 ../../../simplelink/gcc/lib/os_PM/Debug/libsimplelink.a(netapp.o)
 .rodata._SlNetAppGetCmdCtrl
                0x0000000000000000        0x4 ../../../simplelink/gcc/lib/os_PM/Debug/libsimplelink.a(netapp.o)
 .text.sl_NetAppGet
                0x0000000000000000       0xc4 ../../../simplelink/gcc/lib/os_PM/Debug/libsimplelink.a(netapp.o)
 .text          0x0000000000000000        0x0 ../../../simplelink/gcc/lib/os_PM/Debug/libsimplelink.a(netcfg.o)
 .data          0x0000000000000000        0x0 ../../../simplelink/gcc/lib/os_PM/Debug/libsimplelink.a(netcfg.o)
 .bss           0x0000000000000000        0x0 ../../../simplelink/gcc/lib/os_PM/Debug/libsimplelink.a(netcfg.o)
 .text          0x0000000000000000        0x0 ../../../simplelink/gcc/lib/os_PM/Debug/libsimplelink.a(socket.o)
 .data          0x0000000000000000        0x0 ../../../simplelink/gcc/lib/os_PM/Debug/libsimplelink.a(socket.o)
 .bss           0x0000000000000000        0x0 ../../../simplelink/gcc/lib/os_PM/Debug/libsimplelink.a(socket.o)
 .text._sl_ParseAddress
                0x0000000000000000       0x64 ../../../simplelink/gcc/lib/os_PM/Debug/libsimplelink.a(socket.o)
 .text.sl_Bind  0x0000000000000000       0xb4 ../../../simplelink/gcc/lib/os_PM/Debug/libsimplelink.a(socket.o)
 .rodata._SlRecvfomCmdCtrl
                0x0000000000000000        0x4 ../../../simplelink/gcc/lib/os_PM/Debug/libsimplelink.a(socket.o)
 .text.sl_RecvFrom
                0x0000000000000000      0x140 ../../../simplelink/gcc/lib/os_PM/Debug/libsimplelink.a(socket.o)
 .text.sl_Connect
                0x0000000000000000      0x194 ../../../simplelink/gcc/lib/os_PM/Debug/libsimplelink.a(socket.o)
 .rodata._SlSendCmdCtrl
                0x0000000000000000        0x4 ../../../simplelink/gcc/lib/os_PM/Debug/libsimplelink.a(socket.o)
 .text.sl_Send  0x0000000000000000      0x134 ../../../simplelink/gcc/lib/os_PM/Debug/libsimplelink.a(socket.o)
 .rodata._SlListenCmdCtrl
                0x0000000000000000        0x4 ../../../simplelink/gcc/lib/os_PM/Debug/libsimplelink.a(socket.o)
 .text.sl_Listen
                0x0000000000000000       0x74 ../../../simplelink/gcc/lib/os_PM/Debug/libsimplelink.a(socket.o)
 .rodata._SlAcceptCmdCtrl
                0x0000000000000000        0x4 ../../../simplelink/gcc/lib/os_PM/Debug/libsimplelink.a(socket.o)
 .text.sl_Accept
                0x0000000000000000      0x1c8 ../../../simplelink/gcc/lib/os_PM/Debug/libsimplelink.a(socket.o)
 .rodata._SlRecvCmdCtrl
                0x0000000000000000        0x4 ../../../simplelink/gcc/lib/os_PM/Debug/libsimplelink.a(socket.o)
 .text.sl_Recv  0x0000000000000000       0xa8 ../../../simplelink/gcc/lib/os_PM/Debug/libsimplelink.a(socket.o)
 .rodata._SlSetSockOptCmdCtrl
                0x0000000000000000        0x4 ../../../simplelink/gcc/lib/os_PM/Debug/libsimplelink.a(socket.o)
 .text.sl_SetSockOpt
                0x0000000000000000       0xa0 ../../../simplelink/gcc/lib/os_PM/Debug/libsimplelink.a(socket.o)
 .rodata._SlGetSockOptCmdCtrl
                0x0000000000000000        0x4 ../../../simplelink/gcc/lib/os_PM/Debug/libsimplelink.a(socket.o)
 .text.sl_GetSockOpt
                0x0000000000000000       0xdc ../../../simplelink/gcc/lib/os_PM/Debug/libsimplelink.a(socket.o)
 .rodata._SlSelectCmdCtrl
                0x0000000000000000        0x4 ../../../simplelink/gcc/lib/os_PM/Debug/libsimplelink.a(socket.o)
 .text.sl_Select
                0x0000000000000000      0x180 ../../../simplelink/gcc/lib/os_PM/Debug/libsimplelink.a(socket.o)
 .text.SL_FD_SET
                0x0000000000000000       0x2c ../../../simplelink/gcc/lib/os_PM/Debug/libsimplelink.a(socket.o)
 .text.SL_FD_CLR
                0x0000000000000000       0x30 ../../../simplelink/gcc/lib/os_PM/Debug/libsimplelink.a(socket.o)
 .text.SL_FD_ISSET
                0x0000000000000000       0x34 ../../../simplelink/gcc/lib/os_PM/Debug/libsimplelink.a(socket.o)
 .text.SL_FD_ZERO
                0x0000000000000000       0x18 ../../../simplelink/gcc/lib/os_PM/Debug/libsimplelink.a(socket.o)
 .text          0x0000000000000000        0x0 ../../../simplelink/gcc/lib/os_PM/Debug/libsimplelink.a(wlan.o)
 .data          0x0000000000000000        0x0 ../../../simplelink/gcc/lib/os_PM/Debug/libsimplelink.a(wlan.o)
 .bss           0x0000000000000000        0x0 ../../../simplelink/gcc/lib/os_PM/Debug/libsimplelink.a(wlan.o)
 .rodata._SlPolicyGetCmdCtrl
                0x0000000000000000        0x4 ../../../simplelink/gcc/lib/os_PM/Debug/libsimplelink.a(wlan.o)
 .text.sl_WlanPolicyGet
                0x0000000000000000      0x108 ../../../simplelink/gcc/lib/os_PM/Debug/libsimplelink.a(wlan.o)
 .text.sl_WlanProfileAdd
                0x0000000000000000      0x308 ../../../simplelink/gcc/lib/os_PM/Debug/libsimplelink.a(wlan.o)
 .rodata._SlProfileGetCmdCtrl
                0x0000000000000000        0x4 ../../../simplelink/gcc/lib/os_PM/Debug/libsimplelink.a(wlan.o)
 .text.sl_WlanProfileGet
                0x0000000000000000      0x154 ../../../simplelink/gcc/lib/os_PM/Debug/libsimplelink.a(wlan.o)
 .rodata._SlWlanGetNetworkListCtrl
                0x0000000000000000        0x4 ../../../simplelink/gcc/lib/os_PM/Debug/libsimplelink.a(wlan.o)
 .text.sl_WlanGetNetworkList
                0x0000000000000000       0xac ../../../simplelink/gcc/lib/os_PM/Debug/libsimplelink.a(wlan.o)
 .rodata._SlRxFilterAddtCmdCtrl
                0x0000000000000000        0x4 ../../../simplelink/gcc/lib/os_PM/Debug/libsimplelink.a(wlan.o)
 .text.sl_WlanRxFilterAdd
                0x0000000000000000       0xac ../../../simplelink/gcc/lib/os_PM/Debug/libsimplelink.a(wlan.o)
 .rodata._SlRxFilterGetCmdCtrl
                0x0000000000000000        0x4 ../../../simplelink/gcc/lib/os_PM/Debug/libsimplelink.a(wlan.o)
 .text.sl_WlanRxFilterGet
                0x0000000000000000       0xa4 ../../../simplelink/gcc/lib/os_PM/Debug/libsimplelink.a(wlan.o)
 .text.sl_WlanRxStatStart
                0x0000000000000000       0x40 ../../../simplelink/gcc/lib/os_PM/Debug/libsimplelink.a(wlan.o)
 .text.sl_WlanRxStatStop
                0x0000000000000000       0x40 ../../../simplelink/gcc/lib/os_PM/Debug/libsimplelink.a(wlan.o)
 .rodata        0x0000000000000000        0x4 ../../../simplelink/gcc/lib/os_PM/Debug/libsimplelink.a(wlan.o)
 .text.sl_WlanRxStatGet
                0x0000000000000000       0x74 ../../../simplelink/gcc/lib/os_PM/Debug/libsimplelink.a(wlan.o)
 .text.sl_WlanSmartConfigStop
                0x0000000000000000       0x40 ../../../simplelink/gcc/lib/os_PM/Debug/libsimplelink.a(wlan.o)
 .rodata._SlSmartConfigStartCmdCtrl
                0x0000000000000000        0x4 ../../../simplelink/gcc/lib/os_PM/Debug/libsimplelink.a(wlan.o)
 .text.sl_WlanSmartConfigStart
                0x0000000000000000       0xdc ../../../simplelink/gcc/lib/os_PM/Debug/libsimplelink.a(wlan.o)
 .rodata._SlWlanCfgGetCmdCtrl
                0x0000000000000000        0x4 ../../../simplelink/gcc/lib/os_PM/Debug/libsimplelink.a(wlan.o)
 .text.sl_WlanGet
                0x0000000000000000       0xe0 ../../../simplelink/gcc/lib/os_PM/Debug/libsimplelink.a(wlan.o)
 .text          0x0000000000000000        0x0 ../../../simplelink/gcc/lib/os_PM/Debug/libsimplelink.a(cc_pal_pm.o)
 .data          0x0000000000000000        0x0 ../../../simplelink/gcc/lib/os_PM/Debug/libsimplelink.a(cc_pal_pm.o)
 .bss           0x0000000000000000        0x0 ../../../simplelink/gcc/lib/os_PM/Debug/libsimplelink.a(cc_pal_pm.o)
 .bss.g_pHostIntHdl
                0x0000000000000000        0x4 ../../../simplelink/gcc/lib/os_PM/Debug/libsimplelink.a(cc_pal_pm.o)
 .text.NwpPowerOff_WithNwpLpdsPoll
                0x0000000000000000       0x80 ../../../simplelink/gcc/lib/os_PM/Debug/libsimplelink.a(cc_pal_pm.o)
 .text          0x0000000000000000        0x0 ../../../middleware/gcc/lib/Debug/middleware.a(spi_drv.o)
 .data          0x0000000000000000        0x0 ../../../middleware/gcc/lib/Debug/middleware.a(spi_drv.o)
 .bss           0x0000000000000000        0x0 ../../../middleware/gcc/lib/Debug/middleware.a(spi_drv.o)
 .bss.is_spidrv_reset
                0x0000000000000000        0x1 ../../../middleware/gcc/lib/Debug/middleware.a(spi_drv.o)
 .text.spi_interrupt_handler
                0x0000000000000000       0x18 ../../../middleware/gcc/lib/Debug/middleware.a(spi_drv.o)
 .text.drv_callback_ops_complete
                0x0000000000000000       0x3c ../../../middleware/gcc/lib/Debug/middleware.a(spi_drv.o)
 .bss.spi_reset
                0x0000000000000000        0x4 ../../../middleware/gcc/lib/Debug/middleware.a(spi_drv.o)
 .text.reset_spi_rtosdrv
                0x0000000000000000       0x44 ../../../middleware/gcc/lib/Debug/middleware.a(spi_drv.o)
 .text.get_available_spi_rtosdrv
                0x0000000000000000       0x50 ../../../middleware/gcc/lib/Debug/middleware.a(spi_drv.o)
 .text.free_spi_rtosdrv
                0x0000000000000000       0x5c ../../../middleware/gcc/lib/Debug/middleware.a(spi_drv.o)
 .text.spi_handle_pm_cmd
                0x0000000000000000       0xb4 ../../../middleware/gcc/lib/Debug/middleware.a(spi_drv.o)
 .text.map_moduleid_to_dmach
                0x0000000000000000       0x54 ../../../middleware/gcc/lib/Debug/middleware.a(spi_drv.o)
 .text.spi_driver_load
                0x0000000000000000      0x17c ../../../middleware/gcc/lib/Debug/middleware.a(spi_drv.o)
 .text.spi_write_read
                0x0000000000000000       0xb4 ../../../middleware/gcc/lib/Debug/middleware.a(spi_drv.o)
 .text          0x0000000000000000        0x0 ../../../middleware/gcc/lib/Debug/middleware.a(cc_pm.o)
 .data          0x0000000000000000        0x0 ../../../middleware/gcc/lib/Debug/middleware.a(cc_pm.o)
 .bss           0x0000000000000000        0x0 ../../../middleware/gcc/lib/Debug/middleware.a(cc_pm.o)
 .bss.pform_info
                0x0000000000000000       0x48 ../../../middleware/gcc/lib/Debug/middleware.a(cc_pm.o)
 .bss.pform     0x0000000000000000        0x4 ../../../middleware/gcc/lib/Debug/middleware.a(cc_pm.o)
 .text.push_modules_to_M4_no_irq
                0x0000000000000000       0x5c ../../../middleware/gcc/lib/Debug/middleware.a(cc_pm.o)
 .text.make_modules_to_M0_no_irq
                0x0000000000000000       0x68 ../../../middleware/gcc/lib/Debug/middleware.a(cc_pm.o)
 .text.do_try_S4_no_irq
                0x0000000000000000       0x94 ../../../middleware/gcc/lib/Debug/middleware.a(cc_pm.o)
 .text.try_S4_no_irq
                0x0000000000000000       0x38 ../../../middleware/gcc/lib/Debug/middleware.a(cc_pm.o)
 .text.resume_from_S3
                0x0000000000000000       0x6c ../../../middleware/gcc/lib/Debug/middleware.a(cc_pm.o)
 .text.enter_into_S3
                0x0000000000000000       0xa4 ../../../middleware/gcc/lib/Debug/middleware.a(cc_pm.o)
 .text.do_try_S3_no_irq
                0x0000000000000000       0x84 ../../../middleware/gcc/lib/Debug/middleware.a(cc_pm.o)
 .text.try_S3_no_irq
                0x0000000000000000       0x28 ../../../middleware/gcc/lib/Debug/middleware.a(cc_pm.o)
 .text.try_S2_no_irq
                0x0000000000000000       0x58 ../../../middleware/gcc/lib/Debug/middleware.a(cc_pm.o)
 .text.try_S1_no_irq
                0x0000000000000000       0x40 ../../../middleware/gcc/lib/Debug/middleware.a(cc_pm.o)
 .bss.idle_trace
                0x0000000000000000        0x4 ../../../middleware/gcc/lib/Debug/middleware.a(cc_pm.o)
 .text.cc_idle_task_pm
                0x0000000000000000       0x74 ../../../middleware/gcc/lib/Debug/middleware.a(cc_pm.o)
 .text.cc_pm_platform_ops_register
                0x0000000000000000       0xac ../../../middleware/gcc/lib/Debug/middleware.a(cc_pm.o)
 .text.cc_pm_framework_init
                0x0000000000000000       0x2c ../../../middleware/gcc/lib/Debug/middleware.a(cc_pm.o)
 .text.cc_modules_load
                0x0000000000000000       0x78 ../../../middleware/gcc/lib/Debug/middleware.a(cc_pm.o)
 .text.add2tail_used_mod_list
                0x0000000000000000       0x54 ../../../middleware/gcc/lib/Debug/middleware.a(cc_pm.o)
 .text.cc_module_drv_register
                0x0000000000000000       0x50 ../../../middleware/gcc/lib/Debug/middleware.a(cc_pm.o)
 .text.cc_module_drv_unregister
                0x0000000000000000       0x68 ../../../middleware/gcc/lib/Debug/middleware.a(cc_pm.o)
 .text.cc_app_putoff_pm
                0x0000000000000000       0x34 ../../../middleware/gcc/lib/Debug/middleware.a(cc_pm.o)
 .text.cc_app_resume_pm
                0x0000000000000000       0x40 ../../../middleware/gcc/lib/Debug/middleware.a(cc_pm.o)
 .debug_info    0x0000000000000000      0x838 ../../../middleware/gcc/lib/Debug/middleware.a(cc_pm.o)
 .debug_abbrev  0x0000000000000000      0x2b4 ../../../middleware/gcc/lib/Debug/middleware.a(cc_pm.o)
 .debug_aranges
                0x0000000000000000       0xb0 ../../../middleware/gcc/lib/Debug/middleware.a(cc_pm.o)
 .debug_ranges  0x0000000000000000       0xd0 ../../../middleware/gcc/lib/Debug/middleware.a(cc_pm.o)
 .debug_line    0x0000000000000000      0x2df ../../../middleware/gcc/lib/Debug/middleware.a(cc_pm.o)
 .debug_str     0x0000000000000000      0x61a ../../../middleware/gcc/lib/Debug/middleware.a(cc_pm.o)
 .comment       0x0000000000000000       0x22 ../../../middleware/gcc/lib/Debug/middleware.a(cc_pm.o)
 .ARM.attributes
                0x0000000000000000       0x33 ../../../middleware/gcc/lib/Debug/middleware.a(cc_pm.o)
 .debug_frame   0x0000000000000000      0x294 ../../../middleware/gcc/lib/Debug/middleware.a(cc_pm.o)
 COMMON         0x0000000000000000       0x1c ../../../middleware/gcc/lib/Debug/middleware.a(cc_pm.o)
 .text          0x0000000000000000        0x0 ../../../middleware/gcc/lib/Debug/middleware.a(dma_hal.o)
 .data          0x0000000000000000        0x0 ../../../middleware/gcc/lib/Debug/middleware.a(dma_hal.o)
 .bss           0x0000000000000000        0x0 ../../../middleware/gcc/lib/Debug/middleware.a(dma_hal.o)
 .bss.chan_desc
                0x0000000000000000      0x200 ../../../middleware/gcc/lib/Debug/middleware.a(dma_hal.o)
 .text.cc_dma_init
                0x0000000000000000       0x3c ../../../middleware/gcc/lib/Debug/middleware.a(dma_hal.o)
 .text.cc_dma_exit
                0x0000000000000000        0xc ../../../middleware/gcc/lib/Debug/middleware.a(dma_hal.o)
 .rodata.chan_mux
                0x0000000000000000       0x80 ../../../middleware/gcc/lib/Debug/middleware.a(dma_hal.o)
 .text.get_user_mux_mode
                0x0000000000000000       0x54 ../../../middleware/gcc/lib/Debug/middleware.a(dma_hal.o)
 .text.is_user_alloted
                0x0000000000000000       0x4c ../../../middleware/gcc/lib/Debug/middleware.a(dma_hal.o)
 .text.cc_dma_alloc
                0x0000000000000000       0x7c ../../../middleware/gcc/lib/Debug/middleware.a(dma_hal.o)
 .text.cc_dma_free
                0x0000000000000000       0x24 ../../../middleware/gcc/lib/Debug/middleware.a(dma_hal.o)
 .text.cc_dma_chan_config
                0x0000000000000000       0xa8 ../../../middleware/gcc/lib/Debug/middleware.a(dma_hal.o)
 .text.cc_dma_submit_pp_endp
                0x0000000000000000       0x5c ../../../middleware/gcc/lib/Debug/middleware.a(dma_hal.o)
 .text.cc_dma_prep_sg_elem_ctlw
                0x0000000000000000       0x90 ../../../middleware/gcc/lib/Debug/middleware.a(dma_hal.o)
 .text.prep_sg_bvec_ctlw
                0x0000000000000000       0x90 ../../../middleware/gcc/lib/Debug/middleware.a(dma_hal.o)
 .text.submit_sg_bvec
                0x0000000000000000       0x68 ../../../middleware/gcc/lib/Debug/middleware.a(dma_hal.o)
 .text.cc_dma_submit_sg_bvec
                0x0000000000000000       0x88 ../../../middleware/gcc/lib/Debug/middleware.a(dma_hal.o)
 .text.cc_dma_done
                0x0000000000000000       0x5c ../../../middleware/gcc/lib/Debug/middleware.a(dma_hal.o)
 COMMON         0x0000000000000000        0x4 ../../../middleware/gcc/lib/Debug/middleware.a(dma_hal.o)
 .text          0x0000000000000000        0x0 ../../../middleware/gcc/lib/Debug/middleware.a(interrupt_hal.o)
 .data          0x0000000000000000        0x0 ../../../middleware/gcc/lib/Debug/middleware.a(interrupt_hal.o)
 .bss           0x0000000000000000        0x0 ../../../middleware/gcc/lib/Debug/middleware.a(interrupt_hal.o)
 .text.CPUipsr  0x0000000000000000        0xc ../../../middleware/gcc/lib/Debug/middleware.a(interrupt_hal.o)
 .text.global_intr_handler
                0x0000000000000000       0x34 ../../../middleware/gcc/lib/Debug/middleware.a(interrupt_hal.o)
 .text.register_isr
                0x0000000000000000       0x50 ../../../middleware/gcc/lib/Debug/middleware.a(interrupt_hal.o)
 .debug_info    0x0000000000000000      0x182 ../../../middleware/gcc/lib/Debug/middleware.a(interrupt_hal.o)
 .debug_abbrev  0x0000000000000000      0x118 ../../../middleware/gcc/lib/Debug/middleware.a(interrupt_hal.o)
 .debug_aranges
                0x0000000000000000       0x30 ../../../middleware/gcc/lib/Debug/middleware.a(interrupt_hal.o)
 .debug_ranges  0x0000000000000000       0x20 ../../../middleware/gcc/lib/Debug/middleware.a(interrupt_hal.o)
 .debug_line    0x0000000000000000       0xb1 ../../../middleware/gcc/lib/Debug/middleware.a(interrupt_hal.o)
 .debug_str     0x0000000000000000      0x1e5 ../../../middleware/gcc/lib/Debug/middleware.a(interrupt_hal.o)
 .comment       0x0000000000000000       0x22 ../../../middleware/gcc/lib/Debug/middleware.a(interrupt_hal.o)
 .ARM.attributes
                0x0000000000000000       0x33 ../../../middleware/gcc/lib/Debug/middleware.a(interrupt_hal.o)
 .debug_frame   0x0000000000000000       0x68 ../../../middleware/gcc/lib/Debug/middleware.a(interrupt_hal.o)
 COMMON         0x0000000000000000      0x800 ../../../middleware/gcc/lib/Debug/middleware.a(interrupt_hal.o)
 .text          0x0000000000000000        0x0 ../../../middleware/gcc/lib/Debug/middleware.a(spi_hal.o)
 .data          0x0000000000000000        0x0 ../../../middleware/gcc/lib/Debug/middleware.a(spi_hal.o)
 .bss           0x0000000000000000        0x0 ../../../middleware/gcc/lib/Debug/middleware.a(spi_hal.o)
 .bss.is_spictrl_reset
                0x0000000000000000        0x1 ../../../middleware/gcc/lib/Debug/middleware.a(spi_hal.o)
 .text.reset_spictrl
                0x0000000000000000       0x3c ../../../middleware/gcc/lib/Debug/middleware.a(spi_hal.o)
 .text.check_spictrl_inuse
                0x0000000000000000       0x5c ../../../middleware/gcc/lib/Debug/middleware.a(spi_hal.o)
 .text.get_available_spictrl
                0x0000000000000000       0x54 ../../../middleware/gcc/lib/Debug/middleware.a(spi_hal.o)
 .text.free_spictrl
                0x0000000000000000       0x54 ../../../middleware/gcc/lib/Debug/middleware.a(spi_hal.o)
 .text.cc_spi_init
                0x0000000000000000       0x5c ../../../middleware/gcc/lib/Debug/middleware.a(spi_hal.o)
 .text.cc_spi_deinit
                0x0000000000000000       0x20 ../../../middleware/gcc/lib/Debug/middleware.a(spi_hal.o)
 .text.cc_spi_isr
                0x0000000000000000       0x8c ../../../middleware/gcc/lib/Debug/middleware.a(spi_hal.o)
 .text.cc_spi_rw_submit
                0x0000000000000000       0x74 ../../../middleware/gcc/lib/Debug/middleware.a(spi_hal.o)
 COMMON         0x0000000000000000       0xf0 ../../../middleware/gcc/lib/Debug/middleware.a(spi_hal.o)
 .text          0x0000000000000000        0x0 ../../../oslib/gcc/free_rtos/Debug/free_rtos.a(osi_freertos.o)
 .data          0x0000000000000000        0x0 ../../../oslib/gcc/free_rtos/Debug/free_rtos.a(osi_freertos.o)
 .bss           0x0000000000000000        0x0 ../../../oslib/gcc/free_rtos/Debug/free_rtos.a(osi_freertos.o)
 .text.osi_SyncObjClear
                0x0000000000000000       0x30 ../../../oslib/gcc/free_rtos/Debug/free_rtos.a(osi_freertos.o)
 .text.osi_TaskDelete
                0x0000000000000000       0x1c ../../../oslib/gcc/free_rtos/Debug/free_rtos.a(osi_freertos.o)
 .text.VDeleteSimpleLinkSpawnTask
                0x0000000000000000       0x40 ../../../oslib/gcc/free_rtos/Debug/free_rtos.a(osi_freertos.o)
 .text.osi_MsgQCreate
                0x0000000000000000       0x44 ../../../oslib/gcc/free_rtos/Debug/free_rtos.a(osi_freertos.o)
 .text.osi_MsgQDelete
                0x0000000000000000       0x28 ../../../oslib/gcc/free_rtos/Debug/free_rtos.a(osi_freertos.o)
 .text.osi_MsgQWrite
                0x0000000000000000       0x44 ../../../oslib/gcc/free_rtos/Debug/free_rtos.a(osi_freertos.o)
 .text.osi_MsgQRead
                0x0000000000000000       0x48 ../../../oslib/gcc/free_rtos/Debug/free_rtos.a(osi_freertos.o)
 .text.mem_Malloc
                0x0000000000000000       0x18 ../../../oslib/gcc/free_rtos/Debug/free_rtos.a(osi_freertos.o)
 .text.mem_Free
                0x0000000000000000       0x18 ../../../oslib/gcc/free_rtos/Debug/free_rtos.a(osi_freertos.o)
 .text.mem_set  0x0000000000000000       0x20 ../../../oslib/gcc/free_rtos/Debug/free_rtos.a(osi_freertos.o)
 .text.mem_copy
                0x0000000000000000       0x20 ../../../oslib/gcc/free_rtos/Debug/free_rtos.a(osi_freertos.o)
 .text.osi_EnterCritical
                0x0000000000000000       0x10 ../../../oslib/gcc/free_rtos/Debug/free_rtos.a(osi_freertos.o)
 .text.osi_ExitCritical
                0x0000000000000000       0x14 ../../../oslib/gcc/free_rtos/Debug/free_rtos.a(osi_freertos.o)
 .text.osi_TaskDisable
                0x0000000000000000       0x10 ../../../oslib/gcc/free_rtos/Debug/free_rtos.a(osi_freertos.o)
 .text.osi_TaskEnable
                0x0000000000000000       0x14 ../../../oslib/gcc/free_rtos/Debug/free_rtos.a(osi_freertos.o)
 .text.osi_ContextSave
                0x0000000000000000        0xc ../../../oslib/gcc/free_rtos/Debug/free_rtos.a(osi_freertos.o)
 .text.osi_ContextRestore
                0x0000000000000000        0xc ../../../oslib/gcc/free_rtos/Debug/free_rtos.a(osi_freertos.o)
 .text          0x0000000000000000        0x0 ../../../oslib/gcc/free_rtos/Debug/free_rtos.a(queue.o)
 .data          0x0000000000000000        0x0 ../../../oslib/gcc/free_rtos/Debug/free_rtos.a(queue.o)
 .bss           0x0000000000000000        0x0 ../../../oslib/gcc/free_rtos/Debug/free_rtos.a(queue.o)
 .text.xQueueCreateCountingSemaphore
                0x0000000000000000       0x64 ../../../oslib/gcc/free_rtos/Debug/free_rtos.a(queue.o)
 .text.xQueueReceiveFromISR
                0x0000000000000000       0xc0 ../../../oslib/gcc/free_rtos/Debug/free_rtos.a(queue.o)
 .text.xQueuePeekFromISR
                0x0000000000000000       0x98 ../../../oslib/gcc/free_rtos/Debug/free_rtos.a(queue.o)
 .text.uxQueueMessagesWaiting
                0x0000000000000000       0x34 ../../../oslib/gcc/free_rtos/Debug/free_rtos.a(queue.o)
 .text.uxQueueSpacesAvailable
                0x0000000000000000       0x40 ../../../oslib/gcc/free_rtos/Debug/free_rtos.a(queue.o)
 .text.uxQueueMessagesWaitingFromISR
                0x0000000000000000       0x2c ../../../oslib/gcc/free_rtos/Debug/free_rtos.a(queue.o)
 .text.uxQueueGetQueueNumber
                0x0000000000000000       0x18 ../../../oslib/gcc/free_rtos/Debug/free_rtos.a(queue.o)
 .text.vQueueSetQueueNumber
                0x0000000000000000       0x1c ../../../oslib/gcc/free_rtos/Debug/free_rtos.a(queue.o)
 .text.ucQueueGetQueueType
                0x0000000000000000       0x18 ../../../oslib/gcc/free_rtos/Debug/free_rtos.a(queue.o)
 .text.xQueueIsQueueEmptyFromISR
                0x0000000000000000       0x38 ../../../oslib/gcc/free_rtos/Debug/free_rtos.a(queue.o)
 .text.xQueueIsQueueFullFromISR
                0x0000000000000000       0x3c ../../../oslib/gcc/free_rtos/Debug/free_rtos.a(queue.o)
 .text.xQueueCreateSet
                0x0000000000000000       0x20 ../../../oslib/gcc/free_rtos/Debug/free_rtos.a(queue.o)
 .text.xQueueAddToSet
                0x0000000000000000       0x44 ../../../oslib/gcc/free_rtos/Debug/free_rtos.a(queue.o)
 .text.xQueueRemoveFromSet
                0x0000000000000000       0x48 ../../../oslib/gcc/free_rtos/Debug/free_rtos.a(queue.o)
 .text.xQueueSelectFromSet
                0x0000000000000000       0x28 ../../../oslib/gcc/free_rtos/Debug/free_rtos.a(queue.o)
 .text.xQueueSelectFromSetFromISR
                0x0000000000000000       0x24 ../../../oslib/gcc/free_rtos/Debug/free_rtos.a(queue.o)
 .text          0x0000000000000000        0x0 ../../../oslib/gcc/free_rtos/Debug/free_rtos.a(tasks.o)
 .data          0x0000000000000000        0x0 ../../../oslib/gcc/free_rtos/Debug/free_rtos.a(tasks.o)
 .bss           0x0000000000000000        0x0 ../../../oslib/gcc/free_rtos/Debug/free_rtos.a(tasks.o)
 .text.vTaskDelete
                0x0000000000000000       0xf0 ../../../oslib/gcc/free_rtos/Debug/free_rtos.a(tasks.o)
 .text.vTaskDelayUntil
                0x0000000000000000       0xf4 ../../../oslib/gcc/free_rtos/Debug/free_rtos.a(tasks.o)
 .text.eTaskGetState
                0x0000000000000000       0xa4 ../../../oslib/gcc/free_rtos/Debug/free_rtos.a(tasks.o)
 .text.uxTaskPriorityGet
                0x0000000000000000       0x34 ../../../oslib/gcc/free_rtos/Debug/free_rtos.a(tasks.o)
 .text.uxTaskPriorityGetFromISR
                0x0000000000000000       0x3c ../../../oslib/gcc/free_rtos/Debug/free_rtos.a(tasks.o)
 .text.vTaskPrioritySet
                0x0000000000000000      0x144 ../../../oslib/gcc/free_rtos/Debug/free_rtos.a(tasks.o)
 .text.vTaskSuspend
                0x0000000000000000       0xfc ../../../oslib/gcc/free_rtos/Debug/free_rtos.a(tasks.o)
 .text.prvTaskIsTaskSuspended
                0x0000000000000000       0x6c ../../../oslib/gcc/free_rtos/Debug/free_rtos.a(tasks.o)
 .text.vTaskResume
                0x0000000000000000       0xa4 ../../../oslib/gcc/free_rtos/Debug/free_rtos.a(tasks.o)
 .text.xTaskResumeFromISR
                0x0000000000000000       0xc0 ../../../oslib/gcc/free_rtos/Debug/free_rtos.a(tasks.o)
 .text.vTaskEndScheduler
                0x0000000000000000       0x1c ../../../oslib/gcc/free_rtos/Debug/free_rtos.a(tasks.o)
 .text.xTaskGetTickCountFromISR
                0x0000000000000000       0x24 ../../../oslib/gcc/free_rtos/Debug/free_rtos.a(tasks.o)
 .text.uxTaskGetNumberOfTasks
                0x0000000000000000       0x14 ../../../oslib/gcc/free_rtos/Debug/free_rtos.a(tasks.o)
 .text.pcTaskGetTaskName
                0x0000000000000000       0x3c ../../../oslib/gcc/free_rtos/Debug/free_rtos.a(tasks.o)
 .text.uxTaskGetSystemState
                0x0000000000000000       0xf4 ../../../oslib/gcc/free_rtos/Debug/free_rtos.a(tasks.o)
 .text.xTaskGetIdleTaskHandle
                0x0000000000000000       0x28 ../../../oslib/gcc/free_rtos/Debug/free_rtos.a(tasks.o)
 .text.vTaskPlaceOnUnorderedEventList
                0x0000000000000000       0xbc ../../../oslib/gcc/free_rtos/Debug/free_rtos.a(tasks.o)
 .text.xTaskRemoveFromUnorderedEventList
                0x0000000000000000       0xbc ../../../oslib/gcc/free_rtos/Debug/free_rtos.a(tasks.o)
 .text.uxTaskGetTaskNumber
                0x0000000000000000       0x2c ../../../oslib/gcc/free_rtos/Debug/free_rtos.a(tasks.o)
 .text.vTaskSetTaskNumber
                0x0000000000000000       0x24 ../../../oslib/gcc/free_rtos/Debug/free_rtos.a(tasks.o)
 .text.prvListTaskWithinSingleList
                0x0000000000000000      0x118 ../../../oslib/gcc/free_rtos/Debug/free_rtos.a(tasks.o)
 .text.prvTaskCheckFreeStackSpace
                0x0000000000000000       0x38 ../../../oslib/gcc/free_rtos/Debug/free_rtos.a(tasks.o)
 .text.uxTaskGetStackHighWaterMark
                0x0000000000000000       0x38 ../../../oslib/gcc/free_rtos/Debug/free_rtos.a(tasks.o)
 .text.xTaskGetCurrentTaskHandle
                0x0000000000000000       0x1c ../../../oslib/gcc/free_rtos/Debug/free_rtos.a(tasks.o)
 .text.prvWriteNameToBuffer
                0x0000000000000000       0x4c ../../../oslib/gcc/free_rtos/Debug/free_rtos.a(tasks.o)
 .text.vTaskList
                0x0000000000000000       0xfc ../../../oslib/gcc/free_rtos/Debug/free_rtos.a(tasks.o)
 .text.uxTaskResetEventItemValue
                0x0000000000000000       0x30 ../../../oslib/gcc/free_rtos/Debug/free_rtos.a(tasks.o)
 .text.ulTaskNotifyTake
                0x0000000000000000       0xd8 ../../../oslib/gcc/free_rtos/Debug/free_rtos.a(tasks.o)
 .text.xTaskNotifyWait
                0x0000000000000000       0xfc ../../../oslib/gcc/free_rtos/Debug/free_rtos.a(tasks.o)
 .text.xTaskGenericNotify
                0x0000000000000000      0x124 ../../../oslib/gcc/free_rtos/Debug/free_rtos.a(tasks.o)
 .text.xTaskNotifyFromISR
                0x0000000000000000      0x144 ../../../oslib/gcc/free_rtos/Debug/free_rtos.a(tasks.o)
 .text.vTaskNotifyGiveFromISR
                0x0000000000000000       0xe8 ../../../oslib/gcc/free_rtos/Debug/free_rtos.a(tasks.o)
 .text          0x0000000000000000        0x0 ../../../oslib/gcc/free_rtos/Debug/free_rtos.a(port.o)
 .data          0x0000000000000000        0x0 ../../../oslib/gcc/free_rtos/Debug/free_rtos.a(port.o)
 .bss           0x0000000000000000        0x0 ../../../oslib/gcc/free_rtos/Debug/free_rtos.a(port.o)
 .rodata.pcInterruptPriorityRegisters
                0x0000000000000000        0x4 ../../../oslib/gcc/free_rtos/Debug/free_rtos.a(port.o)
 .text.vPortEndScheduler
                0x0000000000000000       0x24 ../../../oslib/gcc/free_rtos/Debug/free_rtos.a(port.o)
 .text          0x0000000000000000        0x0 ../../../oslib/gcc/free_rtos/Debug/free_rtos.a(timers.o)
 .data          0x0000000000000000        0x0 ../../../oslib/gcc/free_rtos/Debug/free_rtos.a(timers.o)
 .bss           0x0000000000000000        0x0 ../../../oslib/gcc/free_rtos/Debug/free_rtos.a(timers.o)
 .text.xTimerCreate
                0x0000000000000000       0x74 ../../../oslib/gcc/free_rtos/Debug/free_rtos.a(timers.o)
 .text.xTimerGetTimerDaemonTaskHandle
                0x0000000000000000       0x28 ../../../oslib/gcc/free_rtos/Debug/free_rtos.a(timers.o)
 .text.pcTimerGetTimerName
                0x0000000000000000       0x1c ../../../oslib/gcc/free_rtos/Debug/free_rtos.a(timers.o)
 .text.xTimerIsTimerActive
                0x0000000000000000       0x30 ../../../oslib/gcc/free_rtos/Debug/free_rtos.a(timers.o)
 .text.pvTimerGetTimerID
                0x0000000000000000       0x38 ../../../oslib/gcc/free_rtos/Debug/free_rtos.a(timers.o)
 .text.vTimerSetTimerID
                0x0000000000000000       0x38 ../../../oslib/gcc/free_rtos/Debug/free_rtos.a(timers.o)
 .text.xTimerPendFunctionCallFromISR
                0x0000000000000000       0x40 ../../../oslib/gcc/free_rtos/Debug/free_rtos.a(timers.o)
 .text.xTimerPendFunctionCall
                0x0000000000000000       0x58 ../../../oslib/gcc/free_rtos/Debug/free_rtos.a(timers.o)
 .text          0x0000000000000000        0x0 ../../../oslib/gcc/free_rtos/Debug/free_rtos.a(heap_3.o)
 .data          0x0000000000000000        0x0 ../../../oslib/gcc/free_rtos/Debug/free_rtos.a(heap_3.o)
 .bss           0x0000000000000000        0x0 ../../../oslib/gcc/free_rtos/Debug/free_rtos.a(heap_3.o)
 .text          0x0000000000000000        0x0 ../../../oslib/gcc/free_rtos/Debug/free_rtos.a(list.o)
 .data          0x0000000000000000        0x0 ../../../oslib/gcc/free_rtos/Debug/free_rtos.a(list.o)
 .bss           0x0000000000000000        0x0 ../../../oslib/gcc/free_rtos/Debug/free_rtos.a(list.o)
 .text          0x0000000000000000        0x0 ../../../driverlib/gcc/lib/Debug/libdriver.a(gpio.o)
 .data          0x0000000000000000        0x0 ../../../driverlib/gcc/lib/Debug/libdriver.a(gpio.o)
 .bss           0x0000000000000000        0x0 ../../../driverlib/gcc/lib/Debug/libdriver.a(gpio.o)
 .text.GPIOGetIntNumber
                0x0000000000000000       0x64 ../../../driverlib/gcc/lib/Debug/libdriver.a(gpio.o)
 .text.GPIODirModeGet
                0x0000000000000000       0x3c ../../../driverlib/gcc/lib/Debug/libdriver.a(gpio.o)
 .text.GPIOIntTypeSet
                0x0000000000000000       0xa8 ../../../driverlib/gcc/lib/Debug/libdriver.a(gpio.o)
 .text.GPIOIntTypeGet
                0x0000000000000000       0x78 ../../../driverlib/gcc/lib/Debug/libdriver.a(gpio.o)
 .text.GPIOIntEnable
                0x0000000000000000       0x2c ../../../driverlib/gcc/lib/Debug/libdriver.a(gpio.o)
 .text.GPIOIntDisable
                0x0000000000000000       0x2c ../../../driverlib/gcc/lib/Debug/libdriver.a(gpio.o)
 .text.GPIOIntStatus
                0x0000000000000000       0x30 ../../../driverlib/gcc/lib/Debug/libdriver.a(gpio.o)
 .text.GPIOIntClear
                0x0000000000000000       0x20 ../../../driverlib/gcc/lib/Debug/libdriver.a(gpio.o)
 .text.GPIOIntRegister
                0x0000000000000000       0x2c ../../../driverlib/gcc/lib/Debug/libdriver.a(gpio.o)
 .text.GPIOIntUnregister
                0x0000000000000000       0x28 ../../../driverlib/gcc/lib/Debug/libdriver.a(gpio.o)
 .text.GPIOPinRead
                0x0000000000000000       0x24 ../../../driverlib/gcc/lib/Debug/libdriver.a(gpio.o)
 .text.GPIODMATriggerEnable
                0x0000000000000000       0x78 ../../../driverlib/gcc/lib/Debug/libdriver.a(gpio.o)
 .text.GPIODMATriggerDisable
                0x0000000000000000       0x78 ../../../driverlib/gcc/lib/Debug/libdriver.a(gpio.o)
 .text          0x0000000000000000        0x0 ../../../driverlib/gcc/lib/Debug/libdriver.a(hwspinlock.o)
 .data          0x0000000000000000        0x0 ../../../driverlib/gcc/lib/Debug/libdriver.a(hwspinlock.o)
 .bss           0x0000000000000000        0x0 ../../../driverlib/gcc/lib/Debug/libdriver.a(hwspinlock.o)
 .rodata.HwSpinLock_RegLst
                0x0000000000000000        0x4 ../../../driverlib/gcc/lib/Debug/libdriver.a(hwspinlock.o)
 .text.HwSpinLockAcquire
                0x0000000000000000       0x48 ../../../driverlib/gcc/lib/Debug/libdriver.a(hwspinlock.o)
 .text.HwSpinLockTest
                0x0000000000000000       0x74 ../../../driverlib/gcc/lib/Debug/libdriver.a(hwspinlock.o)
 .text          0x0000000000000000        0x0 ../../../driverlib/gcc/lib/Debug/libdriver.a(interrupt.o)
 .data          0x0000000000000000        0x0 ../../../driverlib/gcc/lib/Debug/libdriver.a(interrupt.o)
 .bss           0x0000000000000000        0x0 ../../../driverlib/gcc/lib/Debug/libdriver.a(interrupt.o)
 .rodata.g_pulPriority
                0x0000000000000000       0x20 ../../../driverlib/gcc/lib/Debug/libdriver.a(interrupt.o)
 .rodata.g_pulPendRegs
                0x0000000000000000       0x18 ../../../driverlib/gcc/lib/Debug/libdriver.a(interrupt.o)
 .text.IntMasterDisable
                0x0000000000000000       0x10 ../../../driverlib/gcc/lib/Debug/libdriver.a(interrupt.o)
 .text.IntPriorityGroupingSet
                0x0000000000000000       0x30 ../../../driverlib/gcc/lib/Debug/libdriver.a(interrupt.o)
 .text.IntPriorityGroupingGet
                0x0000000000000000       0x48 ../../../driverlib/gcc/lib/Debug/libdriver.a(interrupt.o)
 .text.IntPriorityGet
                0x0000000000000000       0x30 ../../../driverlib/gcc/lib/Debug/libdriver.a(interrupt.o)
 .text.IntPendSet
                0x0000000000000000       0x9c ../../../driverlib/gcc/lib/Debug/libdriver.a(interrupt.o)
 .text.IntPriorityMaskSet
                0x0000000000000000       0x18 ../../../driverlib/gcc/lib/Debug/libdriver.a(interrupt.o)
 .text.IntPriorityMaskGet
                0x0000000000000000       0x10 ../../../driverlib/gcc/lib/Debug/libdriver.a(interrupt.o)
 .text          0x0000000000000000        0x0 ../../../driverlib/gcc/lib/Debug/libdriver.a(pin.o)
 .data          0x0000000000000000        0x0 ../../../driverlib/gcc/lib/Debug/libdriver.a(pin.o)
 .bss           0x0000000000000000        0x0 ../../../driverlib/gcc/lib/Debug/libdriver.a(pin.o)
 .text.PinModeGet
                0x0000000000000000       0x3c ../../../driverlib/gcc/lib/Debug/libdriver.a(pin.o)
 .text.PinDirModeSet
                0x0000000000000000       0x44 ../../../driverlib/gcc/lib/Debug/libdriver.a(pin.o)
 .text.PinDirModeGet
                0x0000000000000000       0x3c ../../../driverlib/gcc/lib/Debug/libdriver.a(pin.o)
 .text.PinConfigGet
                0x0000000000000000       0x50 ../../../driverlib/gcc/lib/Debug/libdriver.a(pin.o)
 .text.PinTypeI2C
                0x0000000000000000       0x28 ../../../driverlib/gcc/lib/Debug/libdriver.a(pin.o)
 .text.PinTypeSPI
                0x0000000000000000       0x24 ../../../driverlib/gcc/lib/Debug/libdriver.a(pin.o)
 .text.PinTypeI2S
                0x0000000000000000       0x24 ../../../driverlib/gcc/lib/Debug/libdriver.a(pin.o)
 .text.PinTypeTimer
                0x0000000000000000       0x24 ../../../driverlib/gcc/lib/Debug/libdriver.a(pin.o)
 .text.PinTypeCamera
                0x0000000000000000       0x24 ../../../driverlib/gcc/lib/Debug/libdriver.a(pin.o)
 .text.PinTypeADC
                0x0000000000000000       0x20 ../../../driverlib/gcc/lib/Debug/libdriver.a(pin.o)
 .text.PinTypeSDHost
                0x0000000000000000       0x24 ../../../driverlib/gcc/lib/Debug/libdriver.a(pin.o)
 .text          0x0000000000000000        0x0 ../../../driverlib/gcc/lib/Debug/libdriver.a(prcm.o)
 .data          0x0000000000000000        0x0 ../../../driverlib/gcc/lib/Debug/libdriver.a(prcm.o)
 .bss           0x0000000000000000        0x0 ../../../driverlib/gcc/lib/Debug/libdriver.a(prcm.o)
 .text.RTCUseSet
                0x0000000000000000       0x30 ../../../driverlib/gcc/lib/Debug/libdriver.a(prcm.o)
 .text.IsRTCUsed
                0x0000000000000000       0x28 ../../../driverlib/gcc/lib/Debug/libdriver.a(prcm.o)
 .text.RTCU16MSecRegRead
                0x0000000000000000       0x28 ../../../driverlib/gcc/lib/Debug/libdriver.a(prcm.o)
 .text.RTCU16MSecRegWrite
                0x0000000000000000       0x3c ../../../driverlib/gcc/lib/Debug/libdriver.a(prcm.o)
 .text.RTCU32SecRegRead
                0x0000000000000000       0x14 ../../../driverlib/gcc/lib/Debug/libdriver.a(prcm.o)
 .text.RTCU32SecRegWrite
                0x0000000000000000       0x1c ../../../driverlib/gcc/lib/Debug/libdriver.a(prcm.o)
 .text.PRCMMCUReset
                0x0000000000000000       0x28 ../../../driverlib/gcc/lib/Debug/libdriver.a(prcm.o)
 .text.PRCMI2SClockFreqSet
                0x0000000000000000       0x54 ../../../driverlib/gcc/lib/Debug/libdriver.a(prcm.o)
 .text.PRCMLPDSRestoreInfoSet
                0x0000000000000000       0x28 ../../../driverlib/gcc/lib/Debug/libdriver.a(prcm.o)
 .text.PRCMLPDSEnter
                0x0000000000000000       0x50 ../../../driverlib/gcc/lib/Debug/libdriver.a(prcm.o)
 .text.PRCMLPDSEnterKeepDebugIf
                0x0000000000000000       0x40 ../../../driverlib/gcc/lib/Debug/libdriver.a(prcm.o)
 .text.PRCMLPDSWakeupSourceEnable
                0x0000000000000000       0x30 ../../../driverlib/gcc/lib/Debug/libdriver.a(prcm.o)
 .text.PRCMLPDSWakeupSourceDisable
                0x0000000000000000       0x24 ../../../driverlib/gcc/lib/Debug/libdriver.a(prcm.o)
 .text.PRCMLPDSWakeupCauseGet
                0x0000000000000000       0x14 ../../../driverlib/gcc/lib/Debug/libdriver.a(prcm.o)
 .text.PRCMLPDSIntervalSet
                0x0000000000000000       0x34 ../../../driverlib/gcc/lib/Debug/libdriver.a(prcm.o)
 .text.PRCMLPDSWakeUpGPIOSelect
                0x0000000000000000       0x2c ../../../driverlib/gcc/lib/Debug/libdriver.a(prcm.o)
 .text.PRCMSleepEnter
                0x0000000000000000        0xc ../../../driverlib/gcc/lib/Debug/libdriver.a(prcm.o)
 .text.PRCMSRAMRetentionEnable
                0x0000000000000000       0x2c ../../../driverlib/gcc/lib/Debug/libdriver.a(prcm.o)
 .text.PRCMSRAMRetentionDisable
                0x0000000000000000       0x34 ../../../driverlib/gcc/lib/Debug/libdriver.a(prcm.o)
 .text.PRCMHibernateWakeupSourceDisable
                0x0000000000000000       0x54 ../../../driverlib/gcc/lib/Debug/libdriver.a(prcm.o)
 .text.PRCMHibernateWakeupCauseGet
                0x0000000000000000       0x1c ../../../driverlib/gcc/lib/Debug/libdriver.a(prcm.o)
 .text.PRCMHibernateWakeUpGPIOSelect
                0x0000000000000000       0x70 ../../../driverlib/gcc/lib/Debug/libdriver.a(prcm.o)
 .text.PRCMSlowClkCtrGet
                0x0000000000000000       0x64 ../../../driverlib/gcc/lib/Debug/libdriver.a(prcm.o)
 .text.PRCMSlowClkCtrFastGet
                0x0000000000000000       0x50 ../../../driverlib/gcc/lib/Debug/libdriver.a(prcm.o)
 .text.PRCMSlowClkCtrMatchSet
                0x0000000000000000       0x38 ../../../driverlib/gcc/lib/Debug/libdriver.a(prcm.o)
 .text.PRCMSlowClkCtrMatchGet
                0x0000000000000000       0x58 ../../../driverlib/gcc/lib/Debug/libdriver.a(prcm.o)
 .text.PRCMOCRRegisterWrite
                0x0000000000000000       0x28 ../../../driverlib/gcc/lib/Debug/libdriver.a(prcm.o)
 .text.PRCMOCRRegisterRead
                0x0000000000000000       0x28 ../../../driverlib/gcc/lib/Debug/libdriver.a(prcm.o)
 .text.PRCMIntRegister
                0x0000000000000000       0x20 ../../../driverlib/gcc/lib/Debug/libdriver.a(prcm.o)
 .text.PRCMIntUnregister
                0x0000000000000000       0x14 ../../../driverlib/gcc/lib/Debug/libdriver.a(prcm.o)
 .text.PRCMIntEnable
                0x0000000000000000       0x48 ../../../driverlib/gcc/lib/Debug/libdriver.a(prcm.o)
 .text.PRCMIntDisable
                0x0000000000000000       0x48 ../../../driverlib/gcc/lib/Debug/libdriver.a(prcm.o)
 .text.PRCMIntStatus
                0x0000000000000000       0x14 ../../../driverlib/gcc/lib/Debug/libdriver.a(prcm.o)
 .text.PRCMRTCInUseSet
                0x0000000000000000        0xc ../../../driverlib/gcc/lib/Debug/libdriver.a(prcm.o)
 .text.PRCMRTCInUseGet
                0x0000000000000000       0x18 ../../../driverlib/gcc/lib/Debug/libdriver.a(prcm.o)
 .text.PRCMRTCSet
                0x0000000000000000       0xa8 ../../../driverlib/gcc/lib/Debug/libdriver.a(prcm.o)
 .text.PRCMRTCGet
                0x0000000000000000       0xb0 ../../../driverlib/gcc/lib/Debug/libdriver.a(prcm.o)
 .text.PRCMRTCMatchSet
                0x0000000000000000       0xd8 ../../../driverlib/gcc/lib/Debug/libdriver.a(prcm.o)
 .text.PRCMRTCMatchGet
                0x0000000000000000       0xb0 ../../../driverlib/gcc/lib/Debug/libdriver.a(prcm.o)
 .text.PRCMCameraFreqSet
                0x0000000000000000       0x50 ../../../driverlib/gcc/lib/Debug/libdriver.a(prcm.o)
 .text          0x0000000000000000        0x0 ../../../driverlib/gcc/lib/Debug/libdriver.a(spi.o)
 .data          0x0000000000000000        0x0 ../../../driverlib/gcc/lib/Debug/libdriver.a(spi.o)
 .bss           0x0000000000000000        0x0 ../../../driverlib/gcc/lib/Debug/libdriver.a(spi.o)
 .rodata.g_ppulSPIIntMap
                0x0000000000000000       0x24 ../../../driverlib/gcc/lib/Debug/libdriver.a(spi.o)
 .text.SPIIntNumberGet
                0x0000000000000000       0x58 ../../../driverlib/gcc/lib/Debug/libdriver.a(spi.o)
 .text.SPIDmaDisable
                0x0000000000000000       0x2c ../../../driverlib/gcc/lib/Debug/libdriver.a(spi.o)
 .text.SPIDataGetNonBlocking
                0x0000000000000000       0x3c ../../../driverlib/gcc/lib/Debug/libdriver.a(spi.o)
 .text.SPIDataPutNonBlocking
                0x0000000000000000       0x3c ../../../driverlib/gcc/lib/Debug/libdriver.a(spi.o)
 .text.SPIFIFODisable
                0x0000000000000000       0x2c ../../../driverlib/gcc/lib/Debug/libdriver.a(spi.o)
 .text.SPIFIFOLevelGet
                0x0000000000000000       0x34 ../../../driverlib/gcc/lib/Debug/libdriver.a(spi.o)
 .text.SPIIntRegister
                0x0000000000000000       0x2c ../../../driverlib/gcc/lib/Debug/libdriver.a(spi.o)
 .text.SPIIntUnregister
                0x0000000000000000       0x28 ../../../driverlib/gcc/lib/Debug/libdriver.a(spi.o)
 .text.SPIIntDisable
                0x0000000000000000       0x6c ../../../driverlib/gcc/lib/Debug/libdriver.a(spi.o)
 .text.SPIIntStatus
                0x0000000000000000       0x88 ../../../driverlib/gcc/lib/Debug/libdriver.a(spi.o)
 .text.SPIIntClear
                0x0000000000000000       0x60 ../../../driverlib/gcc/lib/Debug/libdriver.a(spi.o)
 .text          0x0000000000000000        0x0 ../../../driverlib/gcc/lib/Debug/libdriver.a(timer.o)
 .data          0x0000000000000000        0x0 ../../../driverlib/gcc/lib/Debug/libdriver.a(timer.o)
 .bss           0x0000000000000000        0x0 ../../../driverlib/gcc/lib/Debug/libdriver.a(timer.o)
 .text.TimerControlLevel
                0x0000000000000000       0x48 ../../../driverlib/gcc/lib/Debug/libdriver.a(timer.o)
 .text.TimerControlEvent
                0x0000000000000000       0x40 ../../../driverlib/gcc/lib/Debug/libdriver.a(timer.o)
 .text.TimerControlStall
                0x0000000000000000       0x48 ../../../driverlib/gcc/lib/Debug/libdriver.a(timer.o)
 .text.TimerPrescaleGet
                0x0000000000000000       0x28 ../../../driverlib/gcc/lib/Debug/libdriver.a(timer.o)
 .text.TimerPrescaleMatchSet
                0x0000000000000000       0x3c ../../../driverlib/gcc/lib/Debug/libdriver.a(timer.o)
 .text.TimerPrescaleMatchGet
                0x0000000000000000       0x28 ../../../driverlib/gcc/lib/Debug/libdriver.a(timer.o)
 .text.TimerLoadGet
                0x0000000000000000       0x28 ../../../driverlib/gcc/lib/Debug/libdriver.a(timer.o)
 .text.TimerValueSet
                0x0000000000000000       0x34 ../../../driverlib/gcc/lib/Debug/libdriver.a(timer.o)
 .text.TimerMatchSet
                0x0000000000000000       0x3c ../../../driverlib/gcc/lib/Debug/libdriver.a(timer.o)
 .text.TimerMatchGet
                0x0000000000000000       0x28 ../../../driverlib/gcc/lib/Debug/libdriver.a(timer.o)
 .text.TimerIntRegister
                0x0000000000000000       0x80 ../../../driverlib/gcc/lib/Debug/libdriver.a(timer.o)
 .text.TimerDMAEventSet
                0x0000000000000000       0x20 ../../../driverlib/gcc/lib/Debug/libdriver.a(timer.o)
 .text.TimerDMAEventGet
                0x0000000000000000       0x18 ../../../driverlib/gcc/lib/Debug/libdriver.a(timer.o)
 .text          0x0000000000000000        0x0 ../../../driverlib/gcc/lib/Debug/libdriver.a(uart.o)
 .data          0x0000000000000000        0x0 ../../../driverlib/gcc/lib/Debug/libdriver.a(uart.o)
 .bss           0x0000000000000000        0x0 ../../../driverlib/gcc/lib/Debug/libdriver.a(uart.o)
 .rodata.g_ppulUARTIntMap
                0x0000000000000000       0x10 ../../../driverlib/gcc/lib/Debug/libdriver.a(uart.o)
 .text.UARTIntNumberGet
                0x0000000000000000       0x48 ../../../driverlib/gcc/lib/Debug/libdriver.a(uart.o)
 .text.UARTParityModeSet
                0x0000000000000000       0x2c ../../../driverlib/gcc/lib/Debug/libdriver.a(uart.o)
 .text.UARTParityModeGet
                0x0000000000000000       0x1c ../../../driverlib/gcc/lib/Debug/libdriver.a(uart.o)
 .text.UARTFIFOLevelSet
                0x0000000000000000       0x24 ../../../driverlib/gcc/lib/Debug/libdriver.a(uart.o)
 .text.UARTFIFOLevelGet
                0x0000000000000000       0x34 ../../../driverlib/gcc/lib/Debug/libdriver.a(uart.o)
 .text.UARTConfigGetExpClk
                0x0000000000000000       0x64 ../../../driverlib/gcc/lib/Debug/libdriver.a(uart.o)
 .text.UARTFIFOEnable
                0x0000000000000000       0x24 ../../../driverlib/gcc/lib/Debug/libdriver.a(uart.o)
 .text.UARTFIFODisable
                0x0000000000000000       0x24 ../../../driverlib/gcc/lib/Debug/libdriver.a(uart.o)
 .text.UARTModemControlSet
                0x0000000000000000       0x34 ../../../driverlib/gcc/lib/Debug/libdriver.a(uart.o)
 .text.UARTModemControlClear
                0x0000000000000000       0x34 ../../../driverlib/gcc/lib/Debug/libdriver.a(uart.o)
 .text.UARTModemControlGet
                0x0000000000000000       0x1c ../../../driverlib/gcc/lib/Debug/libdriver.a(uart.o)
 .text.UARTModemStatusGet
                0x0000000000000000       0x1c ../../../driverlib/gcc/lib/Debug/libdriver.a(uart.o)
 .text.UARTFlowControlSet
                0x0000000000000000       0x2c ../../../driverlib/gcc/lib/Debug/libdriver.a(uart.o)
 .text.UARTFlowControlGet
                0x0000000000000000       0x1c ../../../driverlib/gcc/lib/Debug/libdriver.a(uart.o)
 .text.UARTTxIntModeSet
                0x0000000000000000       0x2c ../../../driverlib/gcc/lib/Debug/libdriver.a(uart.o)
 .text.UARTTxIntModeGet
                0x0000000000000000       0x1c ../../../driverlib/gcc/lib/Debug/libdriver.a(uart.o)
 .text.UARTSpaceAvail
                0x0000000000000000       0x28 ../../../driverlib/gcc/lib/Debug/libdriver.a(uart.o)
 .text.UARTCharGet
                0x0000000000000000       0x28 ../../../driverlib/gcc/lib/Debug/libdriver.a(uart.o)
 .text.UARTCharPutNonBlocking
                0x0000000000000000       0x30 ../../../driverlib/gcc/lib/Debug/libdriver.a(uart.o)
 .text.UARTBreakCtl
                0x0000000000000000       0x3c ../../../driverlib/gcc/lib/Debug/libdriver.a(uart.o)
 .text.UARTBusy
                0x0000000000000000       0x28 ../../../driverlib/gcc/lib/Debug/libdriver.a(uart.o)
 .text.UARTIntRegister
                0x0000000000000000       0x2c ../../../driverlib/gcc/lib/Debug/libdriver.a(uart.o)
 .text.UARTIntUnregister
                0x0000000000000000       0x28 ../../../driverlib/gcc/lib/Debug/libdriver.a(uart.o)
 .text.UARTIntEnable
                0x0000000000000000       0x28 ../../../driverlib/gcc/lib/Debug/libdriver.a(uart.o)
 .text.UARTIntDisable
                0x0000000000000000       0x28 ../../../driverlib/gcc/lib/Debug/libdriver.a(uart.o)
 .text.UARTIntStatus
                0x0000000000000000       0x2c ../../../driverlib/gcc/lib/Debug/libdriver.a(uart.o)
 .text.UARTIntClear
                0x0000000000000000       0x20 ../../../driverlib/gcc/lib/Debug/libdriver.a(uart.o)
 .text.UARTDMAEnable
                0x0000000000000000       0x28 ../../../driverlib/gcc/lib/Debug/libdriver.a(uart.o)
 .text.UARTDMADisable
                0x0000000000000000       0x28 ../../../driverlib/gcc/lib/Debug/libdriver.a(uart.o)
 .text.UARTRxErrorGet
                0x0000000000000000       0x1c ../../../driverlib/gcc/lib/Debug/libdriver.a(uart.o)
 .text.UARTRxErrorClear
                0x0000000000000000       0x1c ../../../driverlib/gcc/lib/Debug/libdriver.a(uart.o)
 .text          0x0000000000000000        0x0 ../../../driverlib/gcc/lib/Debug/libdriver.a(udma.o)
 .data          0x0000000000000000        0x0 ../../../driverlib/gcc/lib/Debug/libdriver.a(udma.o)
 .bss           0x0000000000000000        0x0 ../../../driverlib/gcc/lib/Debug/libdriver.a(udma.o)
 .text.uDMAEnable
                0x0000000000000000       0x18 ../../../driverlib/gcc/lib/Debug/libdriver.a(udma.o)
 .text.uDMADisable
                0x0000000000000000       0x18 ../../../driverlib/gcc/lib/Debug/libdriver.a(udma.o)
 .text.uDMAErrorStatusGet
                0x0000000000000000       0x14 ../../../driverlib/gcc/lib/Debug/libdriver.a(udma.o)
 .text.uDMAErrorStatusClear
                0x0000000000000000       0x18 ../../../driverlib/gcc/lib/Debug/libdriver.a(udma.o)
 .text.uDMAChannelDisable
                0x0000000000000000       0x28 ../../../driverlib/gcc/lib/Debug/libdriver.a(udma.o)
 .text.uDMAChannelIsEnabled
                0x0000000000000000       0x34 ../../../driverlib/gcc/lib/Debug/libdriver.a(udma.o)
 .text.uDMAControlBaseSet
                0x0000000000000000       0x1c ../../../driverlib/gcc/lib/Debug/libdriver.a(udma.o)
 .text.uDMAControlBaseGet
                0x0000000000000000       0x14 ../../../driverlib/gcc/lib/Debug/libdriver.a(udma.o)
 .text.uDMAControlAlternateBaseGet
                0x0000000000000000       0x14 ../../../driverlib/gcc/lib/Debug/libdriver.a(udma.o)
 .text.uDMAChannelAttributeEnable
                0x0000000000000000       0x84 ../../../driverlib/gcc/lib/Debug/libdriver.a(udma.o)
 .text.uDMAChannelAttributeDisable
                0x0000000000000000       0x84 ../../../driverlib/gcc/lib/Debug/libdriver.a(udma.o)
 .text.uDMAChannelAttributeGet
                0x0000000000000000       0x98 ../../../driverlib/gcc/lib/Debug/libdriver.a(udma.o)
 .text.uDMAChannelScatterGatherSet
                0x0000000000000000       0x88 ../../../driverlib/gcc/lib/Debug/libdriver.a(udma.o)
 .text.uDMAChannelSizeGet
                0x0000000000000000       0x48 ../../../driverlib/gcc/lib/Debug/libdriver.a(udma.o)
 .text.uDMAChannelModeGet
                0x0000000000000000       0x54 ../../../driverlib/gcc/lib/Debug/libdriver.a(udma.o)
 .text.uDMAIntRegister
                0x0000000000000000       0x20 ../../../driverlib/gcc/lib/Debug/libdriver.a(udma.o)
 .text.uDMAIntUnregister
                0x0000000000000000       0x1c ../../../driverlib/gcc/lib/Debug/libdriver.a(udma.o)
 .text.uDMAIntStatus
                0x0000000000000000       0x14 ../../../driverlib/gcc/lib/Debug/libdriver.a(udma.o)
 .text.uDMAIntClear
                0x0000000000000000       0x1c ../../../driverlib/gcc/lib/Debug/libdriver.a(udma.o)
 .text.uDMAChannelAssign
                0x0000000000000000       0x58 ../../../driverlib/gcc/lib/Debug/libdriver.a(udma.o)
 .text          0x0000000000000000        0x0 ../../../driverlib/gcc/lib/Debug/libdriver.a(utils.o)
 .data          0x0000000000000000        0x0 ../../../driverlib/gcc/lib/Debug/libdriver.a(utils.o)
 .bss           0x0000000000000000        0x0 ../../../driverlib/gcc/lib/Debug/libdriver.a(utils.o)
 .text          0x0000000000000000        0x0 ../../../driverlib/gcc/lib/Debug/libdriver.a(cpu.o)
 .data          0x0000000000000000        0x0 ../../../driverlib/gcc/lib/Debug/libdriver.a(cpu.o)
 .bss           0x0000000000000000        0x0 ../../../driverlib/gcc/lib/Debug/libdriver.a(cpu.o)
 .text.CPUcpsid
                0x0000000000000000       0x18 ../../../driverlib/gcc/lib/Debug/libdriver.a(cpu.o)
 .text.CPUprimask
                0x0000000000000000        0xc ../../../driverlib/gcc/lib/Debug/libdriver.a(cpu.o)
 .text.CPUwfi   0x0000000000000000       0x10 ../../../driverlib/gcc/lib/Debug/libdriver.a(cpu.o)
 .text.CPUbasepriSet
                0x0000000000000000       0x10 ../../../driverlib/gcc/lib/Debug/libdriver.a(cpu.o)
 .text.CPUbasepriGet
                0x0000000000000000        0xc ../../../driverlib/gcc/lib/Debug/libdriver.a(cpu.o)
 .text          0x0000000000000000        0x0 ../../../driverlib/gcc/lib/Debug/libdriver.a(flash.o)
 .data          0x0000000000000000        0x0 ../../../driverlib/gcc/lib/Debug/libdriver.a(flash.o)
 .bss           0x0000000000000000        0x0 ../../../driverlib/gcc/lib/Debug/libdriver.a(flash.o)
 .rodata.g_pulFMPPERegs
                0x0000000000000000       0x40 ../../../driverlib/gcc/lib/Debug/libdriver.a(flash.o)
 .rodata.g_pulFMPRERegs
                0x0000000000000000       0x40 ../../../driverlib/gcc/lib/Debug/libdriver.a(flash.o)
 .text.FlashDisable
                0x0000000000000000       0x50 ../../../driverlib/gcc/lib/Debug/libdriver.a(flash.o)
 .text.FlashErase
                0x0000000000000000       0x60 ../../../driverlib/gcc/lib/Debug/libdriver.a(flash.o)
 .text.FlashEraseNonBlocking
                0x0000000000000000       0x38 ../../../driverlib/gcc/lib/Debug/libdriver.a(flash.o)
 .text.FlashMassErase
                0x0000000000000000       0x50 ../../../driverlib/gcc/lib/Debug/libdriver.a(flash.o)
 .text.FlashMassEraseNonBlocking
                0x0000000000000000       0x28 ../../../driverlib/gcc/lib/Debug/libdriver.a(flash.o)
 .text.FlashProgram
                0x0000000000000000       0xb4 ../../../driverlib/gcc/lib/Debug/libdriver.a(flash.o)
 .text.FlashProgramNonBlocking
                0x0000000000000000       0xa4 ../../../driverlib/gcc/lib/Debug/libdriver.a(flash.o)
 .text.FlashProtectGet
                0x0000000000000000       0x78 ../../../driverlib/gcc/lib/Debug/libdriver.a(flash.o)
 .text.FlashIntRegister
                0x0000000000000000       0x20 ../../../driverlib/gcc/lib/Debug/libdriver.a(flash.o)
 .text.FlashIntUnregister
                0x0000000000000000       0x14 ../../../driverlib/gcc/lib/Debug/libdriver.a(flash.o)
 .text.FlashIntEnable
                0x0000000000000000       0x24 ../../../driverlib/gcc/lib/Debug/libdriver.a(flash.o)
 .text.FlashIntDisable
                0x0000000000000000       0x24 ../../../driverlib/gcc/lib/Debug/libdriver.a(flash.o)
 .text.FlashIntStatus
                0x0000000000000000       0x2c ../../../driverlib/gcc/lib/Debug/libdriver.a(flash.o)
 .text.FlashIntClear
                0x0000000000000000       0x1c ../../../driverlib/gcc/lib/Debug/libdriver.a(flash.o)
 .debug_info    0x0000000000000000      0x300 ../../../driverlib/gcc/lib/Debug/libdriver.a(flash.o)
 .debug_abbrev  0x0000000000000000      0x191 ../../../driverlib/gcc/lib/Debug/libdriver.a(flash.o)
 .debug_aranges
                0x0000000000000000       0x88 ../../../driverlib/gcc/lib/Debug/libdriver.a(flash.o)
 .debug_ranges  0x0000000000000000       0x78 ../../../driverlib/gcc/lib/Debug/libdriver.a(flash.o)
 .debug_line    0x0000000000000000      0x1f4 ../../../driverlib/gcc/lib/Debug/libdriver.a(flash.o)
 .debug_str     0x0000000000000000      0x279 ../../../driverlib/gcc/lib/Debug/libdriver.a(flash.o)
 .comment       0x0000000000000000       0x22 ../../../driverlib/gcc/lib/Debug/libdriver.a(flash.o)
 .ARM.attributes
                0x0000000000000000       0x33 ../../../driverlib/gcc/lib/Debug/libdriver.a(flash.o)
 .debug_frame   0x0000000000000000      0x214 ../../../driverlib/gcc/lib/Debug/libdriver.a(flash.o)
 .text          0x0000000000000000        0x0 /usr/lib/gcc/arm-none-eabi/5.2.0/../../../../arm-none-eabi/lib/armv7e-m/libc_nano.a(lib_a-malloc.o)
 .data          0x0000000000000000        0x0 /usr/lib/gcc/arm-none-eabi/5.2.0/../../../../arm-none-eabi/lib/armv7e-m/libc_nano.a(lib_a-malloc.o)
 .bss           0x0000000000000000        0x0 /usr/lib/gcc/arm-none-eabi/5.2.0/../../../../arm-none-eabi/lib/armv7e-m/libc_nano.a(lib_a-malloc.o)
 .text          0x0000000000000000        0x0 /usr/lib/gcc/arm-none-eabi/5.2.0/../../../../arm-none-eabi/lib/armv7e-m/libc_nano.a(lib_a-memcmp.o)
 .data          0x0000000000000000        0x0 /usr/lib/gcc/arm-none-eabi/5.2.0/../../../../arm-none-eabi/lib/armv7e-m/libc_nano.a(lib_a-memcmp.o)
 .bss           0x0000000000000000        0x0 /usr/lib/gcc/arm-none-eabi/5.2.0/../../../../arm-none-eabi/lib/armv7e-m/libc_nano.a(lib_a-memcmp.o)
 .text          0x0000000000000000        0x0 /usr/lib/gcc/arm-none-eabi/5.2.0/../../../../arm-none-eabi/lib/armv7e-m/libc_nano.a(lib_a-memcpy.o)
 .data          0x0000000000000000        0x0 /usr/lib/gcc/arm-none-eabi/5.2.0/../../../../arm-none-eabi/lib/armv7e-m/libc_nano.a(lib_a-memcpy.o)
 .bss           0x0000000000000000        0x0 /usr/lib/gcc/arm-none-eabi/5.2.0/../../../../arm-none-eabi/lib/armv7e-m/libc_nano.a(lib_a-memcpy.o)
 .text          0x0000000000000000        0x0 /usr/lib/gcc/arm-none-eabi/5.2.0/../../../../arm-none-eabi/lib/armv7e-m/libc_nano.a(lib_a-memmove.o)
 .data          0x0000000000000000        0x0 /usr/lib/gcc/arm-none-eabi/5.2.0/../../../../arm-none-eabi/lib/armv7e-m/libc_nano.a(lib_a-memmove.o)
 .bss           0x0000000000000000        0x0 /usr/lib/gcc/arm-none-eabi/5.2.0/../../../../arm-none-eabi/lib/armv7e-m/libc_nano.a(lib_a-memmove.o)
 .text          0x0000000000000000        0x0 /usr/lib/gcc/arm-none-eabi/5.2.0/../../../../arm-none-eabi/lib/armv7e-m/libc_nano.a(lib_a-memset.o)
 .data          0x0000000000000000        0x0 /usr/lib/gcc/arm-none-eabi/5.2.0/../../../../arm-none-eabi/lib/armv7e-m/libc_nano.a(lib_a-memset.o)
 .bss           0x0000000000000000        0x0 /usr/lib/gcc/arm-none-eabi/5.2.0/../../../../arm-none-eabi/lib/armv7e-m/libc_nano.a(lib_a-memset.o)
 .text          0x0000000000000000        0x0 /usr/lib/gcc/arm-none-eabi/5.2.0/../../../../arm-none-eabi/lib/armv7e-m/libc_nano.a(lib_a-nano-freer.o)
 .data          0x0000000000000000        0x0 /usr/lib/gcc/arm-none-eabi/5.2.0/../../../../arm-none-eabi/lib/armv7e-m/libc_nano.a(lib_a-nano-freer.o)
 .bss           0x0000000000000000        0x0 /usr/lib/gcc/arm-none-eabi/5.2.0/../../../../arm-none-eabi/lib/armv7e-m/libc_nano.a(lib_a-nano-freer.o)
 .text          0x0000000000000000        0x0 /usr/lib/gcc/arm-none-eabi/5.2.0/../../../../arm-none-eabi/lib/armv7e-m/libc_nano.a(lib_a-nano-mallocr.o)
 .data          0x0000000000000000        0x0 /usr/lib/gcc/arm-none-eabi/5.2.0/../../../../arm-none-eabi/lib/armv7e-m/libc_nano.a(lib_a-nano-mallocr.o)
 .bss           0x0000000000000000        0x0 /usr/lib/gcc/arm-none-eabi/5.2.0/../../../../arm-none-eabi/lib/armv7e-m/libc_nano.a(lib_a-nano-mallocr.o)
 .text          0x0000000000000000        0x0 /usr/lib/gcc/arm-none-eabi/5.2.0/../../../../arm-none-eabi/lib/armv7e-m/libc_nano.a(lib_a-realloc.o)
 .data          0x0000000000000000        0x0 /usr/lib/gcc/arm-none-eabi/5.2.0/../../../../arm-none-eabi/lib/armv7e-m/libc_nano.a(lib_a-realloc.o)
 .bss           0x0000000000000000        0x0 /usr/lib/gcc/arm-none-eabi/5.2.0/../../../../arm-none-eabi/lib/armv7e-m/libc_nano.a(lib_a-realloc.o)
 .text          0x0000000000000000        0x0 /usr/lib/gcc/arm-none-eabi/5.2.0/../../../../arm-none-eabi/lib/armv7e-m/libc_nano.a(lib_a-sbrkr.o)
 .data          0x0000000000000000        0x0 /usr/lib/gcc/arm-none-eabi/5.2.0/../../../../arm-none-eabi/lib/armv7e-m/libc_nano.a(lib_a-sbrkr.o)
 .bss           0x0000000000000000        0x0 /usr/lib/gcc/arm-none-eabi/5.2.0/../../../../arm-none-eabi/lib/armv7e-m/libc_nano.a(lib_a-sbrkr.o)
 .text          0x0000000000000000        0x0 /usr/lib/gcc/arm-none-eabi/5.2.0/../../../../arm-none-eabi/lib/armv7e-m/libc_nano.a(lib_a-sprintf.o)
 .data          0x0000000000000000        0x0 /usr/lib/gcc/arm-none-eabi/5.2.0/../../../../arm-none-eabi/lib/armv7e-m/libc_nano.a(lib_a-sprintf.o)
 .bss           0x0000000000000000        0x0 /usr/lib/gcc/arm-none-eabi/5.2.0/../../../../arm-none-eabi/lib/armv7e-m/libc_nano.a(lib_a-sprintf.o)
 .text._sprintf_r
                0x0000000000000000       0x40 /usr/lib/gcc/arm-none-eabi/5.2.0/../../../../arm-none-eabi/lib/armv7e-m/libc_nano.a(lib_a-sprintf.o)
 .text.sprintf  0x0000000000000000       0x48 /usr/lib/gcc/arm-none-eabi/5.2.0/../../../../arm-none-eabi/lib/armv7e-m/libc_nano.a(lib_a-sprintf.o)
 .debug_info    0x0000000000000000      0x88c /usr/lib/gcc/arm-none-eabi/5.2.0/../../../../arm-none-eabi/lib/armv7e-m/libc_nano.a(lib_a-sprintf.o)
 .debug_abbrev  0x0000000000000000      0x1c0 /usr/lib/gcc/arm-none-eabi/5.2.0/../../../../arm-none-eabi/lib/armv7e-m/libc_nano.a(lib_a-sprintf.o)
 .debug_loc     0x0000000000000000       0x95 /usr/lib/gcc/arm-none-eabi/5.2.0/../../../../arm-none-eabi/lib/armv7e-m/libc_nano.a(lib_a-sprintf.o)
 .debug_aranges
                0x0000000000000000       0x28 /usr/lib/gcc/arm-none-eabi/5.2.0/../../../../arm-none-eabi/lib/armv7e-m/libc_nano.a(lib_a-sprintf.o)
 .debug_ranges  0x0000000000000000       0x18 /usr/lib/gcc/arm-none-eabi/5.2.0/../../../../arm-none-eabi/lib/armv7e-m/libc_nano.a(lib_a-sprintf.o)
 .debug_line    0x0000000000000000      0x190 /usr/lib/gcc/arm-none-eabi/5.2.0/../../../../arm-none-eabi/lib/armv7e-m/libc_nano.a(lib_a-sprintf.o)
 .debug_str     0x0000000000000000      0x544 /usr/lib/gcc/arm-none-eabi/5.2.0/../../../../arm-none-eabi/lib/armv7e-m/libc_nano.a(lib_a-sprintf.o)
 .comment       0x0000000000000000       0x22 /usr/lib/gcc/arm-none-eabi/5.2.0/../../../../arm-none-eabi/lib/armv7e-m/libc_nano.a(lib_a-sprintf.o)
 .debug_frame   0x0000000000000000       0x70 /usr/lib/gcc/arm-none-eabi/5.2.0/../../../../arm-none-eabi/lib/armv7e-m/libc_nano.a(lib_a-sprintf.o)
 .ARM.attributes
                0x0000000000000000       0x2e /usr/lib/gcc/arm-none-eabi/5.2.0/../../../../arm-none-eabi/lib/armv7e-m/libc_nano.a(lib_a-sprintf.o)
 .text          0x0000000000000000        0x0 /usr/lib/gcc/arm-none-eabi/5.2.0/../../../../arm-none-eabi/lib/armv7e-m/libc_nano.a(lib_a-strcpy.o)
 .data          0x0000000000000000        0x0 /usr/lib/gcc/arm-none-eabi/5.2.0/../../../../arm-none-eabi/lib/armv7e-m/libc_nano.a(lib_a-strcpy.o)
 .bss           0x0000000000000000        0x0 /usr/lib/gcc/arm-none-eabi/5.2.0/../../../../arm-none-eabi/lib/armv7e-m/libc_nano.a(lib_a-strcpy.o)
 .text.strcpy   0x0000000000000000       0x10 /usr/lib/gcc/arm-none-eabi/5.2.0/../../../../arm-none-eabi/lib/armv7e-m/libc_nano.a(lib_a-strcpy.o)
 .debug_info    0x0000000000000000       0xc4 /usr/lib/gcc/arm-none-eabi/5.2.0/../../../../arm-none-eabi/lib/armv7e-m/libc_nano.a(lib_a-strcpy.o)
 .debug_abbrev  0x0000000000000000       0x72 /usr/lib/gcc/arm-none-eabi/5.2.0/../../../../arm-none-eabi/lib/armv7e-m/libc_nano.a(lib_a-strcpy.o)
 .debug_loc     0x0000000000000000       0x21 /usr/lib/gcc/arm-none-eabi/5.2.0/../../../../arm-none-eabi/lib/armv7e-m/libc_nano.a(lib_a-strcpy.o)
 .debug_aranges
                0x0000000000000000       0x20 /usr/lib/gcc/arm-none-eabi/5.2.0/../../../../arm-none-eabi/lib/armv7e-m/libc_nano.a(lib_a-strcpy.o)
 .debug_ranges  0x0000000000000000       0x10 /usr/lib/gcc/arm-none-eabi/5.2.0/../../../../arm-none-eabi/lib/armv7e-m/libc_nano.a(lib_a-strcpy.o)
 .debug_line    0x0000000000000000       0xab /usr/lib/gcc/arm-none-eabi/5.2.0/../../../../arm-none-eabi/lib/armv7e-m/libc_nano.a(lib_a-strcpy.o)
 .debug_str     0x0000000000000000      0x1b4 /usr/lib/gcc/arm-none-eabi/5.2.0/../../../../arm-none-eabi/lib/armv7e-m/libc_nano.a(lib_a-strcpy.o)
 .comment       0x0000000000000000       0x22 /usr/lib/gcc/arm-none-eabi/5.2.0/../../../../arm-none-eabi/lib/armv7e-m/libc_nano.a(lib_a-strcpy.o)
 .debug_frame   0x0000000000000000       0x20 /usr/lib/gcc/arm-none-eabi/5.2.0/../../../../arm-none-eabi/lib/armv7e-m/libc_nano.a(lib_a-strcpy.o)
 .ARM.attributes
                0x0000000000000000       0x2e /usr/lib/gcc/arm-none-eabi/5.2.0/../../../../arm-none-eabi/lib/armv7e-m/libc_nano.a(lib_a-strcpy.o)
 .text          0x0000000000000000        0x0 /usr/lib/gcc/arm-none-eabi/5.2.0/../../../../arm-none-eabi/lib/armv7e-m/libc_nano.a(lib_a-strlen.o)
 .data          0x0000000000000000        0x0 /usr/lib/gcc/arm-none-eabi/5.2.0/../../../../arm-none-eabi/lib/armv7e-m/libc_nano.a(lib_a-strlen.o)
 .bss           0x0000000000000000        0x0 /usr/lib/gcc/arm-none-eabi/5.2.0/../../../../arm-none-eabi/lib/armv7e-m/libc_nano.a(lib_a-strlen.o)
 .text          0x0000000000000000        0x0 /usr/lib/gcc/arm-none-eabi/5.2.0/../../../../arm-none-eabi/lib/armv7e-m/libc_nano.a(lib_a-strncpy.o)
 .data          0x0000000000000000        0x0 /usr/lib/gcc/arm-none-eabi/5.2.0/../../../../arm-none-eabi/lib/armv7e-m/libc_nano.a(lib_a-strncpy.o)
 .bss           0x0000000000000000        0x0 /usr/lib/gcc/arm-none-eabi/5.2.0/../../../../arm-none-eabi/lib/armv7e-m/libc_nano.a(lib_a-strncpy.o)
 .text          0x0000000000000000        0x0 /usr/lib/gcc/arm-none-eabi/5.2.0/../../../../arm-none-eabi/lib/armv7e-m/libc_nano.a(lib_a-vsnprintf.o)
 .data          0x0000000000000000        0x0 /usr/lib/gcc/arm-none-eabi/5.2.0/../../../../arm-none-eabi/lib/armv7e-m/libc_nano.a(lib_a-vsnprintf.o)
 .bss           0x0000000000000000        0x0 /usr/lib/gcc/arm-none-eabi/5.2.0/../../../../arm-none-eabi/lib/armv7e-m/libc_nano.a(lib_a-vsnprintf.o)
 .text          0x0000000000000000        0x0 /usr/lib/gcc/arm-none-eabi/5.2.0/../../../../arm-none-eabi/lib/armv7e-m/libc_nano.a(lib_a-impure.o)
 .data          0x0000000000000000        0x0 /usr/lib/gcc/arm-none-eabi/5.2.0/../../../../arm-none-eabi/lib/armv7e-m/libc_nano.a(lib_a-impure.o)
 .bss           0x0000000000000000        0x0 /usr/lib/gcc/arm-none-eabi/5.2.0/../../../../arm-none-eabi/lib/armv7e-m/libc_nano.a(lib_a-impure.o)
 .rodata._global_impure_ptr
                0x0000000000000000        0x4 /usr/lib/gcc/arm-none-eabi/5.2.0/../../../../arm-none-eabi/lib/armv7e-m/libc_nano.a(lib_a-impure.o)
 .text          0x0000000000000000        0x0 /usr/lib/gcc/arm-none-eabi/5.2.0/../../../../arm-none-eabi/lib/armv7e-m/libc_nano.a(lib_a-nano-reallocr.o)
 .data          0x0000000000000000        0x0 /usr/lib/gcc/arm-none-eabi/5.2.0/../../../../arm-none-eabi/lib/armv7e-m/libc_nano.a(lib_a-nano-reallocr.o)
 .bss           0x0000000000000000        0x0 /usr/lib/gcc/arm-none-eabi/5.2.0/../../../../arm-none-eabi/lib/armv7e-m/libc_nano.a(lib_a-nano-reallocr.o)
 .text          0x0000000000000000        0x0 /usr/lib/gcc/arm-none-eabi/5.2.0/../../../../arm-none-eabi/lib/armv7e-m/libc_nano.a(lib_a-nano-svfprintf.o)
 .data          0x0000000000000000        0x0 /usr/lib/gcc/arm-none-eabi/5.2.0/../../../../arm-none-eabi/lib/armv7e-m/libc_nano.a(lib_a-nano-svfprintf.o)
 .bss           0x0000000000000000        0x0 /usr/lib/gcc/arm-none-eabi/5.2.0/../../../../arm-none-eabi/lib/armv7e-m/libc_nano.a(lib_a-nano-svfprintf.o)
 .text.__ssprint_r
                0x0000000000000000       0xfe /usr/lib/gcc/arm-none-eabi/5.2.0/../../../../arm-none-eabi/lib/armv7e-m/libc_nano.a(lib_a-nano-svfprintf.o)
 .text          0x0000000000000000        0x0 /usr/lib/gcc/arm-none-eabi/5.2.0/../../../../arm-none-eabi/lib/armv7e-m/libc_nano.a(lib_a-nano-vfprintf_i.o)
 .data          0x0000000000000000        0x0 /usr/lib/gcc/arm-none-eabi/5.2.0/../../../../arm-none-eabi/lib/armv7e-m/libc_nano.a(lib_a-nano-vfprintf_i.o)
 .bss           0x0000000000000000        0x0 /usr/lib/gcc/arm-none-eabi/5.2.0/../../../../arm-none-eabi/lib/armv7e-m/libc_nano.a(lib_a-nano-vfprintf_i.o)
 .text          0x0000000000000000        0x0 /usr/lib/gcc/arm-none-eabi/5.2.0/../../../../arm-none-eabi/lib/armv7e-m/libc_nano.a(lib_a-reent.o)
 .data          0x0000000000000000        0x0 /usr/lib/gcc/arm-none-eabi/5.2.0/../../../../arm-none-eabi/lib/armv7e-m/libc_nano.a(lib_a-reent.o)
 .bss           0x0000000000000000        0x0 /usr/lib/gcc/arm-none-eabi/5.2.0/../../../../arm-none-eabi/lib/armv7e-m/libc_nano.a(lib_a-reent.o)
 .text.cleanup_glue
                0x0000000000000000       0x1a /usr/lib/gcc/arm-none-eabi/5.2.0/../../../../arm-none-eabi/lib/armv7e-m/libc_nano.a(lib_a-reent.o)
 .text._reclaim_reent
                0x0000000000000000       0xb4 /usr/lib/gcc/arm-none-eabi/5.2.0/../../../../arm-none-eabi/lib/armv7e-m/libc_nano.a(lib_a-reent.o)
 .text          0x0000000000000000        0x0 /usr/lib/gcc/arm-none-eabi/5.2.0/../../../../arm-none-eabi/lib/armv7e-m/libc_nano.a(lib_a-memchr.o)
 .data          0x0000000000000000        0x0 /usr/lib/gcc/arm-none-eabi/5.2.0/../../../../arm-none-eabi/lib/armv7e-m/libc_nano.a(lib_a-memchr.o)
 .bss           0x0000000000000000        0x0 /usr/lib/gcc/arm-none-eabi/5.2.0/../../../../arm-none-eabi/lib/armv7e-m/libc_nano.a(lib_a-memchr.o)
 .text          0x0000000000000000        0x0 /usr/lib/gcc/arm-none-eabi/5.2.0/../../../../arm-none-eabi/lib/armv7e-m/libc_nano.a(lib_a-nano-msizer.o)
 .data          0x0000000000000000        0x0 /usr/lib/gcc/arm-none-eabi/5.2.0/../../../../arm-none-eabi/lib/armv7e-m/libc_nano.a(lib_a-nano-msizer.o)
 .bss           0x0000000000000000        0x0 /usr/lib/gcc/arm-none-eabi/5.2.0/../../../../arm-none-eabi/lib/armv7e-m/libc_nano.a(lib_a-nano-msizer.o)
 .text          0x0000000000000000       0x30 /usr/lib/gcc/arm-none-eabi/5.2.0/armv7e-m/libgcc.a(_aeabi_uldivmod.o)
 .data          0x0000000000000000        0x0 /usr/lib/gcc/arm-none-eabi/5.2.0/armv7e-m/libgcc.a(_aeabi_uldivmod.o)
 .bss           0x0000000000000000        0x0 /usr/lib/gcc/arm-none-eabi/5.2.0/armv7e-m/libgcc.a(_aeabi_uldivmod.o)
 .debug_line    0x0000000000000000       0x64 /usr/lib/gcc/arm-none-eabi/5.2.0/armv7e-m/libgcc.a(_aeabi_uldivmod.o)
 .debug_info    0x0000000000000000       0xb7 /usr/lib/gcc/arm-none-eabi/5.2.0/armv7e-m/libgcc.a(_aeabi_uldivmod.o)
 .debug_abbrev  0x0000000000000000       0x14 /usr/lib/gcc/arm-none-eabi/5.2.0/armv7e-m/libgcc.a(_aeabi_uldivmod.o)
 .debug_aranges
                0x0000000000000000       0x20 /usr/lib/gcc/arm-none-eabi/5.2.0/armv7e-m/libgcc.a(_aeabi_uldivmod.o)
 .debug_frame   0x0000000000000000       0x2c /usr/lib/gcc/arm-none-eabi/5.2.0/armv7e-m/libgcc.a(_aeabi_uldivmod.o)
 .ARM.attributes
                0x0000000000000000       0x1e /usr/lib/gcc/arm-none-eabi/5.2.0/armv7e-m/libgcc.a(_aeabi_uldivmod.o)
 .text          0x0000000000000000      0x2e4 /usr/lib/gcc/arm-none-eabi/5.2.0/armv7e-m/libgcc.a(_udivmoddi4.o)
 .data          0x0000000000000000        0x0 /usr/lib/gcc/arm-none-eabi/5.2.0/armv7e-m/libgcc.a(_udivmoddi4.o)
 .bss           0x0000000000000000        0x0 /usr/lib/gcc/arm-none-eabi/5.2.0/armv7e-m/libgcc.a(_udivmoddi4.o)
 .ARM.extab     0x0000000000000000        0x0 /usr/lib/gcc/arm-none-eabi/5.2.0/armv7e-m/libgcc.a(_udivmoddi4.o)
 .ARM.exidx     0x0000000000000000        0x8 /usr/lib/gcc/arm-none-eabi/5.2.0/armv7e-m/libgcc.a(_udivmoddi4.o)
 .debug_info    0x0000000000000000      0x441 /usr/lib/gcc/arm-none-eabi/5.2.0/armv7e-m/libgcc.a(_udivmoddi4.o)
 .debug_abbrev  0x0000000000000000      0x101 /usr/lib/gcc/arm-none-eabi/5.2.0/armv7e-m/libgcc.a(_udivmoddi4.o)
 .debug_loc     0x0000000000000000      0xe94 /usr/lib/gcc/arm-none-eabi/5.2.0/armv7e-m/libgcc.a(_udivmoddi4.o)
 .debug_aranges
                0x0000000000000000       0x20 /usr/lib/gcc/arm-none-eabi/5.2.0/armv7e-m/libgcc.a(_udivmoddi4.o)
 .debug_ranges  0x0000000000000000       0xd8 /usr/lib/gcc/arm-none-eabi/5.2.0/armv7e-m/libgcc.a(_udivmoddi4.o)
 .debug_line    0x0000000000000000      0x1ad /usr/lib/gcc/arm-none-eabi/5.2.0/armv7e-m/libgcc.a(_udivmoddi4.o)
 .debug_str     0x0000000000000000      0x243 /usr/lib/gcc/arm-none-eabi/5.2.0/armv7e-m/libgcc.a(_udivmoddi4.o)
 .comment       0x0000000000000000       0x22 /usr/lib/gcc/arm-none-eabi/5.2.0/armv7e-m/libgcc.a(_udivmoddi4.o)
 .debug_frame   0x0000000000000000       0x34 /usr/lib/gcc/arm-none-eabi/5.2.0/armv7e-m/libgcc.a(_udivmoddi4.o)
 .ARM.attributes
                0x0000000000000000       0x2e /usr/lib/gcc/arm-none-eabi/5.2.0/armv7e-m/libgcc.a(_udivmoddi4.o)
 .text          0x0000000000000000        0x4 /usr/lib/gcc/arm-none-eabi/5.2.0/armv7e-m/libgcc.a(_dvmd_tls.o)
 .data          0x0000000000000000        0x0 /usr/lib/gcc/arm-none-eabi/5.2.0/armv7e-m/libgcc.a(_dvmd_tls.o)
 .bss           0x0000000000000000        0x0 /usr/lib/gcc/arm-none-eabi/5.2.0/armv7e-m/libgcc.a(_dvmd_tls.o)
 .debug_line    0x0000000000000000       0x64 /usr/lib/gcc/arm-none-eabi/5.2.0/armv7e-m/libgcc.a(_dvmd_tls.o)
 .debug_info    0x0000000000000000       0xbb /usr/lib/gcc/arm-none-eabi/5.2.0/armv7e-m/libgcc.a(_dvmd_tls.o)
 .debug_abbrev  0x0000000000000000       0x14 /usr/lib/gcc/arm-none-eabi/5.2.0/armv7e-m/libgcc.a(_dvmd_tls.o)
 .debug_aranges
                0x0000000000000000       0x20 /usr/lib/gcc/arm-none-eabi/5.2.0/armv7e-m/libgcc.a(_dvmd_tls.o)
 .ARM.attributes
                0x0000000000000000       0x1e /usr/lib/gcc/arm-none-eabi/5.2.0/armv7e-m/libgcc.a(_dvmd_tls.o)

Memory Configuration

Name             Origin             Length             Attributes
SRAM             0x0000000020000000 0x0000000000040000 xrw
*default*        0x0000000000000000 0xffffffffffffffff

Linker script and memory map

                0x0000000000004000                BOOTLOADER_SIZE = 0x4000

.bootloader     0x0000000020000000     0x4000
                0x0000000020000000                _heap2 = .
                0x0000000020004000                . = (. + BOOTLOADER_SIZE)
 *fill*         0x0000000020000000     0x4000 
                0x0000000020004000                . = ALIGN (0x8)
                0x0000000020004000                _eheap2 = .

.text           0x0000000020004000     0xb770
                0x0000000020004000                _text = .
 *(.intvecs)
 .intvecs       0x0000000020004000      0x400 obj/Debug/startup_gcc.o
                0x0000000020004000                g_pfnVectors
 *(.text*)
 .text.TimerPeriodicIntHandler
                0x0000000020004400       0x50 obj/Debug/main.o
                0x0000000020004400                TimerPeriodicIntHandler
 .text.LedTimerConfigNStart
                0x0000000020004450       0x38 obj/Debug/main.o
                0x0000000020004450                LedTimerConfigNStart
 .text.LedTimerDeinitStop
                0x0000000020004488       0x1c obj/Debug/main.o
                0x0000000020004488                LedTimerDeinitStop
 .text.DisplayBanner
                0x00000000200044a4       0x3c obj/Debug/main.o
 .text.HIBUDPBroadcastTask
                0x00000000200044e0      0x1a4 obj/Debug/main.o
                0x00000000200044e0                HIBUDPBroadcastTask
 .text.EnterHIBernate
                0x0000000020004684       0x38 obj/Debug/main.o
                0x0000000020004684                EnterHIBernate
 .text.BoardInit
                0x00000000200046bc       0x24 obj/Debug/main.o
 .text.main     0x00000000200046e0       0x88 obj/Debug/main.o
                0x00000000200046e0                main
 .text.PinMuxConfig
                0x0000000020004768       0x40 obj/Debug/pinmux.o
                0x0000000020004768                PinMuxConfig
 .text.InitTerm
                0x00000000200047a8       0x2c obj/Debug/uart_if.o
                0x00000000200047a8                InitTerm
 .text.Message  0x00000000200047d4       0x34 obj/Debug/uart_if.o
                0x00000000200047d4                Message
 .text.GetCmd   0x0000000020004808       0xc4 obj/Debug/uart_if.o
                0x0000000020004808                GetCmd
 .text.TrimSpace
                0x00000000200048cc       0x90 obj/Debug/uart_if.o
                0x00000000200048cc                TrimSpace
 .text.Report   0x000000002000495c       0x98 obj/Debug/uart_if.o
                0x000000002000495c                Report
 .text.GetPeripheralIntNum
                0x00000000200049f4       0xa4 obj/Debug/timer_if.o
 .text.Timer_IF_Init
                0x0000000020004a98       0x38 obj/Debug/timer_if.o
                0x0000000020004a98                Timer_IF_Init
 .text.Timer_IF_IntSetup
                0x0000000020004ad0       0x8c obj/Debug/timer_if.o
                0x0000000020004ad0                Timer_IF_IntSetup
 .text.Timer_IF_Start
                0x0000000020004b5c       0x34 obj/Debug/timer_if.o
                0x0000000020004b5c                Timer_IF_Start
 .text.Timer_IF_Stop
                0x0000000020004b90       0x1c obj/Debug/timer_if.o
                0x0000000020004b90                Timer_IF_Stop
 .text.Timer_IF_DeInit
                0x0000000020004bac       0x24 obj/Debug/timer_if.o
                0x0000000020004bac                Timer_IF_DeInit
 .text.GPIO_IF_LedConfigure
                0x0000000020004bd0       0x68 obj/Debug/gpio_if.o
                0x0000000020004bd0                GPIO_IF_LedConfigure
 .text.GPIO_IF_LedOn
                0x0000000020004c38       0xd4 obj/Debug/gpio_if.o
                0x0000000020004c38                GPIO_IF_LedOn
 .text.GPIO_IF_LedOff
                0x0000000020004d0c       0xd4 obj/Debug/gpio_if.o
                0x0000000020004d0c                GPIO_IF_LedOff
 .text.GPIO_IF_GetPortNPin
                0x0000000020004de0       0x48 obj/Debug/gpio_if.o
                0x0000000020004de0                GPIO_IF_GetPortNPin
 .text.GPIO_IF_Set
                0x0000000020004e28       0x3c obj/Debug/gpio_if.o
                0x0000000020004e28                GPIO_IF_Set
 .text.Utils_SpiFlashDeepPowerDown
                0x0000000020004e64       0xd0 obj/Debug/utils_if.o
                0x0000000020004e64                Utils_SpiFlashDeepPowerDown
 .text.vAssertCalled
                0x0000000020004f34        0xc obj/Debug/network_if.o
                0x0000000020004f34                vAssertCalled
 .text.vApplicationIdleHook
                0x0000000020004f40        0xc obj/Debug/network_if.o
                0x0000000020004f40                vApplicationIdleHook
 .text.vApplicationMallocFailedHook
                0x0000000020004f4c        0x8 obj/Debug/network_if.o
                0x0000000020004f4c                vApplicationMallocFailedHook
 .text.vApplicationStackOverflowHook
                0x0000000020004f54        0xc obj/Debug/network_if.o
                0x0000000020004f54                vApplicationStackOverflowHook
 .text.SimpleLinkWlanEventHandler
                0x0000000020004f60      0x210 obj/Debug/network_if.o
                0x0000000020004f60                SimpleLinkWlanEventHandler
 .text.SimpleLinkNetAppEventHandler
                0x0000000020005170       0xa8 obj/Debug/network_if.o
                0x0000000020005170                SimpleLinkNetAppEventHandler
 .text.SimpleLinkGeneralEventHandler
                0x0000000020005218       0x30 obj/Debug/network_if.o
                0x0000000020005218                SimpleLinkGeneralEventHandler
 .text.SimpleLinkSockEventHandler
                0x0000000020005248       0xcc obj/Debug/network_if.o
                0x0000000020005248                SimpleLinkSockEventHandler
 .text.SimpleLinkHttpServerCallback
                0x0000000020005314       0x14 obj/Debug/network_if.o
                0x0000000020005314                SimpleLinkHttpServerCallback
 .text.InitializeAppVariables
                0x0000000020005328       0x44 obj/Debug/network_if.o
                0x0000000020005328                InitializeAppVariables
 .text.ConfigureSimpleLinkToDefaultState
                0x000000002000536c      0x364 obj/Debug/network_if.o
                0x000000002000536c                ConfigureSimpleLinkToDefaultState
 .text.Network_IF_InitDriver
                0x00000000200056d0      0x1b4 obj/Debug/network_if.o
                0x00000000200056d0                Network_IF_InitDriver
 .text.Network_IF_DeInitDriver
                0x0000000020005884       0x30 obj/Debug/network_if.o
                0x0000000020005884                Network_IF_DeInitDriver
 .text.Network_IF_ConnectAP
                0x00000000200058b4      0x27c obj/Debug/network_if.o
                0x00000000200058b4                Network_IF_ConnectAP
 .text.Network_IF_DisconnectFromAP
                0x0000000020005b30       0x50 obj/Debug/network_if.o
                0x0000000020005b30                Network_IF_DisconnectFromAP
 .text.Network_IF_IpConfigGet
                0x0000000020005b80       0x80 obj/Debug/network_if.o
                0x0000000020005b80                Network_IF_IpConfigGet
 .text.Network_IF_ResetMCUStateMachine
                0x0000000020005c00       0x18 obj/Debug/network_if.o
                0x0000000020005c00                Network_IF_ResetMCUStateMachine
 .text.ResetISR
                0x0000000020005c18       0x78 obj/Debug/startup_gcc.o
                0x0000000020005c18                ResetISR
 .text.NmiSR    0x0000000020005c90        0x8 obj/Debug/startup_gcc.o
 .text.FaultISR
                0x0000000020005c98        0x8 obj/Debug/startup_gcc.o
 .text.BusFaultHandler
                0x0000000020005ca0        0x8 obj/Debug/startup_gcc.o
 .text.IntDefaultHandler
                0x0000000020005ca8        0x8 obj/Debug/startup_gcc.o
 .text._sbrk    0x0000000020005cb0       0x70 obj/Debug/startup_gcc.o
                0x0000000020005cb0                _sbrk
 .text._sl_GetStartResponseConvert
                0x0000000020005d20       0x24 ../../../simplelink/gcc/lib/os_PM/Debug/libsimplelink.a(device.o)
 .text.sl_Start
                0x0000000020005d44      0x10c ../../../simplelink/gcc/lib/os_PM/Debug/libsimplelink.a(device.o)
                0x0000000020005d44                sl_Start
 .text._sl_HandleAsync_InitComplete
                0x0000000020005e50       0xb8 ../../../simplelink/gcc/lib/os_PM/Debug/libsimplelink.a(device.o)
                0x0000000020005e50                _sl_HandleAsync_InitComplete
 .text._sl_HandleAsync_Stop
                0x0000000020005f08       0x68 ../../../simplelink/gcc/lib/os_PM/Debug/libsimplelink.a(device.o)
                0x0000000020005f08                _sl_HandleAsync_Stop
 .text.sl_Stop  0x0000000020005f70       0xec ../../../simplelink/gcc/lib/os_PM/Debug/libsimplelink.a(device.o)
                0x0000000020005f70                sl_Stop
 .text.sl_DevGet
                0x000000002000605c       0xe0 ../../../simplelink/gcc/lib/os_PM/Debug/libsimplelink.a(device.o)
                0x000000002000605c                sl_DevGet
 .text._SlDrvDeviceEventHandler
                0x000000002000613c       0xa8 ../../../simplelink/gcc/lib/os_PM/Debug/libsimplelink.a(device.o)
                0x000000002000613c                _SlDrvDeviceEventHandler
 .text._SlDrvProtectAsyncRespSetting
                0x00000000200061e4       0x54 ../../../simplelink/gcc/lib/os_PM/Debug/libsimplelink.a(driver.o)
                0x00000000200061e4                _SlDrvProtectAsyncRespSetting
 .text._SlDrvDriverCBInit
                0x0000000020006238      0x1a8 ../../../simplelink/gcc/lib/os_PM/Debug/libsimplelink.a(driver.o)
                0x0000000020006238                _SlDrvDriverCBInit
 .text._SlDrvDriverCBDeinit
                0x00000000200063e0      0x134 ../../../simplelink/gcc/lib/os_PM/Debug/libsimplelink.a(driver.o)
                0x00000000200063e0                _SlDrvDriverCBDeinit
 .text._SlDrvRxIrqHandler
                0x0000000020006514       0x64 ../../../simplelink/gcc/lib/os_PM/Debug/libsimplelink.a(driver.o)
                0x0000000020006514                _SlDrvRxIrqHandler
 .text._SlDrvCmdOp
                0x0000000020006578       0xc4 ../../../simplelink/gcc/lib/os_PM/Debug/libsimplelink.a(driver.o)
                0x0000000020006578                _SlDrvCmdOp
 .text._SlDrvDataWriteOp
                0x000000002000663c      0x168 ../../../simplelink/gcc/lib/os_PM/Debug/libsimplelink.a(driver.o)
                0x000000002000663c                _SlDrvDataWriteOp
 .text._SlDrvMsgWrite
                0x00000000200067a4      0x1d4 ../../../simplelink/gcc/lib/os_PM/Debug/libsimplelink.a(driver.o)
 .text._SlDrvMsgRead
                0x0000000020006978      0x5cc ../../../simplelink/gcc/lib/os_PM/Debug/libsimplelink.a(driver.o)
 .text._SlAsyncEventGenericHandler
                0x0000000020006f44       0xd8 ../../../simplelink/gcc/lib/os_PM/Debug/libsimplelink.a(driver.o)
 .text._SlDrvMsgReadCmdCtx
                0x000000002000701c      0x158 ../../../simplelink/gcc/lib/os_PM/Debug/libsimplelink.a(driver.o)
 .text._SlDrvMsgReadSpawnCtx
                0x0000000020007174       0xf4 ../../../simplelink/gcc/lib/os_PM/Debug/libsimplelink.a(driver.o)
                0x0000000020007174                _SlDrvMsgReadSpawnCtx
 .text._SlDrvClassifyRxMsg
                0x0000000020007268       0xd0 ../../../simplelink/gcc/lib/os_PM/Debug/libsimplelink.a(driver.o)
 .text._SlDrvRxHdrRead
                0x0000000020007338      0x2ac ../../../simplelink/gcc/lib/os_PM/Debug/libsimplelink.a(driver.o)
 .text._SlDrvBasicCmd
                0x00000000200075e4       0x50 ../../../simplelink/gcc/lib/os_PM/Debug/libsimplelink.a(driver.o)
                0x00000000200075e4                _SlDrvBasicCmd
 .text._SlDrvCmdSend
                0x0000000020007634       0x74 ../../../simplelink/gcc/lib/os_PM/Debug/libsimplelink.a(driver.o)
                0x0000000020007634                _SlDrvCmdSend
 .text._SlDrvWaitForPoolObj
                0x00000000200076a8      0x1a4 ../../../simplelink/gcc/lib/os_PM/Debug/libsimplelink.a(driver.o)
                0x00000000200076a8                _SlDrvWaitForPoolObj
 .text._SlDrvReleasePoolObj
                0x000000002000784c      0x200 ../../../simplelink/gcc/lib/os_PM/Debug/libsimplelink.a(driver.o)
                0x000000002000784c                _SlDrvReleasePoolObj
 .text._SlRemoveFromList
                0x0000000020007a4c       0xd0 ../../../simplelink/gcc/lib/os_PM/Debug/libsimplelink.a(driver.o)
 .text._SlFindAndSetActiveObj
                0x0000000020007b1c      0x16c ../../../simplelink/gcc/lib/os_PM/Debug/libsimplelink.a(driver.o)
 .text._SlDrvDispatchHttpServerEvents
                0x0000000020007c88       0x1c ../../../simplelink/gcc/lib/os_PM/Debug/libsimplelink.a(driver.o)
                0x0000000020007c88                _SlDrvDispatchHttpServerEvents
 .text._SlDrvSyncObjSignal
                0x0000000020007ca4       0x2c ../../../simplelink/gcc/lib/os_PM/Debug/libsimplelink.a(driver.o)
                0x0000000020007ca4                _SlDrvSyncObjSignal
 .text._SlDrvObjLockWaitForever
                0x0000000020007cd0       0x30 ../../../simplelink/gcc/lib/os_PM/Debug/libsimplelink.a(driver.o)
                0x0000000020007cd0                _SlDrvObjLockWaitForever
 .text._SlDrvProtectionObjLockWaitForever
                0x0000000020007d00       0x38 ../../../simplelink/gcc/lib/os_PM/Debug/libsimplelink.a(driver.o)
                0x0000000020007d00                _SlDrvProtectionObjLockWaitForever
 .text._SlDrvObjUnLock
                0x0000000020007d38       0x2c ../../../simplelink/gcc/lib/os_PM/Debug/libsimplelink.a(driver.o)
                0x0000000020007d38                _SlDrvObjUnLock
 .text._SlDrvProtectionObjUnLock
                0x0000000020007d64       0x34 ../../../simplelink/gcc/lib/os_PM/Debug/libsimplelink.a(driver.o)
                0x0000000020007d64                _SlDrvProtectionObjUnLock
 .text._SlDrvObjGlobalLockWaitForever
                0x0000000020007d98       0x38 ../../../simplelink/gcc/lib/os_PM/Debug/libsimplelink.a(driver.o)
 .text._SlDrvGlobalObjUnLock
                0x0000000020007dd0       0x34 ../../../simplelink/gcc/lib/os_PM/Debug/libsimplelink.a(driver.o)
                0x0000000020007dd0                _SlDrvGlobalObjUnLock
 .text._SlDrvMemZero
                0x0000000020007e04       0x20 ../../../simplelink/gcc/lib/os_PM/Debug/libsimplelink.a(driver.o)
                0x0000000020007e04                _SlDrvMemZero
 .text._SlDrvResetCmdExt
                0x0000000020007e24       0x18 ../../../simplelink/gcc/lib/os_PM/Debug/libsimplelink.a(driver.o)
                0x0000000020007e24                _SlDrvResetCmdExt
 .text._SlDrvSyncObjWaitForever
                0x0000000020007e3c       0x34 ../../../simplelink/gcc/lib/os_PM/Debug/libsimplelink.a(driver.o)
                0x0000000020007e3c                _SlDrvSyncObjWaitForever
 .text._SlDrvSyncObjWaitTimeout
                0x0000000020007e70       0x50 ../../../simplelink/gcc/lib/os_PM/Debug/libsimplelink.a(driver.o)
                0x0000000020007e70                _SlDrvSyncObjWaitTimeout
 .text._SlDriverHandleError
                0x0000000020007ec0       0x98 ../../../simplelink/gcc/lib/os_PM/Debug/libsimplelink.a(driver.o)
                0x0000000020007ec0                _SlDriverHandleError
 .text._SlDrvStartMeasureTimeout
                0x0000000020007f58       0x30 ../../../simplelink/gcc/lib/os_PM/Debug/libsimplelink.a(driver.o)
                0x0000000020007f58                _SlDrvStartMeasureTimeout
 .text._SlDrvIsTimeoutExpired
                0x0000000020007f88       0xa8 ../../../simplelink/gcc/lib/os_PM/Debug/libsimplelink.a(driver.o)
                0x0000000020007f88                _SlDrvIsTimeoutExpired
 .text.sl_NetAppMDNSRegisterUnregisterService
                0x0000000020008030      0x140 ../../../simplelink/gcc/lib/os_PM/Debug/libsimplelink.a(netapp.o)
                0x0000000020008030                sl_NetAppMDNSRegisterUnregisterService
 .text.sl_NetAppMDNSUnRegisterService
                0x0000000020008170       0x68 ../../../simplelink/gcc/lib/os_PM/Debug/libsimplelink.a(netapp.o)
                0x0000000020008170                sl_NetAppMDNSUnRegisterService
 .text._sl_HandleAsync_DnsGetHostByService
                0x00000000200081d8       0xd4 ../../../simplelink/gcc/lib/os_PM/Debug/libsimplelink.a(netapp.o)
                0x00000000200081d8                _sl_HandleAsync_DnsGetHostByService
 .text._sl_HandleAsync_DnsGetHostByName
                0x00000000200082ac       0xb8 ../../../simplelink/gcc/lib/os_PM/Debug/libsimplelink.a(netapp.o)
                0x00000000200082ac                _sl_HandleAsync_DnsGetHostByName
 .text.CopyPingResultsToReport
                0x0000000020008364       0x44 ../../../simplelink/gcc/lib/os_PM/Debug/libsimplelink.a(netapp.o)
 .text._sl_HandleAsync_PingResponse
                0x00000000200083a8       0xb4 ../../../simplelink/gcc/lib/os_PM/Debug/libsimplelink.a(netapp.o)
                0x00000000200083a8                _sl_HandleAsync_PingResponse
 .text._sl_NetAppSendTokenValue
                0x000000002000845c       0x7c ../../../simplelink/gcc/lib/os_PM/Debug/libsimplelink.a(netapp.o)
                0x000000002000845c                _sl_NetAppSendTokenValue
 .text._SlDrvNetAppEventHandler
                0x00000000200084d8      0x134 ../../../simplelink/gcc/lib/os_PM/Debug/libsimplelink.a(netapp.o)
                0x00000000200084d8                _SlDrvNetAppEventHandler
 .text.sl_NetCfgSet
                0x000000002000860c       0xa0 ../../../simplelink/gcc/lib/os_PM/Debug/libsimplelink.a(netcfg.o)
                0x000000002000860c                sl_NetCfgSet
 .text.sl_NetCfgGet
                0x00000000200086ac       0xe8 ../../../simplelink/gcc/lib/os_PM/Debug/libsimplelink.a(netcfg.o)
                0x00000000200086ac                sl_NetCfgGet
 .text._sl_BuildAddress
                0x0000000020008794       0x58 ../../../simplelink/gcc/lib/os_PM/Debug/libsimplelink.a(socket.o)
 .text._sl_TruncatePayloadByProtocol
                0x00000000200087ec       0x40 ../../../simplelink/gcc/lib/os_PM/Debug/libsimplelink.a(socket.o)
 .text.sl_Socket
                0x000000002000882c       0x8c ../../../simplelink/gcc/lib/os_PM/Debug/libsimplelink.a(socket.o)
                0x000000002000882c                sl_Socket
 .text.sl_Close
                0x00000000200088b8       0x68 ../../../simplelink/gcc/lib/os_PM/Debug/libsimplelink.a(socket.o)
                0x00000000200088b8                sl_Close
 .text.sl_SendTo
                0x0000000020008920      0x148 ../../../simplelink/gcc/lib/os_PM/Debug/libsimplelink.a(socket.o)
                0x0000000020008920                sl_SendTo
 .text._sl_HandleAsync_Connect
                0x0000000020008a68       0x9c ../../../simplelink/gcc/lib/os_PM/Debug/libsimplelink.a(socket.o)
                0x0000000020008a68                _sl_HandleAsync_Connect
 .text.sl_Htonl
                0x0000000020008b04       0x4c ../../../simplelink/gcc/lib/os_PM/Debug/libsimplelink.a(socket.o)
                0x0000000020008b04                sl_Htonl
 .text.sl_Htons
                0x0000000020008b50       0x40 ../../../simplelink/gcc/lib/os_PM/Debug/libsimplelink.a(socket.o)
                0x0000000020008b50                sl_Htons
 .text._sl_HandleAsync_Accept
                0x0000000020008b90       0x80 ../../../simplelink/gcc/lib/os_PM/Debug/libsimplelink.a(socket.o)
                0x0000000020008b90                _sl_HandleAsync_Accept
 .text._sl_HandleAsync_Select
                0x0000000020008c10       0x6c ../../../simplelink/gcc/lib/os_PM/Debug/libsimplelink.a(socket.o)
                0x0000000020008c10                _sl_HandleAsync_Select
 .text.sl_WlanConnect
                0x0000000020008c7c      0x2cc ../../../simplelink/gcc/lib/os_PM/Debug/libsimplelink.a(wlan.o)
                0x0000000020008c7c                sl_WlanConnect
 .text.sl_WlanDisconnect
                0x0000000020008f48       0x40 ../../../simplelink/gcc/lib/os_PM/Debug/libsimplelink.a(wlan.o)
                0x0000000020008f48                sl_WlanDisconnect
 .text.sl_WlanPolicySet
                0x0000000020008f88       0x90 ../../../simplelink/gcc/lib/os_PM/Debug/libsimplelink.a(wlan.o)
                0x0000000020008f88                sl_WlanPolicySet
 .text.sl_WlanProfileDel
                0x0000000020009018       0x68 ../../../simplelink/gcc/lib/os_PM/Debug/libsimplelink.a(wlan.o)
                0x0000000020009018                sl_WlanProfileDel
 .text.sl_WlanRxFilterSet
                0x0000000020009080       0x88 ../../../simplelink/gcc/lib/os_PM/Debug/libsimplelink.a(wlan.o)
                0x0000000020009080                sl_WlanRxFilterSet
 .text.sl_WlanSetMode
                0x0000000020009108       0x68 ../../../simplelink/gcc/lib/os_PM/Debug/libsimplelink.a(wlan.o)
                0x0000000020009108                sl_WlanSetMode
 .text.sl_WlanSet
                0x0000000020009170       0x98 ../../../simplelink/gcc/lib/os_PM/Debug/libsimplelink.a(wlan.o)
                0x0000000020009170                sl_WlanSet
 .text.spi_Open
                0x0000000020009208       0x28 ../../../simplelink/gcc/lib/os_PM/Debug/libsimplelink.a(cc_pal_pm.o)
                0x0000000020009208                spi_Open
 .text.spi_Close
                0x0000000020009230       0x1c ../../../simplelink/gcc/lib/os_PM/Debug/libsimplelink.a(cc_pal_pm.o)
                0x0000000020009230                spi_Close
 .text.spi_Read
                0x000000002000924c       0x74 ../../../simplelink/gcc/lib/os_PM/Debug/libsimplelink.a(cc_pal_pm.o)
                0x000000002000924c                spi_Read
 .text.spi_Write
                0x00000000200092c0       0x34 ../../../simplelink/gcc/lib/os_PM/Debug/libsimplelink.a(cc_pal_pm.o)
                0x00000000200092c0                spi_Write
 .text.NwpRegisterInterruptHandler
                0x00000000200092f4       0x34 ../../../simplelink/gcc/lib/os_PM/Debug/libsimplelink.a(cc_pal_pm.o)
                0x00000000200092f4                NwpRegisterInterruptHandler
 .text.NwpMaskInterrupt
                0x0000000020009328       0x18 ../../../simplelink/gcc/lib/os_PM/Debug/libsimplelink.a(cc_pal_pm.o)
                0x0000000020009328                NwpMaskInterrupt
 .text.NwpUnMaskInterrupt
                0x0000000020009340       0x18 ../../../simplelink/gcc/lib/os_PM/Debug/libsimplelink.a(cc_pal_pm.o)
                0x0000000020009340                NwpUnMaskInterrupt
 .text.NwpPowerOnPreamble
                0x0000000020009358       0x8c ../../../simplelink/gcc/lib/os_PM/Debug/libsimplelink.a(cc_pal_pm.o)
                0x0000000020009358                NwpPowerOnPreamble
 .text.NwpPowerOn
                0x00000000200093e4       0x30 ../../../simplelink/gcc/lib/os_PM/Debug/libsimplelink.a(cc_pal_pm.o)
                0x00000000200093e4                NwpPowerOn
 .text.NwpPowerOff
                0x0000000020009414       0x40 ../../../simplelink/gcc/lib/os_PM/Debug/libsimplelink.a(cc_pal_pm.o)
                0x0000000020009414                NwpPowerOff
 .text.NwpPrePowerOffTimout0
                0x0000000020009454       0x24 ../../../simplelink/gcc/lib/os_PM/Debug/libsimplelink.a(cc_pal_pm.o)
                0x0000000020009454                NwpPrePowerOffTimout0
 .text.simplelink_timerA2_start
                0x0000000020009478       0x40 ../../../simplelink/gcc/lib/os_PM/Debug/libsimplelink.a(cc_pal_pm.o)
                0x0000000020009478                simplelink_timerA2_start
 .text.TimerGetCurrentTimestamp
                0x00000000200094b8       0x28 ../../../simplelink/gcc/lib/os_PM/Debug/libsimplelink.a(cc_pal_pm.o)
                0x00000000200094b8                TimerGetCurrentTimestamp
 .text.check_spi_rtosdrv_inuse
                0x00000000200094e0       0x54 ../../../middleware/gcc/lib/Debug/middleware.a(spi_drv.o)
 .text.setup_dma_desc
                0x0000000020009534       0x6c ../../../middleware/gcc/lib/Debug/middleware.a(spi_drv.o)
 .text.setup_spi_dma
                0x00000000200095a0       0x94 ../../../middleware/gcc/lib/Debug/middleware.a(spi_drv.o)
 .text.setup_dma_transfer
                0x0000000020009634      0x164 ../../../middleware/gcc/lib/Debug/middleware.a(spi_drv.o)
 .text.trigger_spi_dma_transfer
                0x0000000020009798       0x44 ../../../middleware/gcc/lib/Debug/middleware.a(spi_drv.o)
 .text.spi_open
                0x00000000200097dc       0xb4 ../../../middleware/gcc/lib/Debug/middleware.a(spi_drv.o)
                0x00000000200097dc                spi_open
 .text.spi_close
                0x0000000020009890       0x38 ../../../middleware/gcc/lib/Debug/middleware.a(spi_drv.o)
                0x0000000020009890                spi_close
 .text.spi_write
                0x00000000200098c8       0xa0 ../../../middleware/gcc/lib/Debug/middleware.a(spi_drv.o)
                0x00000000200098c8                spi_write
 .text.spi_read
                0x0000000020009968       0xa0 ../../../middleware/gcc/lib/Debug/middleware.a(spi_drv.o)
                0x0000000020009968                spi_read
 .text.dma_type_bitmap
                0x0000000020009a08       0x40 ../../../middleware/gcc/lib/Debug/middleware.a(dma_hal.o)
 .text.incr_bitmap
                0x0000000020009a48       0x80 ../../../middleware/gcc/lib/Debug/middleware.a(dma_hal.o)
 .text.src_incr_bitmap
                0x0000000020009ac8       0x20 ../../../middleware/gcc/lib/Debug/middleware.a(dma_hal.o)
 .text.dst_incr_bitmap
                0x0000000020009ae8       0x20 ../../../middleware/gcc/lib/Debug/middleware.a(dma_hal.o)
 .text.dma_mode_bitmap
                0x0000000020009b08       0x5c ../../../middleware/gcc/lib/Debug/middleware.a(dma_hal.o)
 .text.dma_arbt_bitmap
                0x0000000020009b64       0xac ../../../middleware/gcc/lib/Debug/middleware.a(dma_hal.o)
 .text.cc_dma_desc_config
                0x0000000020009c10       0x90 ../../../middleware/gcc/lib/Debug/middleware.a(dma_hal.o)
                0x0000000020009c10                cc_dma_desc_config
 .text.dma_submit_endp
                0x0000000020009ca0       0x84 ../../../middleware/gcc/lib/Debug/middleware.a(dma_hal.o)
 .text.cc_dma_submit_endp
                0x0000000020009d24       0xd4 ../../../middleware/gcc/lib/Debug/middleware.a(dma_hal.o)
                0x0000000020009d24                cc_dma_submit_endp
 .text.setup_spi_dma_reg
                0x0000000020009df8       0x64 ../../../middleware/gcc/lib/Debug/middleware.a(spi_hal.o)
 .text.cc_spi_configure
                0x0000000020009e5c       0x90 ../../../middleware/gcc/lib/Debug/middleware.a(spi_hal.o)
                0x0000000020009e5c                cc_spi_configure
 .text.cc_spi_wr_submit
                0x0000000020009eec       0x74 ../../../middleware/gcc/lib/Debug/middleware.a(spi_hal.o)
                0x0000000020009eec                cc_spi_wr_submit
 .text.cc_spi_rd_submit
                0x0000000020009f60       0x74 ../../../middleware/gcc/lib/Debug/middleware.a(spi_hal.o)
                0x0000000020009f60                cc_spi_rd_submit
 .text.get_dma_info
                0x0000000020009fd4       0x38 ../../../middleware/gcc/lib/Debug/middleware.a(spi_hal.o)
 .text.cc_spi_control
                0x000000002000a00c       0xc4 ../../../middleware/gcc/lib/Debug/middleware.a(spi_hal.o)
                0x000000002000a00c                cc_spi_control
 .text.osi_InterruptRegister
                0x000000002000a0d0       0x38 ../../../oslib/gcc/free_rtos/Debug/free_rtos.a(osi_freertos.o)
                0x000000002000a0d0                osi_InterruptRegister
 .text.osi_InterruptDeRegister
                0x000000002000a108       0x20 ../../../oslib/gcc/free_rtos/Debug/free_rtos.a(osi_freertos.o)
                0x000000002000a108                osi_InterruptDeRegister
 .text.osi_SyncObjCreate
                0x000000002000a128       0x40 ../../../oslib/gcc/free_rtos/Debug/free_rtos.a(osi_freertos.o)
                0x000000002000a128                osi_SyncObjCreate
 .text.osi_SyncObjDelete
                0x000000002000a168       0x28 ../../../oslib/gcc/free_rtos/Debug/free_rtos.a(osi_freertos.o)
                0x000000002000a168                osi_SyncObjDelete
 .text.osi_SyncObjSignal
                0x000000002000a190       0x38 ../../../oslib/gcc/free_rtos/Debug/free_rtos.a(osi_freertos.o)
                0x000000002000a190                osi_SyncObjSignal
 .text.osi_SyncObjSignalFromISR
                0x000000002000a1c8       0x4c ../../../oslib/gcc/free_rtos/Debug/free_rtos.a(osi_freertos.o)
                0x000000002000a1c8                osi_SyncObjSignalFromISR
 .text.osi_SyncObjWait
                0x000000002000a214       0x38 ../../../oslib/gcc/free_rtos/Debug/free_rtos.a(osi_freertos.o)
                0x000000002000a214                osi_SyncObjWait
 .text.osi_LockObjCreate
                0x000000002000a24c       0x34 ../../../oslib/gcc/free_rtos/Debug/free_rtos.a(osi_freertos.o)
                0x000000002000a24c                osi_LockObjCreate
 .text.osi_TaskCreate
                0x000000002000a280       0x48 ../../../oslib/gcc/free_rtos/Debug/free_rtos.a(osi_freertos.o)
                0x000000002000a280                osi_TaskCreate
 .text.osi_LockObjDelete
                0x000000002000a2c8       0x20 ../../../oslib/gcc/free_rtos/Debug/free_rtos.a(osi_freertos.o)
                0x000000002000a2c8                osi_LockObjDelete
 .text.osi_LockObjLock
                0x000000002000a2e8       0x38 ../../../oslib/gcc/free_rtos/Debug/free_rtos.a(osi_freertos.o)
                0x000000002000a2e8                osi_LockObjLock
 .text.osi_LockObjUnlock
                0x000000002000a320       0x38 ../../../oslib/gcc/free_rtos/Debug/free_rtos.a(osi_freertos.o)
                0x000000002000a320                osi_LockObjUnlock
 .text.osi_Spawn
                0x000000002000a358       0x54 ../../../oslib/gcc/free_rtos/Debug/free_rtos.a(osi_freertos.o)
                0x000000002000a358                osi_Spawn
 .text.vSimpleLinkSpawnTask
                0x000000002000a3ac       0x34 ../../../oslib/gcc/free_rtos/Debug/free_rtos.a(osi_freertos.o)
 .text.VStartSimpleLinkSpawnTask
                0x000000002000a3e0       0x68 ../../../oslib/gcc/free_rtos/Debug/free_rtos.a(osi_freertos.o)
                0x000000002000a3e0                VStartSimpleLinkSpawnTask
 .text.osi_start
                0x000000002000a448        0xc ../../../oslib/gcc/free_rtos/Debug/free_rtos.a(osi_freertos.o)
                0x000000002000a448                osi_start
 .text.osi_Sleep
                0x000000002000a454       0x1c ../../../oslib/gcc/free_rtos/Debug/free_rtos.a(osi_freertos.o)
                0x000000002000a454                osi_Sleep
 .text.xQueueGenericReset
                0x000000002000a470       0xb8 ../../../oslib/gcc/free_rtos/Debug/free_rtos.a(queue.o)
                0x000000002000a470                xQueueGenericReset
 .text.xQueueGenericCreate
                0x000000002000a528       0xac ../../../oslib/gcc/free_rtos/Debug/free_rtos.a(queue.o)
                0x000000002000a528                xQueueGenericCreate
 .text.xQueueCreateMutex
                0x000000002000a5d4       0xa0 ../../../oslib/gcc/free_rtos/Debug/free_rtos.a(queue.o)
                0x000000002000a5d4                xQueueCreateMutex
 .text.xQueueGenericSend
                0x000000002000a674      0x1b8 ../../../oslib/gcc/free_rtos/Debug/free_rtos.a(queue.o)
                0x000000002000a674                xQueueGenericSend
 .text.xQueueGenericSendFromISR
                0x000000002000a82c      0x108 ../../../oslib/gcc/free_rtos/Debug/free_rtos.a(queue.o)
                0x000000002000a82c                xQueueGenericSendFromISR
 .text.xQueueGiveFromISR
                0x000000002000a934       0xf0 ../../../oslib/gcc/free_rtos/Debug/free_rtos.a(queue.o)
                0x000000002000a934                xQueueGiveFromISR
 .text.xQueueGenericReceive
                0x000000002000aa24      0x1c8 ../../../oslib/gcc/free_rtos/Debug/free_rtos.a(queue.o)
                0x000000002000aa24                xQueueGenericReceive
 .text.vQueueDelete
                0x000000002000abec       0x34 ../../../oslib/gcc/free_rtos/Debug/free_rtos.a(queue.o)
                0x000000002000abec                vQueueDelete
 .text.prvCopyDataToQueue
                0x000000002000ac20       0xd8 ../../../oslib/gcc/free_rtos/Debug/free_rtos.a(queue.o)
 .text.prvCopyDataFromQueue
                0x000000002000acf8       0x4c ../../../oslib/gcc/free_rtos/Debug/free_rtos.a(queue.o)
 .text.prvUnlockQueue
                0x000000002000ad44       0xb4 ../../../oslib/gcc/free_rtos/Debug/free_rtos.a(queue.o)
 .text.prvIsQueueEmpty
                0x000000002000adf8       0x2c ../../../oslib/gcc/free_rtos/Debug/free_rtos.a(queue.o)
 .text.prvIsQueueFull
                0x000000002000ae24       0x30 ../../../oslib/gcc/free_rtos/Debug/free_rtos.a(queue.o)
 .text.vQueueAddToRegistry
                0x000000002000ae54       0x50 ../../../oslib/gcc/free_rtos/Debug/free_rtos.a(queue.o)
                0x000000002000ae54                vQueueAddToRegistry
 .text.vQueueUnregisterQueue
                0x000000002000aea4       0x44 ../../../oslib/gcc/free_rtos/Debug/free_rtos.a(queue.o)
                0x000000002000aea4                vQueueUnregisterQueue
 .text.vQueueWaitForMessageRestricted
                0x000000002000aee8       0x58 ../../../oslib/gcc/free_rtos/Debug/free_rtos.a(queue.o)
                0x000000002000aee8                vQueueWaitForMessageRestricted
 .text.prvNotifyQueueSetContainer
                0x000000002000af40       0x94 ../../../oslib/gcc/free_rtos/Debug/free_rtos.a(queue.o)
 .text.xTaskGenericCreate
                0x000000002000afd4      0x174 ../../../oslib/gcc/free_rtos/Debug/free_rtos.a(tasks.o)
                0x000000002000afd4                xTaskGenericCreate
 .text.vTaskDelay
                0x000000002000b148       0x90 ../../../oslib/gcc/free_rtos/Debug/free_rtos.a(tasks.o)
                0x000000002000b148                vTaskDelay
 .text.vTaskStartScheduler
                0x000000002000b1d8       0x7c ../../../oslib/gcc/free_rtos/Debug/free_rtos.a(tasks.o)
                0x000000002000b1d8                vTaskStartScheduler
 .text.vTaskSuspendAll
                0x000000002000b254       0x1c ../../../oslib/gcc/free_rtos/Debug/free_rtos.a(tasks.o)
                0x000000002000b254                vTaskSuspendAll
 .text.xTaskResumeAll
                0x000000002000b270      0x110 ../../../oslib/gcc/free_rtos/Debug/free_rtos.a(tasks.o)
                0x000000002000b270                xTaskResumeAll
 .text.xTaskGetTickCount
                0x000000002000b380       0x1c ../../../oslib/gcc/free_rtos/Debug/free_rtos.a(tasks.o)
                0x000000002000b380                xTaskGetTickCount
 .text.xTaskIncrementTick
                0x000000002000b39c      0x154 ../../../oslib/gcc/free_rtos/Debug/free_rtos.a(tasks.o)
                0x000000002000b39c                xTaskIncrementTick
 .text.vTaskSwitchContext
                0x000000002000b4f0       0xf8 ../../../oslib/gcc/free_rtos/Debug/free_rtos.a(tasks.o)
                0x000000002000b4f0                vTaskSwitchContext
 .text.vTaskPlaceOnEventList
                0x000000002000b5e8       0x98 ../../../oslib/gcc/free_rtos/Debug/free_rtos.a(tasks.o)
                0x000000002000b5e8                vTaskPlaceOnEventList
 .text.vTaskPlaceOnEventListRestricted
                0x000000002000b680       0x7c ../../../oslib/gcc/free_rtos/Debug/free_rtos.a(tasks.o)
                0x000000002000b680                vTaskPlaceOnEventListRestricted
 .text.xTaskRemoveFromEventList
                0x000000002000b6fc       0xbc ../../../oslib/gcc/free_rtos/Debug/free_rtos.a(tasks.o)
                0x000000002000b6fc                xTaskRemoveFromEventList
 .text.vTaskSetTimeOutState
                0x000000002000b7b8       0x3c ../../../oslib/gcc/free_rtos/Debug/free_rtos.a(tasks.o)
                0x000000002000b7b8                vTaskSetTimeOutState
 .text.xTaskCheckForTimeOut
                0x000000002000b7f4       0xac ../../../oslib/gcc/free_rtos/Debug/free_rtos.a(tasks.o)
                0x000000002000b7f4                xTaskCheckForTimeOut
 .text.vTaskMissedYield
                0x000000002000b8a0       0x18 ../../../oslib/gcc/free_rtos/Debug/free_rtos.a(tasks.o)
                0x000000002000b8a0                vTaskMissedYield
 .text.prvIdleTask
                0x000000002000b8b8       0x14 ../../../oslib/gcc/free_rtos/Debug/free_rtos.a(tasks.o)
 .text.prvInitialiseTCBVariables
                0x000000002000b8cc       0xa8 ../../../oslib/gcc/free_rtos/Debug/free_rtos.a(tasks.o)
 .text.prvInitialiseTaskLists
                0x000000002000b974       0x80 ../../../oslib/gcc/free_rtos/Debug/free_rtos.a(tasks.o)
 .text.prvCheckTasksWaitingTermination
                0x000000002000b9f4       0x78 ../../../oslib/gcc/free_rtos/Debug/free_rtos.a(tasks.o)
 .text.prvAddCurrentTaskToDelayedList
                0x000000002000ba6c       0x6c ../../../oslib/gcc/free_rtos/Debug/free_rtos.a(tasks.o)
 .text.prvAllocateTCBAndStack
                0x000000002000bad8       0x6c ../../../oslib/gcc/free_rtos/Debug/free_rtos.a(tasks.o)
 .text.prvDeleteTCB
                0x000000002000bb44       0x20 ../../../oslib/gcc/free_rtos/Debug/free_rtos.a(tasks.o)
 .text.prvResetNextTaskUnblockTime
                0x000000002000bb64       0x48 ../../../oslib/gcc/free_rtos/Debug/free_rtos.a(tasks.o)
 .text.xTaskGetSchedulerState
                0x000000002000bbac       0x3c ../../../oslib/gcc/free_rtos/Debug/free_rtos.a(tasks.o)
                0x000000002000bbac                xTaskGetSchedulerState
 .text.vTaskPriorityInherit
                0x000000002000bbe8       0xec ../../../oslib/gcc/free_rtos/Debug/free_rtos.a(tasks.o)
                0x000000002000bbe8                vTaskPriorityInherit
 .text.xTaskPriorityDisinherit
                0x000000002000bcd4       0xf8 ../../../oslib/gcc/free_rtos/Debug/free_rtos.a(tasks.o)
                0x000000002000bcd4                xTaskPriorityDisinherit
 .text.pvTaskIncrementMutexHeldCount
                0x000000002000bdcc       0x28 ../../../oslib/gcc/free_rtos/Debug/free_rtos.a(tasks.o)
                0x000000002000bdcc                pvTaskIncrementMutexHeldCount
 .text.pxPortInitialiseStack
                0x000000002000bdf4       0x54 ../../../oslib/gcc/free_rtos/Debug/free_rtos.a(port.o)
                0x000000002000bdf4                pxPortInitialiseStack
 .text.prvTaskExitError
                0x000000002000be48       0x24 ../../../oslib/gcc/free_rtos/Debug/free_rtos.a(port.o)
 .text.vPortSVCHandler
                0x000000002000be6c       0x28 ../../../oslib/gcc/free_rtos/Debug/free_rtos.a(port.o)
                0x000000002000be6c                vPortSVCHandler
 .text.prvPortStartFirstTask
                0x000000002000be94       0x20 ../../../oslib/gcc/free_rtos/Debug/free_rtos.a(port.o)
 .text.xPortStartScheduler
                0x000000002000beb4       0xbc ../../../oslib/gcc/free_rtos/Debug/free_rtos.a(port.o)
                0x000000002000beb4                xPortStartScheduler
 .text.vPortYield
                0x000000002000bf70       0x20 ../../../oslib/gcc/free_rtos/Debug/free_rtos.a(port.o)
                0x000000002000bf70                vPortYield
 .text.vPortEnterCritical
                0x000000002000bf90       0x48 ../../../oslib/gcc/free_rtos/Debug/free_rtos.a(port.o)
                0x000000002000bf90                vPortEnterCritical
 .text.vPortExitCritical
                0x000000002000bfd8       0x3c ../../../oslib/gcc/free_rtos/Debug/free_rtos.a(port.o)
                0x000000002000bfd8                vPortExitCritical
 .text.ulPortSetInterruptMask
                0x000000002000c014       0x14 ../../../oslib/gcc/free_rtos/Debug/free_rtos.a(port.o)
                0x000000002000c014                ulPortSetInterruptMask
 .text.vPortClearInterruptMask
                0x000000002000c028        0x8 ../../../oslib/gcc/free_rtos/Debug/free_rtos.a(port.o)
                0x000000002000c028                vPortClearInterruptMask
 .text.xPortPendSVHandler
                0x000000002000c030       0x48 ../../../oslib/gcc/free_rtos/Debug/free_rtos.a(port.o)
                0x000000002000c030                xPortPendSVHandler
 .text.xPortSysTickHandler
                0x000000002000c078       0x28 ../../../oslib/gcc/free_rtos/Debug/free_rtos.a(port.o)
                0x000000002000c078                xPortSysTickHandler
 .text.vPortSetupTimerInterrupt
                0x000000002000c0a0       0x24 ../../../oslib/gcc/free_rtos/Debug/free_rtos.a(port.o)
                0x000000002000c0a0                vPortSetupTimerInterrupt
 .text.vPortValidateInterruptPriority
                0x000000002000c0c4       0x68 ../../../oslib/gcc/free_rtos/Debug/free_rtos.a(port.o)
                0x000000002000c0c4                vPortValidateInterruptPriority
 .text.xTimerCreateTimerTask
                0x000000002000c12c       0x64 ../../../oslib/gcc/free_rtos/Debug/free_rtos.a(timers.o)
                0x000000002000c12c                xTimerCreateTimerTask
 .text.xTimerGenericCommand
                0x000000002000c190       0x80 ../../../oslib/gcc/free_rtos/Debug/free_rtos.a(timers.o)
                0x000000002000c190                xTimerGenericCommand
 .text.prvProcessExpiredTimer
                0x000000002000c210       0x78 ../../../oslib/gcc/free_rtos/Debug/free_rtos.a(timers.o)
 .text.prvTimerTask
                0x000000002000c288       0x24 ../../../oslib/gcc/free_rtos/Debug/free_rtos.a(timers.o)
 .text.prvProcessTimerOrBlockTask
                0x000000002000c2ac       0x6c ../../../oslib/gcc/free_rtos/Debug/free_rtos.a(timers.o)
 .text.prvGetNextExpireTime
                0x000000002000c318       0x48 ../../../oslib/gcc/free_rtos/Debug/free_rtos.a(timers.o)
 .text.prvSampleTimeNow
                0x000000002000c360       0x40 ../../../oslib/gcc/free_rtos/Debug/free_rtos.a(timers.o)
 .text.prvInsertTimerInActiveList
                0x000000002000c3a0       0x84 ../../../oslib/gcc/free_rtos/Debug/free_rtos.a(timers.o)
 .text.prvProcessReceivedCommands
                0x000000002000c424      0x140 ../../../oslib/gcc/free_rtos/Debug/free_rtos.a(timers.o)
 .text.prvSwitchTimerLists
                0x000000002000c564       0xbc ../../../oslib/gcc/free_rtos/Debug/free_rtos.a(timers.o)
 .text.prvCheckForValidListAndQueue
                0x000000002000c620       0x84 ../../../oslib/gcc/free_rtos/Debug/free_rtos.a(timers.o)
 .text.pvPortMalloc
                0x000000002000c6a4       0x30 ../../../oslib/gcc/free_rtos/Debug/free_rtos.a(heap_3.o)
                0x000000002000c6a4                pvPortMalloc
 .text.vPortFree
                0x000000002000c6d4       0x24 ../../../oslib/gcc/free_rtos/Debug/free_rtos.a(heap_3.o)
                0x000000002000c6d4                vPortFree
 .text.vListInitialise
                0x000000002000c6f8       0x40 ../../../oslib/gcc/free_rtos/Debug/free_rtos.a(list.o)
                0x000000002000c6f8                vListInitialise
 .text.vListInitialiseItem
                0x000000002000c738       0x18 ../../../oslib/gcc/free_rtos/Debug/free_rtos.a(list.o)
                0x000000002000c738                vListInitialiseItem
 .text.vListInsertEnd
                0x000000002000c750       0x48 ../../../oslib/gcc/free_rtos/Debug/free_rtos.a(list.o)
                0x000000002000c750                vListInsertEnd
 .text.vListInsert
                0x000000002000c798       0x70 ../../../oslib/gcc/free_rtos/Debug/free_rtos.a(list.o)
                0x000000002000c798                vListInsert
 .text.uxListRemove
                0x000000002000c808       0x54 ../../../oslib/gcc/free_rtos/Debug/free_rtos.a(list.o)
                0x000000002000c808                uxListRemove
 .text.GPIODirModeSet
                0x000000002000c85c       0x48 ../../../driverlib/gcc/lib/Debug/libdriver.a(gpio.o)
                0x000000002000c85c                GPIODirModeSet
 .text.GPIOPinWrite
                0x000000002000c8a4       0x2c ../../../driverlib/gcc/lib/Debug/libdriver.a(gpio.o)
                0x000000002000c8a4                GPIOPinWrite
 .text.HwSpinLockTryAcquire
                0x000000002000c8d0       0x7c ../../../driverlib/gcc/lib/Debug/libdriver.a(hwspinlock.o)
                0x000000002000c8d0                HwSpinLockTryAcquire
 .text.HwSpinLockRelease
                0x000000002000c94c       0x44 ../../../driverlib/gcc/lib/Debug/libdriver.a(hwspinlock.o)
                0x000000002000c94c                HwSpinLockRelease
 .text.IntDefaultHandler
                0x000000002000c990        0x8 ../../../driverlib/gcc/lib/Debug/libdriver.a(interrupt.o)
 .text.IntMasterEnable
                0x000000002000c998       0x10 ../../../driverlib/gcc/lib/Debug/libdriver.a(interrupt.o)
                0x000000002000c998                IntMasterEnable
 .text.IntVTableBaseSet
                0x000000002000c9a8       0x1c ../../../driverlib/gcc/lib/Debug/libdriver.a(interrupt.o)
                0x000000002000c9a8                IntVTableBaseSet
 .text.IntRegister
                0x000000002000c9c4       0x2c ../../../driverlib/gcc/lib/Debug/libdriver.a(interrupt.o)
                0x000000002000c9c4                IntRegister
 .text.IntUnregister
                0x000000002000c9f0       0x2c ../../../driverlib/gcc/lib/Debug/libdriver.a(interrupt.o)
                0x000000002000c9f0                IntUnregister
 .text.IntPrioritySet
                0x000000002000ca1c       0x68 ../../../driverlib/gcc/lib/Debug/libdriver.a(interrupt.o)
                0x000000002000ca1c                IntPrioritySet
 .text.IntEnable
                0x000000002000ca84       0xbc ../../../driverlib/gcc/lib/Debug/libdriver.a(interrupt.o)
                0x000000002000ca84                IntEnable
 .text.IntDisable
                0x000000002000cb40       0xbc ../../../driverlib/gcc/lib/Debug/libdriver.a(interrupt.o)
                0x000000002000cb40                IntDisable
 .text.IntPendClear
                0x000000002000cbfc       0x68 ../../../driverlib/gcc/lib/Debug/libdriver.a(interrupt.o)
                0x000000002000cbfc                IntPendClear
 .text.PinModeSet
                0x000000002000cc64       0x48 ../../../driverlib/gcc/lib/Debug/libdriver.a(pin.o)
                0x000000002000cc64                PinModeSet
 .text.PinConfigSet
                0x000000002000ccac       0x98 ../../../driverlib/gcc/lib/Debug/libdriver.a(pin.o)
                0x000000002000ccac                PinConfigSet
 .text.PinTypeUART
                0x000000002000cd44       0x24 ../../../driverlib/gcc/lib/Debug/libdriver.a(pin.o)
                0x000000002000cd44                PinTypeUART
 .text.PinTypeGPIO
                0x000000002000cd68       0x3c ../../../driverlib/gcc/lib/Debug/libdriver.a(pin.o)
                0x000000002000cd68                PinTypeGPIO
 .text.PRCMSysResetCauseGet
                0x000000002000cda4       0x3c ../../../driverlib/gcc/lib/Debug/libdriver.a(prcm.o)
                0x000000002000cda4                PRCMSysResetCauseGet
 .text.PRCMPeripheralClkEnable
                0x000000002000cde0       0x5c ../../../driverlib/gcc/lib/Debug/libdriver.a(prcm.o)
                0x000000002000cde0                PRCMPeripheralClkEnable
 .text.PRCMPeripheralClkDisable
                0x000000002000ce3c       0x44 ../../../driverlib/gcc/lib/Debug/libdriver.a(prcm.o)
                0x000000002000ce3c                PRCMPeripheralClkDisable
 .text.PRCMPeripheralClockGet
                0x000000002000ce80       0xa8 ../../../driverlib/gcc/lib/Debug/libdriver.a(prcm.o)
                0x000000002000ce80                PRCMPeripheralClockGet
 .text.PRCMPeripheralReset
                0x000000002000cf28       0x8c ../../../driverlib/gcc/lib/Debug/libdriver.a(prcm.o)
                0x000000002000cf28                PRCMPeripheralReset
 .text.PRCMPeripheralStatusGet
                0x000000002000cfb4       0x40 ../../../driverlib/gcc/lib/Debug/libdriver.a(prcm.o)
                0x000000002000cfb4                PRCMPeripheralStatusGet
 .text.PRCMHibernateWakeupSourceEnable
                0x000000002000cff4       0x50 ../../../driverlib/gcc/lib/Debug/libdriver.a(prcm.o)
                0x000000002000cff4                PRCMHibernateWakeupSourceEnable
 .text.PRCMHibernateIntervalSet
                0x000000002000d044       0x9c ../../../driverlib/gcc/lib/Debug/libdriver.a(prcm.o)
                0x000000002000d044                PRCMHibernateIntervalSet
 .text.PRCMHibernateEnter
                0x000000002000d0e0       0x14 ../../../driverlib/gcc/lib/Debug/libdriver.a(prcm.o)
                0x000000002000d0e0                PRCMHibernateEnter
 .text.PRCMCC3200MCUInit
                0x000000002000d0f4      0x1a0 ../../../driverlib/gcc/lib/Debug/libdriver.a(prcm.o)
                0x000000002000d0f4                PRCMCC3200MCUInit
 .text.PRCMHIBRegRead
                0x000000002000d294       0x20 ../../../driverlib/gcc/lib/Debug/libdriver.a(prcm.o)
                0x000000002000d294                PRCMHIBRegRead
 .text.PRCMHIBRegWrite
                0x000000002000d2b4       0x20 ../../../driverlib/gcc/lib/Debug/libdriver.a(prcm.o)
                0x000000002000d2b4                PRCMHIBRegWrite
 .text.SPITransfer8
                0x000000002000d2d4       0xec ../../../driverlib/gcc/lib/Debug/libdriver.a(spi.o)
 .text.SPITransfer16
                0x000000002000d3c0      0x108 ../../../driverlib/gcc/lib/Debug/libdriver.a(spi.o)
 .text.SPITransfer32
                0x000000002000d4c8      0x104 ../../../driverlib/gcc/lib/Debug/libdriver.a(spi.o)
 .text.SPIDmaMaskGet
                0x000000002000d5cc       0x48 ../../../driverlib/gcc/lib/Debug/libdriver.a(spi.o)
 .text.SPIEnable
                0x000000002000d614       0x28 ../../../driverlib/gcc/lib/Debug/libdriver.a(spi.o)
                0x000000002000d614                SPIEnable
 .text.SPIDisable
                0x000000002000d63c       0x28 ../../../driverlib/gcc/lib/Debug/libdriver.a(spi.o)
                0x000000002000d63c                SPIDisable
 .text.SPIDmaEnable
                0x000000002000d664       0x2c ../../../driverlib/gcc/lib/Debug/libdriver.a(spi.o)
                0x000000002000d664                SPIDmaEnable
 .text.SPIReset
                0x000000002000d690       0x3c ../../../driverlib/gcc/lib/Debug/libdriver.a(spi.o)
                0x000000002000d690                SPIReset
 .text.SPIConfigSetExpClk
                0x000000002000d6cc       0xb8 ../../../driverlib/gcc/lib/Debug/libdriver.a(spi.o)
                0x000000002000d6cc                SPIConfigSetExpClk
 .text.SPIDataGet
                0x000000002000d784       0x34 ../../../driverlib/gcc/lib/Debug/libdriver.a(spi.o)
                0x000000002000d784                SPIDataGet
 .text.SPIDataPut
                0x000000002000d7b8       0x34 ../../../driverlib/gcc/lib/Debug/libdriver.a(spi.o)
                0x000000002000d7b8                SPIDataPut
 .text.SPIFIFOEnable
                0x000000002000d7ec       0x2c ../../../driverlib/gcc/lib/Debug/libdriver.a(spi.o)
                0x000000002000d7ec                SPIFIFOEnable
 .text.SPIFIFOLevelSet
                0x000000002000d818       0x44 ../../../driverlib/gcc/lib/Debug/libdriver.a(spi.o)
                0x000000002000d818                SPIFIFOLevelSet
 .text.SPIWordCountSet
                0x000000002000d85c       0x34 ../../../driverlib/gcc/lib/Debug/libdriver.a(spi.o)
                0x000000002000d85c                SPIWordCountSet
 .text.SPIIntEnable
                0x000000002000d890       0x6c ../../../driverlib/gcc/lib/Debug/libdriver.a(spi.o)
                0x000000002000d890                SPIIntEnable
 .text.SPICSEnable
                0x000000002000d8fc       0x28 ../../../driverlib/gcc/lib/Debug/libdriver.a(spi.o)
                0x000000002000d8fc                SPICSEnable
 .text.SPICSDisable
                0x000000002000d924       0x28 ../../../driverlib/gcc/lib/Debug/libdriver.a(spi.o)
                0x000000002000d924                SPICSDisable
 .text.SPITransfer
                0x000000002000d94c       0x90 ../../../driverlib/gcc/lib/Debug/libdriver.a(spi.o)
                0x000000002000d94c                SPITransfer
 .text.TimerEnable
                0x000000002000d9dc       0x2c ../../../driverlib/gcc/lib/Debug/libdriver.a(timer.o)
                0x000000002000d9dc                TimerEnable
 .text.TimerDisable
                0x000000002000da08       0x30 ../../../driverlib/gcc/lib/Debug/libdriver.a(timer.o)
                0x000000002000da08                TimerDisable
 .text.TimerConfigure
                0x000000002000da38       0x58 ../../../driverlib/gcc/lib/Debug/libdriver.a(timer.o)
                0x000000002000da38                TimerConfigure
 .text.TimerPrescaleSet
                0x000000002000da90       0x3c ../../../driverlib/gcc/lib/Debug/libdriver.a(timer.o)
                0x000000002000da90                TimerPrescaleSet
 .text.TimerLoadSet
                0x000000002000dacc       0x3c ../../../driverlib/gcc/lib/Debug/libdriver.a(timer.o)
                0x000000002000dacc                TimerLoadSet
 .text.TimerValueGet
                0x000000002000db08       0x28 ../../../driverlib/gcc/lib/Debug/libdriver.a(timer.o)
                0x000000002000db08                TimerValueGet
 .text.TimerIntUnregister
                0x000000002000db30       0x78 ../../../driverlib/gcc/lib/Debug/libdriver.a(timer.o)
                0x000000002000db30                TimerIntUnregister
 .text.TimerIntEnable
                0x000000002000dba8       0x28 ../../../driverlib/gcc/lib/Debug/libdriver.a(timer.o)
                0x000000002000dba8                TimerIntEnable
 .text.TimerIntDisable
                0x000000002000dbd0       0x28 ../../../driverlib/gcc/lib/Debug/libdriver.a(timer.o)
                0x000000002000dbd0                TimerIntDisable
 .text.TimerIntStatus
                0x000000002000dbf8       0x2c ../../../driverlib/gcc/lib/Debug/libdriver.a(timer.o)
                0x000000002000dbf8                TimerIntStatus
 .text.TimerIntClear
                0x000000002000dc24       0x20 ../../../driverlib/gcc/lib/Debug/libdriver.a(timer.o)
                0x000000002000dc24                TimerIntClear
 .text.UARTConfigSetExpClk
                0x000000002000dc44       0x98 ../../../driverlib/gcc/lib/Debug/libdriver.a(uart.o)
                0x000000002000dc44                UARTConfigSetExpClk
 .text.UARTEnable
                0x000000002000dcdc       0x3c ../../../driverlib/gcc/lib/Debug/libdriver.a(uart.o)
                0x000000002000dcdc                UARTEnable
 .text.UARTDisable
                0x000000002000dd18       0x4c ../../../driverlib/gcc/lib/Debug/libdriver.a(uart.o)
                0x000000002000dd18                UARTDisable
 .text.UARTCharsAvail
                0x000000002000dd64       0x28 ../../../driverlib/gcc/lib/Debug/libdriver.a(uart.o)
                0x000000002000dd64                UARTCharsAvail
 .text.UARTCharGetNonBlocking
                0x000000002000dd8c       0x2c ../../../driverlib/gcc/lib/Debug/libdriver.a(uart.o)
                0x000000002000dd8c                UARTCharGetNonBlocking
 .text.UARTCharPut
                0x000000002000ddb8       0x2c ../../../driverlib/gcc/lib/Debug/libdriver.a(uart.o)
                0x000000002000ddb8                UARTCharPut
 .text.uDMAChannelEnable
                0x000000002000dde4       0x28 ../../../driverlib/gcc/lib/Debug/libdriver.a(udma.o)
                0x000000002000dde4                uDMAChannelEnable
 .text.uDMAChannelRequest
                0x000000002000de0c       0x28 ../../../driverlib/gcc/lib/Debug/libdriver.a(udma.o)
                0x000000002000de0c                uDMAChannelRequest
 .text.uDMAChannelControlSet
                0x000000002000de34       0x48 ../../../driverlib/gcc/lib/Debug/libdriver.a(udma.o)
                0x000000002000de34                uDMAChannelControlSet
 .text.uDMAChannelTransferSet
                0x000000002000de7c      0x104 ../../../driverlib/gcc/lib/Debug/libdriver.a(udma.o)
                0x000000002000de7c                uDMAChannelTransferSet
 .text.UtilsDelay
                0x000000002000df80        0xc ../../../driverlib/gcc/lib/Debug/libdriver.a(utils.o)
                0x000000002000df80                UtilsDelay
 .text.CPUcpsie
                0x000000002000df8c       0x18 ../../../driverlib/gcc/lib/Debug/libdriver.a(cpu.o)
                0x000000002000df8c                CPUcpsie
 .text.malloc   0x000000002000dfa4       0x10 /usr/lib/gcc/arm-none-eabi/5.2.0/../../../../arm-none-eabi/lib/armv7e-m/libc_nano.a(lib_a-malloc.o)
                0x000000002000dfa4                malloc
 .text.free     0x000000002000dfb4       0x10 /usr/lib/gcc/arm-none-eabi/5.2.0/../../../../arm-none-eabi/lib/armv7e-m/libc_nano.a(lib_a-malloc.o)
                0x000000002000dfb4                free
 .text.memcmp   0x000000002000dfc4       0x1e /usr/lib/gcc/arm-none-eabi/5.2.0/../../../../arm-none-eabi/lib/armv7e-m/libc_nano.a(lib_a-memcmp.o)
                0x000000002000dfc4                memcmp
 .text.memcpy   0x000000002000dfe2       0x16 /usr/lib/gcc/arm-none-eabi/5.2.0/../../../../arm-none-eabi/lib/armv7e-m/libc_nano.a(lib_a-memcpy.o)
                0x000000002000dfe2                memcpy
 .text.memmove  0x000000002000dff8       0x36 /usr/lib/gcc/arm-none-eabi/5.2.0/../../../../arm-none-eabi/lib/armv7e-m/libc_nano.a(lib_a-memmove.o)
                0x000000002000dff8                memmove
 .text.memset   0x000000002000e02e       0x10 /usr/lib/gcc/arm-none-eabi/5.2.0/../../../../arm-none-eabi/lib/armv7e-m/libc_nano.a(lib_a-memset.o)
                0x000000002000e02e                memset
 *fill*         0x000000002000e03e        0x2 
 .text._free_r  0x000000002000e040       0x8c /usr/lib/gcc/arm-none-eabi/5.2.0/../../../../arm-none-eabi/lib/armv7e-m/libc_nano.a(lib_a-nano-freer.o)
                0x000000002000e040                _free_r
 .text._malloc_r
                0x000000002000e0cc       0xa8 /usr/lib/gcc/arm-none-eabi/5.2.0/../../../../arm-none-eabi/lib/armv7e-m/libc_nano.a(lib_a-nano-mallocr.o)
                0x000000002000e0cc                _malloc_r
 .text.realloc  0x000000002000e174       0x10 /usr/lib/gcc/arm-none-eabi/5.2.0/../../../../arm-none-eabi/lib/armv7e-m/libc_nano.a(lib_a-realloc.o)
                0x000000002000e174                realloc
 .text._sbrk_r  0x000000002000e184       0x20 /usr/lib/gcc/arm-none-eabi/5.2.0/../../../../arm-none-eabi/lib/armv7e-m/libc_nano.a(lib_a-sbrkr.o)
                0x000000002000e184                _sbrk_r
 .text.strlen   0x000000002000e1a4       0x10 /usr/lib/gcc/arm-none-eabi/5.2.0/../../../../arm-none-eabi/lib/armv7e-m/libc_nano.a(lib_a-strlen.o)
                0x000000002000e1a4                strlen
 .text.strncpy  0x000000002000e1b4       0x26 /usr/lib/gcc/arm-none-eabi/5.2.0/../../../../arm-none-eabi/lib/armv7e-m/libc_nano.a(lib_a-strncpy.o)
                0x000000002000e1b4                strncpy
 .text._vsnprintf_r
                0x000000002000e1da       0x56 /usr/lib/gcc/arm-none-eabi/5.2.0/../../../../arm-none-eabi/lib/armv7e-m/libc_nano.a(lib_a-vsnprintf.o)
                0x000000002000e1da                _vsnprintf_r
                0x000000002000e1da                _vsniprintf_r
 .text.vsnprintf
                0x000000002000e230       0x1c /usr/lib/gcc/arm-none-eabi/5.2.0/../../../../arm-none-eabi/lib/armv7e-m/libc_nano.a(lib_a-vsnprintf.o)
                0x000000002000e230                vsnprintf
                0x000000002000e230                vsniprintf
 .text._realloc_r
                0x000000002000e24c       0x4c /usr/lib/gcc/arm-none-eabi/5.2.0/../../../../arm-none-eabi/lib/armv7e-m/libc_nano.a(lib_a-nano-reallocr.o)
                0x000000002000e24c                _realloc_r
 .text.__ssputs_r
                0x000000002000e298       0xb2 /usr/lib/gcc/arm-none-eabi/5.2.0/../../../../arm-none-eabi/lib/armv7e-m/libc_nano.a(lib_a-nano-svfprintf.o)
                0x000000002000e298                __ssputs_r
 *fill*         0x000000002000e34a        0x2 
 .text._svfprintf_r
                0x000000002000e34c      0x1e8 /usr/lib/gcc/arm-none-eabi/5.2.0/../../../../arm-none-eabi/lib/armv7e-m/libc_nano.a(lib_a-nano-svfprintf.o)
                0x000000002000e34c                _svfprintf_r
                0x000000002000e34c                _svfiprintf_r
 .text._printf_common
                0x000000002000e534       0xec /usr/lib/gcc/arm-none-eabi/5.2.0/../../../../arm-none-eabi/lib/armv7e-m/libc_nano.a(lib_a-nano-vfprintf_i.o)
                0x000000002000e534                _printf_common
 .text._printf_i
                0x000000002000e620      0x24c /usr/lib/gcc/arm-none-eabi/5.2.0/../../../../arm-none-eabi/lib/armv7e-m/libc_nano.a(lib_a-nano-vfprintf_i.o)
                0x000000002000e620                _printf_i
 .text.memchr   0x000000002000e86c       0x1e /usr/lib/gcc/arm-none-eabi/5.2.0/../../../../arm-none-eabi/lib/armv7e-m/libc_nano.a(lib_a-memchr.o)
                0x000000002000e86c                memchr
 .text._malloc_usable_size_r
                0x000000002000e88a       0x14 /usr/lib/gcc/arm-none-eabi/5.2.0/../../../../arm-none-eabi/lib/armv7e-m/libc_nano.a(lib_a-nano-msizer.o)
                0x000000002000e88a                _malloc_usable_size_r
 *(.rodata*)
 *fill*         0x000000002000e89e        0x2 
 .rodata        0x000000002000e8a0      0x220 obj/Debug/main.o
 .rodata.__FUNCTION__.6502
                0x000000002000eac0       0x14 obj/Debug/main.o
 .rodata.__FUNCTION__.6514
                0x000000002000ead4        0x8 obj/Debug/main.o
 .rodata        0x000000002000eadc       0x2c obj/Debug/uart_if.o
 .rodata        0x000000002000eb08      0x6ec obj/Debug/network_if.o
 .rodata.__FUNCTION__.5920
                0x000000002000f1f4       0x24 obj/Debug/network_if.o
 .rodata.__FUNCTION__.5933
                0x000000002000f218       0x18 obj/Debug/network_if.o
 .rodata.__FUNCTION__.5953
                0x000000002000f230       0x18 obj/Debug/network_if.o
 .rodata.__FUNCTION__.5981
                0x000000002000f248       0x18 obj/Debug/network_if.o
 .rodata.StartResponseLUT
                0x000000002000f260        0x8 ../../../simplelink/gcc/lib/os_PM/Debug/libsimplelink.a(device.o)
 .rodata._SlStopCmdCtrl
                0x000000002000f268        0x4 ../../../simplelink/gcc/lib/os_PM/Debug/libsimplelink.a(device.o)
 .rodata._SlDeviceGetCmdCtrl
                0x000000002000f26c        0x4 ../../../simplelink/gcc/lib/os_PM/Debug/libsimplelink.a(device.o)
 .rodata.g_H2NSyncPattern
                0x000000002000f270        0x8 ../../../simplelink/gcc/lib/os_PM/Debug/libsimplelink.a(driver.o)
 .rodata.g_H2NCnysPattern
                0x000000002000f278        0x8 ../../../simplelink/gcc/lib/os_PM/Debug/libsimplelink.a(driver.o)
 .rodata._SlActionLookupTable
                0x000000002000f280       0x38 ../../../simplelink/gcc/lib/os_PM/Debug/libsimplelink.a(driver.o)
                0x000000002000f280                _SlActionLookupTable
 .rodata.OpcodeTranslateTable
                0x000000002000f2b8       0x3c ../../../simplelink/gcc/lib/os_PM/Debug/libsimplelink.a(driver.o)
                0x000000002000f2b8                OpcodeTranslateTable
 .rodata.RxMsgClassLUT
                0x000000002000f2f4       0x20 ../../../simplelink/gcc/lib/os_PM/Debug/libsimplelink.a(driver.o)
 .rodata._SlRegisterServiceCtrl
                0x000000002000f314        0x4 ../../../simplelink/gcc/lib/os_PM/Debug/libsimplelink.a(netapp.o)
 .rodata._SlNetAppSendTokenValueCmdCtrl
                0x000000002000f318        0x4 ../../../simplelink/gcc/lib/os_PM/Debug/libsimplelink.a(netapp.o)
                0x000000002000f318                _SlNetAppSendTokenValueCmdCtrl
 .rodata._SlNetCfgSetCmdCtrl
                0x000000002000f31c        0x4 ../../../simplelink/gcc/lib/os_PM/Debug/libsimplelink.a(netcfg.o)
 .rodata._SlNetCfgGetCmdCtrl
                0x000000002000f320        0x4 ../../../simplelink/gcc/lib/os_PM/Debug/libsimplelink.a(netcfg.o)
 .rodata._SlPayloadByProtocolLUT
                0x000000002000f324       0x10 ../../../simplelink/gcc/lib/os_PM/Debug/libsimplelink.a(socket.o)
 .rodata._SlSockSocketCmdCtrl
                0x000000002000f334        0x4 ../../../simplelink/gcc/lib/os_PM/Debug/libsimplelink.a(socket.o)
 .rodata._SlSockCloseCmdCtrl
                0x000000002000f338        0x4 ../../../simplelink/gcc/lib/os_PM/Debug/libsimplelink.a(socket.o)
 .rodata._SlPolicySetCmdCtrl
                0x000000002000f33c        0x4 ../../../simplelink/gcc/lib/os_PM/Debug/libsimplelink.a(wlan.o)
 .rodata._SlProfileDelCmdCtrl
                0x000000002000f340        0x4 ../../../simplelink/gcc/lib/os_PM/Debug/libsimplelink.a(wlan.o)
 .rodata._SlRxFilterSetCmdCtrl
                0x000000002000f344        0x4 ../../../simplelink/gcc/lib/os_PM/Debug/libsimplelink.a(wlan.o)
 .rodata._SlWlanSetModeCmdCtrl
                0x000000002000f348        0x4 ../../../simplelink/gcc/lib/os_PM/Debug/libsimplelink.a(wlan.o)
 .rodata._SlWlanCfgSetCmdCtrl
                0x000000002000f34c        0x4 ../../../simplelink/gcc/lib/os_PM/Debug/libsimplelink.a(wlan.o)
 .rodata        0x000000002000f350        0x8 ../../../oslib/gcc/free_rtos/Debug/free_rtos.a(osi_freertos.o)
 .rodata        0x000000002000f358       0x2c ../../../oslib/gcc/free_rtos/Debug/free_rtos.a(queue.o)
 .rodata        0x000000002000f384       0x44 ../../../oslib/gcc/free_rtos/Debug/free_rtos.a(tasks.o)
 .rodata.ucExpectedStackBytes.5776
                0x000000002000f3c8       0x14 ../../../oslib/gcc/free_rtos/Debug/free_rtos.a(tasks.o)
 .rodata        0x000000002000f3dc       0x40 ../../../oslib/gcc/free_rtos/Debug/free_rtos.a(port.o)
 .rodata        0x000000002000f41c       0x3c ../../../oslib/gcc/free_rtos/Debug/free_rtos.a(timers.o)
 .rodata.g_pulRegs
                0x000000002000f458       0xd4 ../../../driverlib/gcc/lib/Debug/libdriver.a(interrupt.o)
 .rodata.g_pulEnRegs
                0x000000002000f52c       0x18 ../../../driverlib/gcc/lib/Debug/libdriver.a(interrupt.o)
 .rodata.g_pulDisRegs
                0x000000002000f544       0x18 ../../../driverlib/gcc/lib/Debug/libdriver.a(interrupt.o)
 .rodata.g_pulUnpendRegs
                0x000000002000f55c       0x18 ../../../driverlib/gcc/lib/Debug/libdriver.a(interrupt.o)
 .rodata.g_ulPinToPadMap
                0x000000002000f574      0x100 ../../../driverlib/gcc/lib/Debug/libdriver.a(pin.o)
 .rodata.PRCM_PeriphRegsList
                0x000000002000f674       0xa8 ../../../driverlib/gcc/lib/Debug/libdriver.a(prcm.o)
 .rodata.g_ulSPIDmaMaskMap
                0x000000002000f71c       0x18 ../../../driverlib/gcc/lib/Debug/libdriver.a(spi.o)
 .rodata.str1.1
                0x000000002000f734        0x2 /usr/lib/gcc/arm-none-eabi/5.2.0/../../../../arm-none-eabi/lib/armv7e-m/libc_nano.a(lib_a-impure.o)
 .rodata.str1.1
                0x000000002000f736       0x11 /usr/lib/gcc/arm-none-eabi/5.2.0/../../../../arm-none-eabi/lib/armv7e-m/libc_nano.a(lib_a-nano-svfprintf.o)
 .rodata.str1.1
                0x000000002000f747       0x22 /usr/lib/gcc/arm-none-eabi/5.2.0/../../../../arm-none-eabi/lib/armv7e-m/libc_nano.a(lib_a-nano-vfprintf_i.o)
 *(.ARM.extab* .gnu.linkonce.armextab.*)
                0x000000002000f770                . = ALIGN (0x8)
 *fill*         0x000000002000f769        0x7 
                0x000000002000f770                _etext = .

.glue_7         0x000000002000f770        0x0
 .glue_7        0x0000000000000000        0x0 linker stubs

.glue_7t        0x000000002000f770        0x0
 .glue_7t       0x0000000000000000        0x0 linker stubs

.vfp11_veneer   0x000000002000f770        0x0
 .vfp11_veneer  0x0000000000000000        0x0 linker stubs

.v4_bx          0x000000002000f770        0x0
 .v4_bx         0x0000000000000000        0x0 linker stubs

.iplt           0x000000002000f770        0x0
 .iplt          0x0000000000000000        0x0 obj/Debug/main.o

.rel.dyn        0x000000002000f770        0x0
 .rel.iplt      0x0000000000000000        0x0 obj/Debug/main.o

.ARM            0x000000002000f770        0x0
                0x000000002000f770                __exidx_start = .
 *(.ARM.exidx*)
                0x000000002000f770                __exidx_end = .
                0x000000002000f770                __init_data = .

.data           0x000000002000f770       0x80
                0x000000002000f770                _data = .
 *(.data*)
 .data.ulReg    0x000000002000f770       0x14 obj/Debug/gpio_if.o
 .data.xNextTaskUnblockTime
                0x000000002000f784        0x4 ../../../oslib/gcc/free_rtos/Debug/free_rtos.a(tasks.o)
 .data.uxCriticalNesting
                0x000000002000f788        0x4 ../../../oslib/gcc/free_rtos/Debug/free_rtos.a(port.o)
 .data.impure_data
                0x000000002000f78c       0x60 /usr/lib/gcc/arm-none-eabi/5.2.0/../../../../arm-none-eabi/lib/armv7e-m/libc_nano.a(lib_a-impure.o)
 .data._impure_ptr
                0x000000002000f7ec        0x4 /usr/lib/gcc/arm-none-eabi/5.2.0/../../../../arm-none-eabi/lib/armv7e-m/libc_nano.a(lib_a-impure.o)
                0x000000002000f7ec                _impure_ptr
                0x000000002000f7f0                . = ALIGN (0x8)
                0x000000002000f7f0                _edata = .

.igot.plt       0x000000002000f7f0        0x0
 .igot.plt      0x0000000000000000        0x0 obj/Debug/main.o

.bss            0x000000002000f7f0     0x149c
                0x000000002000f7f0                _bss = .
 *(.bss*)
 .bss.SecurityParams
                0x000000002000f7f0        0xc obj/Debug/main.o
                0x000000002000f7f0                SecurityParams
 .bss.g_usTimerInts
                0x000000002000f7fc        0x2 obj/Debug/main.o
                0x000000002000f7fc                g_usTimerInts
 *fill*         0x000000002000f7fe        0x2 
 .bss.__Errorlog
                0x000000002000f800        0x4 obj/Debug/uart_if.o
 .bss.g_uiLED1Port
                0x000000002000f804        0x4 obj/Debug/gpio_if.o
                0x000000002000f804                g_uiLED1Port
 .bss.g_uiLED2Port
                0x000000002000f808        0x4 obj/Debug/gpio_if.o
                0x000000002000f808                g_uiLED2Port
 .bss.g_uiLED3Port
                0x000000002000f80c        0x4 obj/Debug/gpio_if.o
                0x000000002000f80c                g_uiLED3Port
 .bss.g_ulStatus
                0x000000002000f810        0x4 obj/Debug/network_if.o
                0x000000002000f810                g_ulStatus
 .bss.g_ulStaIp
                0x000000002000f814        0x4 obj/Debug/network_if.o
                0x000000002000f814                g_ulStaIp
 .bss.g_ulGatewayIP
                0x000000002000f818        0x4 obj/Debug/network_if.o
                0x000000002000f818                g_ulGatewayIP
 .bss.heap_end  0x000000002000f81c        0x4 obj/Debug/startup_gcc.o
 .bss.heap2_end
                0x000000002000f820        0x4 obj/Debug/startup_gcc.o
 .bss.pui32Stack
                0x000000002000f824     0x1000 obj/Debug/startup_gcc.o
 .bss.g_SlDeviceStatus
                0x0000000020010824        0x2 ../../../simplelink/gcc/lib/os_PM/Debug/libsimplelink.a(driver.o)
                0x0000000020010824                g_SlDeviceStatus
 *fill*         0x0000000020010826        0x2 
 .bss.g_StatMem
                0x0000000020010828      0x178 ../../../simplelink/gcc/lib/os_PM/Debug/libsimplelink.a(driver.o)
 .bss.g_pCB     0x00000000200109a0        0x4 ../../../simplelink/gcc/lib/os_PM/Debug/libsimplelink.a(driver.o)
                0x00000000200109a0                g_pCB
 .bss.pPingCallBackFunc
                0x00000000200109a4        0x4 ../../../simplelink/gcc/lib/os_PM/Debug/libsimplelink.a(driver.o)
                0x00000000200109a4                pPingCallBackFunc
 .bss.gFirstCmdMode
                0x00000000200109a8        0x1 ../../../simplelink/gcc/lib/os_PM/Debug/libsimplelink.a(driver.o)
 *fill*         0x00000000200109a9        0x3 
 .bss.xHigherPriorityTaskWoken
                0x00000000200109ac        0x4 ../../../oslib/gcc/free_rtos/Debug/free_rtos.a(osi_freertos.o)
                0x00000000200109ac                xHigherPriorityTaskWoken
 .bss.xSimpleLinkSpawnQueue
                0x00000000200109b0        0x4 ../../../oslib/gcc/free_rtos/Debug/free_rtos.a(osi_freertos.o)
                0x00000000200109b0                xSimpleLinkSpawnQueue
 .bss.xSimpleLinkSpawnTaskHndl
                0x00000000200109b4        0x4 ../../../oslib/gcc/free_rtos/Debug/free_rtos.a(osi_freertos.o)
                0x00000000200109b4                xSimpleLinkSpawnTaskHndl
 .bss.pxCurrentTCB
                0x00000000200109b8        0x4 ../../../oslib/gcc/free_rtos/Debug/free_rtos.a(tasks.o)
                0x00000000200109b8                pxCurrentTCB
 .bss.pxReadyTasksLists
                0x00000000200109bc       0xc8 ../../../oslib/gcc/free_rtos/Debug/free_rtos.a(tasks.o)
 .bss.xDelayedTaskList1
                0x0000000020010a84       0x14 ../../../oslib/gcc/free_rtos/Debug/free_rtos.a(tasks.o)
 .bss.xDelayedTaskList2
                0x0000000020010a98       0x14 ../../../oslib/gcc/free_rtos/Debug/free_rtos.a(tasks.o)
 .bss.pxDelayedTaskList
                0x0000000020010aac        0x4 ../../../oslib/gcc/free_rtos/Debug/free_rtos.a(tasks.o)
 .bss.pxOverflowDelayedTaskList
                0x0000000020010ab0        0x4 ../../../oslib/gcc/free_rtos/Debug/free_rtos.a(tasks.o)
 .bss.xPendingReadyList
                0x0000000020010ab4       0x14 ../../../oslib/gcc/free_rtos/Debug/free_rtos.a(tasks.o)
 .bss.xTasksWaitingTermination
                0x0000000020010ac8       0x14 ../../../oslib/gcc/free_rtos/Debug/free_rtos.a(tasks.o)
 .bss.uxTasksDeleted
                0x0000000020010adc        0x4 ../../../oslib/gcc/free_rtos/Debug/free_rtos.a(tasks.o)
 .bss.xSuspendedTaskList
                0x0000000020010ae0       0x14 ../../../oslib/gcc/free_rtos/Debug/free_rtos.a(tasks.o)
 .bss.xIdleTaskHandle
                0x0000000020010af4        0x4 ../../../oslib/gcc/free_rtos/Debug/free_rtos.a(tasks.o)
 .bss.uxCurrentNumberOfTasks
                0x0000000020010af8        0x4 ../../../oslib/gcc/free_rtos/Debug/free_rtos.a(tasks.o)
 .bss.xTickCount
                0x0000000020010afc        0x4 ../../../oslib/gcc/free_rtos/Debug/free_rtos.a(tasks.o)
 .bss.uxTopReadyPriority
                0x0000000020010b00        0x4 ../../../oslib/gcc/free_rtos/Debug/free_rtos.a(tasks.o)
 .bss.xSchedulerRunning
                0x0000000020010b04        0x4 ../../../oslib/gcc/free_rtos/Debug/free_rtos.a(tasks.o)
 .bss.uxPendedTicks
                0x0000000020010b08        0x4 ../../../oslib/gcc/free_rtos/Debug/free_rtos.a(tasks.o)
 .bss.xYieldPending
                0x0000000020010b0c        0x4 ../../../oslib/gcc/free_rtos/Debug/free_rtos.a(tasks.o)
 .bss.xNumOfOverflows
                0x0000000020010b10        0x4 ../../../oslib/gcc/free_rtos/Debug/free_rtos.a(tasks.o)
 .bss.uxTaskNumber
                0x0000000020010b14        0x4 ../../../oslib/gcc/free_rtos/Debug/free_rtos.a(tasks.o)
 .bss.uxSchedulerSuspended
                0x0000000020010b18        0x4 ../../../oslib/gcc/free_rtos/Debug/free_rtos.a(tasks.o)
 .bss.ucMaxSysCallPriority
                0x0000000020010b1c        0x1 ../../../oslib/gcc/free_rtos/Debug/free_rtos.a(port.o)
 *fill*         0x0000000020010b1d        0x3 
 .bss.ulMaxPRIGROUPValue
                0x0000000020010b20        0x4 ../../../oslib/gcc/free_rtos/Debug/free_rtos.a(port.o)
 .bss.xActiveTimerList1
                0x0000000020010b24       0x14 ../../../oslib/gcc/free_rtos/Debug/free_rtos.a(timers.o)
 .bss.xActiveTimerList2
                0x0000000020010b38       0x14 ../../../oslib/gcc/free_rtos/Debug/free_rtos.a(timers.o)
 .bss.pxCurrentTimerList
                0x0000000020010b4c        0x4 ../../../oslib/gcc/free_rtos/Debug/free_rtos.a(timers.o)
 .bss.pxOverflowTimerList
                0x0000000020010b50        0x4 ../../../oslib/gcc/free_rtos/Debug/free_rtos.a(timers.o)
 .bss.xTimerQueue
                0x0000000020010b54        0x4 ../../../oslib/gcc/free_rtos/Debug/free_rtos.a(timers.o)
 .bss.xTimerTaskHandle
                0x0000000020010b58        0x4 ../../../oslib/gcc/free_rtos/Debug/free_rtos.a(timers.o)
 .bss.xLastTime.4980
                0x0000000020010b5c        0x4 ../../../oslib/gcc/free_rtos/Debug/free_rtos.a(timers.o)
 .bss.__malloc_sbrk_start
                0x0000000020010b60        0x4 /usr/lib/gcc/arm-none-eabi/5.2.0/../../../../arm-none-eabi/lib/armv7e-m/libc_nano.a(lib_a-nano-mallocr.o)
                0x0000000020010b60                __malloc_sbrk_start
 .bss.__malloc_free_list
                0x0000000020010b64        0x4 /usr/lib/gcc/arm-none-eabi/5.2.0/../../../../arm-none-eabi/lib/armv7e-m/libc_nano.a(lib_a-nano-mallocr.o)
                0x0000000020010b64                __malloc_free_list
 *(COMMON)
 COMMON         0x0000000020010b68        0x3 obj/Debug/gpio_if.o
                0x0000000020010b68                g_ucLED1Pin
                0x0000000020010b69                g_ucLED2Pin
                0x0000000020010b6a                g_ucLED3Pin
 *fill*         0x0000000020010b6b        0x1 
 COMMON         0x0000000020010b6c       0x2d obj/Debug/network_if.o
                0x0000000020010b6c                g_usConnectIndex
                0x0000000020010b70                g_ucConnectionBSSID
                0x0000000020010b78                g_ucConnectionSSID
 COMMON         0x0000000020010b99        0x2 ../../../simplelink/gcc/lib/os_PM/Debug/libsimplelink.a(driver.o)
                0x0000000020010b99                g_bDeviceRestartIsRequired
                0x0000000020010b9a                RxIrqCnt
 *fill*         0x0000000020010b9b        0x1 
 COMMON         0x0000000020010b9c       0x9c ../../../middleware/gcc/lib/Debug/middleware.a(spi_drv.o)
                0x0000000020010b9c                spi_rtos_drv
 COMMON         0x0000000020010c38       0x50 ../../../oslib/gcc/free_rtos/Debug/free_rtos.a(queue.o)
                0x0000000020010c38                xQueueRegistry
 COMMON         0x0000000020010c88        0x4 /usr/lib/gcc/arm-none-eabi/5.2.0/../../../../arm-none-eabi/lib/armv7e-m/libc_nano.a(lib_a-reent.o)
                0x0000000020010c88                errno
                0x0000000020010c8c                _ebss = .

.heap           0x0000000020010c8c    0x2ef74
                0x0000000020010c8c                _heap = .
                0x000000002003fc00                . = (((((((. + 0x40000) - SIZEOF (.bss)) - SIZEOF (.data)) - SIZEOF (.ARM)) - SIZEOF (.text)) - SIZEOF (.bootloader)) - 0x400)
 *fill*         0x0000000020010c8c    0x2ef74 
                0x000000002003fc00                . = ALIGN (0x400)
                0x000000002003fc00                _eheap = .
LOAD obj/Debug/main.o
LOAD obj/Debug/pinmux.o
LOAD obj/Debug/uart_if.o
LOAD obj/Debug/timer_if.o
LOAD obj/Debug/gpio_if.o
LOAD obj/Debug/utils_if.o
LOAD obj/Debug/network_if.o
LOAD obj/Debug/startup_gcc.o
LOAD ../../../simplelink/gcc/lib/os_PM/Debug/libsimplelink.a
LOAD ../../../middleware/gcc/lib/Debug/middleware.a
LOAD ../../../oslib/gcc/free_rtos/Debug/free_rtos.a
LOAD ../../../driverlib/gcc/lib/Debug/libdriver.a
LOAD /usr/lib/gcc/arm-none-eabi/5.2.0/../../../../arm-none-eabi/lib/armv7e-m/libc_nano.a
LOAD /usr/lib/gcc/arm-none-eabi/5.2.0/../../../../arm-none-eabi/lib/armv7e-m/libm.a
LOAD /usr/lib/gcc/arm-none-eabi/5.2.0/armv7e-m/libgcc.a
LOAD /usr/lib/gcc/arm-none-eabi/5.2.0/../../../../arm-none-eabi/lib/armv7e-m/libnosys.a
OUTPUT(bin/Debug/hib.elf elf32-littlearm)

.debug_info     0x0000000000000000    0x1a8d5
 .debug_info    0x0000000000000000      0x3f2 obj/Debug/main.o
 .debug_info    0x00000000000003f2       0x45 obj/Debug/pinmux.o
 .debug_info    0x0000000000000437      0x2ac obj/Debug/uart_if.o
 .debug_info    0x00000000000006e3      0x2b4 obj/Debug/timer_if.o
 .debug_info    0x0000000000000997      0x3e6 obj/Debug/gpio_if.o
 .debug_info    0x0000000000000d7d       0xa5 obj/Debug/utils_if.o
 .debug_info    0x0000000000000e22     0x1191 obj/Debug/network_if.o
 .debug_info    0x0000000000001fb3      0x20f obj/Debug/startup_gcc.o
 .debug_info    0x00000000000021c2      0xf4e ../../../simplelink/gcc/lib/os_PM/Debug/libsimplelink.a(device.o)
 .debug_info    0x0000000000003110     0x1bd5 ../../../simplelink/gcc/lib/os_PM/Debug/libsimplelink.a(driver.o)
 .debug_info    0x0000000000004ce5     0x1943 ../../../simplelink/gcc/lib/os_PM/Debug/libsimplelink.a(netapp.o)
 .debug_info    0x0000000000006628      0x3ec ../../../simplelink/gcc/lib/os_PM/Debug/libsimplelink.a(netcfg.o)
 .debug_info    0x0000000000006a14     0x1a88 ../../../simplelink/gcc/lib/os_PM/Debug/libsimplelink.a(socket.o)
 .debug_info    0x000000000000849c     0x1aaa ../../../simplelink/gcc/lib/os_PM/Debug/libsimplelink.a(wlan.o)
 .debug_info    0x0000000000009f46      0x31f ../../../simplelink/gcc/lib/os_PM/Debug/libsimplelink.a(cc_pal_pm.o)
 .debug_info    0x000000000000a265      0xe84 ../../../middleware/gcc/lib/Debug/middleware.a(spi_drv.o)
 .debug_info    0x000000000000b0e9      0x9cf ../../../middleware/gcc/lib/Debug/middleware.a(dma_hal.o)
 .debug_info    0x000000000000bab8      0x934 ../../../middleware/gcc/lib/Debug/middleware.a(spi_hal.o)
 .debug_info    0x000000000000c3ec      0x8d9 ../../../oslib/gcc/free_rtos/Debug/free_rtos.a(osi_freertos.o)
 .debug_info    0x000000000000ccc5      0xd88 ../../../oslib/gcc/free_rtos/Debug/free_rtos.a(queue.o)
 .debug_info    0x000000000000da4d     0x1790 ../../../oslib/gcc/free_rtos/Debug/free_rtos.a(tasks.o)
 .debug_info    0x000000000000f1dd      0x317 ../../../oslib/gcc/free_rtos/Debug/free_rtos.a(port.o)
 .debug_info    0x000000000000f4f4      0x9f1 ../../../oslib/gcc/free_rtos/Debug/free_rtos.a(timers.o)
 .debug_info    0x000000000000fee5       0xed ../../../oslib/gcc/free_rtos/Debug/free_rtos.a(heap_3.o)
 .debug_info    0x000000000000ffd2      0x29d ../../../oslib/gcc/free_rtos/Debug/free_rtos.a(list.o)
 .debug_info    0x000000000001026f      0x3b0 ../../../driverlib/gcc/lib/Debug/libdriver.a(gpio.o)
 .debug_info    0x000000000001061f      0x20c ../../../driverlib/gcc/lib/Debug/libdriver.a(hwspinlock.o)
 .debug_info    0x000000000001082b      0x383 ../../../driverlib/gcc/lib/Debug/libdriver.a(interrupt.o)
 .debug_info    0x0000000000010bae      0x3eb ../../../driverlib/gcc/lib/Debug/libdriver.a(pin.o)
 .debug_info    0x0000000000010f99      0xa3d ../../../driverlib/gcc/lib/Debug/libdriver.a(prcm.o)
 .debug_info    0x00000000000119d6      0x9be ../../../driverlib/gcc/lib/Debug/libdriver.a(spi.o)
 .debug_info    0x0000000000012394      0x5c1 ../../../driverlib/gcc/lib/Debug/libdriver.a(timer.o)
 .debug_info    0x0000000000012955      0x82e ../../../driverlib/gcc/lib/Debug/libdriver.a(uart.o)
 .debug_info    0x0000000000013183      0x53f ../../../driverlib/gcc/lib/Debug/libdriver.a(udma.o)
 .debug_info    0x00000000000136c2       0x50 ../../../driverlib/gcc/lib/Debug/libdriver.a(utils.o)
 .debug_info    0x0000000000013712       0xfe ../../../driverlib/gcc/lib/Debug/libdriver.a(cpu.o)
 .debug_info    0x0000000000013810      0x7b2 /usr/lib/gcc/arm-none-eabi/5.2.0/../../../../arm-none-eabi/lib/armv7e-m/libc_nano.a(lib_a-malloc.o)
 .debug_info    0x0000000000013fc2       0xf8 /usr/lib/gcc/arm-none-eabi/5.2.0/../../../../arm-none-eabi/lib/armv7e-m/libc_nano.a(lib_a-memcmp.o)
 .debug_info    0x00000000000140ba      0x115 /usr/lib/gcc/arm-none-eabi/5.2.0/../../../../arm-none-eabi/lib/armv7e-m/libc_nano.a(lib_a-memcpy.o)
 .debug_info    0x00000000000141cf      0x109 /usr/lib/gcc/arm-none-eabi/5.2.0/../../../../arm-none-eabi/lib/armv7e-m/libc_nano.a(lib_a-memmove.o)
 .debug_info    0x00000000000142d8       0xda /usr/lib/gcc/arm-none-eabi/5.2.0/../../../../arm-none-eabi/lib/armv7e-m/libc_nano.a(lib_a-memset.o)
 .debug_info    0x00000000000143b2      0x821 /usr/lib/gcc/arm-none-eabi/5.2.0/../../../../arm-none-eabi/lib/armv7e-m/libc_nano.a(lib_a-nano-freer.o)
 .debug_info    0x0000000000014bd3      0x8ec /usr/lib/gcc/arm-none-eabi/5.2.0/../../../../arm-none-eabi/lib/armv7e-m/libc_nano.a(lib_a-nano-mallocr.o)
 .debug_info    0x00000000000154bf      0x786 /usr/lib/gcc/arm-none-eabi/5.2.0/../../../../arm-none-eabi/lib/armv7e-m/libc_nano.a(lib_a-realloc.o)
 .debug_info    0x0000000000015c45      0x7a1 /usr/lib/gcc/arm-none-eabi/5.2.0/../../../../arm-none-eabi/lib/armv7e-m/libc_nano.a(lib_a-sbrkr.o)
 .debug_info    0x00000000000163e6       0xd4 /usr/lib/gcc/arm-none-eabi/5.2.0/../../../../arm-none-eabi/lib/armv7e-m/libc_nano.a(lib_a-strlen.o)
 .debug_info    0x00000000000164ba      0x10a /usr/lib/gcc/arm-none-eabi/5.2.0/../../../../arm-none-eabi/lib/armv7e-m/libc_nano.a(lib_a-strncpy.o)
 .debug_info    0x00000000000165c4      0x892 /usr/lib/gcc/arm-none-eabi/5.2.0/../../../../arm-none-eabi/lib/armv7e-m/libc_nano.a(lib_a-vsnprintf.o)
 .debug_info    0x0000000000016e56      0x7da /usr/lib/gcc/arm-none-eabi/5.2.0/../../../../arm-none-eabi/lib/armv7e-m/libc_nano.a(lib_a-impure.o)
 .debug_info    0x0000000000017630      0x878 /usr/lib/gcc/arm-none-eabi/5.2.0/../../../../arm-none-eabi/lib/armv7e-m/libc_nano.a(lib_a-nano-reallocr.o)
 .debug_info    0x0000000000017ea8      0xd40 /usr/lib/gcc/arm-none-eabi/5.2.0/../../../../arm-none-eabi/lib/armv7e-m/libc_nano.a(lib_a-nano-svfprintf.o)
 .debug_info    0x0000000000018be8      0xb33 /usr/lib/gcc/arm-none-eabi/5.2.0/../../../../arm-none-eabi/lib/armv7e-m/libc_nano.a(lib_a-nano-vfprintf_i.o)
 .debug_info    0x000000000001971b      0x8fb /usr/lib/gcc/arm-none-eabi/5.2.0/../../../../arm-none-eabi/lib/armv7e-m/libc_nano.a(lib_a-reent.o)
 .debug_info    0x000000000001a016       0xff /usr/lib/gcc/arm-none-eabi/5.2.0/../../../../arm-none-eabi/lib/armv7e-m/libc_nano.a(lib_a-memchr.o)
 .debug_info    0x000000000001a115      0x7c0 /usr/lib/gcc/arm-none-eabi/5.2.0/../../../../arm-none-eabi/lib/armv7e-m/libc_nano.a(lib_a-nano-msizer.o)

.debug_abbrev   0x0000000000000000     0x4fa8
 .debug_abbrev  0x0000000000000000      0x1cd obj/Debug/main.o
 .debug_abbrev  0x00000000000001cd       0x37 obj/Debug/pinmux.o
 .debug_abbrev  0x0000000000000204      0x147 obj/Debug/uart_if.o
 .debug_abbrev  0x000000000000034b       0xde obj/Debug/timer_if.o
 .debug_abbrev  0x0000000000000429      0x135 obj/Debug/gpio_if.o
 .debug_abbrev  0x000000000000055e       0x6d obj/Debug/utils_if.o
 .debug_abbrev  0x00000000000005cb      0x2f7 obj/Debug/network_if.o
 .debug_abbrev  0x00000000000008c2      0x10b obj/Debug/startup_gcc.o
 .debug_abbrev  0x00000000000009cd      0x25e ../../../simplelink/gcc/lib/os_PM/Debug/libsimplelink.a(device.o)
 .debug_abbrev  0x0000000000000c2b      0x28e ../../../simplelink/gcc/lib/os_PM/Debug/libsimplelink.a(driver.o)
 .debug_abbrev  0x0000000000000eb9      0x29d ../../../simplelink/gcc/lib/os_PM/Debug/libsimplelink.a(netapp.o)
 .debug_abbrev  0x0000000000001156      0x142 ../../../simplelink/gcc/lib/os_PM/Debug/libsimplelink.a(netcfg.o)
 .debug_abbrev  0x0000000000001298      0x2d4 ../../../simplelink/gcc/lib/os_PM/Debug/libsimplelink.a(socket.o)
 .debug_abbrev  0x000000000000156c      0x252 ../../../simplelink/gcc/lib/os_PM/Debug/libsimplelink.a(wlan.o)
 .debug_abbrev  0x00000000000017be      0x138 ../../../simplelink/gcc/lib/os_PM/Debug/libsimplelink.a(cc_pal_pm.o)
 .debug_abbrev  0x00000000000018f6      0x27e ../../../middleware/gcc/lib/Debug/middleware.a(spi_drv.o)
 .debug_abbrev  0x0000000000001b74      0x236 ../../../middleware/gcc/lib/Debug/middleware.a(dma_hal.o)
 .debug_abbrev  0x0000000000001daa      0x257 ../../../middleware/gcc/lib/Debug/middleware.a(spi_hal.o)
 .debug_abbrev  0x0000000000002001      0x207 ../../../oslib/gcc/free_rtos/Debug/free_rtos.a(osi_freertos.o)
 .debug_abbrev  0x0000000000002208      0x18f ../../../oslib/gcc/free_rtos/Debug/free_rtos.a(queue.o)
 .debug_abbrev  0x0000000000002397      0x2a3 ../../../oslib/gcc/free_rtos/Debug/free_rtos.a(tasks.o)
 .debug_abbrev  0x000000000000263a      0x1a4 ../../../oslib/gcc/free_rtos/Debug/free_rtos.a(port.o)
 .debug_abbrev  0x00000000000027de      0x1c5 ../../../oslib/gcc/free_rtos/Debug/free_rtos.a(timers.o)
 .debug_abbrev  0x00000000000029a3       0xb9 ../../../oslib/gcc/free_rtos/Debug/free_rtos.a(heap_3.o)
 .debug_abbrev  0x0000000000002a5c       0xbe ../../../oslib/gcc/free_rtos/Debug/free_rtos.a(list.o)
 .debug_abbrev  0x0000000000002b1a      0x130 ../../../driverlib/gcc/lib/Debug/libdriver.a(gpio.o)
 .debug_abbrev  0x0000000000002c4a       0xa4 ../../../driverlib/gcc/lib/Debug/libdriver.a(hwspinlock.o)
 .debug_abbrev  0x0000000000002cee      0x145 ../../../driverlib/gcc/lib/Debug/libdriver.a(interrupt.o)
 .debug_abbrev  0x0000000000002e33       0xf4 ../../../driverlib/gcc/lib/Debug/libdriver.a(pin.o)
 .debug_abbrev  0x0000000000002f27      0x1cc ../../../driverlib/gcc/lib/Debug/libdriver.a(prcm.o)
 .debug_abbrev  0x00000000000030f3      0x131 ../../../driverlib/gcc/lib/Debug/libdriver.a(spi.o)
 .debug_abbrev  0x0000000000003224       0xde ../../../driverlib/gcc/lib/Debug/libdriver.a(timer.o)
 .debug_abbrev  0x0000000000003302      0x131 ../../../driverlib/gcc/lib/Debug/libdriver.a(uart.o)
 .debug_abbrev  0x0000000000003433      0x182 ../../../driverlib/gcc/lib/Debug/libdriver.a(udma.o)
 .debug_abbrev  0x00000000000035b5       0x48 ../../../driverlib/gcc/lib/Debug/libdriver.a(utils.o)
 .debug_abbrev  0x00000000000035fd       0xb4 ../../../driverlib/gcc/lib/Debug/libdriver.a(cpu.o)
 .debug_abbrev  0x00000000000036b1      0x18a /usr/lib/gcc/arm-none-eabi/5.2.0/../../../../arm-none-eabi/lib/armv7e-m/libc_nano.a(lib_a-malloc.o)
 .debug_abbrev  0x000000000000383b       0x7f /usr/lib/gcc/arm-none-eabi/5.2.0/../../../../arm-none-eabi/lib/armv7e-m/libc_nano.a(lib_a-memcmp.o)
 .debug_abbrev  0x00000000000038ba       0xab /usr/lib/gcc/arm-none-eabi/5.2.0/../../../../arm-none-eabi/lib/armv7e-m/libc_nano.a(lib_a-memcpy.o)
 .debug_abbrev  0x0000000000003965       0x9c /usr/lib/gcc/arm-none-eabi/5.2.0/../../../../arm-none-eabi/lib/armv7e-m/libc_nano.a(lib_a-memmove.o)
 .debug_abbrev  0x0000000000003a01       0x8e /usr/lib/gcc/arm-none-eabi/5.2.0/../../../../arm-none-eabi/lib/armv7e-m/libc_nano.a(lib_a-memset.o)
 .debug_abbrev  0x0000000000003a8f      0x1b6 /usr/lib/gcc/arm-none-eabi/5.2.0/../../../../arm-none-eabi/lib/armv7e-m/libc_nano.a(lib_a-nano-freer.o)
 .debug_abbrev  0x0000000000003c45      0x24e /usr/lib/gcc/arm-none-eabi/5.2.0/../../../../arm-none-eabi/lib/armv7e-m/libc_nano.a(lib_a-nano-mallocr.o)
 .debug_abbrev  0x0000000000003e93      0x17f /usr/lib/gcc/arm-none-eabi/5.2.0/../../../../arm-none-eabi/lib/armv7e-m/libc_nano.a(lib_a-realloc.o)
 .debug_abbrev  0x0000000000004012      0x1a0 /usr/lib/gcc/arm-none-eabi/5.2.0/../../../../arm-none-eabi/lib/armv7e-m/libc_nano.a(lib_a-sbrkr.o)
 .debug_abbrev  0x00000000000041b2       0x8c /usr/lib/gcc/arm-none-eabi/5.2.0/../../../../arm-none-eabi/lib/armv7e-m/libc_nano.a(lib_a-strlen.o)
 .debug_abbrev  0x000000000000423e       0x97 /usr/lib/gcc/arm-none-eabi/5.2.0/../../../../arm-none-eabi/lib/armv7e-m/libc_nano.a(lib_a-strncpy.o)
 .debug_abbrev  0x00000000000042d5      0x1bd /usr/lib/gcc/arm-none-eabi/5.2.0/../../../../arm-none-eabi/lib/armv7e-m/libc_nano.a(lib_a-vsnprintf.o)
 .debug_abbrev  0x0000000000004492      0x136 /usr/lib/gcc/arm-none-eabi/5.2.0/../../../../arm-none-eabi/lib/armv7e-m/libc_nano.a(lib_a-impure.o)
 .debug_abbrev  0x00000000000045c8      0x1af /usr/lib/gcc/arm-none-eabi/5.2.0/../../../../arm-none-eabi/lib/armv7e-m/libc_nano.a(lib_a-nano-reallocr.o)
 .debug_abbrev  0x0000000000004777      0x23f /usr/lib/gcc/arm-none-eabi/5.2.0/../../../../arm-none-eabi/lib/armv7e-m/libc_nano.a(lib_a-nano-svfprintf.o)
 .debug_abbrev  0x00000000000049b6      0x1f4 /usr/lib/gcc/arm-none-eabi/5.2.0/../../../../arm-none-eabi/lib/armv7e-m/libc_nano.a(lib_a-nano-vfprintf_i.o)
 .debug_abbrev  0x0000000000004baa      0x1f2 /usr/lib/gcc/arm-none-eabi/5.2.0/../../../../arm-none-eabi/lib/armv7e-m/libc_nano.a(lib_a-reent.o)
 .debug_abbrev  0x0000000000004d9c       0xab /usr/lib/gcc/arm-none-eabi/5.2.0/../../../../arm-none-eabi/lib/armv7e-m/libc_nano.a(lib_a-memchr.o)
 .debug_abbrev  0x0000000000004e47      0x161 /usr/lib/gcc/arm-none-eabi/5.2.0/../../../../arm-none-eabi/lib/armv7e-m/libc_nano.a(lib_a-nano-msizer.o)

.debug_aranges  0x0000000000000000     0x19a8
 .debug_aranges
                0x0000000000000000       0x58 obj/Debug/main.o
 .debug_aranges
                0x0000000000000058       0x20 obj/Debug/pinmux.o
 .debug_aranges
                0x0000000000000078       0x50 obj/Debug/uart_if.o
 .debug_aranges
                0x00000000000000c8       0x60 obj/Debug/timer_if.o
 .debug_aranges
                0x0000000000000128       0x68 obj/Debug/gpio_if.o
 .debug_aranges
                0x0000000000000190       0x28 obj/Debug/utils_if.o
 .debug_aranges
                0x00000000000001b8       0xc8 obj/Debug/network_if.o
 .debug_aranges
                0x0000000000000280       0x48 obj/Debug/startup_gcc.o
 .debug_aranges
                0x00000000000002c8       0x70 ../../../simplelink/gcc/lib/os_PM/Debug/libsimplelink.a(device.o)
 .debug_aranges
                0x0000000000000338      0x130 ../../../simplelink/gcc/lib/os_PM/Debug/libsimplelink.a(driver.o)
 .debug_aranges
                0x0000000000000468       0xa8 ../../../simplelink/gcc/lib/os_PM/Debug/libsimplelink.a(netapp.o)
 .debug_aranges
                0x0000000000000510       0x28 ../../../simplelink/gcc/lib/os_PM/Debug/libsimplelink.a(netcfg.o)
 .debug_aranges
                0x0000000000000538       0xe0 ../../../simplelink/gcc/lib/os_PM/Debug/libsimplelink.a(socket.o)
 .debug_aranges
                0x0000000000000618       0xb0 ../../../simplelink/gcc/lib/os_PM/Debug/libsimplelink.a(wlan.o)
 .debug_aranges
                0x00000000000006c8       0x88 ../../../simplelink/gcc/lib/os_PM/Debug/libsimplelink.a(cc_pal_pm.o)
 .debug_aranges
                0x0000000000000750       0xa8 ../../../middleware/gcc/lib/Debug/middleware.a(spi_drv.o)
 .debug_aranges
                0x00000000000007f8       0xc8 ../../../middleware/gcc/lib/Debug/middleware.a(dma_hal.o)
 .debug_aranges
                0x00000000000008c0       0x88 ../../../middleware/gcc/lib/Debug/middleware.a(spi_hal.o)
 .debug_aranges
                0x0000000000000948      0x128 ../../../oslib/gcc/free_rtos/Debug/free_rtos.a(osi_freertos.o)
 .debug_aranges
                0x0000000000000a70      0x120 ../../../oslib/gcc/free_rtos/Debug/free_rtos.a(queue.o)
 .debug_aranges
                0x0000000000000b90      0x1e8 ../../../oslib/gcc/free_rtos/Debug/free_rtos.a(tasks.o)
 .debug_aranges
                0x0000000000000d78       0x90 ../../../oslib/gcc/free_rtos/Debug/free_rtos.a(port.o)
 .debug_aranges
                0x0000000000000e08       0xb0 ../../../oslib/gcc/free_rtos/Debug/free_rtos.a(timers.o)
 .debug_aranges
                0x0000000000000eb8       0x28 ../../../oslib/gcc/free_rtos/Debug/free_rtos.a(heap_3.o)
 .debug_aranges
                0x0000000000000ee0       0x40 ../../../oslib/gcc/free_rtos/Debug/free_rtos.a(list.o)
 .debug_aranges
                0x0000000000000f20       0x90 ../../../driverlib/gcc/lib/Debug/libdriver.a(gpio.o)
 .debug_aranges
                0x0000000000000fb0       0x38 ../../../driverlib/gcc/lib/Debug/libdriver.a(hwspinlock.o)
 .debug_aranges
                0x0000000000000fe8       0x98 ../../../driverlib/gcc/lib/Debug/libdriver.a(interrupt.o)
 .debug_aranges
                0x0000000000001080       0x90 ../../../driverlib/gcc/lib/Debug/libdriver.a(pin.o)
 .debug_aranges
                0x0000000000001110      0x1b8 ../../../driverlib/gcc/lib/Debug/libdriver.a(prcm.o)
 .debug_aranges
                0x00000000000012c8      0x100 ../../../driverlib/gcc/lib/Debug/libdriver.a(spi.o)
 .debug_aranges
                0x00000000000013c8       0xd8 ../../../driverlib/gcc/lib/Debug/libdriver.a(timer.o)
 .debug_aranges
                0x00000000000014a0      0x140 ../../../driverlib/gcc/lib/Debug/libdriver.a(uart.o)
 .debug_aranges
                0x00000000000015e0       0xd8 ../../../driverlib/gcc/lib/Debug/libdriver.a(udma.o)
 .debug_aranges
                0x00000000000016b8       0x20 ../../../driverlib/gcc/lib/Debug/libdriver.a(utils.o)
 .debug_aranges
                0x00000000000016d8       0x48 ../../../driverlib/gcc/lib/Debug/libdriver.a(cpu.o)
 .debug_aranges
                0x0000000000001720       0x28 /usr/lib/gcc/arm-none-eabi/5.2.0/../../../../arm-none-eabi/lib/armv7e-m/libc_nano.a(lib_a-malloc.o)
 .debug_aranges
                0x0000000000001748       0x20 /usr/lib/gcc/arm-none-eabi/5.2.0/../../../../arm-none-eabi/lib/armv7e-m/libc_nano.a(lib_a-memcmp.o)
 .debug_aranges
                0x0000000000001768       0x20 /usr/lib/gcc/arm-none-eabi/5.2.0/../../../../arm-none-eabi/lib/armv7e-m/libc_nano.a(lib_a-memcpy.o)
 .debug_aranges
                0x0000000000001788       0x20 /usr/lib/gcc/arm-none-eabi/5.2.0/../../../../arm-none-eabi/lib/armv7e-m/libc_nano.a(lib_a-memmove.o)
 .debug_aranges
                0x00000000000017a8       0x20 /usr/lib/gcc/arm-none-eabi/5.2.0/../../../../arm-none-eabi/lib/armv7e-m/libc_nano.a(lib_a-memset.o)
 .debug_aranges
                0x00000000000017c8       0x20 /usr/lib/gcc/arm-none-eabi/5.2.0/../../../../arm-none-eabi/lib/armv7e-m/libc_nano.a(lib_a-nano-freer.o)
 .debug_aranges
                0x00000000000017e8       0x20 /usr/lib/gcc/arm-none-eabi/5.2.0/../../../../arm-none-eabi/lib/armv7e-m/libc_nano.a(lib_a-nano-mallocr.o)
 .debug_aranges
                0x0000000000001808       0x20 /usr/lib/gcc/arm-none-eabi/5.2.0/../../../../arm-none-eabi/lib/armv7e-m/libc_nano.a(lib_a-realloc.o)
 .debug_aranges
                0x0000000000001828       0x20 /usr/lib/gcc/arm-none-eabi/5.2.0/../../../../arm-none-eabi/lib/armv7e-m/libc_nano.a(lib_a-sbrkr.o)
 .debug_aranges
                0x0000000000001848       0x20 /usr/lib/gcc/arm-none-eabi/5.2.0/../../../../arm-none-eabi/lib/armv7e-m/libc_nano.a(lib_a-strlen.o)
 .debug_aranges
                0x0000000000001868       0x20 /usr/lib/gcc/arm-none-eabi/5.2.0/../../../../arm-none-eabi/lib/armv7e-m/libc_nano.a(lib_a-strncpy.o)
 .debug_aranges
                0x0000000000001888       0x28 /usr/lib/gcc/arm-none-eabi/5.2.0/../../../../arm-none-eabi/lib/armv7e-m/libc_nano.a(lib_a-vsnprintf.o)
 .debug_aranges
                0x00000000000018b0       0x18 /usr/lib/gcc/arm-none-eabi/5.2.0/../../../../arm-none-eabi/lib/armv7e-m/libc_nano.a(lib_a-impure.o)
 .debug_aranges
                0x00000000000018c8       0x20 /usr/lib/gcc/arm-none-eabi/5.2.0/../../../../arm-none-eabi/lib/armv7e-m/libc_nano.a(lib_a-nano-reallocr.o)
 .debug_aranges
                0x00000000000018e8       0x30 /usr/lib/gcc/arm-none-eabi/5.2.0/../../../../arm-none-eabi/lib/armv7e-m/libc_nano.a(lib_a-nano-svfprintf.o)
 .debug_aranges
                0x0000000000001918       0x28 /usr/lib/gcc/arm-none-eabi/5.2.0/../../../../arm-none-eabi/lib/armv7e-m/libc_nano.a(lib_a-nano-vfprintf_i.o)
 .debug_aranges
                0x0000000000001940       0x28 /usr/lib/gcc/arm-none-eabi/5.2.0/../../../../arm-none-eabi/lib/armv7e-m/libc_nano.a(lib_a-reent.o)
 .debug_aranges
                0x0000000000001968       0x20 /usr/lib/gcc/arm-none-eabi/5.2.0/../../../../arm-none-eabi/lib/armv7e-m/libc_nano.a(lib_a-memchr.o)
 .debug_aranges
                0x0000000000001988       0x20 /usr/lib/gcc/arm-none-eabi/5.2.0/../../../../arm-none-eabi/lib/armv7e-m/libc_nano.a(lib_a-nano-msizer.o)

.debug_ranges   0x0000000000000000     0x16f8
 .debug_ranges  0x0000000000000000       0x48 obj/Debug/main.o
 .debug_ranges  0x0000000000000048       0x10 obj/Debug/pinmux.o
 .debug_ranges  0x0000000000000058       0x40 obj/Debug/uart_if.o
 .debug_ranges  0x0000000000000098       0x50 obj/Debug/timer_if.o
 .debug_ranges  0x00000000000000e8       0x58 obj/Debug/gpio_if.o
 .debug_ranges  0x0000000000000140       0x18 obj/Debug/utils_if.o
 .debug_ranges  0x0000000000000158       0xb8 obj/Debug/network_if.o
 .debug_ranges  0x0000000000000210       0x38 obj/Debug/startup_gcc.o
 .debug_ranges  0x0000000000000248       0x60 ../../../simplelink/gcc/lib/os_PM/Debug/libsimplelink.a(device.o)
 .debug_ranges  0x00000000000002a8      0x138 ../../../simplelink/gcc/lib/os_PM/Debug/libsimplelink.a(driver.o)
 .debug_ranges  0x00000000000003e0       0x98 ../../../simplelink/gcc/lib/os_PM/Debug/libsimplelink.a(netapp.o)
 .debug_ranges  0x0000000000000478       0x18 ../../../simplelink/gcc/lib/os_PM/Debug/libsimplelink.a(netcfg.o)
 .debug_ranges  0x0000000000000490       0xd0 ../../../simplelink/gcc/lib/os_PM/Debug/libsimplelink.a(socket.o)
 .debug_ranges  0x0000000000000560       0xa0 ../../../simplelink/gcc/lib/os_PM/Debug/libsimplelink.a(wlan.o)
 .debug_ranges  0x0000000000000600       0x78 ../../../simplelink/gcc/lib/os_PM/Debug/libsimplelink.a(cc_pal_pm.o)
 .debug_ranges  0x0000000000000678       0x98 ../../../middleware/gcc/lib/Debug/middleware.a(spi_drv.o)
 .debug_ranges  0x0000000000000710       0xb8 ../../../middleware/gcc/lib/Debug/middleware.a(dma_hal.o)
 .debug_ranges  0x00000000000007c8       0x78 ../../../middleware/gcc/lib/Debug/middleware.a(spi_hal.o)
 .debug_ranges  0x0000000000000840      0x118 ../../../oslib/gcc/free_rtos/Debug/free_rtos.a(osi_freertos.o)
 .debug_ranges  0x0000000000000958      0x110 ../../../oslib/gcc/free_rtos/Debug/free_rtos.a(queue.o)
 .debug_ranges  0x0000000000000a68      0x1d8 ../../../oslib/gcc/free_rtos/Debug/free_rtos.a(tasks.o)
 .debug_ranges  0x0000000000000c40       0x80 ../../../oslib/gcc/free_rtos/Debug/free_rtos.a(port.o)
 .debug_ranges  0x0000000000000cc0       0xa0 ../../../oslib/gcc/free_rtos/Debug/free_rtos.a(timers.o)
 .debug_ranges  0x0000000000000d60       0x18 ../../../oslib/gcc/free_rtos/Debug/free_rtos.a(heap_3.o)
 .debug_ranges  0x0000000000000d78       0x30 ../../../oslib/gcc/free_rtos/Debug/free_rtos.a(list.o)
 .debug_ranges  0x0000000000000da8       0x80 ../../../driverlib/gcc/lib/Debug/libdriver.a(gpio.o)
 .debug_ranges  0x0000000000000e28       0x28 ../../../driverlib/gcc/lib/Debug/libdriver.a(hwspinlock.o)
 .debug_ranges  0x0000000000000e50       0x88 ../../../driverlib/gcc/lib/Debug/libdriver.a(interrupt.o)
 .debug_ranges  0x0000000000000ed8       0x80 ../../../driverlib/gcc/lib/Debug/libdriver.a(pin.o)
 .debug_ranges  0x0000000000000f58      0x1a8 ../../../driverlib/gcc/lib/Debug/libdriver.a(prcm.o)
 .debug_ranges  0x0000000000001100       0xf0 ../../../driverlib/gcc/lib/Debug/libdriver.a(spi.o)
 .debug_ranges  0x00000000000011f0       0xc8 ../../../driverlib/gcc/lib/Debug/libdriver.a(timer.o)
 .debug_ranges  0x00000000000012b8      0x130 ../../../driverlib/gcc/lib/Debug/libdriver.a(uart.o)
 .debug_ranges  0x00000000000013e8       0xc8 ../../../driverlib/gcc/lib/Debug/libdriver.a(udma.o)
 .debug_ranges  0x00000000000014b0       0x10 ../../../driverlib/gcc/lib/Debug/libdriver.a(utils.o)
 .debug_ranges  0x00000000000014c0       0x38 ../../../driverlib/gcc/lib/Debug/libdriver.a(cpu.o)
 .debug_ranges  0x00000000000014f8       0x18 /usr/lib/gcc/arm-none-eabi/5.2.0/../../../../arm-none-eabi/lib/armv7e-m/libc_nano.a(lib_a-malloc.o)
 .debug_ranges  0x0000000000001510       0x10 /usr/lib/gcc/arm-none-eabi/5.2.0/../../../../arm-none-eabi/lib/armv7e-m/libc_nano.a(lib_a-memcmp.o)
 .debug_ranges  0x0000000000001520       0x10 /usr/lib/gcc/arm-none-eabi/5.2.0/../../../../arm-none-eabi/lib/armv7e-m/libc_nano.a(lib_a-memcpy.o)
 .debug_ranges  0x0000000000001530       0x10 /usr/lib/gcc/arm-none-eabi/5.2.0/../../../../arm-none-eabi/lib/armv7e-m/libc_nano.a(lib_a-memmove.o)
 .debug_ranges  0x0000000000001540       0x10 /usr/lib/gcc/arm-none-eabi/5.2.0/../../../../arm-none-eabi/lib/armv7e-m/libc_nano.a(lib_a-memset.o)
 .debug_ranges  0x0000000000001550       0x28 /usr/lib/gcc/arm-none-eabi/5.2.0/../../../../arm-none-eabi/lib/armv7e-m/libc_nano.a(lib_a-nano-freer.o)
 .debug_ranges  0x0000000000001578       0x28 /usr/lib/gcc/arm-none-eabi/5.2.0/../../../../arm-none-eabi/lib/armv7e-m/libc_nano.a(lib_a-nano-mallocr.o)
 .debug_ranges  0x00000000000015a0       0x10 /usr/lib/gcc/arm-none-eabi/5.2.0/../../../../arm-none-eabi/lib/armv7e-m/libc_nano.a(lib_a-realloc.o)
 .debug_ranges  0x00000000000015b0       0x10 /usr/lib/gcc/arm-none-eabi/5.2.0/../../../../arm-none-eabi/lib/armv7e-m/libc_nano.a(lib_a-sbrkr.o)
 .debug_ranges  0x00000000000015c0       0x10 /usr/lib/gcc/arm-none-eabi/5.2.0/../../../../arm-none-eabi/lib/armv7e-m/libc_nano.a(lib_a-strlen.o)
 .debug_ranges  0x00000000000015d0       0x10 /usr/lib/gcc/arm-none-eabi/5.2.0/../../../../arm-none-eabi/lib/armv7e-m/libc_nano.a(lib_a-strncpy.o)
 .debug_ranges  0x00000000000015e0       0x18 /usr/lib/gcc/arm-none-eabi/5.2.0/../../../../arm-none-eabi/lib/armv7e-m/libc_nano.a(lib_a-vsnprintf.o)
 .debug_ranges  0x00000000000015f8       0x10 /usr/lib/gcc/arm-none-eabi/5.2.0/../../../../arm-none-eabi/lib/armv7e-m/libc_nano.a(lib_a-nano-reallocr.o)
 .debug_ranges  0x0000000000001608       0x50 /usr/lib/gcc/arm-none-eabi/5.2.0/../../../../arm-none-eabi/lib/armv7e-m/libc_nano.a(lib_a-nano-svfprintf.o)
 .debug_ranges  0x0000000000001658       0x68 /usr/lib/gcc/arm-none-eabi/5.2.0/../../../../arm-none-eabi/lib/armv7e-m/libc_nano.a(lib_a-nano-vfprintf_i.o)
 .debug_ranges  0x00000000000016c0       0x18 /usr/lib/gcc/arm-none-eabi/5.2.0/../../../../arm-none-eabi/lib/armv7e-m/libc_nano.a(lib_a-reent.o)
 .debug_ranges  0x00000000000016d8       0x10 /usr/lib/gcc/arm-none-eabi/5.2.0/../../../../arm-none-eabi/lib/armv7e-m/libc_nano.a(lib_a-memchr.o)
 .debug_ranges  0x00000000000016e8       0x10 /usr/lib/gcc/arm-none-eabi/5.2.0/../../../../arm-none-eabi/lib/armv7e-m/libc_nano.a(lib_a-nano-msizer.o)

.debug_line     0x0000000000000000     0x8616
 .debug_line    0x0000000000000000      0x17f obj/Debug/main.o
 .debug_line    0x000000000000017f       0x42 obj/Debug/pinmux.o
 .debug_line    0x00000000000001c1      0x171 obj/Debug/uart_if.o
 .debug_line    0x0000000000000332      0x115 obj/Debug/timer_if.o
 .debug_line    0x0000000000000447      0x13e obj/Debug/gpio_if.o
 .debug_line    0x0000000000000585       0xa0 obj/Debug/utils_if.o
 .debug_line    0x0000000000000625      0x4e1 obj/Debug/network_if.o
 .debug_line    0x0000000000000b06      0x131 obj/Debug/startup_gcc.o
 .debug_line    0x0000000000000c37      0x2d9 ../../../simplelink/gcc/lib/os_PM/Debug/libsimplelink.a(device.o)
 .debug_line    0x0000000000000f10      0x90c ../../../simplelink/gcc/lib/os_PM/Debug/libsimplelink.a(driver.o)
 .debug_line    0x000000000000181c      0x4a2 ../../../simplelink/gcc/lib/os_PM/Debug/libsimplelink.a(netapp.o)
 .debug_line    0x0000000000001cbe      0x100 ../../../simplelink/gcc/lib/os_PM/Debug/libsimplelink.a(netcfg.o)
 .debug_line    0x0000000000001dbe      0x5d0 ../../../simplelink/gcc/lib/os_PM/Debug/libsimplelink.a(socket.o)
 .debug_line    0x000000000000238e      0x554 ../../../simplelink/gcc/lib/os_PM/Debug/libsimplelink.a(wlan.o)
 .debug_line    0x00000000000028e2      0x1ca ../../../simplelink/gcc/lib/os_PM/Debug/libsimplelink.a(cc_pal_pm.o)
 .debug_line    0x0000000000002aac      0x374 ../../../middleware/gcc/lib/Debug/middleware.a(spi_drv.o)
 .debug_line    0x0000000000002e20      0x3ec ../../../middleware/gcc/lib/Debug/middleware.a(dma_hal.o)
 .debug_line    0x000000000000320c      0x226 ../../../middleware/gcc/lib/Debug/middleware.a(spi_hal.o)
 .debug_line    0x0000000000003432      0x423 ../../../oslib/gcc/free_rtos/Debug/free_rtos.a(osi_freertos.o)
 .debug_line    0x0000000000003855      0x786 ../../../oslib/gcc/free_rtos/Debug/free_rtos.a(queue.o)
 .debug_line    0x0000000000003fdb      0xbe6 ../../../oslib/gcc/free_rtos/Debug/free_rtos.a(tasks.o)
 .debug_line    0x0000000000004bc1      0x284 ../../../oslib/gcc/free_rtos/Debug/free_rtos.a(port.o)
 .debug_line    0x0000000000004e45      0x3c6 ../../../oslib/gcc/free_rtos/Debug/free_rtos.a(timers.o)
 .debug_line    0x000000000000520b       0xbd ../../../oslib/gcc/free_rtos/Debug/free_rtos.a(heap_3.o)
 .debug_line    0x00000000000052c8      0x1a7 ../../../oslib/gcc/free_rtos/Debug/free_rtos.a(list.o)
 .debug_line    0x000000000000546f      0x218 ../../../driverlib/gcc/lib/Debug/libdriver.a(gpio.o)
 .debug_line    0x0000000000005687      0x111 ../../../driverlib/gcc/lib/Debug/libdriver.a(hwspinlock.o)
 .debug_line    0x0000000000005798      0x210 ../../../driverlib/gcc/lib/Debug/libdriver.a(interrupt.o)
 .debug_line    0x00000000000059a8      0x172 ../../../driverlib/gcc/lib/Debug/libdriver.a(pin.o)
 .debug_line    0x0000000000005b1a      0x4f6 ../../../driverlib/gcc/lib/Debug/libdriver.a(prcm.o)
 .debug_line    0x0000000000006010      0x369 ../../../driverlib/gcc/lib/Debug/libdriver.a(spi.o)
 .debug_line    0x0000000000006379      0x33d ../../../driverlib/gcc/lib/Debug/libdriver.a(timer.o)
 .debug_line    0x00000000000066b6      0x37e ../../../driverlib/gcc/lib/Debug/libdriver.a(uart.o)
 .debug_line    0x0000000000006a34      0x2aa ../../../driverlib/gcc/lib/Debug/libdriver.a(udma.o)
 .debug_line    0x0000000000006cde       0x3d ../../../driverlib/gcc/lib/Debug/libdriver.a(utils.o)
 .debug_line    0x0000000000006d1b       0xa0 ../../../driverlib/gcc/lib/Debug/libdriver.a(cpu.o)
 .debug_line    0x0000000000006dbb      0x148 /usr/lib/gcc/arm-none-eabi/5.2.0/../../../../arm-none-eabi/lib/armv7e-m/libc_nano.a(lib_a-malloc.o)
 .debug_line    0x0000000000006f03       0xde /usr/lib/gcc/arm-none-eabi/5.2.0/../../../../arm-none-eabi/lib/armv7e-m/libc_nano.a(lib_a-memcmp.o)
 .debug_line    0x0000000000006fe1       0xdc /usr/lib/gcc/arm-none-eabi/5.2.0/../../../../arm-none-eabi/lib/armv7e-m/libc_nano.a(lib_a-memcpy.o)
 .debug_line    0x00000000000070bd       0xe9 /usr/lib/gcc/arm-none-eabi/5.2.0/../../../../arm-none-eabi/lib/armv7e-m/libc_nano.a(lib_a-memmove.o)
 .debug_line    0x00000000000071a6       0xdd /usr/lib/gcc/arm-none-eabi/5.2.0/../../../../arm-none-eabi/lib/armv7e-m/libc_nano.a(lib_a-memset.o)
 .debug_line    0x0000000000007283      0x13b /usr/lib/gcc/arm-none-eabi/5.2.0/../../../../arm-none-eabi/lib/armv7e-m/libc_nano.a(lib_a-nano-freer.o)
 .debug_line    0x00000000000073be      0x175 /usr/lib/gcc/arm-none-eabi/5.2.0/../../../../arm-none-eabi/lib/armv7e-m/libc_nano.a(lib_a-nano-mallocr.o)
 .debug_line    0x0000000000007533      0x137 /usr/lib/gcc/arm-none-eabi/5.2.0/../../../../arm-none-eabi/lib/armv7e-m/libc_nano.a(lib_a-realloc.o)
 .debug_line    0x000000000000766a      0x140 /usr/lib/gcc/arm-none-eabi/5.2.0/../../../../arm-none-eabi/lib/armv7e-m/libc_nano.a(lib_a-sbrkr.o)
 .debug_line    0x00000000000077aa       0xe4 /usr/lib/gcc/arm-none-eabi/5.2.0/../../../../arm-none-eabi/lib/armv7e-m/libc_nano.a(lib_a-strlen.o)
 .debug_line    0x000000000000788e       0xe3 /usr/lib/gcc/arm-none-eabi/5.2.0/../../../../arm-none-eabi/lib/armv7e-m/libc_nano.a(lib_a-strncpy.o)
 .debug_line    0x0000000000007971      0x17d /usr/lib/gcc/arm-none-eabi/5.2.0/../../../../arm-none-eabi/lib/armv7e-m/libc_nano.a(lib_a-vsnprintf.o)
 .debug_line    0x0000000000007aee       0xe0 /usr/lib/gcc/arm-none-eabi/5.2.0/../../../../arm-none-eabi/lib/armv7e-m/libc_nano.a(lib_a-impure.o)
 .debug_line    0x0000000000007bce      0x15c /usr/lib/gcc/arm-none-eabi/5.2.0/../../../../arm-none-eabi/lib/armv7e-m/libc_nano.a(lib_a-nano-reallocr.o)
 .debug_line    0x0000000000007d2a      0x2ad /usr/lib/gcc/arm-none-eabi/5.2.0/../../../../arm-none-eabi/lib/armv7e-m/libc_nano.a(lib_a-nano-svfprintf.o)
 .debug_line    0x0000000000007fd7      0x2e9 /usr/lib/gcc/arm-none-eabi/5.2.0/../../../../arm-none-eabi/lib/armv7e-m/libc_nano.a(lib_a-nano-vfprintf_i.o)
 .debug_line    0x00000000000082c0      0x17b /usr/lib/gcc/arm-none-eabi/5.2.0/../../../../arm-none-eabi/lib/armv7e-m/libc_nano.a(lib_a-reent.o)
 .debug_line    0x000000000000843b       0xdf /usr/lib/gcc/arm-none-eabi/5.2.0/../../../../arm-none-eabi/lib/armv7e-m/libc_nano.a(lib_a-memchr.o)
 .debug_line    0x000000000000851a       0xfc /usr/lib/gcc/arm-none-eabi/5.2.0/../../../../arm-none-eabi/lib/armv7e-m/libc_nano.a(lib_a-nano-msizer.o)

.debug_str      0x0000000000000000     0x94c1
 .debug_str     0x0000000000000000      0x3dc obj/Debug/main.o
                                        0x426 (size before relaxing)
 .debug_str     0x00000000000003dc       0x19 obj/Debug/pinmux.o
                                         0xd6 (size before relaxing)
 .debug_str     0x00000000000003f5       0xd0 obj/Debug/uart_if.o
                                        0x232 (size before relaxing)
 .debug_str     0x00000000000004c5       0xff obj/Debug/timer_if.o
                                        0x23e (size before relaxing)
 .debug_str     0x00000000000005c4      0x18b obj/Debug/gpio_if.o
                                        0x3ea (size before relaxing)
 .debug_str     0x000000000000074f       0x55 obj/Debug/utils_if.o
                                        0x17f (size before relaxing)
 .debug_str     0x00000000000007a4      0xec3 obj/Debug/network_if.o
                                       0x1130 (size before relaxing)
 .debug_str     0x0000000000001667       0xd6 obj/Debug/startup_gcc.o
                                        0x22f (size before relaxing)
 .debug_str     0x000000000000173d      0x952 ../../../simplelink/gcc/lib/os_PM/Debug/libsimplelink.a(device.o)
                                        0xe3f (size before relaxing)
 .debug_str     0x000000000000208f      0x7d5 ../../../simplelink/gcc/lib/os_PM/Debug/libsimplelink.a(driver.o)
                                       0x1413 (size before relaxing)
 .debug_str     0x0000000000002864      0x958 ../../../simplelink/gcc/lib/os_PM/Debug/libsimplelink.a(netapp.o)
                                       0x1397 (size before relaxing)
 .debug_str     0x00000000000031bc       0x9d ../../../simplelink/gcc/lib/os_PM/Debug/libsimplelink.a(netcfg.o)
                                        0x4a9 (size before relaxing)
 .debug_str     0x0000000000003259      0x5e0 ../../../simplelink/gcc/lib/os_PM/Debug/libsimplelink.a(socket.o)
                                        0xecd (size before relaxing)
 .debug_str     0x0000000000003839      0xd07 ../../../simplelink/gcc/lib/os_PM/Debug/libsimplelink.a(wlan.o)
                                       0x1102 (size before relaxing)
 .debug_str     0x0000000000004540      0x1b2 ../../../simplelink/gcc/lib/os_PM/Debug/libsimplelink.a(cc_pal_pm.o)
                                        0x305 (size before relaxing)
 .debug_str     0x00000000000046f2      0xa51 ../../../middleware/gcc/lib/Debug/middleware.a(spi_drv.o)
                                        0xbfa (size before relaxing)
 .debug_str     0x0000000000005143      0x243 ../../../middleware/gcc/lib/Debug/middleware.a(dma_hal.o)
                                        0x5ee (size before relaxing)
 .debug_str     0x0000000000005386      0x1b1 ../../../middleware/gcc/lib/Debug/middleware.a(spi_hal.o)
                                        0x709 (size before relaxing)
 .debug_str     0x0000000000005537      0x3e0 ../../../oslib/gcc/free_rtos/Debug/free_rtos.a(osi_freertos.o)
                                        0x63f (size before relaxing)
 .debug_str     0x0000000000005917      0x643 ../../../oslib/gcc/free_rtos/Debug/free_rtos.a(queue.o)
                                        0x824 (size before relaxing)
 .debug_str     0x0000000000005f5a      0xbdc ../../../oslib/gcc/free_rtos/Debug/free_rtos.a(tasks.o)
                                        0xf31 (size before relaxing)
 .debug_str     0x0000000000006b36      0x244 ../../../oslib/gcc/free_rtos/Debug/free_rtos.a(port.o)
                                        0x3ea (size before relaxing)
 .debug_str     0x0000000000006d7a      0x4c7 ../../../oslib/gcc/free_rtos/Debug/free_rtos.a(timers.o)
                                        0x76b (size before relaxing)
 .debug_str     0x0000000000007241       0x5f ../../../oslib/gcc/free_rtos/Debug/free_rtos.a(heap_3.o)
                                        0x1b5 (size before relaxing)
 .debug_str     0x00000000000072a0       0xb6 ../../../oslib/gcc/free_rtos/Debug/free_rtos.a(list.o)
                                        0x2a5 (size before relaxing)
 .debug_str     0x0000000000007356      0x188 ../../../driverlib/gcc/lib/Debug/libdriver.a(gpio.o)
                                        0x239 (size before relaxing)
 .debug_str     0x00000000000074de       0xba ../../../driverlib/gcc/lib/Debug/libdriver.a(hwspinlock.o)
                                        0x204 (size before relaxing)
 .debug_str     0x0000000000007598      0x16c ../../../driverlib/gcc/lib/Debug/libdriver.a(interrupt.o)
                                        0x296 (size before relaxing)
 .debug_str     0x0000000000007704      0x10d ../../../driverlib/gcc/lib/Debug/libdriver.a(pin.o)
                                        0x1fa (size before relaxing)
 .debug_str     0x0000000000007811      0x608 ../../../driverlib/gcc/lib/Debug/libdriver.a(prcm.o)
                                        0x71d (size before relaxing)
 .debug_str     0x0000000000007e19      0x2bb ../../../driverlib/gcc/lib/Debug/libdriver.a(spi.o)
                                        0x41b (size before relaxing)
 .debug_str     0x00000000000080d4      0x1ad ../../../driverlib/gcc/lib/Debug/libdriver.a(timer.o)
                                        0x2af (size before relaxing)
 .debug_str     0x0000000000008281      0x2d4 ../../../driverlib/gcc/lib/Debug/libdriver.a(uart.o)
                                        0x423 (size before relaxing)
 .debug_str     0x0000000000008555      0x2f0 ../../../driverlib/gcc/lib/Debug/libdriver.a(udma.o)
                                        0x3dd (size before relaxing)
 .debug_str     0x0000000000008845       0x16 ../../../driverlib/gcc/lib/Debug/libdriver.a(utils.o)
                                         0xcb (size before relaxing)
 .debug_str     0x000000000000885b       0x5c ../../../driverlib/gcc/lib/Debug/libdriver.a(cpu.o)
                                        0x109 (size before relaxing)
 .debug_str     0x00000000000088b7      0x421 /usr/lib/gcc/arm-none-eabi/5.2.0/../../../../arm-none-eabi/lib/armv7e-m/libc_nano.a(lib_a-malloc.o)
                                        0x52b (size before relaxing)
 .debug_str     0x0000000000008cd8       0x8f /usr/lib/gcc/arm-none-eabi/5.2.0/../../../../arm-none-eabi/lib/armv7e-m/libc_nano.a(lib_a-memcmp.o)
                                        0x1ae (size before relaxing)
 .debug_str     0x0000000000008d67       0x49 /usr/lib/gcc/arm-none-eabi/5.2.0/../../../../arm-none-eabi/lib/armv7e-m/libc_nano.a(lib_a-memcpy.o)
                                        0x1c2 (size before relaxing)
 .debug_str     0x0000000000008db0       0x49 /usr/lib/gcc/arm-none-eabi/5.2.0/../../../../arm-none-eabi/lib/armv7e-m/libc_nano.a(lib_a-memmove.o)
                                        0x1c9 (size before relaxing)
 .debug_str     0x0000000000008df9       0x35 /usr/lib/gcc/arm-none-eabi/5.2.0/../../../../arm-none-eabi/lib/armv7e-m/libc_nano.a(lib_a-memset.o)
                                        0x1ae (size before relaxing)
 .debug_str     0x0000000000008e2e       0x90 /usr/lib/gcc/arm-none-eabi/5.2.0/../../../../arm-none-eabi/lib/armv7e-m/libc_nano.a(lib_a-nano-freer.o)
                                        0x56f (size before relaxing)
 .debug_str     0x0000000000008ebe       0x46 /usr/lib/gcc/arm-none-eabi/5.2.0/../../../../arm-none-eabi/lib/armv7e-m/libc_nano.a(lib_a-nano-mallocr.o)
                                        0x59a (size before relaxing)
 .debug_str     0x0000000000008f04       0x3a /usr/lib/gcc/arm-none-eabi/5.2.0/../../../../arm-none-eabi/lib/armv7e-m/libc_nano.a(lib_a-realloc.o)
                                        0x51c (size before relaxing)
 .debug_str     0x0000000000008f3e       0x8f /usr/lib/gcc/arm-none-eabi/5.2.0/../../../../arm-none-eabi/lib/armv7e-m/libc_nano.a(lib_a-sbrkr.o)
                                        0x50e (size before relaxing)
 .debug_str     0x0000000000008fcd       0xa4 /usr/lib/gcc/arm-none-eabi/5.2.0/../../../../arm-none-eabi/lib/armv7e-m/libc_nano.a(lib_a-strlen.o)
                                        0x1c3 (size before relaxing)
 .debug_str     0x0000000000009071       0x43 /usr/lib/gcc/arm-none-eabi/5.2.0/../../../../arm-none-eabi/lib/armv7e-m/libc_nano.a(lib_a-strncpy.o)
                                        0x1cc (size before relaxing)
 .debug_str     0x00000000000090b4       0xad /usr/lib/gcc/arm-none-eabi/5.2.0/../../../../arm-none-eabi/lib/armv7e-m/libc_nano.a(lib_a-vsnprintf.o)
                                        0x556 (size before relaxing)
 .debug_str     0x0000000000009161       0x8b /usr/lib/gcc/arm-none-eabi/5.2.0/../../../../arm-none-eabi/lib/armv7e-m/libc_nano.a(lib_a-impure.o)
                                        0x556 (size before relaxing)
 .debug_str     0x00000000000091ec       0x23 /usr/lib/gcc/arm-none-eabi/5.2.0/../../../../arm-none-eabi/lib/armv7e-m/libc_nano.a(lib_a-nano-reallocr.o)
                                        0x577 (size before relaxing)
 .debug_str     0x000000000000920f      0x18f /usr/lib/gcc/arm-none-eabi/5.2.0/../../../../arm-none-eabi/lib/armv7e-m/libc_nano.a(lib_a-nano-svfprintf.o)
                                        0x677 (size before relaxing)
 .debug_str     0x000000000000939e       0x8e /usr/lib/gcc/arm-none-eabi/5.2.0/../../../../arm-none-eabi/lib/armv7e-m/libc_nano.a(lib_a-nano-vfprintf_i.o)
                                        0x616 (size before relaxing)
 .debug_str     0x000000000000942c       0x58 /usr/lib/gcc/arm-none-eabi/5.2.0/../../../../arm-none-eabi/lib/armv7e-m/libc_nano.a(lib_a-reent.o)
                                        0x536 (size before relaxing)
 .debug_str     0x0000000000009484       0x2e /usr/lib/gcc/arm-none-eabi/5.2.0/../../../../arm-none-eabi/lib/armv7e-m/libc_nano.a(lib_a-memchr.o)
                                        0x1be (size before relaxing)
 .debug_str     0x00000000000094b2        0xf /usr/lib/gcc/arm-none-eabi/5.2.0/../../../../arm-none-eabi/lib/armv7e-m/libc_nano.a(lib_a-nano-msizer.o)
                                        0x555 (size before relaxing)

.comment        0x0000000000000000       0x42
 .comment       0x0000000000000000       0x21 obj/Debug/main.o
                                         0x22 (size before relaxing)
 .comment       0x0000000000000000       0x22 obj/Debug/pinmux.o
 .comment       0x0000000000000000       0x22 obj/Debug/uart_if.o
 .comment       0x0000000000000000       0x22 obj/Debug/timer_if.o
 .comment       0x0000000000000000       0x22 obj/Debug/gpio_if.o
 .comment       0x0000000000000000       0x22 obj/Debug/utils_if.o
 .comment       0x0000000000000000       0x22 obj/Debug/network_if.o
 .comment       0x0000000000000000       0x22 obj/Debug/startup_gcc.o
 .comment       0x0000000000000000       0x22 ../../../simplelink/gcc/lib/os_PM/Debug/libsimplelink.a(device.o)
 .comment       0x0000000000000000       0x22 ../../../simplelink/gcc/lib/os_PM/Debug/libsimplelink.a(driver.o)
 .comment       0x0000000000000000       0x22 ../../../simplelink/gcc/lib/os_PM/Debug/libsimplelink.a(netapp.o)
 .comment       0x0000000000000000       0x22 ../../../simplelink/gcc/lib/os_PM/Debug/libsimplelink.a(netcfg.o)
 .comment       0x0000000000000000       0x22 ../../../simplelink/gcc/lib/os_PM/Debug/libsimplelink.a(socket.o)
 .comment       0x0000000000000000       0x22 ../../../simplelink/gcc/lib/os_PM/Debug/libsimplelink.a(wlan.o)
 .comment       0x0000000000000000       0x22 ../../../simplelink/gcc/lib/os_PM/Debug/libsimplelink.a(cc_pal_pm.o)
 .comment       0x0000000000000000       0x22 ../../../middleware/gcc/lib/Debug/middleware.a(spi_drv.o)
 .comment       0x0000000000000000       0x22 ../../../middleware/gcc/lib/Debug/middleware.a(dma_hal.o)
 .comment       0x0000000000000000       0x22 ../../../middleware/gcc/lib/Debug/middleware.a(spi_hal.o)
 .comment       0x0000000000000000       0x22 ../../../oslib/gcc/free_rtos/Debug/free_rtos.a(osi_freertos.o)
 .comment       0x0000000000000000       0x22 ../../../oslib/gcc/free_rtos/Debug/free_rtos.a(queue.o)
 .comment       0x0000000000000000       0x22 ../../../oslib/gcc/free_rtos/Debug/free_rtos.a(tasks.o)
 .comment       0x0000000000000000       0x22 ../../../oslib/gcc/free_rtos/Debug/free_rtos.a(port.o)
 .comment       0x0000000000000000       0x22 ../../../oslib/gcc/free_rtos/Debug/free_rtos.a(timers.o)
 .comment       0x0000000000000000       0x22 ../../../oslib/gcc/free_rtos/Debug/free_rtos.a(heap_3.o)
 .comment       0x0000000000000000       0x22 ../../../oslib/gcc/free_rtos/Debug/free_rtos.a(list.o)
 .comment       0x0000000000000000       0x22 ../../../driverlib/gcc/lib/Debug/libdriver.a(gpio.o)
 .comment       0x0000000000000000       0x22 ../../../driverlib/gcc/lib/Debug/libdriver.a(hwspinlock.o)
 .comment       0x0000000000000000       0x22 ../../../driverlib/gcc/lib/Debug/libdriver.a(interrupt.o)
 .comment       0x0000000000000000       0x22 ../../../driverlib/gcc/lib/Debug/libdriver.a(pin.o)
 .comment       0x0000000000000000       0x22 ../../../driverlib/gcc/lib/Debug/libdriver.a(prcm.o)
 .comment       0x0000000000000000       0x22 ../../../driverlib/gcc/lib/Debug/libdriver.a(spi.o)
 .comment       0x0000000000000000       0x22 ../../../driverlib/gcc/lib/Debug/libdriver.a(timer.o)
 .comment       0x0000000000000000       0x22 ../../../driverlib/gcc/lib/Debug/libdriver.a(uart.o)
 .comment       0x0000000000000000       0x22 ../../../driverlib/gcc/lib/Debug/libdriver.a(udma.o)
 .comment       0x0000000000000000       0x22 ../../../driverlib/gcc/lib/Debug/libdriver.a(utils.o)
 .comment       0x0000000000000000       0x22 ../../../driverlib/gcc/lib/Debug/libdriver.a(cpu.o)
 .comment       0x0000000000000021       0x21 /usr/lib/gcc/arm-none-eabi/5.2.0/../../../../arm-none-eabi/lib/armv7e-m/libc_nano.a(lib_a-malloc.o)
                                         0x22 (size before relaxing)
 .comment       0x0000000000000000       0x22 /usr/lib/gcc/arm-none-eabi/5.2.0/../../../../arm-none-eabi/lib/armv7e-m/libc_nano.a(lib_a-memcmp.o)
 .comment       0x0000000000000000       0x22 /usr/lib/gcc/arm-none-eabi/5.2.0/../../../../arm-none-eabi/lib/armv7e-m/libc_nano.a(lib_a-memcpy.o)
 .comment       0x0000000000000000       0x22 /usr/lib/gcc/arm-none-eabi/5.2.0/../../../../arm-none-eabi/lib/armv7e-m/libc_nano.a(lib_a-memmove.o)
 .comment       0x0000000000000000       0x22 /usr/lib/gcc/arm-none-eabi/5.2.0/../../../../arm-none-eabi/lib/armv7e-m/libc_nano.a(lib_a-memset.o)
 .comment       0x0000000000000000       0x22 /usr/lib/gcc/arm-none-eabi/5.2.0/../../../../arm-none-eabi/lib/armv7e-m/libc_nano.a(lib_a-nano-freer.o)
 .comment       0x0000000000000000       0x22 /usr/lib/gcc/arm-none-eabi/5.2.0/../../../../arm-none-eabi/lib/armv7e-m/libc_nano.a(lib_a-nano-mallocr.o)
 .comment       0x0000000000000000       0x22 /usr/lib/gcc/arm-none-eabi/5.2.0/../../../../arm-none-eabi/lib/armv7e-m/libc_nano.a(lib_a-realloc.o)
 .comment       0x0000000000000000       0x22 /usr/lib/gcc/arm-none-eabi/5.2.0/../../../../arm-none-eabi/lib/armv7e-m/libc_nano.a(lib_a-sbrkr.o)
 .comment       0x0000000000000000       0x22 /usr/lib/gcc/arm-none-eabi/5.2.0/../../../../arm-none-eabi/lib/armv7e-m/libc_nano.a(lib_a-strlen.o)
 .comment       0x0000000000000000       0x22 /usr/lib/gcc/arm-none-eabi/5.2.0/../../../../arm-none-eabi/lib/armv7e-m/libc_nano.a(lib_a-strncpy.o)
 .comment       0x0000000000000000       0x22 /usr/lib/gcc/arm-none-eabi/5.2.0/../../../../arm-none-eabi/lib/armv7e-m/libc_nano.a(lib_a-vsnprintf.o)
 .comment       0x0000000000000000       0x22 /usr/lib/gcc/arm-none-eabi/5.2.0/../../../../arm-none-eabi/lib/armv7e-m/libc_nano.a(lib_a-impure.o)
 .comment       0x0000000000000000       0x22 /usr/lib/gcc/arm-none-eabi/5.2.0/../../../../arm-none-eabi/lib/armv7e-m/libc_nano.a(lib_a-nano-reallocr.o)
 .comment       0x0000000000000000       0x22 /usr/lib/gcc/arm-none-eabi/5.2.0/../../../../arm-none-eabi/lib/armv7e-m/libc_nano.a(lib_a-nano-svfprintf.o)
 .comment       0x0000000000000000       0x22 /usr/lib/gcc/arm-none-eabi/5.2.0/../../../../arm-none-eabi/lib/armv7e-m/libc_nano.a(lib_a-nano-vfprintf_i.o)
 .comment       0x0000000000000000       0x22 /usr/lib/gcc/arm-none-eabi/5.2.0/../../../../arm-none-eabi/lib/armv7e-m/libc_nano.a(lib_a-reent.o)
 .comment       0x0000000000000000       0x22 /usr/lib/gcc/arm-none-eabi/5.2.0/../../../../arm-none-eabi/lib/armv7e-m/libc_nano.a(lib_a-memchr.o)
 .comment       0x0000000000000000       0x22 /usr/lib/gcc/arm-none-eabi/5.2.0/../../../../arm-none-eabi/lib/armv7e-m/libc_nano.a(lib_a-nano-msizer.o)

.ARM.attributes
                0x0000000000000000       0x33
 .ARM.attributes
                0x0000000000000000       0x33 obj/Debug/main.o
 .ARM.attributes
                0x0000000000000033       0x33 obj/Debug/pinmux.o
 .ARM.attributes
                0x0000000000000066       0x33 obj/Debug/uart_if.o
 .ARM.attributes
                0x0000000000000099       0x33 obj/Debug/timer_if.o
 .ARM.attributes
                0x00000000000000cc       0x33 obj/Debug/gpio_if.o
 .ARM.attributes
                0x00000000000000ff       0x33 obj/Debug/utils_if.o
 .ARM.attributes
                0x0000000000000132       0x33 obj/Debug/network_if.o
 .ARM.attributes
                0x0000000000000165       0x33 obj/Debug/startup_gcc.o
 .ARM.attributes
                0x0000000000000198       0x33 ../../../simplelink/gcc/lib/os_PM/Debug/libsimplelink.a(device.o)
 .ARM.attributes
                0x00000000000001cb       0x33 ../../../simplelink/gcc/lib/os_PM/Debug/libsimplelink.a(driver.o)
 .ARM.attributes
                0x00000000000001fe       0x33 ../../../simplelink/gcc/lib/os_PM/Debug/libsimplelink.a(netapp.o)
 .ARM.attributes
                0x0000000000000231       0x33 ../../../simplelink/gcc/lib/os_PM/Debug/libsimplelink.a(netcfg.o)
 .ARM.attributes
                0x0000000000000264       0x33 ../../../simplelink/gcc/lib/os_PM/Debug/libsimplelink.a(socket.o)
 .ARM.attributes
                0x0000000000000297       0x33 ../../../simplelink/gcc/lib/os_PM/Debug/libsimplelink.a(wlan.o)
 .ARM.attributes
                0x00000000000002ca       0x33 ../../../simplelink/gcc/lib/os_PM/Debug/libsimplelink.a(cc_pal_pm.o)
 .ARM.attributes
                0x00000000000002fd       0x33 ../../../middleware/gcc/lib/Debug/middleware.a(spi_drv.o)
 .ARM.attributes
                0x0000000000000330       0x33 ../../../middleware/gcc/lib/Debug/middleware.a(dma_hal.o)
 .ARM.attributes
                0x0000000000000363       0x33 ../../../middleware/gcc/lib/Debug/middleware.a(spi_hal.o)
 .ARM.attributes
                0x0000000000000396       0x33 ../../../oslib/gcc/free_rtos/Debug/free_rtos.a(osi_freertos.o)
 .ARM.attributes
                0x00000000000003c9       0x33 ../../../oslib/gcc/free_rtos/Debug/free_rtos.a(queue.o)
 .ARM.attributes
                0x00000000000003fc       0x33 ../../../oslib/gcc/free_rtos/Debug/free_rtos.a(tasks.o)
 .ARM.attributes
                0x000000000000042f       0x33 ../../../oslib/gcc/free_rtos/Debug/free_rtos.a(port.o)
 .ARM.attributes
                0x0000000000000462       0x33 ../../../oslib/gcc/free_rtos/Debug/free_rtos.a(timers.o)
 .ARM.attributes
                0x0000000000000495       0x33 ../../../oslib/gcc/free_rtos/Debug/free_rtos.a(heap_3.o)
 .ARM.attributes
                0x00000000000004c8       0x33 ../../../oslib/gcc/free_rtos/Debug/free_rtos.a(list.o)
 .ARM.attributes
                0x00000000000004fb       0x33 ../../../driverlib/gcc/lib/Debug/libdriver.a(gpio.o)
 .ARM.attributes
                0x000000000000052e       0x33 ../../../driverlib/gcc/lib/Debug/libdriver.a(hwspinlock.o)
 .ARM.attributes
                0x0000000000000561       0x33 ../../../driverlib/gcc/lib/Debug/libdriver.a(interrupt.o)
 .ARM.attributes
                0x0000000000000594       0x33 ../../../driverlib/gcc/lib/Debug/libdriver.a(pin.o)
 .ARM.attributes
                0x00000000000005c7       0x33 ../../../driverlib/gcc/lib/Debug/libdriver.a(prcm.o)
 .ARM.attributes
                0x00000000000005fa       0x33 ../../../driverlib/gcc/lib/Debug/libdriver.a(spi.o)
 .ARM.attributes
                0x000000000000062d       0x33 ../../../driverlib/gcc/lib/Debug/libdriver.a(timer.o)
 .ARM.attributes
                0x0000000000000660       0x33 ../../../driverlib/gcc/lib/Debug/libdriver.a(uart.o)
 .ARM.attributes
                0x0000000000000693       0x33 ../../../driverlib/gcc/lib/Debug/libdriver.a(udma.o)
 .ARM.attributes
                0x00000000000006c6       0x33 ../../../driverlib/gcc/lib/Debug/libdriver.a(utils.o)
 .ARM.attributes
                0x00000000000006f9       0x33 ../../../driverlib/gcc/lib/Debug/libdriver.a(cpu.o)
 .ARM.attributes
                0x000000000000072c       0x2e /usr/lib/gcc/arm-none-eabi/5.2.0/../../../../arm-none-eabi/lib/armv7e-m/libc_nano.a(lib_a-malloc.o)
 .ARM.attributes
                0x000000000000075a       0x2e /usr/lib/gcc/arm-none-eabi/5.2.0/../../../../arm-none-eabi/lib/armv7e-m/libc_nano.a(lib_a-memcmp.o)
 .ARM.attributes
                0x0000000000000788       0x2e /usr/lib/gcc/arm-none-eabi/5.2.0/../../../../arm-none-eabi/lib/armv7e-m/libc_nano.a(lib_a-memcpy.o)
 .ARM.attributes
                0x00000000000007b6       0x2e /usr/lib/gcc/arm-none-eabi/5.2.0/../../../../arm-none-eabi/lib/armv7e-m/libc_nano.a(lib_a-memmove.o)
 .ARM.attributes
                0x00000000000007e4       0x2e /usr/lib/gcc/arm-none-eabi/5.2.0/../../../../arm-none-eabi/lib/armv7e-m/libc_nano.a(lib_a-memset.o)
 .ARM.attributes
                0x0000000000000812       0x2e /usr/lib/gcc/arm-none-eabi/5.2.0/../../../../arm-none-eabi/lib/armv7e-m/libc_nano.a(lib_a-nano-freer.o)
 .ARM.attributes
                0x0000000000000840       0x2e /usr/lib/gcc/arm-none-eabi/5.2.0/../../../../arm-none-eabi/lib/armv7e-m/libc_nano.a(lib_a-nano-mallocr.o)
 .ARM.attributes
                0x000000000000086e       0x2e /usr/lib/gcc/arm-none-eabi/5.2.0/../../../../arm-none-eabi/lib/armv7e-m/libc_nano.a(lib_a-realloc.o)
 .ARM.attributes
                0x000000000000089c       0x2e /usr/lib/gcc/arm-none-eabi/5.2.0/../../../../arm-none-eabi/lib/armv7e-m/libc_nano.a(lib_a-sbrkr.o)
 .ARM.attributes
                0x00000000000008ca       0x2e /usr/lib/gcc/arm-none-eabi/5.2.0/../../../../arm-none-eabi/lib/armv7e-m/libc_nano.a(lib_a-strlen.o)
 .ARM.attributes
                0x00000000000008f8       0x2e /usr/lib/gcc/arm-none-eabi/5.2.0/../../../../arm-none-eabi/lib/armv7e-m/libc_nano.a(lib_a-strncpy.o)
 .ARM.attributes
                0x0000000000000926       0x2e /usr/lib/gcc/arm-none-eabi/5.2.0/../../../../arm-none-eabi/lib/armv7e-m/libc_nano.a(lib_a-vsnprintf.o)
 .ARM.attributes
                0x0000000000000954       0x2e /usr/lib/gcc/arm-none-eabi/5.2.0/../../../../arm-none-eabi/lib/armv7e-m/libc_nano.a(lib_a-impure.o)
 .ARM.attributes
                0x0000000000000982       0x2e /usr/lib/gcc/arm-none-eabi/5.2.0/../../../../arm-none-eabi/lib/armv7e-m/libc_nano.a(lib_a-nano-reallocr.o)
 .ARM.attributes
                0x00000000000009b0       0x2e /usr/lib/gcc/arm-none-eabi/5.2.0/../../../../arm-none-eabi/lib/armv7e-m/libc_nano.a(lib_a-nano-svfprintf.o)
 .ARM.attributes
                0x00000000000009de       0x2e /usr/lib/gcc/arm-none-eabi/5.2.0/../../../../arm-none-eabi/lib/armv7e-m/libc_nano.a(lib_a-nano-vfprintf_i.o)
 .ARM.attributes
                0x0000000000000a0c       0x2e /usr/lib/gcc/arm-none-eabi/5.2.0/../../../../arm-none-eabi/lib/armv7e-m/libc_nano.a(lib_a-reent.o)
 .ARM.attributes
                0x0000000000000a3a       0x2e /usr/lib/gcc/arm-none-eabi/5.2.0/../../../../arm-none-eabi/lib/armv7e-m/libc_nano.a(lib_a-memchr.o)
 .ARM.attributes
                0x0000000000000a68       0x2e /usr/lib/gcc/arm-none-eabi/5.2.0/../../../../arm-none-eabi/lib/armv7e-m/libc_nano.a(lib_a-nano-msizer.o)

.debug_frame    0x0000000000000000     0x600c
 .debug_frame   0x0000000000000000      0x118 obj/Debug/main.o
 .debug_frame   0x0000000000000118       0x2c obj/Debug/pinmux.o
 .debug_frame   0x0000000000000144      0x12c obj/Debug/uart_if.o
 .debug_frame   0x0000000000000270      0x158 obj/Debug/timer_if.o
 .debug_frame   0x00000000000003c8      0x180 obj/Debug/gpio_if.o
 .debug_frame   0x0000000000000548       0x54 obj/Debug/utils_if.o
 .debug_frame   0x000000000000059c      0x320 obj/Debug/network_if.o
 .debug_frame   0x00000000000008bc       0xbc obj/Debug/startup_gcc.o
 .debug_frame   0x0000000000000978      0x1a8 ../../../simplelink/gcc/lib/os_PM/Debug/libsimplelink.a(device.o)
 .debug_frame   0x0000000000000b20      0x514 ../../../simplelink/gcc/lib/os_PM/Debug/libsimplelink.a(driver.o)
 .debug_frame   0x0000000000001034      0x2ac ../../../simplelink/gcc/lib/os_PM/Debug/libsimplelink.a(netapp.o)
 .debug_frame   0x00000000000012e0       0x58 ../../../simplelink/gcc/lib/os_PM/Debug/libsimplelink.a(netcfg.o)
 .debug_frame   0x0000000000001338      0x3b0 ../../../simplelink/gcc/lib/os_PM/Debug/libsimplelink.a(socket.o)
 .debug_frame   0x00000000000016e8      0x2a8 ../../../simplelink/gcc/lib/os_PM/Debug/libsimplelink.a(wlan.o)
 .debug_frame   0x0000000000001990      0x1d8 ../../../simplelink/gcc/lib/os_PM/Debug/libsimplelink.a(cc_pal_pm.o)
 .debug_frame   0x0000000000001b68      0x2bc ../../../middleware/gcc/lib/Debug/middleware.a(spi_drv.o)
 .debug_frame   0x0000000000001e24      0x354 ../../../middleware/gcc/lib/Debug/middleware.a(dma_hal.o)
 .debug_frame   0x0000000000002178      0x220 ../../../middleware/gcc/lib/Debug/middleware.a(spi_hal.o)
 .debug_frame   0x0000000000002398      0x4ac ../../../oslib/gcc/free_rtos/Debug/free_rtos.a(osi_freertos.o)
 .debug_frame   0x0000000000002844      0x4c8 ../../../oslib/gcc/free_rtos/Debug/free_rtos.a(queue.o)
 .debug_frame   0x0000000000002d0c      0x840 ../../../oslib/gcc/free_rtos/Debug/free_rtos.a(tasks.o)
 .debug_frame   0x000000000000354c      0x19c ../../../oslib/gcc/free_rtos/Debug/free_rtos.a(port.o)
 .debug_frame   0x00000000000036e8      0x2b8 ../../../oslib/gcc/free_rtos/Debug/free_rtos.a(timers.o)
 .debug_frame   0x00000000000039a0       0x58 ../../../oslib/gcc/free_rtos/Debug/free_rtos.a(heap_3.o)
 .debug_frame   0x00000000000039f8       0xd8 ../../../oslib/gcc/free_rtos/Debug/free_rtos.a(list.o)
 .debug_frame   0x0000000000003ad0      0x260 ../../../driverlib/gcc/lib/Debug/libdriver.a(gpio.o)
 .debug_frame   0x0000000000003d30       0xb0 ../../../driverlib/gcc/lib/Debug/libdriver.a(hwspinlock.o)
 .debug_frame   0x0000000000003de0      0x258 ../../../driverlib/gcc/lib/Debug/libdriver.a(interrupt.o)
 .debug_frame   0x0000000000004038      0x244 ../../../driverlib/gcc/lib/Debug/libdriver.a(pin.o)
 .debug_frame   0x000000000000427c      0x790 ../../../driverlib/gcc/lib/Debug/libdriver.a(prcm.o)
 .debug_frame   0x0000000000004a0c      0x480 ../../../driverlib/gcc/lib/Debug/libdriver.a(spi.o)
 .debug_frame   0x0000000000004e8c      0x3c8 ../../../driverlib/gcc/lib/Debug/libdriver.a(timer.o)
 .debug_frame   0x0000000000005254      0x5cc ../../../driverlib/gcc/lib/Debug/libdriver.a(uart.o)
 .debug_frame   0x0000000000005820      0x390 ../../../driverlib/gcc/lib/Debug/libdriver.a(udma.o)
 .debug_frame   0x0000000000005bb0       0x20 ../../../driverlib/gcc/lib/Debug/libdriver.a(utils.o)
 .debug_frame   0x0000000000005bd0       0x70 ../../../driverlib/gcc/lib/Debug/libdriver.a(cpu.o)
 .debug_frame   0x0000000000005c40       0x30 /usr/lib/gcc/arm-none-eabi/5.2.0/../../../../arm-none-eabi/lib/armv7e-m/libc_nano.a(lib_a-malloc.o)
 .debug_frame   0x0000000000005c70       0x28 /usr/lib/gcc/arm-none-eabi/5.2.0/../../../../arm-none-eabi/lib/armv7e-m/libc_nano.a(lib_a-memcmp.o)
 .debug_frame   0x0000000000005c98       0x28 /usr/lib/gcc/arm-none-eabi/5.2.0/../../../../arm-none-eabi/lib/armv7e-m/libc_nano.a(lib_a-memcpy.o)
 .debug_frame   0x0000000000005cc0       0x28 /usr/lib/gcc/arm-none-eabi/5.2.0/../../../../arm-none-eabi/lib/armv7e-m/libc_nano.a(lib_a-memmove.o)
 .debug_frame   0x0000000000005ce8       0x20 /usr/lib/gcc/arm-none-eabi/5.2.0/../../../../arm-none-eabi/lib/armv7e-m/libc_nano.a(lib_a-memset.o)
 .debug_frame   0x0000000000005d08       0x2c /usr/lib/gcc/arm-none-eabi/5.2.0/../../../../arm-none-eabi/lib/armv7e-m/libc_nano.a(lib_a-nano-freer.o)
 .debug_frame   0x0000000000005d34       0x2c /usr/lib/gcc/arm-none-eabi/5.2.0/../../../../arm-none-eabi/lib/armv7e-m/libc_nano.a(lib_a-nano-mallocr.o)
 .debug_frame   0x0000000000005d60       0x20 /usr/lib/gcc/arm-none-eabi/5.2.0/../../../../arm-none-eabi/lib/armv7e-m/libc_nano.a(lib_a-realloc.o)
 .debug_frame   0x0000000000005d80       0x2c /usr/lib/gcc/arm-none-eabi/5.2.0/../../../../arm-none-eabi/lib/armv7e-m/libc_nano.a(lib_a-sbrkr.o)
 .debug_frame   0x0000000000005dac       0x20 /usr/lib/gcc/arm-none-eabi/5.2.0/../../../../arm-none-eabi/lib/armv7e-m/libc_nano.a(lib_a-strlen.o)
 .debug_frame   0x0000000000005dcc       0x28 /usr/lib/gcc/arm-none-eabi/5.2.0/../../../../arm-none-eabi/lib/armv7e-m/libc_nano.a(lib_a-strncpy.o)
 .debug_frame   0x0000000000005df4       0x48 /usr/lib/gcc/arm-none-eabi/5.2.0/../../../../arm-none-eabi/lib/armv7e-m/libc_nano.a(lib_a-vsnprintf.o)
 .debug_frame   0x0000000000005e3c       0x3c /usr/lib/gcc/arm-none-eabi/5.2.0/../../../../arm-none-eabi/lib/armv7e-m/libc_nano.a(lib_a-nano-reallocr.o)
 .debug_frame   0x0000000000005e78       0x90 /usr/lib/gcc/arm-none-eabi/5.2.0/../../../../arm-none-eabi/lib/armv7e-m/libc_nano.a(lib_a-nano-svfprintf.o)
 .debug_frame   0x0000000000005f08       0x60 /usr/lib/gcc/arm-none-eabi/5.2.0/../../../../arm-none-eabi/lib/armv7e-m/libc_nano.a(lib_a-nano-vfprintf_i.o)
 .debug_frame   0x0000000000005f68       0x5c /usr/lib/gcc/arm-none-eabi/5.2.0/../../../../arm-none-eabi/lib/armv7e-m/libc_nano.a(lib_a-reent.o)
 .debug_frame   0x0000000000005fc4       0x28 /usr/lib/gcc/arm-none-eabi/5.2.0/../../../../arm-none-eabi/lib/armv7e-m/libc_nano.a(lib_a-memchr.o)
 .debug_frame   0x0000000000005fec       0x20 /usr/lib/gcc/arm-none-eabi/5.2.0/../../../../arm-none-eabi/lib/armv7e-m/libc_nano.a(lib_a-nano-msizer.o)

.debug_loc      0x0000000000000000     0x18b7
 .debug_loc     0x0000000000000000       0x58 /usr/lib/gcc/arm-none-eabi/5.2.0/../../../../arm-none-eabi/lib/armv7e-m/libc_nano.a(lib_a-malloc.o)
 .debug_loc     0x0000000000000058      0x12e /usr/lib/gcc/arm-none-eabi/5.2.0/../../../../arm-none-eabi/lib/armv7e-m/libc_nano.a(lib_a-memcmp.o)
 .debug_loc     0x0000000000000186       0x87 /usr/lib/gcc/arm-none-eabi/5.2.0/../../../../arm-none-eabi/lib/armv7e-m/libc_nano.a(lib_a-memcpy.o)
 .debug_loc     0x000000000000020d       0xde /usr/lib/gcc/arm-none-eabi/5.2.0/../../../../arm-none-eabi/lib/armv7e-m/libc_nano.a(lib_a-memmove.o)
 .debug_loc     0x00000000000002eb       0x57 /usr/lib/gcc/arm-none-eabi/5.2.0/../../../../arm-none-eabi/lib/armv7e-m/libc_nano.a(lib_a-memset.o)
 .debug_loc     0x0000000000000342      0x172 /usr/lib/gcc/arm-none-eabi/5.2.0/../../../../arm-none-eabi/lib/armv7e-m/libc_nano.a(lib_a-nano-freer.o)
 .debug_loc     0x00000000000004b4      0x311 /usr/lib/gcc/arm-none-eabi/5.2.0/../../../../arm-none-eabi/lib/armv7e-m/libc_nano.a(lib_a-nano-mallocr.o)
 .debug_loc     0x00000000000007c5       0x58 /usr/lib/gcc/arm-none-eabi/5.2.0/../../../../arm-none-eabi/lib/armv7e-m/libc_nano.a(lib_a-realloc.o)
 .debug_loc     0x000000000000081d       0x4d /usr/lib/gcc/arm-none-eabi/5.2.0/../../../../arm-none-eabi/lib/armv7e-m/libc_nano.a(lib_a-sbrkr.o)
 .debug_loc     0x000000000000086a       0x21 /usr/lib/gcc/arm-none-eabi/5.2.0/../../../../arm-none-eabi/lib/armv7e-m/libc_nano.a(lib_a-strlen.o)
 .debug_loc     0x000000000000088b       0xdb /usr/lib/gcc/arm-none-eabi/5.2.0/../../../../arm-none-eabi/lib/armv7e-m/libc_nano.a(lib_a-strncpy.o)
 .debug_loc     0x0000000000000966      0x163 /usr/lib/gcc/arm-none-eabi/5.2.0/../../../../arm-none-eabi/lib/armv7e-m/libc_nano.a(lib_a-vsnprintf.o)
 .debug_loc     0x0000000000000ac9      0x11b /usr/lib/gcc/arm-none-eabi/5.2.0/../../../../arm-none-eabi/lib/armv7e-m/libc_nano.a(lib_a-nano-reallocr.o)
 .debug_loc     0x0000000000000be4      0x54e /usr/lib/gcc/arm-none-eabi/5.2.0/../../../../arm-none-eabi/lib/armv7e-m/libc_nano.a(lib_a-nano-svfprintf.o)
 .debug_loc     0x0000000000001132      0x52c /usr/lib/gcc/arm-none-eabi/5.2.0/../../../../arm-none-eabi/lib/armv7e-m/libc_nano.a(lib_a-nano-vfprintf_i.o)
 .debug_loc     0x000000000000165e       0xfa /usr/lib/gcc/arm-none-eabi/5.2.0/../../../../arm-none-eabi/lib/armv7e-m/libc_nano.a(lib_a-reent.o)
 .debug_loc     0x0000000000001758       0xaa /usr/lib/gcc/arm-none-eabi/5.2.0/../../../../arm-none-eabi/lib/armv7e-m/libc_nano.a(lib_a-memchr.o)
 .debug_loc     0x0000000000001802       0xb5 /usr/lib/gcc/arm-none-eabi/5.2.0/../../../../arm-none-eabi/lib/armv7e-m/libc_nano.a(lib_a-nano-msizer.o)
