Archive member included to satisfy reference by file (symbol)

../../../netapps/http/server/gcc/lib/Debug/libwebserver.a(HttpCore.o)
                              obj/Debug/httpserverapp.o (HttpServerInitAndRun)
../../../netapps/http/server/gcc/lib/Debug/libwebserver.a(HttpDebug.o)
                              ../../../netapps/http/server/gcc/lib/Debug/libwebserver.a(HttpCore.o) (HttpAssert)
../../../netapps/http/server/gcc/lib/Debug/libwebserver.a(HttpDynamic.o)
                              ../../../netapps/http/server/gcc/lib/Debug/libwebserver.a(HttpCore.o) (HttpDynamic_InitRequest)
../../../netapps/http/server/gcc/lib/Debug/libwebserver.a(HttpSocket.o)
                              ../../../netapps/http/server/gcc/lib/Debug/libwebserver.a(HttpCore.o) (CloseTCPServerSocket)
../../../netapps/http/server/gcc/lib/Debug/libwebserver.a(HttpStatic.o)
                              ../../../netapps/http/server/gcc/lib/Debug/libwebserver.a(HttpCore.o) (glFileHandle)
../../../netapps/http/server/gcc/lib/Debug/libwebserver.a(HttpString.o)
                              ../../../netapps/http/server/gcc/lib/Debug/libwebserver.a(HttpCore.o) (HttpString_nextToken)
../../../netapps/http/server/gcc/lib/Debug/libwebserver.a(sha1.o)
                              ../../../netapps/http/server/gcc/lib/Debug/libwebserver.a(HttpCore.o) (SHA1)
../../../netapps/http/server/gcc/lib/Debug/libwebserver.a(WebSockHandler.o)
                              ../../../netapps/http/server/gcc/lib/Debug/libwebserver.a(HttpCore.o) (WSCore_DataRecv)
../../../netapps/http/server/gcc/lib/Debug/libwebserver.a(base64.o)
                              ../../../netapps/http/server/gcc/lib/Debug/libwebserver.a(HttpCore.o) (ConvertToBase64)
../../../simplelink/gcc/lib/os/Debug/libsimplelink.a(device.o)
                              obj/Debug/network_if.o (sl_Start)
../../../simplelink/gcc/lib/os/Debug/libsimplelink.a(driver.o)
                              ../../../simplelink/gcc/lib/os/Debug/libsimplelink.a(device.o) (g_SlDeviceStatus)
../../../simplelink/gcc/lib/os/Debug/libsimplelink.a(netapp.o)
                              obj/Debug/httpserverapp.o (sl_NetAppStop)
../../../simplelink/gcc/lib/os/Debug/libsimplelink.a(netcfg.o)
                              obj/Debug/network_if.o (sl_NetCfgSet)
../../../simplelink/gcc/lib/os/Debug/libsimplelink.a(fs.o)
                              ../../../netapps/http/server/gcc/lib/Debug/libwebserver.a(HttpStatic.o) (sl_FsOpen)
../../../simplelink/gcc/lib/os/Debug/libsimplelink.a(socket.o)
                              ../../../netapps/http/server/gcc/lib/Debug/libwebserver.a(HttpSocket.o) (sl_Socket)
../../../simplelink/gcc/lib/os/Debug/libsimplelink.a(wlan.o)
                              obj/Debug/network_if.o (sl_WlanConnect)
../../../simplelink/gcc/lib/os/Debug/libsimplelink.a(cc_pal.o)
                              ../../../simplelink/gcc/lib/os/Debug/libsimplelink.a(device.o) (spi_Open)
../../../oslib/gcc/free_rtos/Debug/free_rtos.a(osi_freertos.o)
                              obj/Debug/udma_if.o (osi_InterruptRegister)
../../../oslib/gcc/free_rtos/Debug/free_rtos.a(queue.o)
                              ../../../oslib/gcc/free_rtos/Debug/free_rtos.a(osi_freertos.o) (xQueueGenericCreate)
../../../oslib/gcc/free_rtos/Debug/free_rtos.a(tasks.o)
                              ../../../oslib/gcc/free_rtos/Debug/free_rtos.a(osi_freertos.o) (xTaskGenericCreate)
../../../oslib/gcc/free_rtos/Debug/free_rtos.a(port.o)
                              ../../../oslib/gcc/free_rtos/Debug/free_rtos.a(tasks.o) (pxPortInitialiseStack)
../../../oslib/gcc/free_rtos/Debug/free_rtos.a(timers.o)
                              ../../../oslib/gcc/free_rtos/Debug/free_rtos.a(tasks.o) (xTimerCreateTimerTask)
../../../oslib/gcc/free_rtos/Debug/free_rtos.a(heap_3.o)
                              ../../../oslib/gcc/free_rtos/Debug/free_rtos.a(osi_freertos.o) (pvPortMalloc)
../../../oslib/gcc/free_rtos/Debug/free_rtos.a(list.o)
                              ../../../oslib/gcc/free_rtos/Debug/free_rtos.a(queue.o) (vListInitialise)
../../../driverlib/gcc/lib/Debug/libdriver.a(camera.o)
                              obj/Debug/camera_app.o (CameraReset)
../../../driverlib/gcc/lib/Debug/libdriver.a(i2c.o)
                              obj/Debug/i2cconfig.o (I2CMasterInitExpClk)
../../../driverlib/gcc/lib/Debug/libdriver.a(interrupt.o)
                              obj/Debug/main.o (IntMasterEnable)
../../../driverlib/gcc/lib/Debug/libdriver.a(pin.o)
                              obj/Debug/pinmux.o (PinTypeI2C)
../../../driverlib/gcc/lib/Debug/libdriver.a(prcm.o)
                              obj/Debug/camera_app.o (PRCMPeripheralClkEnable)
../../../driverlib/gcc/lib/Debug/libdriver.a(shamd5.o)
                              ../../../netapps/http/server/gcc/lib/Debug/libwebserver.a(sha1.o) (SHAMD5IntStatus)
../../../driverlib/gcc/lib/Debug/libdriver.a(spi.o)
                              ../../../simplelink/gcc/lib/os/Debug/libsimplelink.a(cc_pal.o) (SPIEnable)
../../../driverlib/gcc/lib/Debug/libdriver.a(timer.o)
                              ../../../simplelink/gcc/lib/os/Debug/libsimplelink.a(cc_pal.o) (TimerEnable)
../../../driverlib/gcc/lib/Debug/libdriver.a(uart.o)
                              obj/Debug/uart_if.o (UARTConfigSetExpClk)
../../../driverlib/gcc/lib/Debug/libdriver.a(udma.o)
                              obj/Debug/udma_if.o (uDMAEnable)
../../../driverlib/gcc/lib/Debug/libdriver.a(utils.o)
                              obj/Debug/camera_app.o (UtilsDelay)
../../../driverlib/gcc/lib/Debug/libdriver.a(cpu.o)
                              ../../../driverlib/gcc/lib/Debug/libdriver.a(interrupt.o) (CPUcpsid)
../../../driverlib/gcc/lib/Debug/libdriver.a(flash.o)
                              ../../../driverlib/gcc/lib/Debug/libdriver.a(prcm.o) (FlashDisable)
/usr/lib/gcc/arm-none-eabi/5.2.0/../../../../arm-none-eabi/lib/armv7e-m/libc_nano.a(lib_a-atoi.o)
                              ../../../netapps/http/server/gcc/lib/Debug/libwebserver.a(HttpString.o) (atoi)
/usr/lib/gcc/arm-none-eabi/5.2.0/../../../../arm-none-eabi/lib/armv7e-m/libc_nano.a(lib_a-malloc.o)
                              obj/Debug/uart_if.o (malloc)
/usr/lib/gcc/arm-none-eabi/5.2.0/../../../../arm-none-eabi/lib/armv7e-m/libc_nano.a(lib_a-memchr.o)
                              ../../../netapps/http/server/gcc/lib/Debug/libwebserver.a(HttpString.o) (memchr)
/usr/lib/gcc/arm-none-eabi/5.2.0/../../../../arm-none-eabi/lib/armv7e-m/libc_nano.a(lib_a-memcmp.o)
                              ../../../netapps/http/server/gcc/lib/Debug/libwebserver.a(HttpString.o) (memcmp)
/usr/lib/gcc/arm-none-eabi/5.2.0/../../../../arm-none-eabi/lib/armv7e-m/libc_nano.a(lib_a-memcpy.o)
                              obj/Debug/network_if.o (memcpy)
/usr/lib/gcc/arm-none-eabi/5.2.0/../../../../arm-none-eabi/lib/armv7e-m/libc_nano.a(lib_a-memmove.o)
                              obj/Debug/uart_if.o (memmove)
/usr/lib/gcc/arm-none-eabi/5.2.0/../../../../arm-none-eabi/lib/armv7e-m/libc_nano.a(lib_a-memset.o)
                              obj/Debug/camera_app.o (memset)
/usr/lib/gcc/arm-none-eabi/5.2.0/../../../../arm-none-eabi/lib/armv7e-m/libc_nano.a(lib_a-nano-freer.o)
                              /usr/lib/gcc/arm-none-eabi/5.2.0/../../../../arm-none-eabi/lib/armv7e-m/libc_nano.a(lib_a-malloc.o) (_free_r)
/usr/lib/gcc/arm-none-eabi/5.2.0/../../../../arm-none-eabi/lib/armv7e-m/libc_nano.a(lib_a-nano-mallocr.o)
                              /usr/lib/gcc/arm-none-eabi/5.2.0/../../../../arm-none-eabi/lib/armv7e-m/libc_nano.a(lib_a-malloc.o) (_malloc_r)
/usr/lib/gcc/arm-none-eabi/5.2.0/../../../../arm-none-eabi/lib/armv7e-m/libc_nano.a(lib_a-realloc.o)
                              obj/Debug/uart_if.o (realloc)
/usr/lib/gcc/arm-none-eabi/5.2.0/../../../../arm-none-eabi/lib/armv7e-m/libc_nano.a(lib_a-sbrkr.o)
                              /usr/lib/gcc/arm-none-eabi/5.2.0/../../../../arm-none-eabi/lib/armv7e-m/libc_nano.a(lib_a-nano-mallocr.o) (_sbrk_r)
/usr/lib/gcc/arm-none-eabi/5.2.0/../../../../arm-none-eabi/lib/armv7e-m/libc_nano.a(lib_a-sprintf.o)
                              ../../../oslib/gcc/free_rtos/Debug/free_rtos.a(tasks.o) (sprintf)
/usr/lib/gcc/arm-none-eabi/5.2.0/../../../../arm-none-eabi/lib/armv7e-m/libc_nano.a(lib_a-strcmp.o)
                              obj/Debug/httpserverapp.o (strcmp)
/usr/lib/gcc/arm-none-eabi/5.2.0/../../../../arm-none-eabi/lib/armv7e-m/libc_nano.a(lib_a-strcpy.o)
                              ../../../netapps/http/server/gcc/lib/Debug/libwebserver.a(HttpStatic.o) (strcpy)
/usr/lib/gcc/arm-none-eabi/5.2.0/../../../../arm-none-eabi/lib/armv7e-m/libc_nano.a(lib_a-strlen.o)
                              obj/Debug/uart_if.o (strlen)
/usr/lib/gcc/arm-none-eabi/5.2.0/../../../../arm-none-eabi/lib/armv7e-m/libc_nano.a(lib_a-strncat.o)
                              ../../../netapps/http/server/gcc/lib/Debug/libwebserver.a(HttpCore.o) (strncat)
/usr/lib/gcc/arm-none-eabi/5.2.0/../../../../arm-none-eabi/lib/armv7e-m/libc_nano.a(lib_a-strncpy.o)
                              obj/Debug/network_if.o (strncpy)
/usr/lib/gcc/arm-none-eabi/5.2.0/../../../../arm-none-eabi/lib/armv7e-m/libc_nano.a(lib_a-strtol.o)
                              /usr/lib/gcc/arm-none-eabi/5.2.0/../../../../arm-none-eabi/lib/armv7e-m/libc_nano.a(lib_a-atoi.o) (_strtol_r)
/usr/lib/gcc/arm-none-eabi/5.2.0/../../../../arm-none-eabi/lib/armv7e-m/libc_nano.a(lib_a-vsnprintf.o)
                              obj/Debug/uart_if.o (vsnprintf)
/usr/lib/gcc/arm-none-eabi/5.2.0/../../../../arm-none-eabi/lib/armv7e-m/libc_nano.a(lib_a-ctype_.o)
                              /usr/lib/gcc/arm-none-eabi/5.2.0/../../../../arm-none-eabi/lib/armv7e-m/libc_nano.a(lib_a-strtol.o) (__ctype_ptr__)
/usr/lib/gcc/arm-none-eabi/5.2.0/../../../../arm-none-eabi/lib/armv7e-m/libc_nano.a(lib_a-impure.o)
                              /usr/lib/gcc/arm-none-eabi/5.2.0/../../../../arm-none-eabi/lib/armv7e-m/libc_nano.a(lib_a-malloc.o) (_impure_ptr)
/usr/lib/gcc/arm-none-eabi/5.2.0/../../../../arm-none-eabi/lib/armv7e-m/libc_nano.a(lib_a-nano-reallocr.o)
                              /usr/lib/gcc/arm-none-eabi/5.2.0/../../../../arm-none-eabi/lib/armv7e-m/libc_nano.a(lib_a-realloc.o) (_realloc_r)
/usr/lib/gcc/arm-none-eabi/5.2.0/../../../../arm-none-eabi/lib/armv7e-m/libc_nano.a(lib_a-nano-svfprintf.o)
                              /usr/lib/gcc/arm-none-eabi/5.2.0/../../../../arm-none-eabi/lib/armv7e-m/libc_nano.a(lib_a-sprintf.o) (_svfprintf_r)
/usr/lib/gcc/arm-none-eabi/5.2.0/../../../../arm-none-eabi/lib/armv7e-m/libc_nano.a(lib_a-nano-vfprintf_i.o)
                              /usr/lib/gcc/arm-none-eabi/5.2.0/../../../../arm-none-eabi/lib/armv7e-m/libc_nano.a(lib_a-nano-svfprintf.o) (_printf_i)
/usr/lib/gcc/arm-none-eabi/5.2.0/../../../../arm-none-eabi/lib/armv7e-m/libc_nano.a(lib_a-reent.o)
                              /usr/lib/gcc/arm-none-eabi/5.2.0/../../../../arm-none-eabi/lib/armv7e-m/libc_nano.a(lib_a-sbrkr.o) (errno)
/usr/lib/gcc/arm-none-eabi/5.2.0/../../../../arm-none-eabi/lib/armv7e-m/libc_nano.a(lib_a-nano-msizer.o)
                              /usr/lib/gcc/arm-none-eabi/5.2.0/../../../../arm-none-eabi/lib/armv7e-m/libc_nano.a(lib_a-nano-reallocr.o) (_malloc_usable_size_r)
/usr/lib/gcc/arm-none-eabi/5.2.0/armv7e-m/libgcc.a(_aeabi_uldivmod.o)
                              ../../../driverlib/gcc/lib/Debug/libdriver.a(prcm.o) (__aeabi_uldivmod)
/usr/lib/gcc/arm-none-eabi/5.2.0/armv7e-m/libgcc.a(_udivmoddi4.o)
                              /usr/lib/gcc/arm-none-eabi/5.2.0/armv7e-m/libgcc.a(_aeabi_uldivmod.o) (__udivmoddi4)
/usr/lib/gcc/arm-none-eabi/5.2.0/armv7e-m/libgcc.a(_dvmd_tls.o)
                              /usr/lib/gcc/arm-none-eabi/5.2.0/armv7e-m/libgcc.a(_aeabi_uldivmod.o) (__aeabi_ldiv0)

Allocating common symbols
Common symbol       size              file

gfpAppCallbackHndl  0x100             obj/Debug/udma_if.o
g_Buffer            0x4               obj/Debug/httpserverapp.o
g_uConnection       0x2               obj/Debug/httpserverapp.o
g_bDeviceRestartIsRequired
                    0x1               ../../../simplelink/gcc/lib/os/Debug/libsimplelink.a(driver.o)
Mask                0x1               ../../../netapps/http/server/gcc/lib/Debug/libwebserver.a(WebSockHandler.o)
errno               0x4               /usr/lib/gcc/arm-none-eabi/5.2.0/../../../../arm-none-eabi/lib/armv7e-m/libc_nano.a(lib_a-reent.o)
g_WaitSyncObj       0x4               ../../../netapps/http/server/gcc/lib/Debug/libwebserver.a(HttpCore.o)
MaskKey             0x4               ../../../netapps/http/server/gcc/lib/Debug/libwebserver.a(WebSockHandler.o)
g_header_length     0x4               obj/Debug/camera_app.o
g_bOutputReadyFlag  0x1               ../../../netapps/http/server/gcc/lib/Debug/libwebserver.a(sha1.o)
xQueueRegistry      0x50              ../../../oslib/gcc/free_rtos/Debug/free_rtos.a(queue.o)
RxIrqCnt            0x1               ../../../simplelink/gcc/lib/os/Debug/libsimplelink.a(driver.o)
g_bInputReadyFlag   0x1               ../../../netapps/http/server/gcc/lib/Debug/libwebserver.a(sha1.o)
g_bContextReadyFlag
                    0x1               ../../../netapps/http/server/gcc/lib/Debug/libwebserver.a(sha1.o)
iDone               0x1               obj/Debug/udma_if.o
g_usConnectIndex    0x2               obj/Debug/network_if.o
g_ucConnectionBSSID
                    0x6               obj/Debug/network_if.o
g_bParthashReadyFlag
                    0x1               ../../../netapps/http/server/gcc/lib/Debug/libwebserver.a(sha1.o)
WS_KEY              0x19              ../../../netapps/http/server/gcc/lib/Debug/libwebserver.a(HttpCore.o)
GlobRecvBuf         0x4               ../../../netapps/http/server/gcc/lib/Debug/libwebserver.a(WebSockHandler.o)
GlobPayloadLen      0x8               ../../../netapps/http/server/gcc/lib/Debug/libwebserver.a(WebSockHandler.o)
gpCtlTbl            0x400             obj/Debug/udma_if.o
g_image             0xcc00            obj/Debug/camera_app.o
g_cDummy            0x4               ../../../simplelink/gcc/lib/os/Debug/libsimplelink.a(cc_pal.o)
g_cFileName         0x28              ../../../netapps/http/server/gcc/lib/Debug/libwebserver.a(HttpStatic.o)
g_ucConnectionSSID  0x21              obj/Debug/network_if.o
GlobRecvLen         0x8               ../../../netapps/http/server/gcc/lib/Debug/libwebserver.a(WebSockHandler.o)
DMAMsgQ             0x4               ../../../simplelink/gcc/lib/os/Debug/libsimplelink.a(cc_pal.o)
g_RestContent       0x78              ../../../netapps/http/server/gcc/lib/Debug/libwebserver.a(HttpDynamic.o)
g_ucDinDout         0x50              ../../../simplelink/gcc/lib/os/Debug/libsimplelink.a(cc_pal.o)
g_frame_size_in_bytes
                    0x4               obj/Debug/camera_app.o
glFileHandle        0x4               ../../../netapps/http/server/gcc/lib/Debug/libwebserver.a(HttpStatic.o)
g_state             0x15c8            ../../../netapps/http/server/gcc/lib/Debug/libwebserver.a(HttpCore.o)

Discarded input sections

 .text          0x0000000000000000        0x0 obj/Debug/camera_app.o
 .data          0x0000000000000000        0x0 obj/Debug/camera_app.o
 .bss           0x0000000000000000        0x0 obj/Debug/camera_app.o
 .data.g_uiDeviceModeConfig
                0x0000000000000000        0x4 obj/Debug/camera_app.o
 .bss.g_uiIpAddress
                0x0000000000000000        0x4 obj/Debug/camera_app.o
 .text.SetCameraResolution
                0x0000000000000000       0x4c obj/Debug/camera_app.o
 .text          0x0000000000000000        0x0 obj/Debug/i2cconfig.o
 .data          0x0000000000000000        0x0 obj/Debug/i2cconfig.o
 .bss           0x0000000000000000        0x0 obj/Debug/i2cconfig.o
 .text          0x0000000000000000        0x0 obj/Debug/mt9d111.o
 .data          0x0000000000000000        0x0 obj/Debug/mt9d111.o
 .bss           0x0000000000000000        0x0 obj/Debug/mt9d111.o
 .data.stop_jpeg_capture_cmd_list
                0x0000000000000000        0xc obj/Debug/mt9d111.o
 .text.CameraSensorResolution
                0x0000000000000000       0xa4 obj/Debug/mt9d111.o
 .rodata.__FUNCTION__.5111
                0x0000000000000000       0x18 obj/Debug/mt9d111.o
 .text          0x0000000000000000        0x0 obj/Debug/main.o
 .data          0x0000000000000000        0x0 obj/Debug/main.o
 .bss           0x0000000000000000        0x0 obj/Debug/main.o
 .text          0x0000000000000000        0x0 obj/Debug/httpserverapp.o
 .data          0x0000000000000000        0x0 obj/Debug/httpserverapp.o
 .bss           0x0000000000000000        0x0 obj/Debug/httpserverapp.o
 .text          0x0000000000000000        0x0 obj/Debug/pinmux.o
 .data          0x0000000000000000        0x0 obj/Debug/pinmux.o
 .bss           0x0000000000000000        0x0 obj/Debug/pinmux.o
 .text          0x0000000000000000        0x0 obj/Debug/uart_if.o
 .data          0x0000000000000000        0x0 obj/Debug/uart_if.o
 .bss           0x0000000000000000        0x0 obj/Debug/uart_if.o
 .data.ilen     0x0000000000000000        0x4 obj/Debug/uart_if.o
 .text.ClearTerm
                0x0000000000000000       0x14 obj/Debug/uart_if.o
 .text.Error    0x0000000000000000       0x4c obj/Debug/uart_if.o
 .text.GetCmd   0x0000000000000000       0xc4 obj/Debug/uart_if.o
 .text.TrimSpace
                0x0000000000000000       0x90 obj/Debug/uart_if.o
 .text          0x0000000000000000        0x0 obj/Debug/network_if.o
 .data          0x0000000000000000        0x0 obj/Debug/network_if.o
 .bss           0x0000000000000000        0x0 obj/Debug/network_if.o
 .rodata.pcDigits
                0x0000000000000000        0xc obj/Debug/network_if.o
 .text.Network_IF_DeInitDriver
                0x0000000000000000       0x30 obj/Debug/network_if.o
 .text.Network_IF_ConnectAP
                0x0000000000000000      0x27c obj/Debug/network_if.o
 .text.Network_IF_DisconnectFromAP
                0x0000000000000000       0x50 obj/Debug/network_if.o
 .text.Network_IF_IpConfigGet
                0x0000000000000000       0x80 obj/Debug/network_if.o
 .text.Network_IF_GetHostIP
                0x0000000000000000       0x80 obj/Debug/network_if.o
 .text.Network_IF_ResetMCUStateMachine
                0x0000000000000000       0x18 obj/Debug/network_if.o
 .text.Network_IF_CurrentMCUState
                0x0000000000000000       0x14 obj/Debug/network_if.o
 .text.Network_IF_SetMCUMachineState
                0x0000000000000000       0x2c obj/Debug/network_if.o
 .text.Network_IF_UnsetMCUMachineState
                0x0000000000000000       0x30 obj/Debug/network_if.o
 .text.itoa_incompat
                0x0000000000000000       0xb4 obj/Debug/network_if.o
 .rodata.__FUNCTION__.5953
                0x0000000000000000       0x18 obj/Debug/network_if.o
 .rodata.__FUNCTION__.5981
                0x0000000000000000       0x18 obj/Debug/network_if.o
 .rodata.__FUNCTION__.5987
                0x0000000000000000       0x18 obj/Debug/network_if.o
 .text          0x0000000000000000        0x0 obj/Debug/udma_if.o
 .data          0x0000000000000000        0x0 obj/Debug/udma_if.o
 .bss           0x0000000000000000        0x0 obj/Debug/udma_if.o
 .text.UDMAChannelSelect
                0x0000000000000000       0x3c obj/Debug/udma_if.o
 .text.UDMASetupAutoMemTransfer
                0x0000000000000000       0x38 obj/Debug/udma_if.o
 .text.UDMASetupPingPongTransfer
                0x0000000000000000       0x60 obj/Debug/udma_if.o
 .text.UDMAStartTransfer
                0x0000000000000000       0x18 obj/Debug/udma_if.o
 .text.UDMAStopTransfer
                0x0000000000000000       0x18 obj/Debug/udma_if.o
 .text.UDMADeInit
                0x0000000000000000       0x18 obj/Debug/udma_if.o
 .text          0x0000000000000000        0x0 obj/Debug/startup_gcc.o
 .data          0x0000000000000000        0x0 obj/Debug/startup_gcc.o
 .bss           0x0000000000000000        0x0 obj/Debug/startup_gcc.o
 .text          0x0000000000000000        0x0 ../../../netapps/http/server/gcc/lib/Debug/libwebserver.a(HttpCore.o)
 .data          0x0000000000000000        0x0 ../../../netapps/http/server/gcc/lib/Debug/libwebserver.a(HttpCore.o)
 .bss           0x0000000000000000        0x0 ../../../netapps/http/server/gcc/lib/Debug/libwebserver.a(HttpCore.o)
 .text.HttpResponse_GetPacketSendBuffer
                0x0000000000000000       0x30 ../../../netapps/http/server/gcc/lib/Debug/libwebserver.a(HttpCore.o)
 .text.HttpResponse_CannedRedirect
                0x0000000000000000       0x84 ../../../netapps/http/server/gcc/lib/Debug/libwebserver.a(HttpCore.o)
 .text          0x0000000000000000        0x0 ../../../netapps/http/server/gcc/lib/Debug/libwebserver.a(HttpDebug.o)
 .data          0x0000000000000000        0x0 ../../../netapps/http/server/gcc/lib/Debug/libwebserver.a(HttpDebug.o)
 .bss           0x0000000000000000        0x0 ../../../netapps/http/server/gcc/lib/Debug/libwebserver.a(HttpDebug.o)
 .text.HttpDebugStr
                0x0000000000000000       0x1c ../../../netapps/http/server/gcc/lib/Debug/libwebserver.a(HttpDebug.o)
 .text          0x0000000000000000        0x0 ../../../netapps/http/server/gcc/lib/Debug/libwebserver.a(HttpDynamic.o)
 .data          0x0000000000000000        0x0 ../../../netapps/http/server/gcc/lib/Debug/libwebserver.a(HttpDynamic.o)
 .bss           0x0000000000000000        0x0 ../../../netapps/http/server/gcc/lib/Debug/libwebserver.a(HttpDynamic.o)
 .text.SetResources
                0x0000000000000000       0x78 ../../../netapps/http/server/gcc/lib/Debug/libwebserver.a(HttpDynamic.o)
 .text          0x0000000000000000        0x0 ../../../netapps/http/server/gcc/lib/Debug/libwebserver.a(HttpSocket.o)
 .data          0x0000000000000000        0x0 ../../../netapps/http/server/gcc/lib/Debug/libwebserver.a(HttpSocket.o)
 .bss           0x0000000000000000        0x0 ../../../netapps/http/server/gcc/lib/Debug/libwebserver.a(HttpSocket.o)
 .text          0x0000000000000000        0x0 ../../../netapps/http/server/gcc/lib/Debug/libwebserver.a(HttpStatic.o)
 .data          0x0000000000000000        0x0 ../../../netapps/http/server/gcc/lib/Debug/libwebserver.a(HttpStatic.o)
 .bss           0x0000000000000000        0x0 ../../../netapps/http/server/gcc/lib/Debug/libwebserver.a(HttpStatic.o)
 .text          0x0000000000000000        0x0 ../../../netapps/http/server/gcc/lib/Debug/libwebserver.a(HttpString.o)
 .data          0x0000000000000000        0x0 ../../../netapps/http/server/gcc/lib/Debug/libwebserver.a(HttpString.o)
 .bss           0x0000000000000000        0x0 ../../../netapps/http/server/gcc/lib/Debug/libwebserver.a(HttpString.o)
 .data.hexDigits
                0x0000000000000000       0x14 ../../../netapps/http/server/gcc/lib/Debug/libwebserver.a(HttpString.o)
 .text.HttpString_htoa
                0x0000000000000000       0x90 ../../../netapps/http/server/gcc/lib/Debug/libwebserver.a(HttpString.o)
 .text          0x0000000000000000        0x0 ../../../netapps/http/server/gcc/lib/Debug/libwebserver.a(sha1.o)
 .data          0x0000000000000000        0x0 ../../../netapps/http/server/gcc/lib/Debug/libwebserver.a(sha1.o)
 .bss           0x0000000000000000        0x0 ../../../netapps/http/server/gcc/lib/Debug/libwebserver.a(sha1.o)
 .text          0x0000000000000000        0x0 ../../../netapps/http/server/gcc/lib/Debug/libwebserver.a(WebSockHandler.o)
 .data          0x0000000000000000        0x0 ../../../netapps/http/server/gcc/lib/Debug/libwebserver.a(WebSockHandler.o)
 .bss           0x0000000000000000        0x0 ../../../netapps/http/server/gcc/lib/Debug/libwebserver.a(WebSockHandler.o)
 .text          0x0000000000000000        0x0 ../../../netapps/http/server/gcc/lib/Debug/libwebserver.a(base64.o)
 .data          0x0000000000000000        0x0 ../../../netapps/http/server/gcc/lib/Debug/libwebserver.a(base64.o)
 .bss           0x0000000000000000        0x0 ../../../netapps/http/server/gcc/lib/Debug/libwebserver.a(base64.o)
 .text          0x0000000000000000        0x0 ../../../simplelink/gcc/lib/os/Debug/libsimplelink.a(device.o)
 .data          0x0000000000000000        0x0 ../../../simplelink/gcc/lib/os/Debug/libsimplelink.a(device.o)
 .bss           0x0000000000000000        0x0 ../../../simplelink/gcc/lib/os/Debug/libsimplelink.a(device.o)
 .text.sl_Stop_WithNwpLpdsPoll
                0x0000000000000000       0xe4 ../../../simplelink/gcc/lib/os/Debug/libsimplelink.a(device.o)
 .rodata._SlEventMaskSetCmdCtrl
                0x0000000000000000        0x4 ../../../simplelink/gcc/lib/os/Debug/libsimplelink.a(device.o)
 .text.sl_EventMaskSet
                0x0000000000000000       0x6c ../../../simplelink/gcc/lib/os/Debug/libsimplelink.a(device.o)
 .rodata._SlEventMaskGetCmdCtrl
                0x0000000000000000        0x4 ../../../simplelink/gcc/lib/os/Debug/libsimplelink.a(device.o)
 .text.sl_EventMaskGet
                0x0000000000000000       0x70 ../../../simplelink/gcc/lib/os/Debug/libsimplelink.a(device.o)
 .rodata._SlDeviceSetCmdCtrl
                0x0000000000000000        0x4 ../../../simplelink/gcc/lib/os/Debug/libsimplelink.a(device.o)
 .text.sl_DevSet
                0x0000000000000000       0xa0 ../../../simplelink/gcc/lib/os/Debug/libsimplelink.a(device.o)
 .text          0x0000000000000000        0x0 ../../../simplelink/gcc/lib/os/Debug/libsimplelink.a(driver.o)
 .data          0x0000000000000000        0x0 ../../../simplelink/gcc/lib/os/Debug/libsimplelink.a(driver.o)
 .bss           0x0000000000000000        0x0 ../../../simplelink/gcc/lib/os/Debug/libsimplelink.a(driver.o)
 .text          0x0000000000000000        0x0 ../../../simplelink/gcc/lib/os/Debug/libsimplelink.a(netapp.o)
 .data          0x0000000000000000        0x0 ../../../simplelink/gcc/lib/os/Debug/libsimplelink.a(netapp.o)
 .bss           0x0000000000000000        0x0 ../../../simplelink/gcc/lib/os/Debug/libsimplelink.a(netapp.o)
 .rodata._SlNetAppStartCtrl
                0x0000000000000000        0x4 ../../../simplelink/gcc/lib/os/Debug/libsimplelink.a(netapp.o)
 .text.sl_NetAppStart
                0x0000000000000000       0x64 ../../../simplelink/gcc/lib/os/Debug/libsimplelink.a(netapp.o)
 .rodata._SlGetServiceListeCtrl
                0x0000000000000000        0x4 ../../../simplelink/gcc/lib/os/Debug/libsimplelink.a(netapp.o)
 .text.sl_NetAppGetServiceList
                0x0000000000000000       0xe8 ../../../simplelink/gcc/lib/os/Debug/libsimplelink.a(netapp.o)
 .text.sl_NetAppMDNSRegisterService
                0x0000000000000000       0x6c ../../../simplelink/gcc/lib/os/Debug/libsimplelink.a(netapp.o)
 .rodata._SlGetHostByServiceCtrl
                0x0000000000000000        0x4 ../../../simplelink/gcc/lib/os/Debug/libsimplelink.a(netapp.o)
 .text.sl_NetAppDnsGetHostByService
                0x0000000000000000      0x144 ../../../simplelink/gcc/lib/os/Debug/libsimplelink.a(netapp.o)
 .text._sl_HandleAsync_DnsGetHostByAddr
                0x0000000000000000       0x18 ../../../simplelink/gcc/lib/os/Debug/libsimplelink.a(netapp.o)
 .rodata._SlGetHostByNameCtrl
                0x0000000000000000        0x4 ../../../simplelink/gcc/lib/os/Debug/libsimplelink.a(netapp.o)
 .text.sl_NetAppDnsGetHostByName
                0x0000000000000000      0x16c ../../../simplelink/gcc/lib/os/Debug/libsimplelink.a(netapp.o)
 .rodata        0x0000000000000000        0x4 ../../../simplelink/gcc/lib/os/Debug/libsimplelink.a(netapp.o)
 .text.sl_NetAppPingStart
                0x0000000000000000      0x1f8 ../../../simplelink/gcc/lib/os/Debug/libsimplelink.a(netapp.o)
 .rodata._SlNetAppSetCmdCtrl
                0x0000000000000000        0x4 ../../../simplelink/gcc/lib/os/Debug/libsimplelink.a(netapp.o)
 .text.sl_NetAppSet
                0x0000000000000000       0xa0 ../../../simplelink/gcc/lib/os/Debug/libsimplelink.a(netapp.o)
 .rodata._SlNetAppGetCmdCtrl
                0x0000000000000000        0x4 ../../../simplelink/gcc/lib/os/Debug/libsimplelink.a(netapp.o)
 .text.sl_NetAppGet
                0x0000000000000000       0xc4 ../../../simplelink/gcc/lib/os/Debug/libsimplelink.a(netapp.o)
 .text          0x0000000000000000        0x0 ../../../simplelink/gcc/lib/os/Debug/libsimplelink.a(netcfg.o)
 .data          0x0000000000000000        0x0 ../../../simplelink/gcc/lib/os/Debug/libsimplelink.a(netcfg.o)
 .bss           0x0000000000000000        0x0 ../../../simplelink/gcc/lib/os/Debug/libsimplelink.a(netcfg.o)
 .rodata._SlNetCfgGetCmdCtrl
                0x0000000000000000        0x4 ../../../simplelink/gcc/lib/os/Debug/libsimplelink.a(netcfg.o)
 .text.sl_NetCfgGet
                0x0000000000000000       0xe8 ../../../simplelink/gcc/lib/os/Debug/libsimplelink.a(netcfg.o)
 .text          0x0000000000000000        0x0 ../../../simplelink/gcc/lib/os/Debug/libsimplelink.a(fs.o)
 .data          0x0000000000000000        0x0 ../../../simplelink/gcc/lib/os/Debug/libsimplelink.a(fs.o)
 .bss           0x0000000000000000        0x0 ../../../simplelink/gcc/lib/os/Debug/libsimplelink.a(fs.o)
 .rodata        0x0000000000000000       0x14 ../../../simplelink/gcc/lib/os/Debug/libsimplelink.a(fs.o)
 .text._sl_GetCreateFsMode
                0x0000000000000000       0xb4 ../../../simplelink/gcc/lib/os/Debug/libsimplelink.a(fs.o)
 .rodata._SlFsWriteCmdCtrl
                0x0000000000000000        0x4 ../../../simplelink/gcc/lib/os/Debug/libsimplelink.a(fs.o)
 .text.sl_FsWrite
                0x0000000000000000      0x108 ../../../simplelink/gcc/lib/os/Debug/libsimplelink.a(fs.o)
 .rodata._SlFsDeleteCmdCtrl
                0x0000000000000000        0x4 ../../../simplelink/gcc/lib/os/Debug/libsimplelink.a(fs.o)
 .text.sl_FsDel
                0x0000000000000000       0x88 ../../../simplelink/gcc/lib/os/Debug/libsimplelink.a(fs.o)
 .text          0x0000000000000000        0x0 ../../../simplelink/gcc/lib/os/Debug/libsimplelink.a(socket.o)
 .data          0x0000000000000000        0x0 ../../../simplelink/gcc/lib/os/Debug/libsimplelink.a(socket.o)
 .bss           0x0000000000000000        0x0 ../../../simplelink/gcc/lib/os/Debug/libsimplelink.a(socket.o)
 .text._sl_ParseAddress
                0x0000000000000000       0x64 ../../../simplelink/gcc/lib/os/Debug/libsimplelink.a(socket.o)
 .text.sl_SendTo
                0x0000000000000000      0x148 ../../../simplelink/gcc/lib/os/Debug/libsimplelink.a(socket.o)
 .rodata._SlRecvfomCmdCtrl
                0x0000000000000000        0x4 ../../../simplelink/gcc/lib/os/Debug/libsimplelink.a(socket.o)
 .text.sl_RecvFrom
                0x0000000000000000      0x140 ../../../simplelink/gcc/lib/os/Debug/libsimplelink.a(socket.o)
 .text.sl_Connect
                0x0000000000000000      0x194 ../../../simplelink/gcc/lib/os/Debug/libsimplelink.a(socket.o)
 .rodata._SlGetSockOptCmdCtrl
                0x0000000000000000        0x4 ../../../simplelink/gcc/lib/os/Debug/libsimplelink.a(socket.o)
 .text.sl_GetSockOpt
                0x0000000000000000       0xdc ../../../simplelink/gcc/lib/os/Debug/libsimplelink.a(socket.o)
 .rodata._SlSelectCmdCtrl
                0x0000000000000000        0x4 ../../../simplelink/gcc/lib/os/Debug/libsimplelink.a(socket.o)
 .text.sl_Select
                0x0000000000000000      0x180 ../../../simplelink/gcc/lib/os/Debug/libsimplelink.a(socket.o)
 .text.SL_FD_SET
                0x0000000000000000       0x2c ../../../simplelink/gcc/lib/os/Debug/libsimplelink.a(socket.o)
 .text.SL_FD_CLR
                0x0000000000000000       0x30 ../../../simplelink/gcc/lib/os/Debug/libsimplelink.a(socket.o)
 .text.SL_FD_ISSET
                0x0000000000000000       0x34 ../../../simplelink/gcc/lib/os/Debug/libsimplelink.a(socket.o)
 .text.SL_FD_ZERO
                0x0000000000000000       0x18 ../../../simplelink/gcc/lib/os/Debug/libsimplelink.a(socket.o)
 .text          0x0000000000000000        0x0 ../../../simplelink/gcc/lib/os/Debug/libsimplelink.a(wlan.o)
 .data          0x0000000000000000        0x0 ../../../simplelink/gcc/lib/os/Debug/libsimplelink.a(wlan.o)
 .bss           0x0000000000000000        0x0 ../../../simplelink/gcc/lib/os/Debug/libsimplelink.a(wlan.o)
 .text.sl_WlanConnect
                0x0000000000000000      0x2cc ../../../simplelink/gcc/lib/os/Debug/libsimplelink.a(wlan.o)
 .rodata._SlPolicyGetCmdCtrl
                0x0000000000000000        0x4 ../../../simplelink/gcc/lib/os/Debug/libsimplelink.a(wlan.o)
 .text.sl_WlanPolicyGet
                0x0000000000000000      0x108 ../../../simplelink/gcc/lib/os/Debug/libsimplelink.a(wlan.o)
 .text.sl_WlanProfileAdd
                0x0000000000000000      0x308 ../../../simplelink/gcc/lib/os/Debug/libsimplelink.a(wlan.o)
 .rodata._SlProfileGetCmdCtrl
                0x0000000000000000        0x4 ../../../simplelink/gcc/lib/os/Debug/libsimplelink.a(wlan.o)
 .text.sl_WlanProfileGet
                0x0000000000000000      0x154 ../../../simplelink/gcc/lib/os/Debug/libsimplelink.a(wlan.o)
 .rodata._SlWlanGetNetworkListCtrl
                0x0000000000000000        0x4 ../../../simplelink/gcc/lib/os/Debug/libsimplelink.a(wlan.o)
 .text.sl_WlanGetNetworkList
                0x0000000000000000       0xac ../../../simplelink/gcc/lib/os/Debug/libsimplelink.a(wlan.o)
 .rodata._SlRxFilterAddtCmdCtrl
                0x0000000000000000        0x4 ../../../simplelink/gcc/lib/os/Debug/libsimplelink.a(wlan.o)
 .text.sl_WlanRxFilterAdd
                0x0000000000000000       0xac ../../../simplelink/gcc/lib/os/Debug/libsimplelink.a(wlan.o)
 .rodata._SlRxFilterGetCmdCtrl
                0x0000000000000000        0x4 ../../../simplelink/gcc/lib/os/Debug/libsimplelink.a(wlan.o)
 .text.sl_WlanRxFilterGet
                0x0000000000000000       0xa4 ../../../simplelink/gcc/lib/os/Debug/libsimplelink.a(wlan.o)
 .text.sl_WlanRxStatStart
                0x0000000000000000       0x40 ../../../simplelink/gcc/lib/os/Debug/libsimplelink.a(wlan.o)
 .text.sl_WlanRxStatStop
                0x0000000000000000       0x40 ../../../simplelink/gcc/lib/os/Debug/libsimplelink.a(wlan.o)
 .rodata        0x0000000000000000        0x4 ../../../simplelink/gcc/lib/os/Debug/libsimplelink.a(wlan.o)
 .text.sl_WlanRxStatGet
                0x0000000000000000       0x74 ../../../simplelink/gcc/lib/os/Debug/libsimplelink.a(wlan.o)
 .text.sl_WlanSmartConfigStop
                0x0000000000000000       0x40 ../../../simplelink/gcc/lib/os/Debug/libsimplelink.a(wlan.o)
 .rodata._SlSmartConfigStartCmdCtrl
                0x0000000000000000        0x4 ../../../simplelink/gcc/lib/os/Debug/libsimplelink.a(wlan.o)
 .text.sl_WlanSmartConfigStart
                0x0000000000000000       0xdc ../../../simplelink/gcc/lib/os/Debug/libsimplelink.a(wlan.o)
 .rodata._SlWlanCfgGetCmdCtrl
                0x0000000000000000        0x4 ../../../simplelink/gcc/lib/os/Debug/libsimplelink.a(wlan.o)
 .text.sl_WlanGet
                0x0000000000000000       0xe0 ../../../simplelink/gcc/lib/os/Debug/libsimplelink.a(wlan.o)
 .text          0x0000000000000000        0x0 ../../../simplelink/gcc/lib/os/Debug/libsimplelink.a(cc_pal.o)
 .data          0x0000000000000000        0x0 ../../../simplelink/gcc/lib/os/Debug/libsimplelink.a(cc_pal.o)
 .bss           0x0000000000000000        0x0 ../../../simplelink/gcc/lib/os/Debug/libsimplelink.a(cc_pal.o)
 .bss.g_pHostIntHdl
                0x0000000000000000        0x4 ../../../simplelink/gcc/lib/os/Debug/libsimplelink.a(cc_pal.o)
 .text.NwpPowerOff_WithNwpLpdsPoll
                0x0000000000000000       0x80 ../../../simplelink/gcc/lib/os/Debug/libsimplelink.a(cc_pal.o)
 .text          0x0000000000000000        0x0 ../../../oslib/gcc/free_rtos/Debug/free_rtos.a(osi_freertos.o)
 .data          0x0000000000000000        0x0 ../../../oslib/gcc/free_rtos/Debug/free_rtos.a(osi_freertos.o)
 .bss           0x0000000000000000        0x0 ../../../oslib/gcc/free_rtos/Debug/free_rtos.a(osi_freertos.o)
 .text.osi_SyncObjClear
                0x0000000000000000       0x30 ../../../oslib/gcc/free_rtos/Debug/free_rtos.a(osi_freertos.o)
 .text.osi_TaskDelete
                0x0000000000000000       0x1c ../../../oslib/gcc/free_rtos/Debug/free_rtos.a(osi_freertos.o)
 .text.VDeleteSimpleLinkSpawnTask
                0x0000000000000000       0x40 ../../../oslib/gcc/free_rtos/Debug/free_rtos.a(osi_freertos.o)
 .text.mem_Malloc
                0x0000000000000000       0x18 ../../../oslib/gcc/free_rtos/Debug/free_rtos.a(osi_freertos.o)
 .text.mem_Free
                0x0000000000000000       0x18 ../../../oslib/gcc/free_rtos/Debug/free_rtos.a(osi_freertos.o)
 .text.mem_set  0x0000000000000000       0x20 ../../../oslib/gcc/free_rtos/Debug/free_rtos.a(osi_freertos.o)
 .text.mem_copy
                0x0000000000000000       0x20 ../../../oslib/gcc/free_rtos/Debug/free_rtos.a(osi_freertos.o)
 .text.osi_EnterCritical
                0x0000000000000000       0x10 ../../../oslib/gcc/free_rtos/Debug/free_rtos.a(osi_freertos.o)
 .text.osi_ExitCritical
                0x0000000000000000       0x14 ../../../oslib/gcc/free_rtos/Debug/free_rtos.a(osi_freertos.o)
 .text.osi_TaskDisable
                0x0000000000000000       0x10 ../../../oslib/gcc/free_rtos/Debug/free_rtos.a(osi_freertos.o)
 .text.osi_TaskEnable
                0x0000000000000000       0x14 ../../../oslib/gcc/free_rtos/Debug/free_rtos.a(osi_freertos.o)
 .text.osi_ContextSave
                0x0000000000000000        0xc ../../../oslib/gcc/free_rtos/Debug/free_rtos.a(osi_freertos.o)
 .text.osi_ContextRestore
                0x0000000000000000        0xc ../../../oslib/gcc/free_rtos/Debug/free_rtos.a(osi_freertos.o)
 .text          0x0000000000000000        0x0 ../../../oslib/gcc/free_rtos/Debug/free_rtos.a(queue.o)
 .data          0x0000000000000000        0x0 ../../../oslib/gcc/free_rtos/Debug/free_rtos.a(queue.o)
 .bss           0x0000000000000000        0x0 ../../../oslib/gcc/free_rtos/Debug/free_rtos.a(queue.o)
 .text.xQueueCreateCountingSemaphore
                0x0000000000000000       0x64 ../../../oslib/gcc/free_rtos/Debug/free_rtos.a(queue.o)
 .text.xQueueReceiveFromISR
                0x0000000000000000       0xc0 ../../../oslib/gcc/free_rtos/Debug/free_rtos.a(queue.o)
 .text.xQueuePeekFromISR
                0x0000000000000000       0x98 ../../../oslib/gcc/free_rtos/Debug/free_rtos.a(queue.o)
 .text.uxQueueMessagesWaiting
                0x0000000000000000       0x34 ../../../oslib/gcc/free_rtos/Debug/free_rtos.a(queue.o)
 .text.uxQueueSpacesAvailable
                0x0000000000000000       0x40 ../../../oslib/gcc/free_rtos/Debug/free_rtos.a(queue.o)
 .text.uxQueueMessagesWaitingFromISR
                0x0000000000000000       0x2c ../../../oslib/gcc/free_rtos/Debug/free_rtos.a(queue.o)
 .text.uxQueueGetQueueNumber
                0x0000000000000000       0x18 ../../../oslib/gcc/free_rtos/Debug/free_rtos.a(queue.o)
 .text.vQueueSetQueueNumber
                0x0000000000000000       0x1c ../../../oslib/gcc/free_rtos/Debug/free_rtos.a(queue.o)
 .text.ucQueueGetQueueType
                0x0000000000000000       0x18 ../../../oslib/gcc/free_rtos/Debug/free_rtos.a(queue.o)
 .text.xQueueIsQueueEmptyFromISR
                0x0000000000000000       0x38 ../../../oslib/gcc/free_rtos/Debug/free_rtos.a(queue.o)
 .text.xQueueIsQueueFullFromISR
                0x0000000000000000       0x3c ../../../oslib/gcc/free_rtos/Debug/free_rtos.a(queue.o)
 .text.xQueueCreateSet
                0x0000000000000000       0x20 ../../../oslib/gcc/free_rtos/Debug/free_rtos.a(queue.o)
 .text.xQueueAddToSet
                0x0000000000000000       0x44 ../../../oslib/gcc/free_rtos/Debug/free_rtos.a(queue.o)
 .text.xQueueRemoveFromSet
                0x0000000000000000       0x48 ../../../oslib/gcc/free_rtos/Debug/free_rtos.a(queue.o)
 .text.xQueueSelectFromSet
                0x0000000000000000       0x28 ../../../oslib/gcc/free_rtos/Debug/free_rtos.a(queue.o)
 .text.xQueueSelectFromSetFromISR
                0x0000000000000000       0x24 ../../../oslib/gcc/free_rtos/Debug/free_rtos.a(queue.o)
 .text          0x0000000000000000        0x0 ../../../oslib/gcc/free_rtos/Debug/free_rtos.a(tasks.o)
 .data          0x0000000000000000        0x0 ../../../oslib/gcc/free_rtos/Debug/free_rtos.a(tasks.o)
 .bss           0x0000000000000000        0x0 ../../../oslib/gcc/free_rtos/Debug/free_rtos.a(tasks.o)
 .text.vTaskDelete
                0x0000000000000000       0xf0 ../../../oslib/gcc/free_rtos/Debug/free_rtos.a(tasks.o)
 .text.vTaskDelayUntil
                0x0000000000000000       0xf4 ../../../oslib/gcc/free_rtos/Debug/free_rtos.a(tasks.o)
 .text.eTaskGetState
                0x0000000000000000       0xa4 ../../../oslib/gcc/free_rtos/Debug/free_rtos.a(tasks.o)
 .text.uxTaskPriorityGet
                0x0000000000000000       0x34 ../../../oslib/gcc/free_rtos/Debug/free_rtos.a(tasks.o)
 .text.uxTaskPriorityGetFromISR
                0x0000000000000000       0x3c ../../../oslib/gcc/free_rtos/Debug/free_rtos.a(tasks.o)
 .text.vTaskPrioritySet
                0x0000000000000000      0x144 ../../../oslib/gcc/free_rtos/Debug/free_rtos.a(tasks.o)
 .text.vTaskSuspend
                0x0000000000000000       0xfc ../../../oslib/gcc/free_rtos/Debug/free_rtos.a(tasks.o)
 .text.prvTaskIsTaskSuspended
                0x0000000000000000       0x6c ../../../oslib/gcc/free_rtos/Debug/free_rtos.a(tasks.o)
 .text.vTaskResume
                0x0000000000000000       0xa4 ../../../oslib/gcc/free_rtos/Debug/free_rtos.a(tasks.o)
 .text.xTaskResumeFromISR
                0x0000000000000000       0xc0 ../../../oslib/gcc/free_rtos/Debug/free_rtos.a(tasks.o)
 .text.vTaskEndScheduler
                0x0000000000000000       0x1c ../../../oslib/gcc/free_rtos/Debug/free_rtos.a(tasks.o)
 .text.xTaskGetTickCountFromISR
                0x0000000000000000       0x24 ../../../oslib/gcc/free_rtos/Debug/free_rtos.a(tasks.o)
 .text.uxTaskGetNumberOfTasks
                0x0000000000000000       0x14 ../../../oslib/gcc/free_rtos/Debug/free_rtos.a(tasks.o)
 .text.pcTaskGetTaskName
                0x0000000000000000       0x3c ../../../oslib/gcc/free_rtos/Debug/free_rtos.a(tasks.o)
 .text.uxTaskGetSystemState
                0x0000000000000000       0xf4 ../../../oslib/gcc/free_rtos/Debug/free_rtos.a(tasks.o)
 .text.xTaskGetIdleTaskHandle
                0x0000000000000000       0x28 ../../../oslib/gcc/free_rtos/Debug/free_rtos.a(tasks.o)
 .text.vTaskPlaceOnUnorderedEventList
                0x0000000000000000       0xbc ../../../oslib/gcc/free_rtos/Debug/free_rtos.a(tasks.o)
 .text.xTaskRemoveFromUnorderedEventList
                0x0000000000000000       0xbc ../../../oslib/gcc/free_rtos/Debug/free_rtos.a(tasks.o)
 .text.uxTaskGetTaskNumber
                0x0000000000000000       0x2c ../../../oslib/gcc/free_rtos/Debug/free_rtos.a(tasks.o)
 .text.vTaskSetTaskNumber
                0x0000000000000000       0x24 ../../../oslib/gcc/free_rtos/Debug/free_rtos.a(tasks.o)
 .text.prvListTaskWithinSingleList
                0x0000000000000000      0x118 ../../../oslib/gcc/free_rtos/Debug/free_rtos.a(tasks.o)
 .text.prvTaskCheckFreeStackSpace
                0x0000000000000000       0x38 ../../../oslib/gcc/free_rtos/Debug/free_rtos.a(tasks.o)
 .text.uxTaskGetStackHighWaterMark
                0x0000000000000000       0x38 ../../../oslib/gcc/free_rtos/Debug/free_rtos.a(tasks.o)
 .text.xTaskGetCurrentTaskHandle
                0x0000000000000000       0x1c ../../../oslib/gcc/free_rtos/Debug/free_rtos.a(tasks.o)
 .text.prvWriteNameToBuffer
                0x0000000000000000       0x4c ../../../oslib/gcc/free_rtos/Debug/free_rtos.a(tasks.o)
 .text.vTaskList
                0x0000000000000000       0xfc ../../../oslib/gcc/free_rtos/Debug/free_rtos.a(tasks.o)
 .text.uxTaskResetEventItemValue
                0x0000000000000000       0x30 ../../../oslib/gcc/free_rtos/Debug/free_rtos.a(tasks.o)
 .text.ulTaskNotifyTake
                0x0000000000000000       0xd8 ../../../oslib/gcc/free_rtos/Debug/free_rtos.a(tasks.o)
 .text.xTaskNotifyWait
                0x0000000000000000       0xfc ../../../oslib/gcc/free_rtos/Debug/free_rtos.a(tasks.o)
 .text.xTaskGenericNotify
                0x0000000000000000      0x124 ../../../oslib/gcc/free_rtos/Debug/free_rtos.a(tasks.o)
 .text.xTaskNotifyFromISR
                0x0000000000000000      0x144 ../../../oslib/gcc/free_rtos/Debug/free_rtos.a(tasks.o)
 .text.vTaskNotifyGiveFromISR
                0x0000000000000000       0xe8 ../../../oslib/gcc/free_rtos/Debug/free_rtos.a(tasks.o)
 .text          0x0000000000000000        0x0 ../../../oslib/gcc/free_rtos/Debug/free_rtos.a(port.o)
 .data          0x0000000000000000        0x0 ../../../oslib/gcc/free_rtos/Debug/free_rtos.a(port.o)
 .bss           0x0000000000000000        0x0 ../../../oslib/gcc/free_rtos/Debug/free_rtos.a(port.o)
 .rodata.pcInterruptPriorityRegisters
                0x0000000000000000        0x4 ../../../oslib/gcc/free_rtos/Debug/free_rtos.a(port.o)
 .text.vPortEndScheduler
                0x0000000000000000       0x24 ../../../oslib/gcc/free_rtos/Debug/free_rtos.a(port.o)
 .text          0x0000000000000000        0x0 ../../../oslib/gcc/free_rtos/Debug/free_rtos.a(timers.o)
 .data          0x0000000000000000        0x0 ../../../oslib/gcc/free_rtos/Debug/free_rtos.a(timers.o)
 .bss           0x0000000000000000        0x0 ../../../oslib/gcc/free_rtos/Debug/free_rtos.a(timers.o)
 .text.xTimerCreate
                0x0000000000000000       0x74 ../../../oslib/gcc/free_rtos/Debug/free_rtos.a(timers.o)
 .text.xTimerGetTimerDaemonTaskHandle
                0x0000000000000000       0x28 ../../../oslib/gcc/free_rtos/Debug/free_rtos.a(timers.o)
 .text.pcTimerGetTimerName
                0x0000000000000000       0x1c ../../../oslib/gcc/free_rtos/Debug/free_rtos.a(timers.o)
 .text.xTimerIsTimerActive
                0x0000000000000000       0x30 ../../../oslib/gcc/free_rtos/Debug/free_rtos.a(timers.o)
 .text.pvTimerGetTimerID
                0x0000000000000000       0x38 ../../../oslib/gcc/free_rtos/Debug/free_rtos.a(timers.o)
 .text.vTimerSetTimerID
                0x0000000000000000       0x38 ../../../oslib/gcc/free_rtos/Debug/free_rtos.a(timers.o)
 .text.xTimerPendFunctionCallFromISR
                0x0000000000000000       0x40 ../../../oslib/gcc/free_rtos/Debug/free_rtos.a(timers.o)
 .text.xTimerPendFunctionCall
                0x0000000000000000       0x58 ../../../oslib/gcc/free_rtos/Debug/free_rtos.a(timers.o)
 .text          0x0000000000000000        0x0 ../../../oslib/gcc/free_rtos/Debug/free_rtos.a(heap_3.o)
 .data          0x0000000000000000        0x0 ../../../oslib/gcc/free_rtos/Debug/free_rtos.a(heap_3.o)
 .bss           0x0000000000000000        0x0 ../../../oslib/gcc/free_rtos/Debug/free_rtos.a(heap_3.o)
 .text          0x0000000000000000        0x0 ../../../oslib/gcc/free_rtos/Debug/free_rtos.a(list.o)
 .data          0x0000000000000000        0x0 ../../../oslib/gcc/free_rtos/Debug/free_rtos.a(list.o)
 .bss           0x0000000000000000        0x0 ../../../oslib/gcc/free_rtos/Debug/free_rtos.a(list.o)
 .text          0x0000000000000000        0x0 ../../../driverlib/gcc/lib/Debug/libdriver.a(camera.o)
 .data          0x0000000000000000        0x0 ../../../driverlib/gcc/lib/Debug/libdriver.a(camera.o)
 .bss           0x0000000000000000        0x0 ../../../driverlib/gcc/lib/Debug/libdriver.a(camera.o)
 .text.CameraXClkSet
                0x0000000000000000       0x4c ../../../driverlib/gcc/lib/Debug/libdriver.a(camera.o)
 .text.CameraDMADisable
                0x0000000000000000       0x24 ../../../driverlib/gcc/lib/Debug/libdriver.a(camera.o)
 .text.CameraIntUnregister
                0x0000000000000000       0x1c ../../../driverlib/gcc/lib/Debug/libdriver.a(camera.o)
 .text.CameraBufferRead
                0x0000000000000000       0x48 ../../../driverlib/gcc/lib/Debug/libdriver.a(camera.o)
 .text          0x0000000000000000        0x0 ../../../driverlib/gcc/lib/Debug/libdriver.a(i2c.o)
 .data          0x0000000000000000        0x0 ../../../driverlib/gcc/lib/Debug/libdriver.a(i2c.o)
 .bss           0x0000000000000000        0x0 ../../../driverlib/gcc/lib/Debug/libdriver.a(i2c.o)
 .rodata.g_ppui32I2CIntMap
                0x0000000000000000        0x8 ../../../driverlib/gcc/lib/Debug/libdriver.a(i2c.o)
 .rodata.g_i8I2CIntMapRows
                0x0000000000000000        0x4 ../../../driverlib/gcc/lib/Debug/libdriver.a(i2c.o)
 .text._I2CIntNumberGet
                0x0000000000000000       0x50 ../../../driverlib/gcc/lib/Debug/libdriver.a(i2c.o)
 .text.I2CSlaveInit
                0x0000000000000000       0x28 ../../../driverlib/gcc/lib/Debug/libdriver.a(i2c.o)
 .text.I2CSlaveAddressSet
                0x0000000000000000       0x48 ../../../driverlib/gcc/lib/Debug/libdriver.a(i2c.o)
 .text.I2CSlaveEnable
                0x0000000000000000       0x30 ../../../driverlib/gcc/lib/Debug/libdriver.a(i2c.o)
 .text.I2CMasterDisable
                0x0000000000000000       0x24 ../../../driverlib/gcc/lib/Debug/libdriver.a(i2c.o)
 .text.I2CSlaveDisable
                0x0000000000000000       0x30 ../../../driverlib/gcc/lib/Debug/libdriver.a(i2c.o)
 .text.I2CIntRegister
                0x0000000000000000       0x28 ../../../driverlib/gcc/lib/Debug/libdriver.a(i2c.o)
 .text.I2CIntUnregister
                0x0000000000000000       0x24 ../../../driverlib/gcc/lib/Debug/libdriver.a(i2c.o)
 .text.I2CMasterIntEnable
                0x0000000000000000       0x1c ../../../driverlib/gcc/lib/Debug/libdriver.a(i2c.o)
 .text.I2CMasterIntEnableEx
                0x0000000000000000       0x28 ../../../driverlib/gcc/lib/Debug/libdriver.a(i2c.o)
 .text.I2CSlaveIntEnable
                0x0000000000000000       0x28 ../../../driverlib/gcc/lib/Debug/libdriver.a(i2c.o)
 .text.I2CSlaveIntEnableEx
                0x0000000000000000       0x2c ../../../driverlib/gcc/lib/Debug/libdriver.a(i2c.o)
 .text.I2CMasterIntDisable
                0x0000000000000000       0x1c ../../../driverlib/gcc/lib/Debug/libdriver.a(i2c.o)
 .text.I2CMasterIntDisableEx
                0x0000000000000000       0x28 ../../../driverlib/gcc/lib/Debug/libdriver.a(i2c.o)
 .text.I2CSlaveIntDisable
                0x0000000000000000       0x28 ../../../driverlib/gcc/lib/Debug/libdriver.a(i2c.o)
 .text.I2CSlaveIntDisableEx
                0x0000000000000000       0x2c ../../../driverlib/gcc/lib/Debug/libdriver.a(i2c.o)
 .text.I2CMasterIntStatus
                0x0000000000000000       0x40 ../../../driverlib/gcc/lib/Debug/libdriver.a(i2c.o)
 .text.I2CSlaveIntStatus
                0x0000000000000000       0x44 ../../../driverlib/gcc/lib/Debug/libdriver.a(i2c.o)
 .text.I2CSlaveIntStatusEx
                0x0000000000000000       0x30 ../../../driverlib/gcc/lib/Debug/libdriver.a(i2c.o)
 .text.I2CMasterIntClear
                0x0000000000000000       0x28 ../../../driverlib/gcc/lib/Debug/libdriver.a(i2c.o)
 .text.I2CSlaveIntClear
                0x0000000000000000       0x20 ../../../driverlib/gcc/lib/Debug/libdriver.a(i2c.o)
 .text.I2CSlaveIntClearEx
                0x0000000000000000       0x20 ../../../driverlib/gcc/lib/Debug/libdriver.a(i2c.o)
 .text.I2CMasterLineStateGet
                0x0000000000000000       0x18 ../../../driverlib/gcc/lib/Debug/libdriver.a(i2c.o)
 .text.I2CMasterBusy
                0x0000000000000000       0x28 ../../../driverlib/gcc/lib/Debug/libdriver.a(i2c.o)
 .text.I2CMasterBusBusy
                0x0000000000000000       0x28 ../../../driverlib/gcc/lib/Debug/libdriver.a(i2c.o)
 .text.I2CMasterErr
                0x0000000000000000       0x3c ../../../driverlib/gcc/lib/Debug/libdriver.a(i2c.o)
 .text.I2CMasterTimeoutSet
                0x0000000000000000       0x20 ../../../driverlib/gcc/lib/Debug/libdriver.a(i2c.o)
 .text.I2CSlaveACKOverride
                0x0000000000000000       0x4c ../../../driverlib/gcc/lib/Debug/libdriver.a(i2c.o)
 .text.I2CSlaveACKValueSet
                0x0000000000000000       0x4c ../../../driverlib/gcc/lib/Debug/libdriver.a(i2c.o)
 .text.I2CSlaveStatus
                0x0000000000000000       0x1c ../../../driverlib/gcc/lib/Debug/libdriver.a(i2c.o)
 .text.I2CSlaveDataPut
                0x0000000000000000       0x24 ../../../driverlib/gcc/lib/Debug/libdriver.a(i2c.o)
 .text.I2CSlaveDataGet
                0x0000000000000000       0x1c ../../../driverlib/gcc/lib/Debug/libdriver.a(i2c.o)
 .text.I2CTxFIFOConfigSet
                0x0000000000000000       0x40 ../../../driverlib/gcc/lib/Debug/libdriver.a(i2c.o)
 .text.I2CTxFIFOFlush
                0x0000000000000000       0x28 ../../../driverlib/gcc/lib/Debug/libdriver.a(i2c.o)
 .text.I2CRxFIFOConfigSet
                0x0000000000000000       0x40 ../../../driverlib/gcc/lib/Debug/libdriver.a(i2c.o)
 .text.I2CRxFIFOFlush
                0x0000000000000000       0x28 ../../../driverlib/gcc/lib/Debug/libdriver.a(i2c.o)
 .text.I2CFIFOStatus
                0x0000000000000000       0x1c ../../../driverlib/gcc/lib/Debug/libdriver.a(i2c.o)
 .text.I2CFIFODataPut
                0x0000000000000000       0x34 ../../../driverlib/gcc/lib/Debug/libdriver.a(i2c.o)
 .text.I2CFIFODataPutNonBlocking
                0x0000000000000000       0x38 ../../../driverlib/gcc/lib/Debug/libdriver.a(i2c.o)
 .text.I2CFIFODataGet
                0x0000000000000000       0x2c ../../../driverlib/gcc/lib/Debug/libdriver.a(i2c.o)
 .text.I2CFIFODataGetNonBlocking
                0x0000000000000000       0x38 ../../../driverlib/gcc/lib/Debug/libdriver.a(i2c.o)
 .text.I2CMasterBurstLengthSet
                0x0000000000000000       0x20 ../../../driverlib/gcc/lib/Debug/libdriver.a(i2c.o)
 .text.I2CMasterBurstCountGet
                0x0000000000000000       0x18 ../../../driverlib/gcc/lib/Debug/libdriver.a(i2c.o)
 .text.I2CMasterGlitchFilterConfigSet
                0x0000000000000000       0x28 ../../../driverlib/gcc/lib/Debug/libdriver.a(i2c.o)
 .text.I2CSlaveFIFOEnable
                0x0000000000000000       0x24 ../../../driverlib/gcc/lib/Debug/libdriver.a(i2c.o)
 .text.I2CSlaveFIFODisable
                0x0000000000000000       0x20 ../../../driverlib/gcc/lib/Debug/libdriver.a(i2c.o)
 .text          0x0000000000000000        0x0 ../../../driverlib/gcc/lib/Debug/libdriver.a(interrupt.o)
 .data          0x0000000000000000        0x0 ../../../driverlib/gcc/lib/Debug/libdriver.a(interrupt.o)
 .bss           0x0000000000000000        0x0 ../../../driverlib/gcc/lib/Debug/libdriver.a(interrupt.o)
 .rodata.g_pulPriority
                0x0000000000000000       0x20 ../../../driverlib/gcc/lib/Debug/libdriver.a(interrupt.o)
 .rodata.g_pulPendRegs
                0x0000000000000000       0x18 ../../../driverlib/gcc/lib/Debug/libdriver.a(interrupt.o)
 .text.IntMasterDisable
                0x0000000000000000       0x10 ../../../driverlib/gcc/lib/Debug/libdriver.a(interrupt.o)
 .text.IntPriorityGroupingSet
                0x0000000000000000       0x30 ../../../driverlib/gcc/lib/Debug/libdriver.a(interrupt.o)
 .text.IntPriorityGroupingGet
                0x0000000000000000       0x48 ../../../driverlib/gcc/lib/Debug/libdriver.a(interrupt.o)
 .text.IntPriorityGet
                0x0000000000000000       0x30 ../../../driverlib/gcc/lib/Debug/libdriver.a(interrupt.o)
 .text.IntPendSet
                0x0000000000000000       0x9c ../../../driverlib/gcc/lib/Debug/libdriver.a(interrupt.o)
 .text.IntPriorityMaskSet
                0x0000000000000000       0x18 ../../../driverlib/gcc/lib/Debug/libdriver.a(interrupt.o)
 .text.IntPriorityMaskGet
                0x0000000000000000       0x10 ../../../driverlib/gcc/lib/Debug/libdriver.a(interrupt.o)
 .text          0x0000000000000000        0x0 ../../../driverlib/gcc/lib/Debug/libdriver.a(pin.o)
 .data          0x0000000000000000        0x0 ../../../driverlib/gcc/lib/Debug/libdriver.a(pin.o)
 .bss           0x0000000000000000        0x0 ../../../driverlib/gcc/lib/Debug/libdriver.a(pin.o)
 .text.PinModeGet
                0x0000000000000000       0x3c ../../../driverlib/gcc/lib/Debug/libdriver.a(pin.o)
 .text.PinDirModeSet
                0x0000000000000000       0x44 ../../../driverlib/gcc/lib/Debug/libdriver.a(pin.o)
 .text.PinDirModeGet
                0x0000000000000000       0x3c ../../../driverlib/gcc/lib/Debug/libdriver.a(pin.o)
 .text.PinConfigGet
                0x0000000000000000       0x50 ../../../driverlib/gcc/lib/Debug/libdriver.a(pin.o)
 .text.PinTypeUART
                0x0000000000000000       0x24 ../../../driverlib/gcc/lib/Debug/libdriver.a(pin.o)
 .text.PinTypeSPI
                0x0000000000000000       0x24 ../../../driverlib/gcc/lib/Debug/libdriver.a(pin.o)
 .text.PinTypeI2S
                0x0000000000000000       0x24 ../../../driverlib/gcc/lib/Debug/libdriver.a(pin.o)
 .text.PinTypeTimer
                0x0000000000000000       0x24 ../../../driverlib/gcc/lib/Debug/libdriver.a(pin.o)
 .text.PinTypeGPIO
                0x0000000000000000       0x3c ../../../driverlib/gcc/lib/Debug/libdriver.a(pin.o)
 .text.PinTypeADC
                0x0000000000000000       0x20 ../../../driverlib/gcc/lib/Debug/libdriver.a(pin.o)
 .text.PinTypeSDHost
                0x0000000000000000       0x24 ../../../driverlib/gcc/lib/Debug/libdriver.a(pin.o)
 .text          0x0000000000000000        0x0 ../../../driverlib/gcc/lib/Debug/libdriver.a(prcm.o)
 .data          0x0000000000000000        0x0 ../../../driverlib/gcc/lib/Debug/libdriver.a(prcm.o)
 .bss           0x0000000000000000        0x0 ../../../driverlib/gcc/lib/Debug/libdriver.a(prcm.o)
 .text.RTCUseSet
                0x0000000000000000       0x30 ../../../driverlib/gcc/lib/Debug/libdriver.a(prcm.o)
 .text.IsRTCUsed
                0x0000000000000000       0x28 ../../../driverlib/gcc/lib/Debug/libdriver.a(prcm.o)
 .text.RTCU16MSecRegRead
                0x0000000000000000       0x28 ../../../driverlib/gcc/lib/Debug/libdriver.a(prcm.o)
 .text.RTCU16MSecRegWrite
                0x0000000000000000       0x3c ../../../driverlib/gcc/lib/Debug/libdriver.a(prcm.o)
 .text.RTCU32SecRegRead
                0x0000000000000000       0x14 ../../../driverlib/gcc/lib/Debug/libdriver.a(prcm.o)
 .text.RTCU32SecRegWrite
                0x0000000000000000       0x1c ../../../driverlib/gcc/lib/Debug/libdriver.a(prcm.o)
 .text.PRCMMCUReset
                0x0000000000000000       0x28 ../../../driverlib/gcc/lib/Debug/libdriver.a(prcm.o)
 .text.PRCMI2SClockFreqSet
                0x0000000000000000       0x54 ../../../driverlib/gcc/lib/Debug/libdriver.a(prcm.o)
 .text.PRCMLPDSRestoreInfoSet
                0x0000000000000000       0x28 ../../../driverlib/gcc/lib/Debug/libdriver.a(prcm.o)
 .text.PRCMLPDSEnter
                0x0000000000000000       0x50 ../../../driverlib/gcc/lib/Debug/libdriver.a(prcm.o)
 .text.PRCMLPDSEnterKeepDebugIf
                0x0000000000000000       0x40 ../../../driverlib/gcc/lib/Debug/libdriver.a(prcm.o)
 .text.PRCMLPDSWakeupSourceEnable
                0x0000000000000000       0x30 ../../../driverlib/gcc/lib/Debug/libdriver.a(prcm.o)
 .text.PRCMLPDSWakeupSourceDisable
                0x0000000000000000       0x24 ../../../driverlib/gcc/lib/Debug/libdriver.a(prcm.o)
 .text.PRCMLPDSWakeupCauseGet
                0x0000000000000000       0x14 ../../../driverlib/gcc/lib/Debug/libdriver.a(prcm.o)
 .text.PRCMLPDSIntervalSet
                0x0000000000000000       0x34 ../../../driverlib/gcc/lib/Debug/libdriver.a(prcm.o)
 .text.PRCMLPDSWakeUpGPIOSelect
                0x0000000000000000       0x2c ../../../driverlib/gcc/lib/Debug/libdriver.a(prcm.o)
 .text.PRCMSleepEnter
                0x0000000000000000        0xc ../../../driverlib/gcc/lib/Debug/libdriver.a(prcm.o)
 .text.PRCMSRAMRetentionEnable
                0x0000000000000000       0x2c ../../../driverlib/gcc/lib/Debug/libdriver.a(prcm.o)
 .text.PRCMSRAMRetentionDisable
                0x0000000000000000       0x34 ../../../driverlib/gcc/lib/Debug/libdriver.a(prcm.o)
 .text.PRCMHibernateWakeupSourceEnable
                0x0000000000000000       0x50 ../../../driverlib/gcc/lib/Debug/libdriver.a(prcm.o)
 .text.PRCMHibernateWakeupSourceDisable
                0x0000000000000000       0x54 ../../../driverlib/gcc/lib/Debug/libdriver.a(prcm.o)
 .text.PRCMHibernateWakeupCauseGet
                0x0000000000000000       0x1c ../../../driverlib/gcc/lib/Debug/libdriver.a(prcm.o)
 .text.PRCMHibernateIntervalSet
                0x0000000000000000       0x9c ../../../driverlib/gcc/lib/Debug/libdriver.a(prcm.o)
 .text.PRCMHibernateWakeUpGPIOSelect
                0x0000000000000000       0x70 ../../../driverlib/gcc/lib/Debug/libdriver.a(prcm.o)
 .text.PRCMHibernateEnter
                0x0000000000000000       0x14 ../../../driverlib/gcc/lib/Debug/libdriver.a(prcm.o)
 .text.PRCMSlowClkCtrGet
                0x0000000000000000       0x64 ../../../driverlib/gcc/lib/Debug/libdriver.a(prcm.o)
 .text.PRCMSlowClkCtrFastGet
                0x0000000000000000       0x50 ../../../driverlib/gcc/lib/Debug/libdriver.a(prcm.o)
 .text.PRCMSlowClkCtrMatchSet
                0x0000000000000000       0x38 ../../../driverlib/gcc/lib/Debug/libdriver.a(prcm.o)
 .text.PRCMSlowClkCtrMatchGet
                0x0000000000000000       0x58 ../../../driverlib/gcc/lib/Debug/libdriver.a(prcm.o)
 .text.PRCMOCRRegisterWrite
                0x0000000000000000       0x28 ../../../driverlib/gcc/lib/Debug/libdriver.a(prcm.o)
 .text.PRCMOCRRegisterRead
                0x0000000000000000       0x28 ../../../driverlib/gcc/lib/Debug/libdriver.a(prcm.o)
 .text.PRCMIntRegister
                0x0000000000000000       0x20 ../../../driverlib/gcc/lib/Debug/libdriver.a(prcm.o)
 .text.PRCMIntUnregister
                0x0000000000000000       0x14 ../../../driverlib/gcc/lib/Debug/libdriver.a(prcm.o)
 .text.PRCMIntEnable
                0x0000000000000000       0x48 ../../../driverlib/gcc/lib/Debug/libdriver.a(prcm.o)
 .text.PRCMIntDisable
                0x0000000000000000       0x48 ../../../driverlib/gcc/lib/Debug/libdriver.a(prcm.o)
 .text.PRCMIntStatus
                0x0000000000000000       0x14 ../../../driverlib/gcc/lib/Debug/libdriver.a(prcm.o)
 .text.PRCMRTCInUseSet
                0x0000000000000000        0xc ../../../driverlib/gcc/lib/Debug/libdriver.a(prcm.o)
 .text.PRCMRTCInUseGet
                0x0000000000000000       0x18 ../../../driverlib/gcc/lib/Debug/libdriver.a(prcm.o)
 .text.PRCMRTCSet
                0x0000000000000000       0xa8 ../../../driverlib/gcc/lib/Debug/libdriver.a(prcm.o)
 .text.PRCMRTCGet
                0x0000000000000000       0xb0 ../../../driverlib/gcc/lib/Debug/libdriver.a(prcm.o)
 .text.PRCMRTCMatchSet
                0x0000000000000000       0xd8 ../../../driverlib/gcc/lib/Debug/libdriver.a(prcm.o)
 .text.PRCMRTCMatchGet
                0x0000000000000000       0xb0 ../../../driverlib/gcc/lib/Debug/libdriver.a(prcm.o)
 .text          0x0000000000000000        0x0 ../../../driverlib/gcc/lib/Debug/libdriver.a(shamd5.o)
 .data          0x0000000000000000        0x0 ../../../driverlib/gcc/lib/Debug/libdriver.a(shamd5.o)
 .bss           0x0000000000000000        0x0 ../../../driverlib/gcc/lib/Debug/libdriver.a(shamd5.o)
 .text.SHAMD5DMAEnable
                0x0000000000000000       0x28 ../../../driverlib/gcc/lib/Debug/libdriver.a(shamd5.o)
 .text.SHAMD5DMADisable
                0x0000000000000000       0x28 ../../../driverlib/gcc/lib/Debug/libdriver.a(shamd5.o)
 .text.SHAMD5IntClear
                0x0000000000000000       0x24 ../../../driverlib/gcc/lib/Debug/libdriver.a(shamd5.o)
 .text.SHAMD5IntUnregister
                0x0000000000000000       0x1c ../../../driverlib/gcc/lib/Debug/libdriver.a(shamd5.o)
 .text.SHAMD5DataWriteNonBlocking
                0x0000000000000000       0x50 ../../../driverlib/gcc/lib/Debug/libdriver.a(shamd5.o)
 .text.SHAMD5HMACProcess
                0x0000000000000000       0x58 ../../../driverlib/gcc/lib/Debug/libdriver.a(shamd5.o)
 .text.SHAMD5HMACPPKeyGenerate
                0x0000000000000000       0x9c ../../../driverlib/gcc/lib/Debug/libdriver.a(shamd5.o)
 .text.SHAMD5HMACKeySet
                0x0000000000000000       0x4c ../../../driverlib/gcc/lib/Debug/libdriver.a(shamd5.o)
 .text.SHAMD5HMACPPKeySet
                0x0000000000000000       0x54 ../../../driverlib/gcc/lib/Debug/libdriver.a(shamd5.o)
 .text          0x0000000000000000        0x0 ../../../driverlib/gcc/lib/Debug/libdriver.a(spi.o)
 .data          0x0000000000000000        0x0 ../../../driverlib/gcc/lib/Debug/libdriver.a(spi.o)
 .bss           0x0000000000000000        0x0 ../../../driverlib/gcc/lib/Debug/libdriver.a(spi.o)
 .rodata.g_ppulSPIIntMap
                0x0000000000000000       0x24 ../../../driverlib/gcc/lib/Debug/libdriver.a(spi.o)
 .text.SPITransfer8
                0x0000000000000000       0xec ../../../driverlib/gcc/lib/Debug/libdriver.a(spi.o)
 .text.SPITransfer16
                0x0000000000000000      0x108 ../../../driverlib/gcc/lib/Debug/libdriver.a(spi.o)
 .text.SPITransfer32
                0x0000000000000000      0x104 ../../../driverlib/gcc/lib/Debug/libdriver.a(spi.o)
 .text.SPIIntNumberGet
                0x0000000000000000       0x58 ../../../driverlib/gcc/lib/Debug/libdriver.a(spi.o)
 .text.SPIDataGetNonBlocking
                0x0000000000000000       0x3c ../../../driverlib/gcc/lib/Debug/libdriver.a(spi.o)
 .text.SPIDataGet
                0x0000000000000000       0x34 ../../../driverlib/gcc/lib/Debug/libdriver.a(spi.o)
 .text.SPIDataPutNonBlocking
                0x0000000000000000       0x3c ../../../driverlib/gcc/lib/Debug/libdriver.a(spi.o)
 .text.SPIDataPut
                0x0000000000000000       0x34 ../../../driverlib/gcc/lib/Debug/libdriver.a(spi.o)
 .text.SPIFIFOLevelGet
                0x0000000000000000       0x34 ../../../driverlib/gcc/lib/Debug/libdriver.a(spi.o)
 .text.SPIIntRegister
                0x0000000000000000       0x2c ../../../driverlib/gcc/lib/Debug/libdriver.a(spi.o)
 .text.SPIIntUnregister
                0x0000000000000000       0x28 ../../../driverlib/gcc/lib/Debug/libdriver.a(spi.o)
 .text.SPIIntDisable
                0x0000000000000000       0x6c ../../../driverlib/gcc/lib/Debug/libdriver.a(spi.o)
 .text.SPIIntStatus
                0x0000000000000000       0x88 ../../../driverlib/gcc/lib/Debug/libdriver.a(spi.o)
 .text.SPITransfer
                0x0000000000000000       0x90 ../../../driverlib/gcc/lib/Debug/libdriver.a(spi.o)
 .text          0x0000000000000000        0x0 ../../../driverlib/gcc/lib/Debug/libdriver.a(timer.o)
 .data          0x0000000000000000        0x0 ../../../driverlib/gcc/lib/Debug/libdriver.a(timer.o)
 .bss           0x0000000000000000        0x0 ../../../driverlib/gcc/lib/Debug/libdriver.a(timer.o)
 .text.TimerDisable
                0x0000000000000000       0x30 ../../../driverlib/gcc/lib/Debug/libdriver.a(timer.o)
 .text.TimerControlLevel
                0x0000000000000000       0x48 ../../../driverlib/gcc/lib/Debug/libdriver.a(timer.o)
 .text.TimerControlEvent
                0x0000000000000000       0x40 ../../../driverlib/gcc/lib/Debug/libdriver.a(timer.o)
 .text.TimerControlStall
                0x0000000000000000       0x48 ../../../driverlib/gcc/lib/Debug/libdriver.a(timer.o)
 .text.TimerPrescaleGet
                0x0000000000000000       0x28 ../../../driverlib/gcc/lib/Debug/libdriver.a(timer.o)
 .text.TimerPrescaleMatchSet
                0x0000000000000000       0x3c ../../../driverlib/gcc/lib/Debug/libdriver.a(timer.o)
 .text.TimerPrescaleMatchGet
                0x0000000000000000       0x28 ../../../driverlib/gcc/lib/Debug/libdriver.a(timer.o)
 .text.TimerLoadGet
                0x0000000000000000       0x28 ../../../driverlib/gcc/lib/Debug/libdriver.a(timer.o)
 .text.TimerValueSet
                0x0000000000000000       0x34 ../../../driverlib/gcc/lib/Debug/libdriver.a(timer.o)
 .text.TimerMatchSet
                0x0000000000000000       0x3c ../../../driverlib/gcc/lib/Debug/libdriver.a(timer.o)
 .text.TimerMatchGet
                0x0000000000000000       0x28 ../../../driverlib/gcc/lib/Debug/libdriver.a(timer.o)
 .text.TimerIntRegister
                0x0000000000000000       0x80 ../../../driverlib/gcc/lib/Debug/libdriver.a(timer.o)
 .text.TimerIntUnregister
                0x0000000000000000       0x78 ../../../driverlib/gcc/lib/Debug/libdriver.a(timer.o)
 .text.TimerIntEnable
                0x0000000000000000       0x28 ../../../driverlib/gcc/lib/Debug/libdriver.a(timer.o)
 .text.TimerIntDisable
                0x0000000000000000       0x28 ../../../driverlib/gcc/lib/Debug/libdriver.a(timer.o)
 .text.TimerIntStatus
                0x0000000000000000       0x2c ../../../driverlib/gcc/lib/Debug/libdriver.a(timer.o)
 .text.TimerIntClear
                0x0000000000000000       0x20 ../../../driverlib/gcc/lib/Debug/libdriver.a(timer.o)
 .text.TimerDMAEventSet
                0x0000000000000000       0x20 ../../../driverlib/gcc/lib/Debug/libdriver.a(timer.o)
 .text.TimerDMAEventGet
                0x0000000000000000       0x18 ../../../driverlib/gcc/lib/Debug/libdriver.a(timer.o)
 .text          0x0000000000000000        0x0 ../../../driverlib/gcc/lib/Debug/libdriver.a(uart.o)
 .data          0x0000000000000000        0x0 ../../../driverlib/gcc/lib/Debug/libdriver.a(uart.o)
 .bss           0x0000000000000000        0x0 ../../../driverlib/gcc/lib/Debug/libdriver.a(uart.o)
 .rodata.g_ppulUARTIntMap
                0x0000000000000000       0x10 ../../../driverlib/gcc/lib/Debug/libdriver.a(uart.o)
 .text.UARTIntNumberGet
                0x0000000000000000       0x48 ../../../driverlib/gcc/lib/Debug/libdriver.a(uart.o)
 .text.UARTParityModeSet
                0x0000000000000000       0x2c ../../../driverlib/gcc/lib/Debug/libdriver.a(uart.o)
 .text.UARTParityModeGet
                0x0000000000000000       0x1c ../../../driverlib/gcc/lib/Debug/libdriver.a(uart.o)
 .text.UARTFIFOLevelSet
                0x0000000000000000       0x24 ../../../driverlib/gcc/lib/Debug/libdriver.a(uart.o)
 .text.UARTFIFOLevelGet
                0x0000000000000000       0x34 ../../../driverlib/gcc/lib/Debug/libdriver.a(uart.o)
 .text.UARTConfigGetExpClk
                0x0000000000000000       0x64 ../../../driverlib/gcc/lib/Debug/libdriver.a(uart.o)
 .text.UARTFIFOEnable
                0x0000000000000000       0x24 ../../../driverlib/gcc/lib/Debug/libdriver.a(uart.o)
 .text.UARTFIFODisable
                0x0000000000000000       0x24 ../../../driverlib/gcc/lib/Debug/libdriver.a(uart.o)
 .text.UARTModemControlSet
                0x0000000000000000       0x34 ../../../driverlib/gcc/lib/Debug/libdriver.a(uart.o)
 .text.UARTModemControlClear
                0x0000000000000000       0x34 ../../../driverlib/gcc/lib/Debug/libdriver.a(uart.o)
 .text.UARTModemControlGet
                0x0000000000000000       0x1c ../../../driverlib/gcc/lib/Debug/libdriver.a(uart.o)
 .text.UARTModemStatusGet
                0x0000000000000000       0x1c ../../../driverlib/gcc/lib/Debug/libdriver.a(uart.o)
 .text.UARTFlowControlSet
                0x0000000000000000       0x2c ../../../driverlib/gcc/lib/Debug/libdriver.a(uart.o)
 .text.UARTFlowControlGet
                0x0000000000000000       0x1c ../../../driverlib/gcc/lib/Debug/libdriver.a(uart.o)
 .text.UARTTxIntModeSet
                0x0000000000000000       0x2c ../../../driverlib/gcc/lib/Debug/libdriver.a(uart.o)
 .text.UARTTxIntModeGet
                0x0000000000000000       0x1c ../../../driverlib/gcc/lib/Debug/libdriver.a(uart.o)
 .text.UARTCharsAvail
                0x0000000000000000       0x28 ../../../driverlib/gcc/lib/Debug/libdriver.a(uart.o)
 .text.UARTSpaceAvail
                0x0000000000000000       0x28 ../../../driverlib/gcc/lib/Debug/libdriver.a(uart.o)
 .text.UARTCharGetNonBlocking
                0x0000000000000000       0x2c ../../../driverlib/gcc/lib/Debug/libdriver.a(uart.o)
 .text.UARTCharGet
                0x0000000000000000       0x28 ../../../driverlib/gcc/lib/Debug/libdriver.a(uart.o)
 .text.UARTCharPutNonBlocking
                0x0000000000000000       0x30 ../../../driverlib/gcc/lib/Debug/libdriver.a(uart.o)
 .text.UARTBreakCtl
                0x0000000000000000       0x3c ../../../driverlib/gcc/lib/Debug/libdriver.a(uart.o)
 .text.UARTBusy
                0x0000000000000000       0x28 ../../../driverlib/gcc/lib/Debug/libdriver.a(uart.o)
 .text.UARTIntRegister
                0x0000000000000000       0x2c ../../../driverlib/gcc/lib/Debug/libdriver.a(uart.o)
 .text.UARTIntUnregister
                0x0000000000000000       0x28 ../../../driverlib/gcc/lib/Debug/libdriver.a(uart.o)
 .text.UARTIntEnable
                0x0000000000000000       0x28 ../../../driverlib/gcc/lib/Debug/libdriver.a(uart.o)
 .text.UARTIntDisable
                0x0000000000000000       0x28 ../../../driverlib/gcc/lib/Debug/libdriver.a(uart.o)
 .text.UARTIntStatus
                0x0000000000000000       0x2c ../../../driverlib/gcc/lib/Debug/libdriver.a(uart.o)
 .text.UARTIntClear
                0x0000000000000000       0x20 ../../../driverlib/gcc/lib/Debug/libdriver.a(uart.o)
 .text.UARTDMAEnable
                0x0000000000000000       0x28 ../../../driverlib/gcc/lib/Debug/libdriver.a(uart.o)
 .text.UARTDMADisable
                0x0000000000000000       0x28 ../../../driverlib/gcc/lib/Debug/libdriver.a(uart.o)
 .text.UARTRxErrorGet
                0x0000000000000000       0x1c ../../../driverlib/gcc/lib/Debug/libdriver.a(uart.o)
 .text.UARTRxErrorClear
                0x0000000000000000       0x1c ../../../driverlib/gcc/lib/Debug/libdriver.a(uart.o)
 .text          0x0000000000000000        0x0 ../../../driverlib/gcc/lib/Debug/libdriver.a(udma.o)
 .data          0x0000000000000000        0x0 ../../../driverlib/gcc/lib/Debug/libdriver.a(udma.o)
 .bss           0x0000000000000000        0x0 ../../../driverlib/gcc/lib/Debug/libdriver.a(udma.o)
 .text.uDMADisable
                0x0000000000000000       0x18 ../../../driverlib/gcc/lib/Debug/libdriver.a(udma.o)
 .text.uDMAErrorStatusGet
                0x0000000000000000       0x14 ../../../driverlib/gcc/lib/Debug/libdriver.a(udma.o)
 .text.uDMAErrorStatusClear
                0x0000000000000000       0x18 ../../../driverlib/gcc/lib/Debug/libdriver.a(udma.o)
 .text.uDMAChannelIsEnabled
                0x0000000000000000       0x34 ../../../driverlib/gcc/lib/Debug/libdriver.a(udma.o)
 .text.uDMAControlBaseGet
                0x0000000000000000       0x14 ../../../driverlib/gcc/lib/Debug/libdriver.a(udma.o)
 .text.uDMAControlAlternateBaseGet
                0x0000000000000000       0x14 ../../../driverlib/gcc/lib/Debug/libdriver.a(udma.o)
 .text.uDMAChannelRequest
                0x0000000000000000       0x28 ../../../driverlib/gcc/lib/Debug/libdriver.a(udma.o)
 .text.uDMAChannelAttributeGet
                0x0000000000000000       0x98 ../../../driverlib/gcc/lib/Debug/libdriver.a(udma.o)
 .text.uDMAChannelScatterGatherSet
                0x0000000000000000       0x88 ../../../driverlib/gcc/lib/Debug/libdriver.a(udma.o)
 .text.uDMAChannelSizeGet
                0x0000000000000000       0x48 ../../../driverlib/gcc/lib/Debug/libdriver.a(udma.o)
 .text.uDMAChannelModeGet
                0x0000000000000000       0x54 ../../../driverlib/gcc/lib/Debug/libdriver.a(udma.o)
 .text.uDMAIntRegister
                0x0000000000000000       0x20 ../../../driverlib/gcc/lib/Debug/libdriver.a(udma.o)
 .text.uDMAIntUnregister
                0x0000000000000000       0x1c ../../../driverlib/gcc/lib/Debug/libdriver.a(udma.o)
 .text          0x0000000000000000        0x0 ../../../driverlib/gcc/lib/Debug/libdriver.a(utils.o)
 .data          0x0000000000000000        0x0 ../../../driverlib/gcc/lib/Debug/libdriver.a(utils.o)
 .bss           0x0000000000000000        0x0 ../../../driverlib/gcc/lib/Debug/libdriver.a(utils.o)
 .text          0x0000000000000000        0x0 ../../../driverlib/gcc/lib/Debug/libdriver.a(cpu.o)
 .data          0x0000000000000000        0x0 ../../../driverlib/gcc/lib/Debug/libdriver.a(cpu.o)
 .bss           0x0000000000000000        0x0 ../../../driverlib/gcc/lib/Debug/libdriver.a(cpu.o)
 .text.CPUcpsid
                0x0000000000000000       0x18 ../../../driverlib/gcc/lib/Debug/libdriver.a(cpu.o)
 .text.CPUprimask
                0x0000000000000000        0xc ../../../driverlib/gcc/lib/Debug/libdriver.a(cpu.o)
 .text.CPUwfi   0x0000000000000000       0x10 ../../../driverlib/gcc/lib/Debug/libdriver.a(cpu.o)
 .text.CPUbasepriSet
                0x0000000000000000       0x10 ../../../driverlib/gcc/lib/Debug/libdriver.a(cpu.o)
 .text.CPUbasepriGet
                0x0000000000000000        0xc ../../../driverlib/gcc/lib/Debug/libdriver.a(cpu.o)
 .text          0x0000000000000000        0x0 ../../../driverlib/gcc/lib/Debug/libdriver.a(flash.o)
 .data          0x0000000000000000        0x0 ../../../driverlib/gcc/lib/Debug/libdriver.a(flash.o)
 .bss           0x0000000000000000        0x0 ../../../driverlib/gcc/lib/Debug/libdriver.a(flash.o)
 .rodata.g_pulFMPPERegs
                0x0000000000000000       0x40 ../../../driverlib/gcc/lib/Debug/libdriver.a(flash.o)
 .rodata.g_pulFMPRERegs
                0x0000000000000000       0x40 ../../../driverlib/gcc/lib/Debug/libdriver.a(flash.o)
 .text.FlashDisable
                0x0000000000000000       0x50 ../../../driverlib/gcc/lib/Debug/libdriver.a(flash.o)
 .text.FlashErase
                0x0000000000000000       0x60 ../../../driverlib/gcc/lib/Debug/libdriver.a(flash.o)
 .text.FlashEraseNonBlocking
                0x0000000000000000       0x38 ../../../driverlib/gcc/lib/Debug/libdriver.a(flash.o)
 .text.FlashMassErase
                0x0000000000000000       0x50 ../../../driverlib/gcc/lib/Debug/libdriver.a(flash.o)
 .text.FlashMassEraseNonBlocking
                0x0000000000000000       0x28 ../../../driverlib/gcc/lib/Debug/libdriver.a(flash.o)
 .text.FlashProgram
                0x0000000000000000       0xb4 ../../../driverlib/gcc/lib/Debug/libdriver.a(flash.o)
 .text.FlashProgramNonBlocking
                0x0000000000000000       0xa4 ../../../driverlib/gcc/lib/Debug/libdriver.a(flash.o)
 .text.FlashProtectGet
                0x0000000000000000       0x78 ../../../driverlib/gcc/lib/Debug/libdriver.a(flash.o)
 .text.FlashIntRegister
                0x0000000000000000       0x20 ../../../driverlib/gcc/lib/Debug/libdriver.a(flash.o)
 .text.FlashIntUnregister
                0x0000000000000000       0x14 ../../../driverlib/gcc/lib/Debug/libdriver.a(flash.o)
 .text.FlashIntEnable
                0x0000000000000000       0x24 ../../../driverlib/gcc/lib/Debug/libdriver.a(flash.o)
 .text.FlashIntDisable
                0x0000000000000000       0x24 ../../../driverlib/gcc/lib/Debug/libdriver.a(flash.o)
 .text.FlashIntStatus
                0x0000000000000000       0x2c ../../../driverlib/gcc/lib/Debug/libdriver.a(flash.o)
 .text.FlashIntClear
                0x0000000000000000       0x1c ../../../driverlib/gcc/lib/Debug/libdriver.a(flash.o)
 .debug_info    0x0000000000000000      0x300 ../../../driverlib/gcc/lib/Debug/libdriver.a(flash.o)
 .debug_abbrev  0x0000000000000000      0x191 ../../../driverlib/gcc/lib/Debug/libdriver.a(flash.o)
 .debug_aranges
                0x0000000000000000       0x88 ../../../driverlib/gcc/lib/Debug/libdriver.a(flash.o)
 .debug_ranges  0x0000000000000000       0x78 ../../../driverlib/gcc/lib/Debug/libdriver.a(flash.o)
 .debug_line    0x0000000000000000      0x1f4 ../../../driverlib/gcc/lib/Debug/libdriver.a(flash.o)
 .debug_str     0x0000000000000000      0x279 ../../../driverlib/gcc/lib/Debug/libdriver.a(flash.o)
 .comment       0x0000000000000000       0x22 ../../../driverlib/gcc/lib/Debug/libdriver.a(flash.o)
 .ARM.attributes
                0x0000000000000000       0x33 ../../../driverlib/gcc/lib/Debug/libdriver.a(flash.o)
 .debug_frame   0x0000000000000000      0x214 ../../../driverlib/gcc/lib/Debug/libdriver.a(flash.o)
 .text          0x0000000000000000        0x0 /usr/lib/gcc/arm-none-eabi/5.2.0/../../../../arm-none-eabi/lib/armv7e-m/libc_nano.a(lib_a-atoi.o)
 .data          0x0000000000000000        0x0 /usr/lib/gcc/arm-none-eabi/5.2.0/../../../../arm-none-eabi/lib/armv7e-m/libc_nano.a(lib_a-atoi.o)
 .bss           0x0000000000000000        0x0 /usr/lib/gcc/arm-none-eabi/5.2.0/../../../../arm-none-eabi/lib/armv7e-m/libc_nano.a(lib_a-atoi.o)
 .text._atoi_r  0x0000000000000000        0x8 /usr/lib/gcc/arm-none-eabi/5.2.0/../../../../arm-none-eabi/lib/armv7e-m/libc_nano.a(lib_a-atoi.o)
 .text          0x0000000000000000        0x0 /usr/lib/gcc/arm-none-eabi/5.2.0/../../../../arm-none-eabi/lib/armv7e-m/libc_nano.a(lib_a-malloc.o)
 .data          0x0000000000000000        0x0 /usr/lib/gcc/arm-none-eabi/5.2.0/../../../../arm-none-eabi/lib/armv7e-m/libc_nano.a(lib_a-malloc.o)
 .bss           0x0000000000000000        0x0 /usr/lib/gcc/arm-none-eabi/5.2.0/../../../../arm-none-eabi/lib/armv7e-m/libc_nano.a(lib_a-malloc.o)
 .text          0x0000000000000000        0x0 /usr/lib/gcc/arm-none-eabi/5.2.0/../../../../arm-none-eabi/lib/armv7e-m/libc_nano.a(lib_a-memchr.o)
 .data          0x0000000000000000        0x0 /usr/lib/gcc/arm-none-eabi/5.2.0/../../../../arm-none-eabi/lib/armv7e-m/libc_nano.a(lib_a-memchr.o)
 .bss           0x0000000000000000        0x0 /usr/lib/gcc/arm-none-eabi/5.2.0/../../../../arm-none-eabi/lib/armv7e-m/libc_nano.a(lib_a-memchr.o)
 .text          0x0000000000000000        0x0 /usr/lib/gcc/arm-none-eabi/5.2.0/../../../../arm-none-eabi/lib/armv7e-m/libc_nano.a(lib_a-memcmp.o)
 .data          0x0000000000000000        0x0 /usr/lib/gcc/arm-none-eabi/5.2.0/../../../../arm-none-eabi/lib/armv7e-m/libc_nano.a(lib_a-memcmp.o)
 .bss           0x0000000000000000        0x0 /usr/lib/gcc/arm-none-eabi/5.2.0/../../../../arm-none-eabi/lib/armv7e-m/libc_nano.a(lib_a-memcmp.o)
 .text          0x0000000000000000        0x0 /usr/lib/gcc/arm-none-eabi/5.2.0/../../../../arm-none-eabi/lib/armv7e-m/libc_nano.a(lib_a-memcpy.o)
 .data          0x0000000000000000        0x0 /usr/lib/gcc/arm-none-eabi/5.2.0/../../../../arm-none-eabi/lib/armv7e-m/libc_nano.a(lib_a-memcpy.o)
 .bss           0x0000000000000000        0x0 /usr/lib/gcc/arm-none-eabi/5.2.0/../../../../arm-none-eabi/lib/armv7e-m/libc_nano.a(lib_a-memcpy.o)
 .text          0x0000000000000000        0x0 /usr/lib/gcc/arm-none-eabi/5.2.0/../../../../arm-none-eabi/lib/armv7e-m/libc_nano.a(lib_a-memmove.o)
 .data          0x0000000000000000        0x0 /usr/lib/gcc/arm-none-eabi/5.2.0/../../../../arm-none-eabi/lib/armv7e-m/libc_nano.a(lib_a-memmove.o)
 .bss           0x0000000000000000        0x0 /usr/lib/gcc/arm-none-eabi/5.2.0/../../../../arm-none-eabi/lib/armv7e-m/libc_nano.a(lib_a-memmove.o)
 .text          0x0000000000000000        0x0 /usr/lib/gcc/arm-none-eabi/5.2.0/../../../../arm-none-eabi/lib/armv7e-m/libc_nano.a(lib_a-memset.o)
 .data          0x0000000000000000        0x0 /usr/lib/gcc/arm-none-eabi/5.2.0/../../../../arm-none-eabi/lib/armv7e-m/libc_nano.a(lib_a-memset.o)
 .bss           0x0000000000000000        0x0 /usr/lib/gcc/arm-none-eabi/5.2.0/../../../../arm-none-eabi/lib/armv7e-m/libc_nano.a(lib_a-memset.o)
 .text          0x0000000000000000        0x0 /usr/lib/gcc/arm-none-eabi/5.2.0/../../../../arm-none-eabi/lib/armv7e-m/libc_nano.a(lib_a-nano-freer.o)
 .data          0x0000000000000000        0x0 /usr/lib/gcc/arm-none-eabi/5.2.0/../../../../arm-none-eabi/lib/armv7e-m/libc_nano.a(lib_a-nano-freer.o)
 .bss           0x0000000000000000        0x0 /usr/lib/gcc/arm-none-eabi/5.2.0/../../../../arm-none-eabi/lib/armv7e-m/libc_nano.a(lib_a-nano-freer.o)
 .text          0x0000000000000000        0x0 /usr/lib/gcc/arm-none-eabi/5.2.0/../../../../arm-none-eabi/lib/armv7e-m/libc_nano.a(lib_a-nano-mallocr.o)
 .data          0x0000000000000000        0x0 /usr/lib/gcc/arm-none-eabi/5.2.0/../../../../arm-none-eabi/lib/armv7e-m/libc_nano.a(lib_a-nano-mallocr.o)
 .bss           0x0000000000000000        0x0 /usr/lib/gcc/arm-none-eabi/5.2.0/../../../../arm-none-eabi/lib/armv7e-m/libc_nano.a(lib_a-nano-mallocr.o)
 .text          0x0000000000000000        0x0 /usr/lib/gcc/arm-none-eabi/5.2.0/../../../../arm-none-eabi/lib/armv7e-m/libc_nano.a(lib_a-realloc.o)
 .data          0x0000000000000000        0x0 /usr/lib/gcc/arm-none-eabi/5.2.0/../../../../arm-none-eabi/lib/armv7e-m/libc_nano.a(lib_a-realloc.o)
 .bss           0x0000000000000000        0x0 /usr/lib/gcc/arm-none-eabi/5.2.0/../../../../arm-none-eabi/lib/armv7e-m/libc_nano.a(lib_a-realloc.o)
 .text          0x0000000000000000        0x0 /usr/lib/gcc/arm-none-eabi/5.2.0/../../../../arm-none-eabi/lib/armv7e-m/libc_nano.a(lib_a-sbrkr.o)
 .data          0x0000000000000000        0x0 /usr/lib/gcc/arm-none-eabi/5.2.0/../../../../arm-none-eabi/lib/armv7e-m/libc_nano.a(lib_a-sbrkr.o)
 .bss           0x0000000000000000        0x0 /usr/lib/gcc/arm-none-eabi/5.2.0/../../../../arm-none-eabi/lib/armv7e-m/libc_nano.a(lib_a-sbrkr.o)
 .text          0x0000000000000000        0x0 /usr/lib/gcc/arm-none-eabi/5.2.0/../../../../arm-none-eabi/lib/armv7e-m/libc_nano.a(lib_a-sprintf.o)
 .data          0x0000000000000000        0x0 /usr/lib/gcc/arm-none-eabi/5.2.0/../../../../arm-none-eabi/lib/armv7e-m/libc_nano.a(lib_a-sprintf.o)
 .bss           0x0000000000000000        0x0 /usr/lib/gcc/arm-none-eabi/5.2.0/../../../../arm-none-eabi/lib/armv7e-m/libc_nano.a(lib_a-sprintf.o)
 .text._sprintf_r
                0x0000000000000000       0x40 /usr/lib/gcc/arm-none-eabi/5.2.0/../../../../arm-none-eabi/lib/armv7e-m/libc_nano.a(lib_a-sprintf.o)
 .text.sprintf  0x0000000000000000       0x48 /usr/lib/gcc/arm-none-eabi/5.2.0/../../../../arm-none-eabi/lib/armv7e-m/libc_nano.a(lib_a-sprintf.o)
 .debug_info    0x0000000000000000      0x88c /usr/lib/gcc/arm-none-eabi/5.2.0/../../../../arm-none-eabi/lib/armv7e-m/libc_nano.a(lib_a-sprintf.o)
 .debug_abbrev  0x0000000000000000      0x1c0 /usr/lib/gcc/arm-none-eabi/5.2.0/../../../../arm-none-eabi/lib/armv7e-m/libc_nano.a(lib_a-sprintf.o)
 .debug_loc     0x0000000000000000       0x95 /usr/lib/gcc/arm-none-eabi/5.2.0/../../../../arm-none-eabi/lib/armv7e-m/libc_nano.a(lib_a-sprintf.o)
 .debug_aranges
                0x0000000000000000       0x28 /usr/lib/gcc/arm-none-eabi/5.2.0/../../../../arm-none-eabi/lib/armv7e-m/libc_nano.a(lib_a-sprintf.o)
 .debug_ranges  0x0000000000000000       0x18 /usr/lib/gcc/arm-none-eabi/5.2.0/../../../../arm-none-eabi/lib/armv7e-m/libc_nano.a(lib_a-sprintf.o)
 .debug_line    0x0000000000000000      0x190 /usr/lib/gcc/arm-none-eabi/5.2.0/../../../../arm-none-eabi/lib/armv7e-m/libc_nano.a(lib_a-sprintf.o)
 .debug_str     0x0000000000000000      0x544 /usr/lib/gcc/arm-none-eabi/5.2.0/../../../../arm-none-eabi/lib/armv7e-m/libc_nano.a(lib_a-sprintf.o)
 .comment       0x0000000000000000       0x22 /usr/lib/gcc/arm-none-eabi/5.2.0/../../../../arm-none-eabi/lib/armv7e-m/libc_nano.a(lib_a-sprintf.o)
 .debug_frame   0x0000000000000000       0x70 /usr/lib/gcc/arm-none-eabi/5.2.0/../../../../arm-none-eabi/lib/armv7e-m/libc_nano.a(lib_a-sprintf.o)
 .ARM.attributes
                0x0000000000000000       0x2e /usr/lib/gcc/arm-none-eabi/5.2.0/../../../../arm-none-eabi/lib/armv7e-m/libc_nano.a(lib_a-sprintf.o)
 .data          0x0000000000000000        0x0 /usr/lib/gcc/arm-none-eabi/5.2.0/../../../../arm-none-eabi/lib/armv7e-m/libc_nano.a(lib_a-strcmp.o)
 .bss           0x0000000000000000        0x0 /usr/lib/gcc/arm-none-eabi/5.2.0/../../../../arm-none-eabi/lib/armv7e-m/libc_nano.a(lib_a-strcmp.o)
 .eh_frame      0x0000000000000000       0x28 /usr/lib/gcc/arm-none-eabi/5.2.0/../../../../arm-none-eabi/lib/armv7e-m/libc_nano.a(lib_a-strcmp.o)
 .text          0x0000000000000000        0x0 /usr/lib/gcc/arm-none-eabi/5.2.0/../../../../arm-none-eabi/lib/armv7e-m/libc_nano.a(lib_a-strcpy.o)
 .data          0x0000000000000000        0x0 /usr/lib/gcc/arm-none-eabi/5.2.0/../../../../arm-none-eabi/lib/armv7e-m/libc_nano.a(lib_a-strcpy.o)
 .bss           0x0000000000000000        0x0 /usr/lib/gcc/arm-none-eabi/5.2.0/../../../../arm-none-eabi/lib/armv7e-m/libc_nano.a(lib_a-strcpy.o)
 .text          0x0000000000000000        0x0 /usr/lib/gcc/arm-none-eabi/5.2.0/../../../../arm-none-eabi/lib/armv7e-m/libc_nano.a(lib_a-strlen.o)
 .data          0x0000000000000000        0x0 /usr/lib/gcc/arm-none-eabi/5.2.0/../../../../arm-none-eabi/lib/armv7e-m/libc_nano.a(lib_a-strlen.o)
 .bss           0x0000000000000000        0x0 /usr/lib/gcc/arm-none-eabi/5.2.0/../../../../arm-none-eabi/lib/armv7e-m/libc_nano.a(lib_a-strlen.o)
 .text          0x0000000000000000        0x0 /usr/lib/gcc/arm-none-eabi/5.2.0/../../../../arm-none-eabi/lib/armv7e-m/libc_nano.a(lib_a-strncat.o)
 .data          0x0000000000000000        0x0 /usr/lib/gcc/arm-none-eabi/5.2.0/../../../../arm-none-eabi/lib/armv7e-m/libc_nano.a(lib_a-strncat.o)
 .bss           0x0000000000000000        0x0 /usr/lib/gcc/arm-none-eabi/5.2.0/../../../../arm-none-eabi/lib/armv7e-m/libc_nano.a(lib_a-strncat.o)
 .text          0x0000000000000000        0x0 /usr/lib/gcc/arm-none-eabi/5.2.0/../../../../arm-none-eabi/lib/armv7e-m/libc_nano.a(lib_a-strncpy.o)
 .data          0x0000000000000000        0x0 /usr/lib/gcc/arm-none-eabi/5.2.0/../../../../arm-none-eabi/lib/armv7e-m/libc_nano.a(lib_a-strncpy.o)
 .bss           0x0000000000000000        0x0 /usr/lib/gcc/arm-none-eabi/5.2.0/../../../../arm-none-eabi/lib/armv7e-m/libc_nano.a(lib_a-strncpy.o)
 .text.strncpy  0x0000000000000000       0x26 /usr/lib/gcc/arm-none-eabi/5.2.0/../../../../arm-none-eabi/lib/armv7e-m/libc_nano.a(lib_a-strncpy.o)
 .debug_info    0x0000000000000000      0x10a /usr/lib/gcc/arm-none-eabi/5.2.0/../../../../arm-none-eabi/lib/armv7e-m/libc_nano.a(lib_a-strncpy.o)
 .debug_abbrev  0x0000000000000000       0x97 /usr/lib/gcc/arm-none-eabi/5.2.0/../../../../arm-none-eabi/lib/armv7e-m/libc_nano.a(lib_a-strncpy.o)
 .debug_loc     0x0000000000000000       0xdb /usr/lib/gcc/arm-none-eabi/5.2.0/../../../../arm-none-eabi/lib/armv7e-m/libc_nano.a(lib_a-strncpy.o)
 .debug_aranges
                0x0000000000000000       0x20 /usr/lib/gcc/arm-none-eabi/5.2.0/../../../../arm-none-eabi/lib/armv7e-m/libc_nano.a(lib_a-strncpy.o)
 .debug_ranges  0x0000000000000000       0x10 /usr/lib/gcc/arm-none-eabi/5.2.0/../../../../arm-none-eabi/lib/armv7e-m/libc_nano.a(lib_a-strncpy.o)
 .debug_line    0x0000000000000000       0xe3 /usr/lib/gcc/arm-none-eabi/5.2.0/../../../../arm-none-eabi/lib/armv7e-m/libc_nano.a(lib_a-strncpy.o)
 .debug_str     0x0000000000000000      0x1cc /usr/lib/gcc/arm-none-eabi/5.2.0/../../../../arm-none-eabi/lib/armv7e-m/libc_nano.a(lib_a-strncpy.o)
 .comment       0x0000000000000000       0x22 /usr/lib/gcc/arm-none-eabi/5.2.0/../../../../arm-none-eabi/lib/armv7e-m/libc_nano.a(lib_a-strncpy.o)
 .debug_frame   0x0000000000000000       0x28 /usr/lib/gcc/arm-none-eabi/5.2.0/../../../../arm-none-eabi/lib/armv7e-m/libc_nano.a(lib_a-strncpy.o)
 .ARM.attributes
                0x0000000000000000       0x2e /usr/lib/gcc/arm-none-eabi/5.2.0/../../../../arm-none-eabi/lib/armv7e-m/libc_nano.a(lib_a-strncpy.o)
 .text          0x0000000000000000        0x0 /usr/lib/gcc/arm-none-eabi/5.2.0/../../../../arm-none-eabi/lib/armv7e-m/libc_nano.a(lib_a-strtol.o)
 .data          0x0000000000000000        0x0 /usr/lib/gcc/arm-none-eabi/5.2.0/../../../../arm-none-eabi/lib/armv7e-m/libc_nano.a(lib_a-strtol.o)
 .bss           0x0000000000000000        0x0 /usr/lib/gcc/arm-none-eabi/5.2.0/../../../../arm-none-eabi/lib/armv7e-m/libc_nano.a(lib_a-strtol.o)
 .text          0x0000000000000000        0x0 /usr/lib/gcc/arm-none-eabi/5.2.0/../../../../arm-none-eabi/lib/armv7e-m/libc_nano.a(lib_a-vsnprintf.o)
 .data          0x0000000000000000        0x0 /usr/lib/gcc/arm-none-eabi/5.2.0/../../../../arm-none-eabi/lib/armv7e-m/libc_nano.a(lib_a-vsnprintf.o)
 .bss           0x0000000000000000        0x0 /usr/lib/gcc/arm-none-eabi/5.2.0/../../../../arm-none-eabi/lib/armv7e-m/libc_nano.a(lib_a-vsnprintf.o)
 .text          0x0000000000000000        0x0 /usr/lib/gcc/arm-none-eabi/5.2.0/../../../../arm-none-eabi/lib/armv7e-m/libc_nano.a(lib_a-ctype_.o)
 .data          0x0000000000000000        0x0 /usr/lib/gcc/arm-none-eabi/5.2.0/../../../../arm-none-eabi/lib/armv7e-m/libc_nano.a(lib_a-ctype_.o)
 .bss           0x0000000000000000        0x0 /usr/lib/gcc/arm-none-eabi/5.2.0/../../../../arm-none-eabi/lib/armv7e-m/libc_nano.a(lib_a-ctype_.o)
 .text          0x0000000000000000        0x0 /usr/lib/gcc/arm-none-eabi/5.2.0/../../../../arm-none-eabi/lib/armv7e-m/libc_nano.a(lib_a-impure.o)
 .data          0x0000000000000000        0x0 /usr/lib/gcc/arm-none-eabi/5.2.0/../../../../arm-none-eabi/lib/armv7e-m/libc_nano.a(lib_a-impure.o)
 .bss           0x0000000000000000        0x0 /usr/lib/gcc/arm-none-eabi/5.2.0/../../../../arm-none-eabi/lib/armv7e-m/libc_nano.a(lib_a-impure.o)
 .rodata._global_impure_ptr
                0x0000000000000000        0x4 /usr/lib/gcc/arm-none-eabi/5.2.0/../../../../arm-none-eabi/lib/armv7e-m/libc_nano.a(lib_a-impure.o)
 .text          0x0000000000000000        0x0 /usr/lib/gcc/arm-none-eabi/5.2.0/../../../../arm-none-eabi/lib/armv7e-m/libc_nano.a(lib_a-nano-reallocr.o)
 .data          0x0000000000000000        0x0 /usr/lib/gcc/arm-none-eabi/5.2.0/../../../../arm-none-eabi/lib/armv7e-m/libc_nano.a(lib_a-nano-reallocr.o)
 .bss           0x0000000000000000        0x0 /usr/lib/gcc/arm-none-eabi/5.2.0/../../../../arm-none-eabi/lib/armv7e-m/libc_nano.a(lib_a-nano-reallocr.o)
 .text          0x0000000000000000        0x0 /usr/lib/gcc/arm-none-eabi/5.2.0/../../../../arm-none-eabi/lib/armv7e-m/libc_nano.a(lib_a-nano-svfprintf.o)
 .data          0x0000000000000000        0x0 /usr/lib/gcc/arm-none-eabi/5.2.0/../../../../arm-none-eabi/lib/armv7e-m/libc_nano.a(lib_a-nano-svfprintf.o)
 .bss           0x0000000000000000        0x0 /usr/lib/gcc/arm-none-eabi/5.2.0/../../../../arm-none-eabi/lib/armv7e-m/libc_nano.a(lib_a-nano-svfprintf.o)
 .text.__ssprint_r
                0x0000000000000000       0xfe /usr/lib/gcc/arm-none-eabi/5.2.0/../../../../arm-none-eabi/lib/armv7e-m/libc_nano.a(lib_a-nano-svfprintf.o)
 .text          0x0000000000000000        0x0 /usr/lib/gcc/arm-none-eabi/5.2.0/../../../../arm-none-eabi/lib/armv7e-m/libc_nano.a(lib_a-nano-vfprintf_i.o)
 .data          0x0000000000000000        0x0 /usr/lib/gcc/arm-none-eabi/5.2.0/../../../../arm-none-eabi/lib/armv7e-m/libc_nano.a(lib_a-nano-vfprintf_i.o)
 .bss           0x0000000000000000        0x0 /usr/lib/gcc/arm-none-eabi/5.2.0/../../../../arm-none-eabi/lib/armv7e-m/libc_nano.a(lib_a-nano-vfprintf_i.o)
 .text          0x0000000000000000        0x0 /usr/lib/gcc/arm-none-eabi/5.2.0/../../../../arm-none-eabi/lib/armv7e-m/libc_nano.a(lib_a-reent.o)
 .data          0x0000000000000000        0x0 /usr/lib/gcc/arm-none-eabi/5.2.0/../../../../arm-none-eabi/lib/armv7e-m/libc_nano.a(lib_a-reent.o)
 .bss           0x0000000000000000        0x0 /usr/lib/gcc/arm-none-eabi/5.2.0/../../../../arm-none-eabi/lib/armv7e-m/libc_nano.a(lib_a-reent.o)
 .text.cleanup_glue
                0x0000000000000000       0x1a /usr/lib/gcc/arm-none-eabi/5.2.0/../../../../arm-none-eabi/lib/armv7e-m/libc_nano.a(lib_a-reent.o)
 .text._reclaim_reent
                0x0000000000000000       0xb4 /usr/lib/gcc/arm-none-eabi/5.2.0/../../../../arm-none-eabi/lib/armv7e-m/libc_nano.a(lib_a-reent.o)
 .text          0x0000000000000000        0x0 /usr/lib/gcc/arm-none-eabi/5.2.0/../../../../arm-none-eabi/lib/armv7e-m/libc_nano.a(lib_a-nano-msizer.o)
 .data          0x0000000000000000        0x0 /usr/lib/gcc/arm-none-eabi/5.2.0/../../../../arm-none-eabi/lib/armv7e-m/libc_nano.a(lib_a-nano-msizer.o)
 .bss           0x0000000000000000        0x0 /usr/lib/gcc/arm-none-eabi/5.2.0/../../../../arm-none-eabi/lib/armv7e-m/libc_nano.a(lib_a-nano-msizer.o)
 .text          0x0000000000000000       0x30 /usr/lib/gcc/arm-none-eabi/5.2.0/armv7e-m/libgcc.a(_aeabi_uldivmod.o)
 .data          0x0000000000000000        0x0 /usr/lib/gcc/arm-none-eabi/5.2.0/armv7e-m/libgcc.a(_aeabi_uldivmod.o)
 .bss           0x0000000000000000        0x0 /usr/lib/gcc/arm-none-eabi/5.2.0/armv7e-m/libgcc.a(_aeabi_uldivmod.o)
 .debug_line    0x0000000000000000       0x64 /usr/lib/gcc/arm-none-eabi/5.2.0/armv7e-m/libgcc.a(_aeabi_uldivmod.o)
 .debug_info    0x0000000000000000       0xb7 /usr/lib/gcc/arm-none-eabi/5.2.0/armv7e-m/libgcc.a(_aeabi_uldivmod.o)
 .debug_abbrev  0x0000000000000000       0x14 /usr/lib/gcc/arm-none-eabi/5.2.0/armv7e-m/libgcc.a(_aeabi_uldivmod.o)
 .debug_aranges
                0x0000000000000000       0x20 /usr/lib/gcc/arm-none-eabi/5.2.0/armv7e-m/libgcc.a(_aeabi_uldivmod.o)
 .debug_frame   0x0000000000000000       0x2c /usr/lib/gcc/arm-none-eabi/5.2.0/armv7e-m/libgcc.a(_aeabi_uldivmod.o)
 .ARM.attributes
                0x0000000000000000       0x1e /usr/lib/gcc/arm-none-eabi/5.2.0/armv7e-m/libgcc.a(_aeabi_uldivmod.o)
 .text          0x0000000000000000      0x2e4 /usr/lib/gcc/arm-none-eabi/5.2.0/armv7e-m/libgcc.a(_udivmoddi4.o)
 .data          0x0000000000000000        0x0 /usr/lib/gcc/arm-none-eabi/5.2.0/armv7e-m/libgcc.a(_udivmoddi4.o)
 .bss           0x0000000000000000        0x0 /usr/lib/gcc/arm-none-eabi/5.2.0/armv7e-m/libgcc.a(_udivmoddi4.o)
 .ARM.extab     0x0000000000000000        0x0 /usr/lib/gcc/arm-none-eabi/5.2.0/armv7e-m/libgcc.a(_udivmoddi4.o)
 .ARM.exidx     0x0000000000000000        0x8 /usr/lib/gcc/arm-none-eabi/5.2.0/armv7e-m/libgcc.a(_udivmoddi4.o)
 .debug_info    0x0000000000000000      0x441 /usr/lib/gcc/arm-none-eabi/5.2.0/armv7e-m/libgcc.a(_udivmoddi4.o)
 .debug_abbrev  0x0000000000000000      0x101 /usr/lib/gcc/arm-none-eabi/5.2.0/armv7e-m/libgcc.a(_udivmoddi4.o)
 .debug_loc     0x0000000000000000      0xe94 /usr/lib/gcc/arm-none-eabi/5.2.0/armv7e-m/libgcc.a(_udivmoddi4.o)
 .debug_aranges
                0x0000000000000000       0x20 /usr/lib/gcc/arm-none-eabi/5.2.0/armv7e-m/libgcc.a(_udivmoddi4.o)
 .debug_ranges  0x0000000000000000       0xd8 /usr/lib/gcc/arm-none-eabi/5.2.0/armv7e-m/libgcc.a(_udivmoddi4.o)
 .debug_line    0x0000000000000000      0x1ad /usr/lib/gcc/arm-none-eabi/5.2.0/armv7e-m/libgcc.a(_udivmoddi4.o)
 .debug_str     0x0000000000000000      0x243 /usr/lib/gcc/arm-none-eabi/5.2.0/armv7e-m/libgcc.a(_udivmoddi4.o)
 .comment       0x0000000000000000       0x22 /usr/lib/gcc/arm-none-eabi/5.2.0/armv7e-m/libgcc.a(_udivmoddi4.o)
 .debug_frame   0x0000000000000000       0x34 /usr/lib/gcc/arm-none-eabi/5.2.0/armv7e-m/libgcc.a(_udivmoddi4.o)
 .ARM.attributes
                0x0000000000000000       0x2e /usr/lib/gcc/arm-none-eabi/5.2.0/armv7e-m/libgcc.a(_udivmoddi4.o)
 .text          0x0000000000000000        0x4 /usr/lib/gcc/arm-none-eabi/5.2.0/armv7e-m/libgcc.a(_dvmd_tls.o)
 .data          0x0000000000000000        0x0 /usr/lib/gcc/arm-none-eabi/5.2.0/armv7e-m/libgcc.a(_dvmd_tls.o)
 .bss           0x0000000000000000        0x0 /usr/lib/gcc/arm-none-eabi/5.2.0/armv7e-m/libgcc.a(_dvmd_tls.o)
 .debug_line    0x0000000000000000       0x64 /usr/lib/gcc/arm-none-eabi/5.2.0/armv7e-m/libgcc.a(_dvmd_tls.o)
 .debug_info    0x0000000000000000       0xbb /usr/lib/gcc/arm-none-eabi/5.2.0/armv7e-m/libgcc.a(_dvmd_tls.o)
 .debug_abbrev  0x0000000000000000       0x14 /usr/lib/gcc/arm-none-eabi/5.2.0/armv7e-m/libgcc.a(_dvmd_tls.o)
 .debug_aranges
                0x0000000000000000       0x20 /usr/lib/gcc/arm-none-eabi/5.2.0/armv7e-m/libgcc.a(_dvmd_tls.o)
 .ARM.attributes
                0x0000000000000000       0x1e /usr/lib/gcc/arm-none-eabi/5.2.0/armv7e-m/libgcc.a(_dvmd_tls.o)

Memory Configuration

Name             Origin             Length             Attributes
SRAM             0x0000000020000000 0x0000000000040000 xrw
*default*        0x0000000000000000 0xffffffffffffffff

Linker script and memory map

                0x0000000000004000                BOOTLOADER_SIZE = 0x4000

.bootloader     0x0000000020000000     0x4000
                0x0000000020000000                _heap2 = .
                0x0000000020004000                . = (. + BOOTLOADER_SIZE)
 *fill*         0x0000000020000000     0x4000 
                0x0000000020004000                . = ALIGN (0x8)
                0x0000000020004000                _eheap2 = .

.text           0x0000000020004000     0xfec0
                0x0000000020004000                _text = .
 *(.intvecs)
 .intvecs       0x0000000020004000      0x400 obj/Debug/startup_gcc.o
                0x0000000020004000                g_pfnVectors
 *(.text*)
 .text.StartCamera
                0x0000000020004400       0x1c obj/Debug/camera_app.o
                0x0000000020004400                StartCamera
 .text.InitCameraComponents
                0x000000002000441c       0x54 obj/Debug/camera_app.o
                0x000000002000441c                InitCameraComponents
 .text.CaptureImage
                0x0000000020004470       0xc4 obj/Debug/camera_app.o
 .text.DMAConfig
                0x0000000020004534       0xe0 obj/Debug/camera_app.o
 .text.CamControllerInit
                0x0000000020004614       0x6c obj/Debug/camera_app.o
 .text.CameraIntHandler
                0x0000000020004680      0x144 obj/Debug/camera_app.o
 .text.JfifApp0Marker
                0x00000000200047c4       0xc8 obj/Debug/camera_app.o
 .text.FrameHeaderMarker
                0x000000002000488c      0x198 obj/Debug/camera_app.o
 .text.ScanHeaderMarker
                0x0000000020004a24       0xe0 obj/Debug/camera_app.o
 .text.DefineQuantizationTableMarker
                0x0000000020004b04      0x17c obj/Debug/camera_app.o
 .text.DefineHuffmanTableMarkerDC
                0x0000000020004c80       0xf8 obj/Debug/camera_app.o
 .text.DefineHuffmanTableMarkerAC
                0x0000000020004d78      0x1ec obj/Debug/camera_app.o
 .text.DefineRestartIntervalMarker
                0x0000000020004f64       0x58 obj/Debug/camera_app.o
 .text.CreateJpegHeader
                0x0000000020004fbc      0x12c obj/Debug/camera_app.o
 .text.I2CInit  0x00000000200050e8       0x2c obj/Debug/i2cconfig.o
                0x00000000200050e8                I2CInit
 .text.I2CBufferRead
                0x0000000020005114       0xfc obj/Debug/i2cconfig.o
                0x0000000020005114                I2CBufferRead
 .text.I2CBufferWrite
                0x0000000020005210       0xf0 obj/Debug/i2cconfig.o
                0x0000000020005210                I2CBufferWrite
 .text.CameraSensorInit
                0x0000000020005300       0x44 obj/Debug/mt9d111.o
                0x0000000020005300                CameraSensorInit
 .text.StartSensorInJpegMode
                0x0000000020005344       0xa4 obj/Debug/mt9d111.o
                0x0000000020005344                StartSensorInJpegMode
 .text.RegLstWrite
                0x00000000200053e8      0x234 obj/Debug/mt9d111.o
 .text.DisplayBanner
                0x000000002000561c       0x3c obj/Debug/main.o
 .text.BoardInit
                0x0000000020005658       0x24 obj/Debug/main.o
 .text.main     0x000000002000567c       0x5c obj/Debug/main.o
                0x000000002000567c                main
 .text.WebSocketCloseSessionHandler
                0x00000000200056d8       0x18 obj/Debug/httpserverapp.o
                0x00000000200056d8                WebSocketCloseSessionHandler
 .text.CameraAppTask
                0x00000000200056f0       0x50 obj/Debug/httpserverapp.o
                0x00000000200056f0                CameraAppTask
 .text.WebSocketRecvEventHandler
                0x0000000020005740       0x84 obj/Debug/httpserverapp.o
                0x0000000020005740                WebSocketRecvEventHandler
 .text.WebSocketHandshakeEventHandler
                0x00000000200057c4       0x28 obj/Debug/httpserverapp.o
                0x00000000200057c4                WebSocketHandshakeEventHandler
 .text.HttpServerAppTask
                0x00000000200057ec       0x58 obj/Debug/httpserverapp.o
                0x00000000200057ec                HttpServerAppTask
 .text.PinMuxConfig
                0x0000000020005844       0x90 obj/Debug/pinmux.o
                0x0000000020005844                PinMuxConfig
 .text.InitTerm
                0x00000000200058d4       0x2c obj/Debug/uart_if.o
                0x00000000200058d4                InitTerm
 .text.Message  0x0000000020005900       0x34 obj/Debug/uart_if.o
                0x0000000020005900                Message
 .text.Report   0x0000000020005934       0x98 obj/Debug/uart_if.o
                0x0000000020005934                Report
 .text.vAssertCalled
                0x00000000200059cc        0xc obj/Debug/network_if.o
                0x00000000200059cc                vAssertCalled
 .text.vApplicationIdleHook
                0x00000000200059d8        0xc obj/Debug/network_if.o
                0x00000000200059d8                vApplicationIdleHook
 .text.vApplicationMallocFailedHook
                0x00000000200059e4        0x8 obj/Debug/network_if.o
                0x00000000200059e4                vApplicationMallocFailedHook
 .text.vApplicationStackOverflowHook
                0x00000000200059ec        0xc obj/Debug/network_if.o
                0x00000000200059ec                vApplicationStackOverflowHook
 .text.SimpleLinkWlanEventHandler
                0x00000000200059f8      0x210 obj/Debug/network_if.o
                0x00000000200059f8                SimpleLinkWlanEventHandler
 .text.SimpleLinkNetAppEventHandler
                0x0000000020005c08       0xa8 obj/Debug/network_if.o
                0x0000000020005c08                SimpleLinkNetAppEventHandler
 .text.SimpleLinkGeneralEventHandler
                0x0000000020005cb0       0x30 obj/Debug/network_if.o
                0x0000000020005cb0                SimpleLinkGeneralEventHandler
 .text.SimpleLinkSockEventHandler
                0x0000000020005ce0       0xcc obj/Debug/network_if.o
                0x0000000020005ce0                SimpleLinkSockEventHandler
 .text.SimpleLinkHttpServerCallback
                0x0000000020005dac       0x14 obj/Debug/network_if.o
                0x0000000020005dac                SimpleLinkHttpServerCallback
 .text.InitializeAppVariables
                0x0000000020005dc0       0x44 obj/Debug/network_if.o
                0x0000000020005dc0                InitializeAppVariables
 .text.ConfigureSimpleLinkToDefaultState
                0x0000000020005e04      0x364 obj/Debug/network_if.o
                0x0000000020005e04                ConfigureSimpleLinkToDefaultState
 .text.Network_IF_InitDriver
                0x0000000020006168      0x1b4 obj/Debug/network_if.o
                0x0000000020006168                Network_IF_InitDriver
 .text.DmaSwIntHandler
                0x000000002000631c       0x24 obj/Debug/udma_if.o
                0x000000002000631c                DmaSwIntHandler
 .text.DmaErrorIntHandler
                0x0000000020006340       0x14 obj/Debug/udma_if.o
                0x0000000020006340                DmaErrorIntHandler
 .text.UDMAInit
                0x0000000020006354       0x74 obj/Debug/udma_if.o
                0x0000000020006354                UDMAInit
 .text.UDMASetupTransfer
                0x00000000200063c8       0x4c obj/Debug/udma_if.o
                0x00000000200063c8                UDMASetupTransfer
 .text.ResetISR
                0x0000000020006414       0x78 obj/Debug/startup_gcc.o
                0x0000000020006414                ResetISR
 .text.NmiSR    0x000000002000648c        0x8 obj/Debug/startup_gcc.o
 .text.FaultISR
                0x0000000020006494        0x8 obj/Debug/startup_gcc.o
 .text.BusFaultHandler
                0x000000002000649c        0x8 obj/Debug/startup_gcc.o
 .text.IntDefaultHandler
                0x00000000200064a4        0x8 obj/Debug/startup_gcc.o
 .text._sbrk    0x00000000200064ac       0x70 obj/Debug/startup_gcc.o
                0x00000000200064ac                _sbrk
 .text.HttpCloseServer
                0x000000002000651c       0x30 ../../../netapps/http/server/gcc/lib/Debug/libwebserver.a(HttpCore.o)
                0x000000002000651c                HttpCloseServer
 .text.HttpServerInitAndRun
                0x000000002000654c       0x24 ../../../netapps/http/server/gcc/lib/Debug/libwebserver.a(HttpCore.o)
                0x000000002000654c                HttpServerInitAndRun
 .text.RunHttpServer
                0x0000000020006570      0x2f4 ../../../netapps/http/server/gcc/lib/Debug/libwebserver.a(HttpCore.o)
 .text.HttpCore_ResetConnection
                0x0000000020006864       0x94 ../../../netapps/http/server/gcc/lib/Debug/libwebserver.a(HttpCore.o)
 .text.HttpCore_InitWebServer
                0x00000000200068f8       0xa8 ../../../netapps/http/server/gcc/lib/Debug/libwebserver.a(HttpCore.o)
 .text.HttpCore_CloseConnection
                0x00000000200069a0       0xc8 ../../../netapps/http/server/gcc/lib/Debug/libwebserver.a(HttpCore.o)
                0x00000000200069a0                HttpCore_CloseConnection
 .text.HttpCore_GetNextLine
                0x0000000020006a68      0x270 ../../../netapps/http/server/gcc/lib/Debug/libwebserver.a(HttpCore.o)
 .text.HttpCore_HandleRequestPacket
                0x0000000020006cd8      0x304 ../../../netapps/http/server/gcc/lib/Debug/libwebserver.a(HttpCore.o)
 .text.HttpCore_HandleMethodLine
                0x0000000020006fdc      0x274 ../../../netapps/http/server/gcc/lib/Debug/libwebserver.a(HttpCore.o)
 .text.HttpCore_HandleHeaderLine
                0x0000000020007250      0x664 ../../../netapps/http/server/gcc/lib/Debug/libwebserver.a(HttpCore.o)
 .text.HttpCore_HandleRequestData
                0x00000000200078b4      0x1d0 ../../../netapps/http/server/gcc/lib/Debug/libwebserver.a(HttpCore.o)
 .text.HttpCore_ProcessNotFound
                0x0000000020007a84       0x20 ../../../netapps/http/server/gcc/lib/Debug/libwebserver.a(HttpCore.o)
 .text.HttpCore_SendPacket
                0x0000000020007aa4       0xdc ../../../netapps/http/server/gcc/lib/Debug/libwebserver.a(HttpCore.o)
 .text.HttpResponse_AddCharToResponseHeaders
                0x0000000020007b80       0x4c ../../../netapps/http/server/gcc/lib/Debug/libwebserver.a(HttpCore.o)
                0x0000000020007b80                HttpResponse_AddCharToResponseHeaders
 .text.HttpResponse_AddNumberToResponseHeaders
                0x0000000020007bcc       0x54 ../../../netapps/http/server/gcc/lib/Debug/libwebserver.a(HttpCore.o)
 .text.HttpResponse_AddStringToResponseHeaders
                0x0000000020007c20       0x50 ../../../netapps/http/server/gcc/lib/Debug/libwebserver.a(HttpCore.o)
                0x0000000020007c20                HttpResponse_AddStringToResponseHeaders
 .text.HttpResponse_AddHeaderLine
                0x0000000020007c70       0x48 ../../../netapps/http/server/gcc/lib/Debug/libwebserver.a(HttpCore.o)
 .text.HttpResponse_AddHeaderLineNumValue
                0x0000000020007cb8       0x40 ../../../netapps/http/server/gcc/lib/Debug/libwebserver.a(HttpCore.o)
 .text.HttpStatusString
                0x0000000020007cf8       0xdc ../../../netapps/http/server/gcc/lib/Debug/libwebserver.a(HttpCore.o)
 .text.HttpResponse_Headers
                0x0000000020007dd4      0x1bc ../../../netapps/http/server/gcc/lib/Debug/libwebserver.a(HttpCore.o)
                0x0000000020007dd4                HttpResponse_Headers
 .text.HttpResponse_Content
                0x0000000020007f90       0xd4 ../../../netapps/http/server/gcc/lib/Debug/libwebserver.a(HttpCore.o)
                0x0000000020007f90                HttpResponse_Content
 .text.WSCore_HandshakeResponse
                0x0000000020008064      0x3e0 ../../../netapps/http/server/gcc/lib/Debug/libwebserver.a(HttpCore.o)
 .text.WS_HandshakeHash
                0x0000000020008444       0x30 ../../../netapps/http/server/gcc/lib/Debug/libwebserver.a(HttpCore.o)
 .text.WS_SendPacket
                0x0000000020008474       0x5c ../../../netapps/http/server/gcc/lib/Debug/libwebserver.a(HttpCore.o)
                0x0000000020008474                WS_SendPacket
 .text.HttpResponse_CannedError
                0x00000000200084d0       0x7c ../../../netapps/http/server/gcc/lib/Debug/libwebserver.a(HttpCore.o)
                0x00000000200084d0                HttpResponse_CannedError
 .text.HttpAssert
                0x000000002000854c       0x24 ../../../netapps/http/server/gcc/lib/Debug/libwebserver.a(HttpDebug.o)
                0x000000002000854c                HttpAssert
 .text.HttpDynamic_InitRequest
                0x0000000020008570       0xb4 ../../../netapps/http/server/gcc/lib/Debug/libwebserver.a(HttpDynamic.o)
                0x0000000020008570                HttpDynamic_InitRequest
 .text.HttpDynamic_ProcessRequest
                0x0000000020008624       0xbc ../../../netapps/http/server/gcc/lib/Debug/libwebserver.a(HttpDynamic.o)
                0x0000000020008624                HttpDynamic_ProcessRequest
 .text.OpenTCPServerSocket
                0x00000000200086e0      0x120 ../../../netapps/http/server/gcc/lib/Debug/libwebserver.a(HttpSocket.o)
                0x00000000200086e0                OpenTCPServerSocket
 .text.CreateTCPServerSocket
                0x0000000020008800       0x60 ../../../netapps/http/server/gcc/lib/Debug/libwebserver.a(HttpSocket.o)
                0x0000000020008800                CreateTCPServerSocket
 .text.CloseTCPServerSocket
                0x0000000020008860       0x68 ../../../netapps/http/server/gcc/lib/Debug/libwebserver.a(HttpSocket.o)
                0x0000000020008860                CloseTCPServerSocket
 .text.CreateTCPClientSocket
                0x00000000200088c8       0x9c ../../../netapps/http/server/gcc/lib/Debug/libwebserver.a(HttpSocket.o)
                0x00000000200088c8                CreateTCPClientSocket
 .text.CloseTCPClientSocket
                0x0000000020008964       0x68 ../../../netapps/http/server/gcc/lib/Debug/libwebserver.a(HttpSocket.o)
                0x0000000020008964                CloseTCPClientSocket
 .text.ClientSocketSend
                0x00000000200089cc       0x90 ../../../netapps/http/server/gcc/lib/Debug/libwebserver.a(HttpSocket.o)
                0x00000000200089cc                ClientSocketSend
 .text.HttpStatic_InitRequest
                0x0000000020008a5c       0x84 ../../../netapps/http/server/gcc/lib/Debug/libwebserver.a(HttpStatic.o)
                0x0000000020008a5c                HttpStatic_InitRequest
 .text.HttpStatic_ProcessRequest
                0x0000000020008ae0      0x1c0 ../../../netapps/http/server/gcc/lib/Debug/libwebserver.a(HttpStatic.o)
                0x0000000020008ae0                HttpStatic_ProcessRequest
 .text.HttpString_strcmp
                0x0000000020008ca0       0x64 ../../../netapps/http/server/gcc/lib/Debug/libwebserver.a(HttpString.o)
                0x0000000020008ca0                HttpString_strcmp
 .text.ToLower  0x0000000020008d04       0x58 ../../../netapps/http/server/gcc/lib/Debug/libwebserver.a(HttpString.o)
 .text.HttpString_nextToken
                0x0000000020008d5c       0xa8 ../../../netapps/http/server/gcc/lib/Debug/libwebserver.a(HttpString.o)
                0x0000000020008d5c                HttpString_nextToken
 .text.HttpString_nextDelimiter
                0x0000000020008e04       0x9c ../../../netapps/http/server/gcc/lib/Debug/libwebserver.a(HttpString.o)
                0x0000000020008e04                HttpString_nextDelimiter
 .text.HttpString_atou
                0x0000000020008ea0       0x20 ../../../netapps/http/server/gcc/lib/Debug/libwebserver.a(HttpString.o)
                0x0000000020008ea0                HttpString_atou
 .text.HttpString_utoa
                0x0000000020008ec0       0xa0 ../../../netapps/http/server/gcc/lib/Debug/libwebserver.a(HttpString.o)
                0x0000000020008ec0                HttpString_utoa
 .text.SHAMD5IntHandler
                0x0000000020008f60       0x8c ../../../netapps/http/server/gcc/lib/Debug/libwebserver.a(sha1.o)
                0x0000000020008f60                SHAMD5IntHandler
 .text.GenerateHash
                0x0000000020008fec       0x68 ../../../netapps/http/server/gcc/lib/Debug/libwebserver.a(sha1.o)
                0x0000000020008fec                GenerateHash
 .text.SHA1     0x0000000020009054       0x44 ../../../netapps/http/server/gcc/lib/Debug/libwebserver.a(sha1.o)
                0x0000000020009054                SHA1
 .text.Payloadlength
                0x0000000020009098       0x80 ../../../netapps/http/server/gcc/lib/Debug/libwebserver.a(WebSockHandler.o)
                0x0000000020009098                Payloadlength
 .text.WSCore_DataRecv
                0x0000000020009118      0x3bc ../../../netapps/http/server/gcc/lib/Debug/libwebserver.a(WebSockHandler.o)
                0x0000000020009118                WSCore_DataRecv
 .text.WSCore_DataSend
                0x00000000200094d4      0x124 ../../../netapps/http/server/gcc/lib/Debug/libwebserver.a(WebSockHandler.o)
                0x00000000200094d4                WSCore_DataSend
 .text.WSStatusString
                0x00000000200095f8       0xec ../../../netapps/http/server/gcc/lib/Debug/libwebserver.a(WebSockHandler.o)
                0x00000000200095f8                WSStatusString
 .text.ConvertToBase64
                0x00000000200096e4      0x148 ../../../netapps/http/server/gcc/lib/Debug/libwebserver.a(base64.o)
                0x00000000200096e4                ConvertToBase64
 .text._sl_GetStartResponseConvert
                0x000000002000982c       0x24 ../../../simplelink/gcc/lib/os/Debug/libsimplelink.a(device.o)
 .text.sl_Start
                0x0000000020009850      0x10c ../../../simplelink/gcc/lib/os/Debug/libsimplelink.a(device.o)
                0x0000000020009850                sl_Start
 .text._sl_HandleAsync_InitComplete
                0x000000002000995c       0xb8 ../../../simplelink/gcc/lib/os/Debug/libsimplelink.a(device.o)
                0x000000002000995c                _sl_HandleAsync_InitComplete
 .text._sl_HandleAsync_Stop
                0x0000000020009a14       0x68 ../../../simplelink/gcc/lib/os/Debug/libsimplelink.a(device.o)
                0x0000000020009a14                _sl_HandleAsync_Stop
 .text.sl_Stop  0x0000000020009a7c       0xec ../../../simplelink/gcc/lib/os/Debug/libsimplelink.a(device.o)
                0x0000000020009a7c                sl_Stop
 .text.sl_DevGet
                0x0000000020009b68       0xe0 ../../../simplelink/gcc/lib/os/Debug/libsimplelink.a(device.o)
                0x0000000020009b68                sl_DevGet
 .text._SlDrvDeviceEventHandler
                0x0000000020009c48       0xa8 ../../../simplelink/gcc/lib/os/Debug/libsimplelink.a(device.o)
                0x0000000020009c48                _SlDrvDeviceEventHandler
 .text._SlDrvProtectAsyncRespSetting
                0x0000000020009cf0       0x54 ../../../simplelink/gcc/lib/os/Debug/libsimplelink.a(driver.o)
                0x0000000020009cf0                _SlDrvProtectAsyncRespSetting
 .text._SlDrvDriverCBInit
                0x0000000020009d44      0x1a8 ../../../simplelink/gcc/lib/os/Debug/libsimplelink.a(driver.o)
                0x0000000020009d44                _SlDrvDriverCBInit
 .text._SlDrvDriverCBDeinit
                0x0000000020009eec      0x134 ../../../simplelink/gcc/lib/os/Debug/libsimplelink.a(driver.o)
                0x0000000020009eec                _SlDrvDriverCBDeinit
 .text._SlDrvRxIrqHandler
                0x000000002000a020       0x64 ../../../simplelink/gcc/lib/os/Debug/libsimplelink.a(driver.o)
                0x000000002000a020                _SlDrvRxIrqHandler
 .text._SlDrvCmdOp
                0x000000002000a084       0xc4 ../../../simplelink/gcc/lib/os/Debug/libsimplelink.a(driver.o)
                0x000000002000a084                _SlDrvCmdOp
 .text._SlDrvDataReadOp
                0x000000002000a148      0x208 ../../../simplelink/gcc/lib/os/Debug/libsimplelink.a(driver.o)
                0x000000002000a148                _SlDrvDataReadOp
 .text._SlDrvDataWriteOp
                0x000000002000a350      0x168 ../../../simplelink/gcc/lib/os/Debug/libsimplelink.a(driver.o)
                0x000000002000a350                _SlDrvDataWriteOp
 .text._SlDrvMsgWrite
                0x000000002000a4b8      0x1d4 ../../../simplelink/gcc/lib/os/Debug/libsimplelink.a(driver.o)
 .text._SlDrvMsgRead
                0x000000002000a68c      0x5cc ../../../simplelink/gcc/lib/os/Debug/libsimplelink.a(driver.o)
 .text._SlAsyncEventGenericHandler
                0x000000002000ac58       0xd8 ../../../simplelink/gcc/lib/os/Debug/libsimplelink.a(driver.o)
 .text._SlDrvMsgReadCmdCtx
                0x000000002000ad30      0x158 ../../../simplelink/gcc/lib/os/Debug/libsimplelink.a(driver.o)
 .text._SlDrvMsgReadSpawnCtx
                0x000000002000ae88       0xf4 ../../../simplelink/gcc/lib/os/Debug/libsimplelink.a(driver.o)
                0x000000002000ae88                _SlDrvMsgReadSpawnCtx
 .text._SlDrvClassifyRxMsg
                0x000000002000af7c       0xd0 ../../../simplelink/gcc/lib/os/Debug/libsimplelink.a(driver.o)
 .text._SlDrvRxHdrRead
                0x000000002000b04c      0x2ac ../../../simplelink/gcc/lib/os/Debug/libsimplelink.a(driver.o)
 .text._SlDrvBasicCmd
                0x000000002000b2f8       0x50 ../../../simplelink/gcc/lib/os/Debug/libsimplelink.a(driver.o)
                0x000000002000b2f8                _SlDrvBasicCmd
 .text._SlDrvCmdSend
                0x000000002000b348       0x74 ../../../simplelink/gcc/lib/os/Debug/libsimplelink.a(driver.o)
                0x000000002000b348                _SlDrvCmdSend
 .text._SlDrvWaitForPoolObj
                0x000000002000b3bc      0x1a4 ../../../simplelink/gcc/lib/os/Debug/libsimplelink.a(driver.o)
                0x000000002000b3bc                _SlDrvWaitForPoolObj
 .text._SlDrvReleasePoolObj
                0x000000002000b560      0x200 ../../../simplelink/gcc/lib/os/Debug/libsimplelink.a(driver.o)
                0x000000002000b560                _SlDrvReleasePoolObj
 .text._SlRemoveFromList
                0x000000002000b760       0xd0 ../../../simplelink/gcc/lib/os/Debug/libsimplelink.a(driver.o)
 .text._SlFindAndSetActiveObj
                0x000000002000b830      0x16c ../../../simplelink/gcc/lib/os/Debug/libsimplelink.a(driver.o)
 .text._SlDrvDispatchHttpServerEvents
                0x000000002000b99c       0x1c ../../../simplelink/gcc/lib/os/Debug/libsimplelink.a(driver.o)
                0x000000002000b99c                _SlDrvDispatchHttpServerEvents
 .text._SlDrvSyncObjSignal
                0x000000002000b9b8       0x2c ../../../simplelink/gcc/lib/os/Debug/libsimplelink.a(driver.o)
                0x000000002000b9b8                _SlDrvSyncObjSignal
 .text._SlDrvObjLockWaitForever
                0x000000002000b9e4       0x30 ../../../simplelink/gcc/lib/os/Debug/libsimplelink.a(driver.o)
                0x000000002000b9e4                _SlDrvObjLockWaitForever
 .text._SlDrvProtectionObjLockWaitForever
                0x000000002000ba14       0x38 ../../../simplelink/gcc/lib/os/Debug/libsimplelink.a(driver.o)
                0x000000002000ba14                _SlDrvProtectionObjLockWaitForever
 .text._SlDrvObjUnLock
                0x000000002000ba4c       0x2c ../../../simplelink/gcc/lib/os/Debug/libsimplelink.a(driver.o)
                0x000000002000ba4c                _SlDrvObjUnLock
 .text._SlDrvProtectionObjUnLock
                0x000000002000ba78       0x34 ../../../simplelink/gcc/lib/os/Debug/libsimplelink.a(driver.o)
                0x000000002000ba78                _SlDrvProtectionObjUnLock
 .text._SlDrvObjGlobalLockWaitForever
                0x000000002000baac       0x38 ../../../simplelink/gcc/lib/os/Debug/libsimplelink.a(driver.o)
 .text._SlDrvGlobalObjUnLock
                0x000000002000bae4       0x34 ../../../simplelink/gcc/lib/os/Debug/libsimplelink.a(driver.o)
                0x000000002000bae4                _SlDrvGlobalObjUnLock
 .text._SlDrvMemZero
                0x000000002000bb18       0x20 ../../../simplelink/gcc/lib/os/Debug/libsimplelink.a(driver.o)
                0x000000002000bb18                _SlDrvMemZero
 .text._SlDrvResetCmdExt
                0x000000002000bb38       0x18 ../../../simplelink/gcc/lib/os/Debug/libsimplelink.a(driver.o)
                0x000000002000bb38                _SlDrvResetCmdExt
 .text._SlDrvSyncObjWaitForever
                0x000000002000bb50       0x34 ../../../simplelink/gcc/lib/os/Debug/libsimplelink.a(driver.o)
                0x000000002000bb50                _SlDrvSyncObjWaitForever
 .text._SlDrvSyncObjWaitTimeout
                0x000000002000bb84       0x50 ../../../simplelink/gcc/lib/os/Debug/libsimplelink.a(driver.o)
                0x000000002000bb84                _SlDrvSyncObjWaitTimeout
 .text._SlDriverHandleError
                0x000000002000bbd4       0x98 ../../../simplelink/gcc/lib/os/Debug/libsimplelink.a(driver.o)
                0x000000002000bbd4                _SlDriverHandleError
 .text._SlDrvStartMeasureTimeout
                0x000000002000bc6c       0x30 ../../../simplelink/gcc/lib/os/Debug/libsimplelink.a(driver.o)
                0x000000002000bc6c                _SlDrvStartMeasureTimeout
 .text._SlDrvIsTimeoutExpired
                0x000000002000bc9c       0xa8 ../../../simplelink/gcc/lib/os/Debug/libsimplelink.a(driver.o)
                0x000000002000bc9c                _SlDrvIsTimeoutExpired
 .text.sl_NetAppStop
                0x000000002000bd44       0x64 ../../../simplelink/gcc/lib/os/Debug/libsimplelink.a(netapp.o)
                0x000000002000bd44                sl_NetAppStop
 .text.sl_NetAppMDNSRegisterUnregisterService
                0x000000002000bda8      0x140 ../../../simplelink/gcc/lib/os/Debug/libsimplelink.a(netapp.o)
                0x000000002000bda8                sl_NetAppMDNSRegisterUnregisterService
 .text.sl_NetAppMDNSUnRegisterService
                0x000000002000bee8       0x68 ../../../simplelink/gcc/lib/os/Debug/libsimplelink.a(netapp.o)
                0x000000002000bee8                sl_NetAppMDNSUnRegisterService
 .text._sl_HandleAsync_DnsGetHostByService
                0x000000002000bf50       0xd4 ../../../simplelink/gcc/lib/os/Debug/libsimplelink.a(netapp.o)
                0x000000002000bf50                _sl_HandleAsync_DnsGetHostByService
 .text._sl_HandleAsync_DnsGetHostByName
                0x000000002000c024       0xb8 ../../../simplelink/gcc/lib/os/Debug/libsimplelink.a(netapp.o)
                0x000000002000c024                _sl_HandleAsync_DnsGetHostByName
 .text.CopyPingResultsToReport
                0x000000002000c0dc       0x44 ../../../simplelink/gcc/lib/os/Debug/libsimplelink.a(netapp.o)
 .text._sl_HandleAsync_PingResponse
                0x000000002000c120       0xb4 ../../../simplelink/gcc/lib/os/Debug/libsimplelink.a(netapp.o)
                0x000000002000c120                _sl_HandleAsync_PingResponse
 .text._sl_NetAppSendTokenValue
                0x000000002000c1d4       0x7c ../../../simplelink/gcc/lib/os/Debug/libsimplelink.a(netapp.o)
                0x000000002000c1d4                _sl_NetAppSendTokenValue
 .text._SlDrvNetAppEventHandler
                0x000000002000c250      0x134 ../../../simplelink/gcc/lib/os/Debug/libsimplelink.a(netapp.o)
                0x000000002000c250                _SlDrvNetAppEventHandler
 .text.sl_NetCfgSet
                0x000000002000c384       0xa0 ../../../simplelink/gcc/lib/os/Debug/libsimplelink.a(netcfg.o)
                0x000000002000c384                sl_NetCfgSet
 .text._sl_Strlen
                0x000000002000c424       0x34 ../../../simplelink/gcc/lib/os/Debug/libsimplelink.a(fs.o)
 .text.sl_FsOpen
                0x000000002000c458       0xb4 ../../../simplelink/gcc/lib/os/Debug/libsimplelink.a(fs.o)
                0x000000002000c458                sl_FsOpen
 .text.sl_FsClose
                0x000000002000c50c       0xc8 ../../../simplelink/gcc/lib/os/Debug/libsimplelink.a(fs.o)
                0x000000002000c50c                sl_FsClose
 .text.sl_FsRead
                0x000000002000c5d4      0x10c ../../../simplelink/gcc/lib/os/Debug/libsimplelink.a(fs.o)
                0x000000002000c5d4                sl_FsRead
 .text.sl_FsGetInfo
                0x000000002000c6e0       0xb8 ../../../simplelink/gcc/lib/os/Debug/libsimplelink.a(fs.o)
                0x000000002000c6e0                sl_FsGetInfo
 .text._sl_BuildAddress
                0x000000002000c798       0x58 ../../../simplelink/gcc/lib/os/Debug/libsimplelink.a(socket.o)
 .text._sl_TruncatePayloadByProtocol
                0x000000002000c7f0       0x40 ../../../simplelink/gcc/lib/os/Debug/libsimplelink.a(socket.o)
 .text.sl_Socket
                0x000000002000c830       0x8c ../../../simplelink/gcc/lib/os/Debug/libsimplelink.a(socket.o)
                0x000000002000c830                sl_Socket
 .text.sl_Close
                0x000000002000c8bc       0x68 ../../../simplelink/gcc/lib/os/Debug/libsimplelink.a(socket.o)
                0x000000002000c8bc                sl_Close
 .text.sl_Bind  0x000000002000c924       0xb4 ../../../simplelink/gcc/lib/os/Debug/libsimplelink.a(socket.o)
                0x000000002000c924                sl_Bind
 .text._sl_HandleAsync_Connect
                0x000000002000c9d8       0x9c ../../../simplelink/gcc/lib/os/Debug/libsimplelink.a(socket.o)
                0x000000002000c9d8                _sl_HandleAsync_Connect
 .text.sl_Send  0x000000002000ca74      0x134 ../../../simplelink/gcc/lib/os/Debug/libsimplelink.a(socket.o)
                0x000000002000ca74                sl_Send
 .text.sl_Listen
                0x000000002000cba8       0x74 ../../../simplelink/gcc/lib/os/Debug/libsimplelink.a(socket.o)
                0x000000002000cba8                sl_Listen
 .text.sl_Accept
                0x000000002000cc1c      0x1c8 ../../../simplelink/gcc/lib/os/Debug/libsimplelink.a(socket.o)
                0x000000002000cc1c                sl_Accept
 .text.sl_Htonl
                0x000000002000cde4       0x4c ../../../simplelink/gcc/lib/os/Debug/libsimplelink.a(socket.o)
                0x000000002000cde4                sl_Htonl
 .text.sl_Htons
                0x000000002000ce30       0x40 ../../../simplelink/gcc/lib/os/Debug/libsimplelink.a(socket.o)
                0x000000002000ce30                sl_Htons
 .text._sl_HandleAsync_Accept
                0x000000002000ce70       0x80 ../../../simplelink/gcc/lib/os/Debug/libsimplelink.a(socket.o)
                0x000000002000ce70                _sl_HandleAsync_Accept
 .text._sl_HandleAsync_Select
                0x000000002000cef0       0x6c ../../../simplelink/gcc/lib/os/Debug/libsimplelink.a(socket.o)
                0x000000002000cef0                _sl_HandleAsync_Select
 .text.sl_Recv  0x000000002000cf5c       0xa8 ../../../simplelink/gcc/lib/os/Debug/libsimplelink.a(socket.o)
                0x000000002000cf5c                sl_Recv
 .text.sl_SetSockOpt
                0x000000002000d004       0xa0 ../../../simplelink/gcc/lib/os/Debug/libsimplelink.a(socket.o)
                0x000000002000d004                sl_SetSockOpt
 .text.sl_WlanDisconnect
                0x000000002000d0a4       0x40 ../../../simplelink/gcc/lib/os/Debug/libsimplelink.a(wlan.o)
                0x000000002000d0a4                sl_WlanDisconnect
 .text.sl_WlanPolicySet
                0x000000002000d0e4       0x90 ../../../simplelink/gcc/lib/os/Debug/libsimplelink.a(wlan.o)
                0x000000002000d0e4                sl_WlanPolicySet
 .text.sl_WlanProfileDel
                0x000000002000d174       0x68 ../../../simplelink/gcc/lib/os/Debug/libsimplelink.a(wlan.o)
                0x000000002000d174                sl_WlanProfileDel
 .text.sl_WlanRxFilterSet
                0x000000002000d1dc       0x88 ../../../simplelink/gcc/lib/os/Debug/libsimplelink.a(wlan.o)
                0x000000002000d1dc                sl_WlanRxFilterSet
 .text.sl_WlanSetMode
                0x000000002000d264       0x68 ../../../simplelink/gcc/lib/os/Debug/libsimplelink.a(wlan.o)
                0x000000002000d264                sl_WlanSetMode
 .text.sl_WlanSet
                0x000000002000d2cc       0x98 ../../../simplelink/gcc/lib/os/Debug/libsimplelink.a(wlan.o)
                0x000000002000d2cc                sl_WlanSet
 .text.spi_Read_CPU
                0x000000002000d364       0x88 ../../../simplelink/gcc/lib/os/Debug/libsimplelink.a(cc_pal.o)
 .text.spi_Write_CPU
                0x000000002000d3ec       0x84 ../../../simplelink/gcc/lib/os/Debug/libsimplelink.a(cc_pal.o)
 .text.DmaSpiSwIntHandler
                0x000000002000d470       0x30 ../../../simplelink/gcc/lib/os/Debug/libsimplelink.a(cc_pal.o)
                0x000000002000d470                DmaSpiSwIntHandler
 .text.SetupDMAReceive
                0x000000002000d4a0       0x94 ../../../simplelink/gcc/lib/os/Debug/libsimplelink.a(cc_pal.o)
 .text.SetupDMASend
                0x000000002000d534       0x94 ../../../simplelink/gcc/lib/os/Debug/libsimplelink.a(cc_pal.o)
 .text.spi_Open
                0x000000002000d5c8      0x154 ../../../simplelink/gcc/lib/os/Debug/libsimplelink.a(cc_pal.o)
                0x000000002000d5c8                spi_Open
 .text.spi_Close
                0x000000002000d71c       0x84 ../../../simplelink/gcc/lib/os/Debug/libsimplelink.a(cc_pal.o)
                0x000000002000d71c                spi_Close
 .text.spi_Read
                0x000000002000d7a0       0xec ../../../simplelink/gcc/lib/os/Debug/libsimplelink.a(cc_pal.o)
                0x000000002000d7a0                spi_Read
 .text.spi_Write
                0x000000002000d88c       0x9c ../../../simplelink/gcc/lib/os/Debug/libsimplelink.a(cc_pal.o)
                0x000000002000d88c                spi_Write
 .text.NwpRegisterInterruptHandler
                0x000000002000d928       0x34 ../../../simplelink/gcc/lib/os/Debug/libsimplelink.a(cc_pal.o)
                0x000000002000d928                NwpRegisterInterruptHandler
 .text.NwpMaskInterrupt
                0x000000002000d95c       0x18 ../../../simplelink/gcc/lib/os/Debug/libsimplelink.a(cc_pal.o)
                0x000000002000d95c                NwpMaskInterrupt
 .text.NwpUnMaskInterrupt
                0x000000002000d974       0x18 ../../../simplelink/gcc/lib/os/Debug/libsimplelink.a(cc_pal.o)
                0x000000002000d974                NwpUnMaskInterrupt
 .text.NwpPowerOnPreamble
                0x000000002000d98c       0x8c ../../../simplelink/gcc/lib/os/Debug/libsimplelink.a(cc_pal.o)
                0x000000002000d98c                NwpPowerOnPreamble
 .text.NwpPowerOn
                0x000000002000da18       0x3c ../../../simplelink/gcc/lib/os/Debug/libsimplelink.a(cc_pal.o)
                0x000000002000da18                NwpPowerOn
 .text.NwpPowerOff
                0x000000002000da54       0x40 ../../../simplelink/gcc/lib/os/Debug/libsimplelink.a(cc_pal.o)
                0x000000002000da54                NwpPowerOff
 .text.NwpPrePowerOffTimout0
                0x000000002000da94       0x24 ../../../simplelink/gcc/lib/os/Debug/libsimplelink.a(cc_pal.o)
                0x000000002000da94                NwpPrePowerOffTimout0
 .text.cc_UDMAChannelSelect
                0x000000002000dab8       0x28 ../../../simplelink/gcc/lib/os/Debug/libsimplelink.a(cc_pal.o)
 .text.cc_SetupTransfer
                0x000000002000dae0       0x4c ../../../simplelink/gcc/lib/os/Debug/libsimplelink.a(cc_pal.o)
 .text.simplelink_timerA2_start
                0x000000002000db2c       0x40 ../../../simplelink/gcc/lib/os/Debug/libsimplelink.a(cc_pal.o)
                0x000000002000db2c                simplelink_timerA2_start
 .text.TimerGetCurrentTimestamp
                0x000000002000db6c       0x28 ../../../simplelink/gcc/lib/os/Debug/libsimplelink.a(cc_pal.o)
                0x000000002000db6c                TimerGetCurrentTimestamp
 .text.osi_InterruptRegister
                0x000000002000db94       0x38 ../../../oslib/gcc/free_rtos/Debug/free_rtos.a(osi_freertos.o)
                0x000000002000db94                osi_InterruptRegister
 .text.osi_InterruptDeRegister
                0x000000002000dbcc       0x20 ../../../oslib/gcc/free_rtos/Debug/free_rtos.a(osi_freertos.o)
                0x000000002000dbcc                osi_InterruptDeRegister
 .text.osi_SyncObjCreate
                0x000000002000dbec       0x40 ../../../oslib/gcc/free_rtos/Debug/free_rtos.a(osi_freertos.o)
                0x000000002000dbec                osi_SyncObjCreate
 .text.osi_SyncObjDelete
                0x000000002000dc2c       0x28 ../../../oslib/gcc/free_rtos/Debug/free_rtos.a(osi_freertos.o)
                0x000000002000dc2c                osi_SyncObjDelete
 .text.osi_SyncObjSignal
                0x000000002000dc54       0x38 ../../../oslib/gcc/free_rtos/Debug/free_rtos.a(osi_freertos.o)
                0x000000002000dc54                osi_SyncObjSignal
 .text.osi_SyncObjSignalFromISR
                0x000000002000dc8c       0x4c ../../../oslib/gcc/free_rtos/Debug/free_rtos.a(osi_freertos.o)
                0x000000002000dc8c                osi_SyncObjSignalFromISR
 .text.osi_SyncObjWait
                0x000000002000dcd8       0x38 ../../../oslib/gcc/free_rtos/Debug/free_rtos.a(osi_freertos.o)
                0x000000002000dcd8                osi_SyncObjWait
 .text.osi_LockObjCreate
                0x000000002000dd10       0x34 ../../../oslib/gcc/free_rtos/Debug/free_rtos.a(osi_freertos.o)
                0x000000002000dd10                osi_LockObjCreate
 .text.osi_TaskCreate
                0x000000002000dd44       0x48 ../../../oslib/gcc/free_rtos/Debug/free_rtos.a(osi_freertos.o)
                0x000000002000dd44                osi_TaskCreate
 .text.osi_LockObjDelete
                0x000000002000dd8c       0x20 ../../../oslib/gcc/free_rtos/Debug/free_rtos.a(osi_freertos.o)
                0x000000002000dd8c                osi_LockObjDelete
 .text.osi_LockObjLock
                0x000000002000ddac       0x38 ../../../oslib/gcc/free_rtos/Debug/free_rtos.a(osi_freertos.o)
                0x000000002000ddac                osi_LockObjLock
 .text.osi_LockObjUnlock
                0x000000002000dde4       0x38 ../../../oslib/gcc/free_rtos/Debug/free_rtos.a(osi_freertos.o)
                0x000000002000dde4                osi_LockObjUnlock
 .text.osi_Spawn
                0x000000002000de1c       0x54 ../../../oslib/gcc/free_rtos/Debug/free_rtos.a(osi_freertos.o)
                0x000000002000de1c                osi_Spawn
 .text.vSimpleLinkSpawnTask
                0x000000002000de70       0x34 ../../../oslib/gcc/free_rtos/Debug/free_rtos.a(osi_freertos.o)
 .text.VStartSimpleLinkSpawnTask
                0x000000002000dea4       0x68 ../../../oslib/gcc/free_rtos/Debug/free_rtos.a(osi_freertos.o)
                0x000000002000dea4                VStartSimpleLinkSpawnTask
 .text.osi_MsgQCreate
                0x000000002000df0c       0x44 ../../../oslib/gcc/free_rtos/Debug/free_rtos.a(osi_freertos.o)
                0x000000002000df0c                osi_MsgQCreate
 .text.osi_MsgQDelete
                0x000000002000df50       0x28 ../../../oslib/gcc/free_rtos/Debug/free_rtos.a(osi_freertos.o)
                0x000000002000df50                osi_MsgQDelete
 .text.osi_MsgQWrite
                0x000000002000df78       0x44 ../../../oslib/gcc/free_rtos/Debug/free_rtos.a(osi_freertos.o)
                0x000000002000df78                osi_MsgQWrite
 .text.osi_MsgQRead
                0x000000002000dfbc       0x48 ../../../oslib/gcc/free_rtos/Debug/free_rtos.a(osi_freertos.o)
                0x000000002000dfbc                osi_MsgQRead
 .text.osi_start
                0x000000002000e004        0xc ../../../oslib/gcc/free_rtos/Debug/free_rtos.a(osi_freertos.o)
                0x000000002000e004                osi_start
 .text.osi_Sleep
                0x000000002000e010       0x1c ../../../oslib/gcc/free_rtos/Debug/free_rtos.a(osi_freertos.o)
                0x000000002000e010                osi_Sleep
 .text.xQueueGenericReset
                0x000000002000e02c       0xb8 ../../../oslib/gcc/free_rtos/Debug/free_rtos.a(queue.o)
                0x000000002000e02c                xQueueGenericReset
 .text.xQueueGenericCreate
                0x000000002000e0e4       0xac ../../../oslib/gcc/free_rtos/Debug/free_rtos.a(queue.o)
                0x000000002000e0e4                xQueueGenericCreate
 .text.xQueueCreateMutex
                0x000000002000e190       0xa0 ../../../oslib/gcc/free_rtos/Debug/free_rtos.a(queue.o)
                0x000000002000e190                xQueueCreateMutex
 .text.xQueueGenericSend
                0x000000002000e230      0x1b8 ../../../oslib/gcc/free_rtos/Debug/free_rtos.a(queue.o)
                0x000000002000e230                xQueueGenericSend
 .text.xQueueGenericSendFromISR
                0x000000002000e3e8      0x108 ../../../oslib/gcc/free_rtos/Debug/free_rtos.a(queue.o)
                0x000000002000e3e8                xQueueGenericSendFromISR
 .text.xQueueGiveFromISR
                0x000000002000e4f0       0xf0 ../../../oslib/gcc/free_rtos/Debug/free_rtos.a(queue.o)
                0x000000002000e4f0                xQueueGiveFromISR
 .text.xQueueGenericReceive
                0x000000002000e5e0      0x1c8 ../../../oslib/gcc/free_rtos/Debug/free_rtos.a(queue.o)
                0x000000002000e5e0                xQueueGenericReceive
 .text.vQueueDelete
                0x000000002000e7a8       0x34 ../../../oslib/gcc/free_rtos/Debug/free_rtos.a(queue.o)
                0x000000002000e7a8                vQueueDelete
 .text.prvCopyDataToQueue
                0x000000002000e7dc       0xd8 ../../../oslib/gcc/free_rtos/Debug/free_rtos.a(queue.o)
 .text.prvCopyDataFromQueue
                0x000000002000e8b4       0x4c ../../../oslib/gcc/free_rtos/Debug/free_rtos.a(queue.o)
 .text.prvUnlockQueue
                0x000000002000e900       0xb4 ../../../oslib/gcc/free_rtos/Debug/free_rtos.a(queue.o)
 .text.prvIsQueueEmpty
                0x000000002000e9b4       0x2c ../../../oslib/gcc/free_rtos/Debug/free_rtos.a(queue.o)
 .text.prvIsQueueFull
                0x000000002000e9e0       0x30 ../../../oslib/gcc/free_rtos/Debug/free_rtos.a(queue.o)
 .text.vQueueAddToRegistry
                0x000000002000ea10       0x50 ../../../oslib/gcc/free_rtos/Debug/free_rtos.a(queue.o)
                0x000000002000ea10                vQueueAddToRegistry
 .text.vQueueUnregisterQueue
                0x000000002000ea60       0x44 ../../../oslib/gcc/free_rtos/Debug/free_rtos.a(queue.o)
                0x000000002000ea60                vQueueUnregisterQueue
 .text.vQueueWaitForMessageRestricted
                0x000000002000eaa4       0x58 ../../../oslib/gcc/free_rtos/Debug/free_rtos.a(queue.o)
                0x000000002000eaa4                vQueueWaitForMessageRestricted
 .text.prvNotifyQueueSetContainer
                0x000000002000eafc       0x94 ../../../oslib/gcc/free_rtos/Debug/free_rtos.a(queue.o)
 .text.xTaskGenericCreate
                0x000000002000eb90      0x174 ../../../oslib/gcc/free_rtos/Debug/free_rtos.a(tasks.o)
                0x000000002000eb90                xTaskGenericCreate
 .text.vTaskDelay
                0x000000002000ed04       0x90 ../../../oslib/gcc/free_rtos/Debug/free_rtos.a(tasks.o)
                0x000000002000ed04                vTaskDelay
 .text.vTaskStartScheduler
                0x000000002000ed94       0x7c ../../../oslib/gcc/free_rtos/Debug/free_rtos.a(tasks.o)
                0x000000002000ed94                vTaskStartScheduler
 .text.vTaskSuspendAll
                0x000000002000ee10       0x1c ../../../oslib/gcc/free_rtos/Debug/free_rtos.a(tasks.o)
                0x000000002000ee10                vTaskSuspendAll
 .text.xTaskResumeAll
                0x000000002000ee2c      0x110 ../../../oslib/gcc/free_rtos/Debug/free_rtos.a(tasks.o)
                0x000000002000ee2c                xTaskResumeAll
 .text.xTaskGetTickCount
                0x000000002000ef3c       0x1c ../../../oslib/gcc/free_rtos/Debug/free_rtos.a(tasks.o)
                0x000000002000ef3c                xTaskGetTickCount
 .text.xTaskIncrementTick
                0x000000002000ef58      0x154 ../../../oslib/gcc/free_rtos/Debug/free_rtos.a(tasks.o)
                0x000000002000ef58                xTaskIncrementTick
 .text.vTaskSwitchContext
                0x000000002000f0ac       0xf8 ../../../oslib/gcc/free_rtos/Debug/free_rtos.a(tasks.o)
                0x000000002000f0ac                vTaskSwitchContext
 .text.vTaskPlaceOnEventList
                0x000000002000f1a4       0x98 ../../../oslib/gcc/free_rtos/Debug/free_rtos.a(tasks.o)
                0x000000002000f1a4                vTaskPlaceOnEventList
 .text.vTaskPlaceOnEventListRestricted
                0x000000002000f23c       0x7c ../../../oslib/gcc/free_rtos/Debug/free_rtos.a(tasks.o)
                0x000000002000f23c                vTaskPlaceOnEventListRestricted
 .text.xTaskRemoveFromEventList
                0x000000002000f2b8       0xbc ../../../oslib/gcc/free_rtos/Debug/free_rtos.a(tasks.o)
                0x000000002000f2b8                xTaskRemoveFromEventList
 .text.vTaskSetTimeOutState
                0x000000002000f374       0x3c ../../../oslib/gcc/free_rtos/Debug/free_rtos.a(tasks.o)
                0x000000002000f374                vTaskSetTimeOutState
 .text.xTaskCheckForTimeOut
                0x000000002000f3b0       0xac ../../../oslib/gcc/free_rtos/Debug/free_rtos.a(tasks.o)
                0x000000002000f3b0                xTaskCheckForTimeOut
 .text.vTaskMissedYield
                0x000000002000f45c       0x18 ../../../oslib/gcc/free_rtos/Debug/free_rtos.a(tasks.o)
                0x000000002000f45c                vTaskMissedYield
 .text.prvIdleTask
                0x000000002000f474       0x14 ../../../oslib/gcc/free_rtos/Debug/free_rtos.a(tasks.o)
 .text.prvInitialiseTCBVariables
                0x000000002000f488       0xa8 ../../../oslib/gcc/free_rtos/Debug/free_rtos.a(tasks.o)
 .text.prvInitialiseTaskLists
                0x000000002000f530       0x80 ../../../oslib/gcc/free_rtos/Debug/free_rtos.a(tasks.o)
 .text.prvCheckTasksWaitingTermination
                0x000000002000f5b0       0x78 ../../../oslib/gcc/free_rtos/Debug/free_rtos.a(tasks.o)
 .text.prvAddCurrentTaskToDelayedList
                0x000000002000f628       0x6c ../../../oslib/gcc/free_rtos/Debug/free_rtos.a(tasks.o)
 .text.prvAllocateTCBAndStack
                0x000000002000f694       0x6c ../../../oslib/gcc/free_rtos/Debug/free_rtos.a(tasks.o)
 .text.prvDeleteTCB
                0x000000002000f700       0x20 ../../../oslib/gcc/free_rtos/Debug/free_rtos.a(tasks.o)
 .text.prvResetNextTaskUnblockTime
                0x000000002000f720       0x48 ../../../oslib/gcc/free_rtos/Debug/free_rtos.a(tasks.o)
 .text.xTaskGetSchedulerState
                0x000000002000f768       0x3c ../../../oslib/gcc/free_rtos/Debug/free_rtos.a(tasks.o)
                0x000000002000f768                xTaskGetSchedulerState
 .text.vTaskPriorityInherit
                0x000000002000f7a4       0xec ../../../oslib/gcc/free_rtos/Debug/free_rtos.a(tasks.o)
                0x000000002000f7a4                vTaskPriorityInherit
 .text.xTaskPriorityDisinherit
                0x000000002000f890       0xf8 ../../../oslib/gcc/free_rtos/Debug/free_rtos.a(tasks.o)
                0x000000002000f890                xTaskPriorityDisinherit
 .text.pvTaskIncrementMutexHeldCount
                0x000000002000f988       0x28 ../../../oslib/gcc/free_rtos/Debug/free_rtos.a(tasks.o)
                0x000000002000f988                pvTaskIncrementMutexHeldCount
 .text.pxPortInitialiseStack
                0x000000002000f9b0       0x54 ../../../oslib/gcc/free_rtos/Debug/free_rtos.a(port.o)
                0x000000002000f9b0                pxPortInitialiseStack
 .text.prvTaskExitError
                0x000000002000fa04       0x24 ../../../oslib/gcc/free_rtos/Debug/free_rtos.a(port.o)
 .text.vPortSVCHandler
                0x000000002000fa28       0x28 ../../../oslib/gcc/free_rtos/Debug/free_rtos.a(port.o)
                0x000000002000fa28                vPortSVCHandler
 .text.prvPortStartFirstTask
                0x000000002000fa50       0x20 ../../../oslib/gcc/free_rtos/Debug/free_rtos.a(port.o)
 .text.xPortStartScheduler
                0x000000002000fa70       0xbc ../../../oslib/gcc/free_rtos/Debug/free_rtos.a(port.o)
                0x000000002000fa70                xPortStartScheduler
 .text.vPortYield
                0x000000002000fb2c       0x20 ../../../oslib/gcc/free_rtos/Debug/free_rtos.a(port.o)
                0x000000002000fb2c                vPortYield
 .text.vPortEnterCritical
                0x000000002000fb4c       0x48 ../../../oslib/gcc/free_rtos/Debug/free_rtos.a(port.o)
                0x000000002000fb4c                vPortEnterCritical
 .text.vPortExitCritical
                0x000000002000fb94       0x3c ../../../oslib/gcc/free_rtos/Debug/free_rtos.a(port.o)
                0x000000002000fb94                vPortExitCritical
 .text.ulPortSetInterruptMask
                0x000000002000fbd0       0x14 ../../../oslib/gcc/free_rtos/Debug/free_rtos.a(port.o)
                0x000000002000fbd0                ulPortSetInterruptMask
 .text.vPortClearInterruptMask
                0x000000002000fbe4        0x8 ../../../oslib/gcc/free_rtos/Debug/free_rtos.a(port.o)
                0x000000002000fbe4                vPortClearInterruptMask
 .text.xPortPendSVHandler
                0x000000002000fbec       0x48 ../../../oslib/gcc/free_rtos/Debug/free_rtos.a(port.o)
                0x000000002000fbec                xPortPendSVHandler
 .text.xPortSysTickHandler
                0x000000002000fc34       0x28 ../../../oslib/gcc/free_rtos/Debug/free_rtos.a(port.o)
                0x000000002000fc34                xPortSysTickHandler
 .text.vPortSetupTimerInterrupt
                0x000000002000fc5c       0x24 ../../../oslib/gcc/free_rtos/Debug/free_rtos.a(port.o)
                0x000000002000fc5c                vPortSetupTimerInterrupt
 .text.vPortValidateInterruptPriority
                0x000000002000fc80       0x68 ../../../oslib/gcc/free_rtos/Debug/free_rtos.a(port.o)
                0x000000002000fc80                vPortValidateInterruptPriority
 .text.xTimerCreateTimerTask
                0x000000002000fce8       0x64 ../../../oslib/gcc/free_rtos/Debug/free_rtos.a(timers.o)
                0x000000002000fce8                xTimerCreateTimerTask
 .text.xTimerGenericCommand
                0x000000002000fd4c       0x80 ../../../oslib/gcc/free_rtos/Debug/free_rtos.a(timers.o)
                0x000000002000fd4c                xTimerGenericCommand
 .text.prvProcessExpiredTimer
                0x000000002000fdcc       0x78 ../../../oslib/gcc/free_rtos/Debug/free_rtos.a(timers.o)
 .text.prvTimerTask
                0x000000002000fe44       0x24 ../../../oslib/gcc/free_rtos/Debug/free_rtos.a(timers.o)
 .text.prvProcessTimerOrBlockTask
                0x000000002000fe68       0x6c ../../../oslib/gcc/free_rtos/Debug/free_rtos.a(timers.o)
 .text.prvGetNextExpireTime
                0x000000002000fed4       0x48 ../../../oslib/gcc/free_rtos/Debug/free_rtos.a(timers.o)
 .text.prvSampleTimeNow
                0x000000002000ff1c       0x40 ../../../oslib/gcc/free_rtos/Debug/free_rtos.a(timers.o)
 .text.prvInsertTimerInActiveList
                0x000000002000ff5c       0x84 ../../../oslib/gcc/free_rtos/Debug/free_rtos.a(timers.o)
 .text.prvProcessReceivedCommands
                0x000000002000ffe0      0x140 ../../../oslib/gcc/free_rtos/Debug/free_rtos.a(timers.o)
 .text.prvSwitchTimerLists
                0x0000000020010120       0xbc ../../../oslib/gcc/free_rtos/Debug/free_rtos.a(timers.o)
 .text.prvCheckForValidListAndQueue
                0x00000000200101dc       0x84 ../../../oslib/gcc/free_rtos/Debug/free_rtos.a(timers.o)
 .text.pvPortMalloc
                0x0000000020010260       0x30 ../../../oslib/gcc/free_rtos/Debug/free_rtos.a(heap_3.o)
                0x0000000020010260                pvPortMalloc
 .text.vPortFree
                0x0000000020010290       0x24 ../../../oslib/gcc/free_rtos/Debug/free_rtos.a(heap_3.o)
                0x0000000020010290                vPortFree
 .text.vListInitialise
                0x00000000200102b4       0x40 ../../../oslib/gcc/free_rtos/Debug/free_rtos.a(list.o)
                0x00000000200102b4                vListInitialise
 .text.vListInitialiseItem
                0x00000000200102f4       0x18 ../../../oslib/gcc/free_rtos/Debug/free_rtos.a(list.o)
                0x00000000200102f4                vListInitialiseItem
 .text.vListInsertEnd
                0x000000002001030c       0x48 ../../../oslib/gcc/free_rtos/Debug/free_rtos.a(list.o)
                0x000000002001030c                vListInsertEnd
 .text.vListInsert
                0x0000000020010354       0x70 ../../../oslib/gcc/free_rtos/Debug/free_rtos.a(list.o)
                0x0000000020010354                vListInsert
 .text.uxListRemove
                0x00000000200103c4       0x54 ../../../oslib/gcc/free_rtos/Debug/free_rtos.a(list.o)
                0x00000000200103c4                uxListRemove
 .text.CameraReset
                0x0000000020010418       0x2c ../../../driverlib/gcc/lib/Debug/libdriver.a(camera.o)
                0x0000000020010418                CameraReset
 .text.CameraParamsConfig
                0x0000000020010444       0x44 ../../../driverlib/gcc/lib/Debug/libdriver.a(camera.o)
                0x0000000020010444                CameraParamsConfig
 .text.CameraXClkConfig
                0x0000000020010488       0x4c ../../../driverlib/gcc/lib/Debug/libdriver.a(camera.o)
                0x0000000020010488                CameraXClkConfig
 .text.CameraDMAEnable
                0x00000000200104d4       0x24 ../../../driverlib/gcc/lib/Debug/libdriver.a(camera.o)
                0x00000000200104d4                CameraDMAEnable
 .text.CameraThresholdSet
                0x00000000200104f8       0x3c ../../../driverlib/gcc/lib/Debug/libdriver.a(camera.o)
                0x00000000200104f8                CameraThresholdSet
 .text.CameraIntRegister
                0x0000000020010534       0x20 ../../../driverlib/gcc/lib/Debug/libdriver.a(camera.o)
                0x0000000020010534                CameraIntRegister
 .text.CameraIntEnable
                0x0000000020010554       0x38 ../../../driverlib/gcc/lib/Debug/libdriver.a(camera.o)
                0x0000000020010554                CameraIntEnable
 .text.CameraIntDisable
                0x000000002001058c       0x3c ../../../driverlib/gcc/lib/Debug/libdriver.a(camera.o)
                0x000000002001058c                CameraIntDisable
 .text.CameraIntStatus
                0x00000000200105c8       0x34 ../../../driverlib/gcc/lib/Debug/libdriver.a(camera.o)
                0x00000000200105c8                CameraIntStatus
 .text.CameraIntClear
                0x00000000200105fc       0x30 ../../../driverlib/gcc/lib/Debug/libdriver.a(camera.o)
                0x00000000200105fc                CameraIntClear
 .text.CameraCaptureStart
                0x000000002001062c       0x38 ../../../driverlib/gcc/lib/Debug/libdriver.a(camera.o)
                0x000000002001062c                CameraCaptureStart
 .text.CameraCaptureStop
                0x0000000020010664       0x54 ../../../driverlib/gcc/lib/Debug/libdriver.a(camera.o)
                0x0000000020010664                CameraCaptureStop
 .text.I2CMasterInitExpClk
                0x00000000200106b8       0x9c ../../../driverlib/gcc/lib/Debug/libdriver.a(i2c.o)
                0x00000000200106b8                I2CMasterInitExpClk
 .text.I2CMasterEnable
                0x0000000020010754       0x24 ../../../driverlib/gcc/lib/Debug/libdriver.a(i2c.o)
                0x0000000020010754                I2CMasterEnable
 .text.I2CMasterIntStatusEx
                0x0000000020010778       0x2c ../../../driverlib/gcc/lib/Debug/libdriver.a(i2c.o)
                0x0000000020010778                I2CMasterIntStatusEx
 .text.I2CMasterIntClearEx
                0x00000000200107a4       0x20 ../../../driverlib/gcc/lib/Debug/libdriver.a(i2c.o)
                0x00000000200107a4                I2CMasterIntClearEx
 .text.I2CMasterSlaveAddrSet
                0x00000000200107c4       0x28 ../../../driverlib/gcc/lib/Debug/libdriver.a(i2c.o)
                0x00000000200107c4                I2CMasterSlaveAddrSet
 .text.I2CMasterControl
                0x00000000200107ec       0x20 ../../../driverlib/gcc/lib/Debug/libdriver.a(i2c.o)
                0x00000000200107ec                I2CMasterControl
 .text.I2CMasterDataPut
                0x000000002001080c       0x20 ../../../driverlib/gcc/lib/Debug/libdriver.a(i2c.o)
                0x000000002001080c                I2CMasterDataPut
 .text.I2CMasterDataGet
                0x000000002001082c       0x18 ../../../driverlib/gcc/lib/Debug/libdriver.a(i2c.o)
                0x000000002001082c                I2CMasterDataGet
 .text.IntDefaultHandler
                0x0000000020010844        0x8 ../../../driverlib/gcc/lib/Debug/libdriver.a(interrupt.o)
 .text.IntMasterEnable
                0x000000002001084c       0x10 ../../../driverlib/gcc/lib/Debug/libdriver.a(interrupt.o)
                0x000000002001084c                IntMasterEnable
 .text.IntVTableBaseSet
                0x000000002001085c       0x1c ../../../driverlib/gcc/lib/Debug/libdriver.a(interrupt.o)
                0x000000002001085c                IntVTableBaseSet
 .text.IntRegister
                0x0000000020010878       0x2c ../../../driverlib/gcc/lib/Debug/libdriver.a(interrupt.o)
                0x0000000020010878                IntRegister
 .text.IntUnregister
                0x00000000200108a4       0x2c ../../../driverlib/gcc/lib/Debug/libdriver.a(interrupt.o)
                0x00000000200108a4                IntUnregister
 .text.IntPrioritySet
                0x00000000200108d0       0x68 ../../../driverlib/gcc/lib/Debug/libdriver.a(interrupt.o)
                0x00000000200108d0                IntPrioritySet
 .text.IntEnable
                0x0000000020010938       0xbc ../../../driverlib/gcc/lib/Debug/libdriver.a(interrupt.o)
                0x0000000020010938                IntEnable
 .text.IntDisable
                0x00000000200109f4       0xbc ../../../driverlib/gcc/lib/Debug/libdriver.a(interrupt.o)
                0x00000000200109f4                IntDisable
 .text.IntPendClear
                0x0000000020010ab0       0x68 ../../../driverlib/gcc/lib/Debug/libdriver.a(interrupt.o)
                0x0000000020010ab0                IntPendClear
 .text.PinModeSet
                0x0000000020010b18       0x48 ../../../driverlib/gcc/lib/Debug/libdriver.a(pin.o)
                0x0000000020010b18                PinModeSet
 .text.PinConfigSet
                0x0000000020010b60       0x98 ../../../driverlib/gcc/lib/Debug/libdriver.a(pin.o)
                0x0000000020010b60                PinConfigSet
 .text.PinTypeI2C
                0x0000000020010bf8       0x28 ../../../driverlib/gcc/lib/Debug/libdriver.a(pin.o)
                0x0000000020010bf8                PinTypeI2C
 .text.PinTypeCamera
                0x0000000020010c20       0x24 ../../../driverlib/gcc/lib/Debug/libdriver.a(pin.o)
                0x0000000020010c20                PinTypeCamera
 .text.PRCMSysResetCauseGet
                0x0000000020010c44       0x3c ../../../driverlib/gcc/lib/Debug/libdriver.a(prcm.o)
                0x0000000020010c44                PRCMSysResetCauseGet
 .text.PRCMPeripheralClkEnable
                0x0000000020010c80       0x5c ../../../driverlib/gcc/lib/Debug/libdriver.a(prcm.o)
                0x0000000020010c80                PRCMPeripheralClkEnable
 .text.PRCMPeripheralClkDisable
                0x0000000020010cdc       0x44 ../../../driverlib/gcc/lib/Debug/libdriver.a(prcm.o)
                0x0000000020010cdc                PRCMPeripheralClkDisable
 .text.PRCMPeripheralClockGet
                0x0000000020010d20       0xa8 ../../../driverlib/gcc/lib/Debug/libdriver.a(prcm.o)
                0x0000000020010d20                PRCMPeripheralClockGet
 .text.PRCMPeripheralReset
                0x0000000020010dc8       0x8c ../../../driverlib/gcc/lib/Debug/libdriver.a(prcm.o)
                0x0000000020010dc8                PRCMPeripheralReset
 .text.PRCMPeripheralStatusGet
                0x0000000020010e54       0x40 ../../../driverlib/gcc/lib/Debug/libdriver.a(prcm.o)
                0x0000000020010e54                PRCMPeripheralStatusGet
 .text.PRCMCC3200MCUInit
                0x0000000020010e94      0x1a0 ../../../driverlib/gcc/lib/Debug/libdriver.a(prcm.o)
                0x0000000020010e94                PRCMCC3200MCUInit
 .text.PRCMHIBRegRead
                0x0000000020011034       0x20 ../../../driverlib/gcc/lib/Debug/libdriver.a(prcm.o)
                0x0000000020011034                PRCMHIBRegRead
 .text.PRCMHIBRegWrite
                0x0000000020011054       0x20 ../../../driverlib/gcc/lib/Debug/libdriver.a(prcm.o)
                0x0000000020011054                PRCMHIBRegWrite
 .text.PRCMCameraFreqSet
                0x0000000020011074       0x50 ../../../driverlib/gcc/lib/Debug/libdriver.a(prcm.o)
                0x0000000020011074                PRCMCameraFreqSet
 .text.SHAMD5IntStatus
                0x00000000200110c4       0x64 ../../../driverlib/gcc/lib/Debug/libdriver.a(shamd5.o)
                0x00000000200110c4                SHAMD5IntStatus
 .text.SHAMD5IntEnable
                0x0000000020011128       0x5c ../../../driverlib/gcc/lib/Debug/libdriver.a(shamd5.o)
                0x0000000020011128                SHAMD5IntEnable
 .text.SHAMD5IntDisable
                0x0000000020011184       0x68 ../../../driverlib/gcc/lib/Debug/libdriver.a(shamd5.o)
                0x0000000020011184                SHAMD5IntDisable
 .text.SHAMD5IntRegister
                0x00000000200111ec       0x20 ../../../driverlib/gcc/lib/Debug/libdriver.a(shamd5.o)
                0x00000000200111ec                SHAMD5IntRegister
 .text.SHAMD5DataLengthSet
                0x000000002001120c       0x20 ../../../driverlib/gcc/lib/Debug/libdriver.a(shamd5.o)
                0x000000002001120c                SHAMD5DataLengthSet
 .text.SHAMD5ConfigSet
                0x000000002001122c       0x20 ../../../driverlib/gcc/lib/Debug/libdriver.a(shamd5.o)
                0x000000002001122c                SHAMD5ConfigSet
 .text.SHAMD5DataWrite
                0x000000002001124c       0x4c ../../../driverlib/gcc/lib/Debug/libdriver.a(shamd5.o)
                0x000000002001124c                SHAMD5DataWrite
 .text.SHAMD5ResultRead
                0x0000000020011298       0x88 ../../../driverlib/gcc/lib/Debug/libdriver.a(shamd5.o)
                0x0000000020011298                SHAMD5ResultRead
 .text.SHAMD5DataWriteMultiple
                0x0000000020011320       0xf0 ../../../driverlib/gcc/lib/Debug/libdriver.a(shamd5.o)
 .text.SHAMD5DataProcess
                0x0000000020011410       0x58 ../../../driverlib/gcc/lib/Debug/libdriver.a(shamd5.o)
                0x0000000020011410                SHAMD5DataProcess
 .text.SPIDmaMaskGet
                0x0000000020011468       0x48 ../../../driverlib/gcc/lib/Debug/libdriver.a(spi.o)
 .text.SPIEnable
                0x00000000200114b0       0x28 ../../../driverlib/gcc/lib/Debug/libdriver.a(spi.o)
                0x00000000200114b0                SPIEnable
 .text.SPIDisable
                0x00000000200114d8       0x28 ../../../driverlib/gcc/lib/Debug/libdriver.a(spi.o)
                0x00000000200114d8                SPIDisable
 .text.SPIDmaEnable
                0x0000000020011500       0x2c ../../../driverlib/gcc/lib/Debug/libdriver.a(spi.o)
                0x0000000020011500                SPIDmaEnable
 .text.SPIDmaDisable
                0x000000002001152c       0x2c ../../../driverlib/gcc/lib/Debug/libdriver.a(spi.o)
                0x000000002001152c                SPIDmaDisable
 .text.SPIReset
                0x0000000020011558       0x3c ../../../driverlib/gcc/lib/Debug/libdriver.a(spi.o)
                0x0000000020011558                SPIReset
 .text.SPIConfigSetExpClk
                0x0000000020011594       0xb8 ../../../driverlib/gcc/lib/Debug/libdriver.a(spi.o)
                0x0000000020011594                SPIConfigSetExpClk
 .text.SPIFIFOEnable
                0x000000002001164c       0x2c ../../../driverlib/gcc/lib/Debug/libdriver.a(spi.o)
                0x000000002001164c                SPIFIFOEnable
 .text.SPIFIFODisable
                0x0000000020011678       0x2c ../../../driverlib/gcc/lib/Debug/libdriver.a(spi.o)
                0x0000000020011678                SPIFIFODisable
 .text.SPIFIFOLevelSet
                0x00000000200116a4       0x44 ../../../driverlib/gcc/lib/Debug/libdriver.a(spi.o)
                0x00000000200116a4                SPIFIFOLevelSet
 .text.SPIWordCountSet
                0x00000000200116e8       0x34 ../../../driverlib/gcc/lib/Debug/libdriver.a(spi.o)
                0x00000000200116e8                SPIWordCountSet
 .text.SPIIntEnable
                0x000000002001171c       0x6c ../../../driverlib/gcc/lib/Debug/libdriver.a(spi.o)
                0x000000002001171c                SPIIntEnable
 .text.SPIIntClear
                0x0000000020011788       0x60 ../../../driverlib/gcc/lib/Debug/libdriver.a(spi.o)
                0x0000000020011788                SPIIntClear
 .text.SPICSEnable
                0x00000000200117e8       0x28 ../../../driverlib/gcc/lib/Debug/libdriver.a(spi.o)
                0x00000000200117e8                SPICSEnable
 .text.SPICSDisable
                0x0000000020011810       0x28 ../../../driverlib/gcc/lib/Debug/libdriver.a(spi.o)
                0x0000000020011810                SPICSDisable
 .text.TimerEnable
                0x0000000020011838       0x2c ../../../driverlib/gcc/lib/Debug/libdriver.a(timer.o)
                0x0000000020011838                TimerEnable
 .text.TimerConfigure
                0x0000000020011864       0x58 ../../../driverlib/gcc/lib/Debug/libdriver.a(timer.o)
                0x0000000020011864                TimerConfigure
 .text.TimerPrescaleSet
                0x00000000200118bc       0x3c ../../../driverlib/gcc/lib/Debug/libdriver.a(timer.o)
                0x00000000200118bc                TimerPrescaleSet
 .text.TimerLoadSet
                0x00000000200118f8       0x3c ../../../driverlib/gcc/lib/Debug/libdriver.a(timer.o)
                0x00000000200118f8                TimerLoadSet
 .text.TimerValueGet
                0x0000000020011934       0x28 ../../../driverlib/gcc/lib/Debug/libdriver.a(timer.o)
                0x0000000020011934                TimerValueGet
 .text.UARTConfigSetExpClk
                0x000000002001195c       0x98 ../../../driverlib/gcc/lib/Debug/libdriver.a(uart.o)
                0x000000002001195c                UARTConfigSetExpClk
 .text.UARTEnable
                0x00000000200119f4       0x3c ../../../driverlib/gcc/lib/Debug/libdriver.a(uart.o)
                0x00000000200119f4                UARTEnable
 .text.UARTDisable
                0x0000000020011a30       0x4c ../../../driverlib/gcc/lib/Debug/libdriver.a(uart.o)
                0x0000000020011a30                UARTDisable
 .text.UARTCharPut
                0x0000000020011a7c       0x2c ../../../driverlib/gcc/lib/Debug/libdriver.a(uart.o)
                0x0000000020011a7c                UARTCharPut
 .text.uDMAEnable
                0x0000000020011aa8       0x18 ../../../driverlib/gcc/lib/Debug/libdriver.a(udma.o)
                0x0000000020011aa8                uDMAEnable
 .text.uDMAChannelEnable
                0x0000000020011ac0       0x28 ../../../driverlib/gcc/lib/Debug/libdriver.a(udma.o)
                0x0000000020011ac0                uDMAChannelEnable
 .text.uDMAChannelDisable
                0x0000000020011ae8       0x28 ../../../driverlib/gcc/lib/Debug/libdriver.a(udma.o)
                0x0000000020011ae8                uDMAChannelDisable
 .text.uDMAControlBaseSet
                0x0000000020011b10       0x1c ../../../driverlib/gcc/lib/Debug/libdriver.a(udma.o)
                0x0000000020011b10                uDMAControlBaseSet
 .text.uDMAChannelAttributeEnable
                0x0000000020011b2c       0x84 ../../../driverlib/gcc/lib/Debug/libdriver.a(udma.o)
                0x0000000020011b2c                uDMAChannelAttributeEnable
 .text.uDMAChannelAttributeDisable
                0x0000000020011bb0       0x84 ../../../driverlib/gcc/lib/Debug/libdriver.a(udma.o)
                0x0000000020011bb0                uDMAChannelAttributeDisable
 .text.uDMAChannelControlSet
                0x0000000020011c34       0x48 ../../../driverlib/gcc/lib/Debug/libdriver.a(udma.o)
                0x0000000020011c34                uDMAChannelControlSet
 .text.uDMAChannelTransferSet
                0x0000000020011c7c      0x104 ../../../driverlib/gcc/lib/Debug/libdriver.a(udma.o)
                0x0000000020011c7c                uDMAChannelTransferSet
 .text.uDMAIntStatus
                0x0000000020011d80       0x14 ../../../driverlib/gcc/lib/Debug/libdriver.a(udma.o)
                0x0000000020011d80                uDMAIntStatus
 .text.uDMAIntClear
                0x0000000020011d94       0x1c ../../../driverlib/gcc/lib/Debug/libdriver.a(udma.o)
                0x0000000020011d94                uDMAIntClear
 .text.uDMAChannelAssign
                0x0000000020011db0       0x58 ../../../driverlib/gcc/lib/Debug/libdriver.a(udma.o)
                0x0000000020011db0                uDMAChannelAssign
 .text.UtilsDelay
                0x0000000020011e08        0xc ../../../driverlib/gcc/lib/Debug/libdriver.a(utils.o)
                0x0000000020011e08                UtilsDelay
 .text.CPUcpsie
                0x0000000020011e14       0x18 ../../../driverlib/gcc/lib/Debug/libdriver.a(cpu.o)
                0x0000000020011e14                CPUcpsie
 .text.atoi     0x0000000020011e2c        0x8 /usr/lib/gcc/arm-none-eabi/5.2.0/../../../../arm-none-eabi/lib/armv7e-m/libc_nano.a(lib_a-atoi.o)
                0x0000000020011e2c                atoi
 .text.malloc   0x0000000020011e34       0x10 /usr/lib/gcc/arm-none-eabi/5.2.0/../../../../arm-none-eabi/lib/armv7e-m/libc_nano.a(lib_a-malloc.o)
                0x0000000020011e34                malloc
 .text.free     0x0000000020011e44       0x10 /usr/lib/gcc/arm-none-eabi/5.2.0/../../../../arm-none-eabi/lib/armv7e-m/libc_nano.a(lib_a-malloc.o)
                0x0000000020011e44                free
 .text.memchr   0x0000000020011e54       0x1e /usr/lib/gcc/arm-none-eabi/5.2.0/../../../../arm-none-eabi/lib/armv7e-m/libc_nano.a(lib_a-memchr.o)
                0x0000000020011e54                memchr
 .text.memcmp   0x0000000020011e72       0x1e /usr/lib/gcc/arm-none-eabi/5.2.0/../../../../arm-none-eabi/lib/armv7e-m/libc_nano.a(lib_a-memcmp.o)
                0x0000000020011e72                memcmp
 .text.memcpy   0x0000000020011e90       0x16 /usr/lib/gcc/arm-none-eabi/5.2.0/../../../../arm-none-eabi/lib/armv7e-m/libc_nano.a(lib_a-memcpy.o)
                0x0000000020011e90                memcpy
 .text.memmove  0x0000000020011ea6       0x36 /usr/lib/gcc/arm-none-eabi/5.2.0/../../../../arm-none-eabi/lib/armv7e-m/libc_nano.a(lib_a-memmove.o)
                0x0000000020011ea6                memmove
 .text.memset   0x0000000020011edc       0x10 /usr/lib/gcc/arm-none-eabi/5.2.0/../../../../arm-none-eabi/lib/armv7e-m/libc_nano.a(lib_a-memset.o)
                0x0000000020011edc                memset
 .text._free_r  0x0000000020011eec       0x8c /usr/lib/gcc/arm-none-eabi/5.2.0/../../../../arm-none-eabi/lib/armv7e-m/libc_nano.a(lib_a-nano-freer.o)
                0x0000000020011eec                _free_r
 .text._malloc_r
                0x0000000020011f78       0xa8 /usr/lib/gcc/arm-none-eabi/5.2.0/../../../../arm-none-eabi/lib/armv7e-m/libc_nano.a(lib_a-nano-mallocr.o)
                0x0000000020011f78                _malloc_r
 .text.realloc  0x0000000020012020       0x10 /usr/lib/gcc/arm-none-eabi/5.2.0/../../../../arm-none-eabi/lib/armv7e-m/libc_nano.a(lib_a-realloc.o)
                0x0000000020012020                realloc
 .text._sbrk_r  0x0000000020012030       0x20 /usr/lib/gcc/arm-none-eabi/5.2.0/../../../../arm-none-eabi/lib/armv7e-m/libc_nano.a(lib_a-sbrkr.o)
                0x0000000020012030                _sbrk_r
 .text          0x0000000020012050       0x14 /usr/lib/gcc/arm-none-eabi/5.2.0/../../../../arm-none-eabi/lib/armv7e-m/libc_nano.a(lib_a-strcmp.o)
                0x0000000020012050                strcmp
 .text.strcpy   0x0000000020012064       0x10 /usr/lib/gcc/arm-none-eabi/5.2.0/../../../../arm-none-eabi/lib/armv7e-m/libc_nano.a(lib_a-strcpy.o)
                0x0000000020012064                strcpy
 .text.strlen   0x0000000020012074       0x10 /usr/lib/gcc/arm-none-eabi/5.2.0/../../../../arm-none-eabi/lib/armv7e-m/libc_nano.a(lib_a-strlen.o)
                0x0000000020012074                strlen
 .text.strncat  0x0000000020012084       0x24 /usr/lib/gcc/arm-none-eabi/5.2.0/../../../../arm-none-eabi/lib/armv7e-m/libc_nano.a(lib_a-strncat.o)
                0x0000000020012084                strncat
 .text._strtol_r
                0x00000000200120a8      0x10c /usr/lib/gcc/arm-none-eabi/5.2.0/../../../../arm-none-eabi/lib/armv7e-m/libc_nano.a(lib_a-strtol.o)
                0x00000000200120a8                _strtol_r
 .text.strtol   0x00000000200121b4       0x14 /usr/lib/gcc/arm-none-eabi/5.2.0/../../../../arm-none-eabi/lib/armv7e-m/libc_nano.a(lib_a-strtol.o)
                0x00000000200121b4                strtol
 .text._vsnprintf_r
                0x00000000200121c8       0x56 /usr/lib/gcc/arm-none-eabi/5.2.0/../../../../arm-none-eabi/lib/armv7e-m/libc_nano.a(lib_a-vsnprintf.o)
                0x00000000200121c8                _vsnprintf_r
                0x00000000200121c8                _vsniprintf_r
 *fill*         0x000000002001221e        0x2 
 .text.vsnprintf
                0x0000000020012220       0x1c /usr/lib/gcc/arm-none-eabi/5.2.0/../../../../arm-none-eabi/lib/armv7e-m/libc_nano.a(lib_a-vsnprintf.o)
                0x0000000020012220                vsnprintf
                0x0000000020012220                vsniprintf
 .text._realloc_r
                0x000000002001223c       0x4c /usr/lib/gcc/arm-none-eabi/5.2.0/../../../../arm-none-eabi/lib/armv7e-m/libc_nano.a(lib_a-nano-reallocr.o)
                0x000000002001223c                _realloc_r
 .text.__ssputs_r
                0x0000000020012288       0xb2 /usr/lib/gcc/arm-none-eabi/5.2.0/../../../../arm-none-eabi/lib/armv7e-m/libc_nano.a(lib_a-nano-svfprintf.o)
                0x0000000020012288                __ssputs_r
 *fill*         0x000000002001233a        0x2 
 .text._svfprintf_r
                0x000000002001233c      0x1e8 /usr/lib/gcc/arm-none-eabi/5.2.0/../../../../arm-none-eabi/lib/armv7e-m/libc_nano.a(lib_a-nano-svfprintf.o)
                0x000000002001233c                _svfprintf_r
                0x000000002001233c                _svfiprintf_r
 .text._printf_common
                0x0000000020012524       0xec /usr/lib/gcc/arm-none-eabi/5.2.0/../../../../arm-none-eabi/lib/armv7e-m/libc_nano.a(lib_a-nano-vfprintf_i.o)
                0x0000000020012524                _printf_common
 .text._printf_i
                0x0000000020012610      0x24c /usr/lib/gcc/arm-none-eabi/5.2.0/../../../../arm-none-eabi/lib/armv7e-m/libc_nano.a(lib_a-nano-vfprintf_i.o)
                0x0000000020012610                _printf_i
 .text._malloc_usable_size_r
                0x000000002001285c       0x14 /usr/lib/gcc/arm-none-eabi/5.2.0/../../../../arm-none-eabi/lib/armv7e-m/libc_nano.a(lib_a-nano-msizer.o)
                0x000000002001285c                _malloc_usable_size_r
 *(.rodata*)
 .rodata.capture_cmds_list
                0x0000000020012870       0x74 obj/Debug/mt9d111.o
 .rodata.init_cmds_list
                0x00000000200128e4      0x13c obj/Debug/mt9d111.o
 .rodata        0x0000000020012a20       0x30 obj/Debug/mt9d111.o
 .rodata.__FUNCTION__.5099
                0x0000000020012a50       0x14 obj/Debug/mt9d111.o
 .rodata.__FUNCTION__.5105
                0x0000000020012a64       0x18 obj/Debug/mt9d111.o
 .rodata.__FUNCTION__.5122
                0x0000000020012a7c        0xc obj/Debug/mt9d111.o
 .rodata        0x0000000020012a88       0xa0 obj/Debug/main.o
 .rodata        0x0000000020012b28       0x44 obj/Debug/httpserverapp.o
 .rodata.__FUNCTION__.5980
                0x0000000020012b6c       0x14 obj/Debug/httpserverapp.o
 .rodata        0x0000000020012b80       0x2c obj/Debug/uart_if.o
 .rodata        0x0000000020012bac      0x6ec obj/Debug/network_if.o
 .rodata.__FUNCTION__.5920
                0x0000000020013298       0x24 obj/Debug/network_if.o
 .rodata.__FUNCTION__.5933
                0x00000000200132bc       0x18 obj/Debug/network_if.o
 .rodata        0x00000000200132d4      0x334 ../../../netapps/http/server/gcc/lib/Debug/libwebserver.a(HttpCore.o)
 .rodata        0x0000000020013608       0x18 ../../../netapps/http/server/gcc/lib/Debug/libwebserver.a(HttpDebug.o)
 .rodata        0x0000000020013620      0x114 ../../../netapps/http/server/gcc/lib/Debug/libwebserver.a(HttpSocket.o)
 .rodata        0x0000000020013734       0x14 ../../../netapps/http/server/gcc/lib/Debug/libwebserver.a(HttpStatic.o)
 .rodata        0x0000000020013748       0xf8 ../../../netapps/http/server/gcc/lib/Debug/libwebserver.a(WebSockHandler.o)
 .rodata.g_ccB64Tbl
                0x0000000020013840       0x40 ../../../netapps/http/server/gcc/lib/Debug/libwebserver.a(base64.o)
 .rodata.StartResponseLUT
                0x0000000020013880        0x8 ../../../simplelink/gcc/lib/os/Debug/libsimplelink.a(device.o)
 .rodata._SlStopCmdCtrl
                0x0000000020013888        0x4 ../../../simplelink/gcc/lib/os/Debug/libsimplelink.a(device.o)
 .rodata._SlDeviceGetCmdCtrl
                0x000000002001388c        0x4 ../../../simplelink/gcc/lib/os/Debug/libsimplelink.a(device.o)
 .rodata.g_H2NSyncPattern
                0x0000000020013890        0x8 ../../../simplelink/gcc/lib/os/Debug/libsimplelink.a(driver.o)
 .rodata.g_H2NCnysPattern
                0x0000000020013898        0x8 ../../../simplelink/gcc/lib/os/Debug/libsimplelink.a(driver.o)
 .rodata._SlActionLookupTable
                0x00000000200138a0       0x38 ../../../simplelink/gcc/lib/os/Debug/libsimplelink.a(driver.o)
                0x00000000200138a0                _SlActionLookupTable
 .rodata.OpcodeTranslateTable
                0x00000000200138d8       0x3c ../../../simplelink/gcc/lib/os/Debug/libsimplelink.a(driver.o)
                0x00000000200138d8                OpcodeTranslateTable
 .rodata.RxMsgClassLUT
                0x0000000020013914       0x20 ../../../simplelink/gcc/lib/os/Debug/libsimplelink.a(driver.o)
 .rodata._SlNetAppStopCtrl
                0x0000000020013934        0x4 ../../../simplelink/gcc/lib/os/Debug/libsimplelink.a(netapp.o)
 .rodata._SlRegisterServiceCtrl
                0x0000000020013938        0x4 ../../../simplelink/gcc/lib/os/Debug/libsimplelink.a(netapp.o)
 .rodata._SlNetAppSendTokenValueCmdCtrl
                0x000000002001393c        0x4 ../../../simplelink/gcc/lib/os/Debug/libsimplelink.a(netapp.o)
                0x000000002001393c                _SlNetAppSendTokenValueCmdCtrl
 .rodata._SlNetCfgSetCmdCtrl
                0x0000000020013940        0x4 ../../../simplelink/gcc/lib/os/Debug/libsimplelink.a(netcfg.o)
 .rodata._SlFsOpenCmdCtrl
                0x0000000020013944        0x4 ../../../simplelink/gcc/lib/os/Debug/libsimplelink.a(fs.o)
 .rodata._SlFsCloseCmdCtrl
                0x0000000020013948        0x4 ../../../simplelink/gcc/lib/os/Debug/libsimplelink.a(fs.o)
 .rodata._SlFsReadCmdCtrl
                0x000000002001394c        0x4 ../../../simplelink/gcc/lib/os/Debug/libsimplelink.a(fs.o)
 .rodata._SlFsGetInfoCmdCtrl
                0x0000000020013950        0x4 ../../../simplelink/gcc/lib/os/Debug/libsimplelink.a(fs.o)
 .rodata._SlPayloadByProtocolLUT
                0x0000000020013954       0x10 ../../../simplelink/gcc/lib/os/Debug/libsimplelink.a(socket.o)
 .rodata._SlSockSocketCmdCtrl
                0x0000000020013964        0x4 ../../../simplelink/gcc/lib/os/Debug/libsimplelink.a(socket.o)
 .rodata._SlSockCloseCmdCtrl
                0x0000000020013968        0x4 ../../../simplelink/gcc/lib/os/Debug/libsimplelink.a(socket.o)
 .rodata._SlSendCmdCtrl
                0x000000002001396c        0x4 ../../../simplelink/gcc/lib/os/Debug/libsimplelink.a(socket.o)
 .rodata._SlListenCmdCtrl
                0x0000000020013970        0x4 ../../../simplelink/gcc/lib/os/Debug/libsimplelink.a(socket.o)
 .rodata._SlAcceptCmdCtrl
                0x0000000020013974        0x4 ../../../simplelink/gcc/lib/os/Debug/libsimplelink.a(socket.o)
 .rodata._SlRecvCmdCtrl
                0x0000000020013978        0x4 ../../../simplelink/gcc/lib/os/Debug/libsimplelink.a(socket.o)
 .rodata._SlSetSockOptCmdCtrl
                0x000000002001397c        0x4 ../../../simplelink/gcc/lib/os/Debug/libsimplelink.a(socket.o)
 .rodata._SlPolicySetCmdCtrl
                0x0000000020013980        0x4 ../../../simplelink/gcc/lib/os/Debug/libsimplelink.a(wlan.o)
 .rodata._SlProfileDelCmdCtrl
                0x0000000020013984        0x4 ../../../simplelink/gcc/lib/os/Debug/libsimplelink.a(wlan.o)
 .rodata._SlRxFilterSetCmdCtrl
                0x0000000020013988        0x4 ../../../simplelink/gcc/lib/os/Debug/libsimplelink.a(wlan.o)
 .rodata._SlWlanSetModeCmdCtrl
                0x000000002001398c        0x4 ../../../simplelink/gcc/lib/os/Debug/libsimplelink.a(wlan.o)
 .rodata._SlWlanCfgSetCmdCtrl
                0x0000000020013990        0x4 ../../../simplelink/gcc/lib/os/Debug/libsimplelink.a(wlan.o)
 .rodata        0x0000000020013994        0xc ../../../simplelink/gcc/lib/os/Debug/libsimplelink.a(cc_pal.o)
 .rodata        0x00000000200139a0        0x8 ../../../oslib/gcc/free_rtos/Debug/free_rtos.a(osi_freertos.o)
 .rodata        0x00000000200139a8       0x2c ../../../oslib/gcc/free_rtos/Debug/free_rtos.a(queue.o)
 .rodata        0x00000000200139d4       0x44 ../../../oslib/gcc/free_rtos/Debug/free_rtos.a(tasks.o)
 .rodata.ucExpectedStackBytes.5776
                0x0000000020013a18       0x14 ../../../oslib/gcc/free_rtos/Debug/free_rtos.a(tasks.o)
 .rodata        0x0000000020013a2c       0x40 ../../../oslib/gcc/free_rtos/Debug/free_rtos.a(port.o)
 .rodata        0x0000000020013a6c       0x3c ../../../oslib/gcc/free_rtos/Debug/free_rtos.a(timers.o)
 .rodata.g_pulRegs
                0x0000000020013aa8       0xd4 ../../../driverlib/gcc/lib/Debug/libdriver.a(interrupt.o)
 .rodata.g_pulEnRegs
                0x0000000020013b7c       0x18 ../../../driverlib/gcc/lib/Debug/libdriver.a(interrupt.o)
 .rodata.g_pulDisRegs
                0x0000000020013b94       0x18 ../../../driverlib/gcc/lib/Debug/libdriver.a(interrupt.o)
 .rodata.g_pulUnpendRegs
                0x0000000020013bac       0x18 ../../../driverlib/gcc/lib/Debug/libdriver.a(interrupt.o)
 .rodata.g_ulPinToPadMap
                0x0000000020013bc4      0x100 ../../../driverlib/gcc/lib/Debug/libdriver.a(pin.o)
 .rodata.PRCM_PeriphRegsList
                0x0000000020013cc4       0xa8 ../../../driverlib/gcc/lib/Debug/libdriver.a(prcm.o)
 .rodata.g_ulSPIDmaMaskMap
                0x0000000020013d6c       0x18 ../../../driverlib/gcc/lib/Debug/libdriver.a(spi.o)
 .rodata._ctype_
                0x0000000020013d84      0x101 /usr/lib/gcc/arm-none-eabi/5.2.0/../../../../arm-none-eabi/lib/armv7e-m/libc_nano.a(lib_a-ctype_.o)
                0x0000000020013d84                _ctype_
 .rodata.str1.1
                0x0000000020013e85        0x2 /usr/lib/gcc/arm-none-eabi/5.2.0/../../../../arm-none-eabi/lib/armv7e-m/libc_nano.a(lib_a-impure.o)
 .rodata.str1.1
                0x0000000020013e87       0x11 /usr/lib/gcc/arm-none-eabi/5.2.0/../../../../arm-none-eabi/lib/armv7e-m/libc_nano.a(lib_a-nano-svfprintf.o)
 .rodata.str1.1
                0x0000000020013e98       0x22 /usr/lib/gcc/arm-none-eabi/5.2.0/../../../../arm-none-eabi/lib/armv7e-m/libc_nano.a(lib_a-nano-vfprintf_i.o)
 *(.ARM.extab* .gnu.linkonce.armextab.*)
                0x0000000020013ec0                . = ALIGN (0x8)
 *fill*         0x0000000020013eba        0x6 
                0x0000000020013ec0                _etext = .

.glue_7         0x0000000020013ec0        0x0
 .glue_7        0x0000000000000000        0x0 linker stubs

.glue_7t        0x0000000020013ec0        0x0
 .glue_7t       0x0000000000000000        0x0 linker stubs

.vfp11_veneer   0x0000000020013ec0        0x0
 .vfp11_veneer  0x0000000000000000        0x0 linker stubs

.v4_bx          0x0000000020013ec0        0x0
 .v4_bx         0x0000000000000000        0x0 linker stubs

.iplt           0x0000000020013ec0        0x0
 .iplt          0x0000000000000000        0x0 obj/Debug/camera_app.o

.rel.dyn        0x0000000020013ec0        0x0
 .rel.iplt      0x0000000000000000        0x0 obj/Debug/camera_app.o

.ARM            0x0000000020013ec0        0x0
                0x0000000020013ec0                __exidx_start = .
 *(.ARM.exidx*)
                0x0000000020013ec0                __exidx_end = .
                0x0000000020013ec0                __init_data = .

.data           0x0000000020013ec0      0xa10
                0x0000000020013ec0                _data = .
 *(.data*)
 .data.PIXELS_IN_X_AXIS
                0x0000000020013ec0        0x4 obj/Debug/camera_app.o
                0x0000000020013ec0                PIXELS_IN_X_AXIS
 .data.PIXELS_IN_Y_AXIS
                0x0000000020013ec4        0x4 obj/Debug/camera_app.o
                0x0000000020013ec4                PIXELS_IN_Y_AXIS
 .data.FRAME_SIZE_IN_BYTES
                0x0000000020013ec8        0x4 obj/Debug/camera_app.o
                0x0000000020013ec8                FRAME_SIZE_IN_BYTES
 .data.JPEG_StdQuantTblY
                0x0000000020013ecc       0x40 obj/Debug/camera_app.o
                0x0000000020013ecc                JPEG_StdQuantTblY
 .data.JPEG_StdQuantTblC
                0x0000000020013f0c       0x40 obj/Debug/camera_app.o
                0x0000000020013f0c                JPEG_StdQuantTblC
 .data.zigzag   0x0000000020013f4c       0x40 obj/Debug/camera_app.o
 .data.JPEG_StdHuffmanTbl
                0x0000000020013f8c      0x600 obj/Debug/camera_app.o
                0x0000000020013f8c                JPEG_StdHuffmanTbl
 .data.start_jpeg_capture_cmd_list
                0x000000002001458c        0xc obj/Debug/mt9d111.o
 .data.resolution_cmds_list
                0x0000000020014598       0x3c obj/Debug/mt9d111.o
 .data.HTTP_HEADER_DELIMITER
                0x00000000200145d4        0x4 ../../../netapps/http/server/gcc/lib/Debug/libwebserver.a(HttpCore.o)
                0x00000000200145d4                HTTP_HEADER_DELIMITER
 .data.HTTP_METHOD_GET
                0x00000000200145d8        0x4 ../../../netapps/http/server/gcc/lib/Debug/libwebserver.a(HttpCore.o)
                0x00000000200145d8                HTTP_METHOD_GET
 .data.HTTP_METHOD_POST
                0x00000000200145dc        0x8 ../../../netapps/http/server/gcc/lib/Debug/libwebserver.a(HttpCore.o)
                0x00000000200145dc                HTTP_METHOD_POST
 .data.HTTP_VERSION_1P1
                0x00000000200145e4        0xc ../../../netapps/http/server/gcc/lib/Debug/libwebserver.a(HttpCore.o)
                0x00000000200145e4                HTTP_VERSION_1P1
 .data.HTTP_VERSION_1P0
                0x00000000200145f0        0xc ../../../netapps/http/server/gcc/lib/Debug/libwebserver.a(HttpCore.o)
                0x00000000200145f0                HTTP_VERSION_1P0
 .data.HTTP_CONTENT_TYPE
                0x00000000200145fc       0x10 ../../../netapps/http/server/gcc/lib/Debug/libwebserver.a(HttpCore.o)
                0x00000000200145fc                HTTP_CONTENT_TYPE
 .data.HTTP_UPGRADE_INSECURE_REQUESTS
                0x000000002001460c       0x1c ../../../netapps/http/server/gcc/lib/Debug/libwebserver.a(HttpCore.o)
                0x000000002001460c                HTTP_UPGRADE_INSECURE_REQUESTS
 .data.HTTP_CONTENT_LENGTH
                0x0000000020014628       0x10 ../../../netapps/http/server/gcc/lib/Debug/libwebserver.a(HttpCore.o)
                0x0000000020014628                HTTP_CONTENT_LENGTH
 .data.HTTP_ACCEPT_ENCODING
                0x0000000020014638       0x10 ../../../netapps/http/server/gcc/lib/Debug/libwebserver.a(HttpCore.o)
                0x0000000020014638                HTTP_ACCEPT_ENCODING
 .data.HTTP_AUTHORIZATION
                0x0000000020014648       0x10 ../../../netapps/http/server/gcc/lib/Debug/libwebserver.a(HttpCore.o)
                0x0000000020014648                HTTP_AUTHORIZATION
 .data.HTTP_CONNECTION_CLOSE
                0x0000000020014658        0xc ../../../netapps/http/server/gcc/lib/Debug/libwebserver.a(HttpCore.o)
                0x0000000020014658                HTTP_CONNECTION_CLOSE
 .data.HTTP_GZIP
                0x0000000020014664        0x8 ../../../netapps/http/server/gcc/lib/Debug/libwebserver.a(HttpCore.o)
                0x0000000020014664                HTTP_GZIP
 .data.HTTP_CLOSE
                0x000000002001466c        0x8 ../../../netapps/http/server/gcc/lib/Debug/libwebserver.a(HttpCore.o)
                0x000000002001466c                HTTP_CLOSE
 .data.HTTP_LOCATION
                0x0000000020014674        0xc ../../../netapps/http/server/gcc/lib/Debug/libwebserver.a(HttpCore.o)
                0x0000000020014674                HTTP_LOCATION
 .data.HTTP_CONTENT_ENCODING
                0x0000000020014680       0x14 ../../../netapps/http/server/gcc/lib/Debug/libwebserver.a(HttpCore.o)
                0x0000000020014680                HTTP_CONTENT_ENCODING
 .data.HTTP_STATUS_OK_STR
                0x0000000020014694        0x4 ../../../netapps/http/server/gcc/lib/Debug/libwebserver.a(HttpCore.o)
                0x0000000020014694                HTTP_STATUS_OK_STR
 .data.HTTP_STATUS_REDIRECT_PERMANENT_STR
                0x0000000020014698       0x14 ../../../netapps/http/server/gcc/lib/Debug/libwebserver.a(HttpCore.o)
                0x0000000020014698                HTTP_STATUS_REDIRECT_PERMANENT_STR
 .data.HTTP_STATUS_REDIRECT_TEMPORARY_STR
                0x00000000200146ac       0x14 ../../../netapps/http/server/gcc/lib/Debug/libwebserver.a(HttpCore.o)
                0x00000000200146ac                HTTP_STATUS_REDIRECT_TEMPORARY_STR
 .data.HTTP_STATUS_ERROR_UNAUTHORIZED_STR
                0x00000000200146c0       0x10 ../../../netapps/http/server/gcc/lib/Debug/libwebserver.a(HttpCore.o)
                0x00000000200146c0                HTTP_STATUS_ERROR_UNAUTHORIZED_STR
 .data.HTTP_STATUS_ERROR_NOT_FOUND_STR
                0x00000000200146d0        0xc ../../../netapps/http/server/gcc/lib/Debug/libwebserver.a(HttpCore.o)
                0x00000000200146d0                HTTP_STATUS_ERROR_NOT_FOUND_STR
 .data.HTTP_STATUS_ERROR_NOT_ACCEPTED_STR
                0x00000000200146dc       0x10 ../../../netapps/http/server/gcc/lib/Debug/libwebserver.a(HttpCore.o)
                0x00000000200146dc                HTTP_STATUS_ERROR_NOT_ACCEPTED_STR
 .data.HTTP_STATUS_ERROR_INTERNAL_STR
                0x00000000200146ec       0x18 ../../../netapps/http/server/gcc/lib/Debug/libwebserver.a(HttpCore.o)
                0x00000000200146ec                HTTP_STATUS_ERROR_INTERNAL_STR
 .data.WS_HOST  0x0000000020014704        0x8 ../../../netapps/http/server/gcc/lib/Debug/libwebserver.a(HttpCore.o)
                0x0000000020014704                WS_HOST
 .data.WS_UPGRADE
                0x000000002001470c        0x8 ../../../netapps/http/server/gcc/lib/Debug/libwebserver.a(HttpCore.o)
                0x000000002001470c                WS_UPGRADE
 .data.WS_CONNECTION
                0x0000000020014714        0xc ../../../netapps/http/server/gcc/lib/Debug/libwebserver.a(HttpCore.o)
                0x0000000020014714                WS_CONNECTION
 .data.WS_VERSION_REQUEST
                0x0000000020014720       0x18 ../../../netapps/http/server/gcc/lib/Debug/libwebserver.a(HttpCore.o)
                0x0000000020014720                WS_VERSION_REQUEST
 .data.WS_KEY_REQUEST
                0x0000000020014738       0x14 ../../../netapps/http/server/gcc/lib/Debug/libwebserver.a(HttpCore.o)
                0x0000000020014738                WS_KEY_REQUEST
 .data.WS_ORIGIN
                0x000000002001474c        0x8 ../../../netapps/http/server/gcc/lib/Debug/libwebserver.a(HttpCore.o)
                0x000000002001474c                WS_ORIGIN
 .data.WS_CACHE_CONTROL
                0x0000000020014754       0x10 ../../../netapps/http/server/gcc/lib/Debug/libwebserver.a(HttpCore.o)
                0x0000000020014754                WS_CACHE_CONTROL
 .data.WS_PRAGMA
                0x0000000020014764        0x8 ../../../netapps/http/server/gcc/lib/Debug/libwebserver.a(HttpCore.o)
                0x0000000020014764                WS_PRAGMA
 .data.WS_EXTENSION
                0x000000002001476c       0x1c ../../../netapps/http/server/gcc/lib/Debug/libwebserver.a(HttpCore.o)
                0x000000002001476c                WS_EXTENSION
 .data.WS_WEBSOCKET
                0x0000000020014788        0xc ../../../netapps/http/server/gcc/lib/Debug/libwebserver.a(HttpCore.o)
                0x0000000020014788                WS_WEBSOCKET
 .data.WS_MAGIC_STRING
                0x0000000020014794       0x28 ../../../netapps/http/server/gcc/lib/Debug/libwebserver.a(HttpCore.o)
                0x0000000020014794                WS_MAGIC_STRING
 .data.WS_VERSION
                0x00000000200147bc        0x4 ../../../netapps/http/server/gcc/lib/Debug/libwebserver.a(HttpCore.o)
                0x00000000200147bc                WS_VERSION
 .data.WS_ACCEPT
                0x00000000200147c0       0x18 ../../../netapps/http/server/gcc/lib/Debug/libwebserver.a(HttpCore.o)
                0x00000000200147c0                WS_ACCEPT
 .data.digits   0x00000000200147d8        0xc ../../../netapps/http/server/gcc/lib/Debug/libwebserver.a(HttpString.o)
                0x00000000200147d8                digits
 .data.WS_STATUS_OK_STR
                0x00000000200147e4        0x4 ../../../netapps/http/server/gcc/lib/Debug/libwebserver.a(WebSockHandler.o)
                0x00000000200147e4                WS_STATUS_OK_STR
 .data.WS_STATUS_GOING_AWAY_STR
                0x00000000200147e8        0xc ../../../netapps/http/server/gcc/lib/Debug/libwebserver.a(WebSockHandler.o)
                0x00000000200147e8                WS_STATUS_GOING_AWAY_STR
 .data.WS_STATUS_ERROR_PROTOCOL_STR
                0x00000000200147f4       0x10 ../../../netapps/http/server/gcc/lib/Debug/libwebserver.a(WebSockHandler.o)
                0x00000000200147f4                WS_STATUS_ERROR_PROTOCOL_STR
 .data.WS_STATUS_ERROR_DATATYPE_STR
                0x0000000020014804       0x18 ../../../netapps/http/server/gcc/lib/Debug/libwebserver.a(WebSockHandler.o)
                0x0000000020014804                WS_STATUS_ERROR_DATATYPE_STR
 .data.WS_STATUS_ERROR_ENCODING_STR
                0x000000002001481c       0x18 ../../../netapps/http/server/gcc/lib/Debug/libwebserver.a(WebSockHandler.o)
                0x000000002001481c                WS_STATUS_ERROR_ENCODING_STR
 .data.WS_STATUS_ERROR_OVERFLOW_STR
                0x0000000020014834       0x10 ../../../netapps/http/server/gcc/lib/Debug/libwebserver.a(WebSockHandler.o)
                0x0000000020014834                WS_STATUS_ERROR_OVERFLOW_STR
 .data.WS_STATUS_ERROR_UNEXPECTED_STR
                0x0000000020014844       0x18 ../../../netapps/http/server/gcc/lib/Debug/libwebserver.a(WebSockHandler.o)
                0x0000000020014844                WS_STATUS_ERROR_UNEXPECTED_STR
 .data.xNextTaskUnblockTime
                0x000000002001485c        0x4 ../../../oslib/gcc/free_rtos/Debug/free_rtos.a(tasks.o)
 .data.uxCriticalNesting
                0x0000000020014860        0x4 ../../../oslib/gcc/free_rtos/Debug/free_rtos.a(port.o)
 .data.__ctype_ptr__
                0x0000000020014864        0x4 /usr/lib/gcc/arm-none-eabi/5.2.0/../../../../arm-none-eabi/lib/armv7e-m/libc_nano.a(lib_a-ctype_.o)
                0x0000000020014864                __ctype_ptr__
 .data.impure_data
                0x0000000020014868       0x60 /usr/lib/gcc/arm-none-eabi/5.2.0/../../../../arm-none-eabi/lib/armv7e-m/libc_nano.a(lib_a-impure.o)
 .data._impure_ptr
                0x00000000200148c8        0x4 /usr/lib/gcc/arm-none-eabi/5.2.0/../../../../arm-none-eabi/lib/armv7e-m/libc_nano.a(lib_a-impure.o)
                0x00000000200148c8                _impure_ptr
                0x00000000200148d0                . = ALIGN (0x8)
 *fill*         0x00000000200148cc        0x4 
                0x00000000200148d0                _edata = .

.igot.plt       0x00000000200148d0        0x0
 .igot.plt      0x0000000000000000        0x0 obj/Debug/camera_app.o

.bss            0x0000000020014c00     0xff60
                0x0000000020014c00                _bss = .
 *(.bss*)
 .bss.p_buffer  0x0000000020014c00        0x4 obj/Debug/camera_app.o
 .bss.g_dma_txn_done
                0x0000000020014c04        0x1 obj/Debug/camera_app.o
 .bss.g_frame_end
                0x0000000020014c05        0x1 obj/Debug/camera_app.o
 *fill*         0x0000000020014c06        0x2 
 .bss.g_total_dma_intrpts
                0x0000000020014c08        0x4 obj/Debug/camera_app.o
 .bss.g_success
                0x0000000020014c0c        0x1 obj/Debug/httpserverapp.o
                0x0000000020014c0c                g_success
 *fill*         0x0000000020014c0d        0x3 
 .bss.g_close   0x0000000020014c10        0x4 obj/Debug/httpserverapp.o
                0x0000000020014c10                g_close
 .bss.g_iCameraTaskHdl
                0x0000000020014c14        0x4 obj/Debug/httpserverapp.o
                0x0000000020014c14                g_iCameraTaskHdl
 .bss.__Errorlog
                0x0000000020014c18        0x4 obj/Debug/uart_if.o
 .bss.g_ulStatus
                0x0000000020014c1c        0x4 obj/Debug/network_if.o
                0x0000000020014c1c                g_ulStatus
 .bss.g_ulStaIp
                0x0000000020014c20        0x4 obj/Debug/network_if.o
                0x0000000020014c20                g_ulStaIp
 .bss.g_ulGatewayIP
                0x0000000020014c24        0x4 obj/Debug/network_if.o
                0x0000000020014c24                g_ulGatewayIP
 .bss.heap_end  0x0000000020014c28        0x4 obj/Debug/startup_gcc.o
 .bss.heap2_end
                0x0000000020014c2c        0x4 obj/Debug/startup_gcc.o
 .bss.pui32Stack
                0x0000000020014c30     0x1000 obj/Debug/startup_gcc.o
 .bss.WS_ORIGIN_NAME
                0x0000000020015c30        0x4 ../../../netapps/http/server/gcc/lib/Debug/libwebserver.a(HttpCore.o)
                0x0000000020015c30                WS_ORIGIN_NAME
 .bss.nullBlob  0x0000000020015c34        0x8 ../../../netapps/http/server/gcc/lib/Debug/libwebserver.a(HttpCore.o)
                0x0000000020015c34                nullBlob
 .bss.g_NumResource
                0x0000000020015c3c        0x4 ../../../netapps/http/server/gcc/lib/Debug/libwebserver.a(HttpDynamic.o)
                0x0000000020015c3c                g_NumResource
 .bss.RecvMore  0x0000000020015c40        0x1 ../../../netapps/http/server/gcc/lib/Debug/libwebserver.a(WebSockHandler.o)
                0x0000000020015c40                RecvMore
 .bss.Ping      0x0000000020015c41        0x1 ../../../netapps/http/server/gcc/lib/Debug/libwebserver.a(WebSockHandler.o)
                0x0000000020015c41                Ping
 .bss.Close     0x0000000020015c42        0x1 ../../../netapps/http/server/gcc/lib/Debug/libwebserver.a(WebSockHandler.o)
                0x0000000020015c42                Close
 *fill*         0x0000000020015c43        0x1 
 .bss.g_SlDeviceStatus
                0x0000000020015c44        0x2 ../../../simplelink/gcc/lib/os/Debug/libsimplelink.a(driver.o)
                0x0000000020015c44                g_SlDeviceStatus
 *fill*         0x0000000020015c46        0x2 
 .bss.g_StatMem
                0x0000000020015c48      0x178 ../../../simplelink/gcc/lib/os/Debug/libsimplelink.a(driver.o)
 .bss.g_pCB     0x0000000020015dc0        0x4 ../../../simplelink/gcc/lib/os/Debug/libsimplelink.a(driver.o)
                0x0000000020015dc0                g_pCB
 .bss.pPingCallBackFunc
                0x0000000020015dc4        0x4 ../../../simplelink/gcc/lib/os/Debug/libsimplelink.a(driver.o)
                0x0000000020015dc4                pPingCallBackFunc
 .bss.gFirstCmdMode
                0x0000000020015dc8        0x1 ../../../simplelink/gcc/lib/os/Debug/libsimplelink.a(driver.o)
 *fill*         0x0000000020015dc9        0x3 
 .bss.g_SpiFd   0x0000000020015dcc        0x4 ../../../simplelink/gcc/lib/os/Debug/libsimplelink.a(cc_pal.o)
                0x0000000020015dcc                g_SpiFd
 .bss.g_ucDMAEnabled
                0x0000000020015dd0        0x1 ../../../simplelink/gcc/lib/os/Debug/libsimplelink.a(cc_pal.o)
                0x0000000020015dd0                g_ucDMAEnabled
 *fill*         0x0000000020015dd1        0x3 
 .bss.xHigherPriorityTaskWoken
                0x0000000020015dd4        0x4 ../../../oslib/gcc/free_rtos/Debug/free_rtos.a(osi_freertos.o)
                0x0000000020015dd4                xHigherPriorityTaskWoken
 .bss.xSimpleLinkSpawnQueue
                0x0000000020015dd8        0x4 ../../../oslib/gcc/free_rtos/Debug/free_rtos.a(osi_freertos.o)
                0x0000000020015dd8                xSimpleLinkSpawnQueue
 .bss.xSimpleLinkSpawnTaskHndl
                0x0000000020015ddc        0x4 ../../../oslib/gcc/free_rtos/Debug/free_rtos.a(osi_freertos.o)
                0x0000000020015ddc                xSimpleLinkSpawnTaskHndl
 .bss.pxCurrentTCB
                0x0000000020015de0        0x4 ../../../oslib/gcc/free_rtos/Debug/free_rtos.a(tasks.o)
                0x0000000020015de0                pxCurrentTCB
 .bss.pxReadyTasksLists
                0x0000000020015de4       0xc8 ../../../oslib/gcc/free_rtos/Debug/free_rtos.a(tasks.o)
 .bss.xDelayedTaskList1
                0x0000000020015eac       0x14 ../../../oslib/gcc/free_rtos/Debug/free_rtos.a(tasks.o)
 .bss.xDelayedTaskList2
                0x0000000020015ec0       0x14 ../../../oslib/gcc/free_rtos/Debug/free_rtos.a(tasks.o)
 .bss.pxDelayedTaskList
                0x0000000020015ed4        0x4 ../../../oslib/gcc/free_rtos/Debug/free_rtos.a(tasks.o)
 .bss.pxOverflowDelayedTaskList
                0x0000000020015ed8        0x4 ../../../oslib/gcc/free_rtos/Debug/free_rtos.a(tasks.o)
 .bss.xPendingReadyList
                0x0000000020015edc       0x14 ../../../oslib/gcc/free_rtos/Debug/free_rtos.a(tasks.o)
 .bss.xTasksWaitingTermination
                0x0000000020015ef0       0x14 ../../../oslib/gcc/free_rtos/Debug/free_rtos.a(tasks.o)
 .bss.uxTasksDeleted
                0x0000000020015f04        0x4 ../../../oslib/gcc/free_rtos/Debug/free_rtos.a(tasks.o)
 .bss.xSuspendedTaskList
                0x0000000020015f08       0x14 ../../../oslib/gcc/free_rtos/Debug/free_rtos.a(tasks.o)
 .bss.xIdleTaskHandle
                0x0000000020015f1c        0x4 ../../../oslib/gcc/free_rtos/Debug/free_rtos.a(tasks.o)
 .bss.uxCurrentNumberOfTasks
                0x0000000020015f20        0x4 ../../../oslib/gcc/free_rtos/Debug/free_rtos.a(tasks.o)
 .bss.xTickCount
                0x0000000020015f24        0x4 ../../../oslib/gcc/free_rtos/Debug/free_rtos.a(tasks.o)
 .bss.uxTopReadyPriority
                0x0000000020015f28        0x4 ../../../oslib/gcc/free_rtos/Debug/free_rtos.a(tasks.o)
 .bss.xSchedulerRunning
                0x0000000020015f2c        0x4 ../../../oslib/gcc/free_rtos/Debug/free_rtos.a(tasks.o)
 .bss.uxPendedTicks
                0x0000000020015f30        0x4 ../../../oslib/gcc/free_rtos/Debug/free_rtos.a(tasks.o)
 .bss.xYieldPending
                0x0000000020015f34        0x4 ../../../oslib/gcc/free_rtos/Debug/free_rtos.a(tasks.o)
 .bss.xNumOfOverflows
                0x0000000020015f38        0x4 ../../../oslib/gcc/free_rtos/Debug/free_rtos.a(tasks.o)
 .bss.uxTaskNumber
                0x0000000020015f3c        0x4 ../../../oslib/gcc/free_rtos/Debug/free_rtos.a(tasks.o)
 .bss.uxSchedulerSuspended
                0x0000000020015f40        0x4 ../../../oslib/gcc/free_rtos/Debug/free_rtos.a(tasks.o)
 .bss.ucMaxSysCallPriority
                0x0000000020015f44        0x1 ../../../oslib/gcc/free_rtos/Debug/free_rtos.a(port.o)
 *fill*         0x0000000020015f45        0x3 
 .bss.ulMaxPRIGROUPValue
                0x0000000020015f48        0x4 ../../../oslib/gcc/free_rtos/Debug/free_rtos.a(port.o)
 .bss.xActiveTimerList1
                0x0000000020015f4c       0x14 ../../../oslib/gcc/free_rtos/Debug/free_rtos.a(timers.o)
 .bss.xActiveTimerList2
                0x0000000020015f60       0x14 ../../../oslib/gcc/free_rtos/Debug/free_rtos.a(timers.o)
 .bss.pxCurrentTimerList
                0x0000000020015f74        0x4 ../../../oslib/gcc/free_rtos/Debug/free_rtos.a(timers.o)
 .bss.pxOverflowTimerList
                0x0000000020015f78        0x4 ../../../oslib/gcc/free_rtos/Debug/free_rtos.a(timers.o)
 .bss.xTimerQueue
                0x0000000020015f7c        0x4 ../../../oslib/gcc/free_rtos/Debug/free_rtos.a(timers.o)
 .bss.xTimerTaskHandle
                0x0000000020015f80        0x4 ../../../oslib/gcc/free_rtos/Debug/free_rtos.a(timers.o)
 .bss.xLastTime.4980
                0x0000000020015f84        0x4 ../../../oslib/gcc/free_rtos/Debug/free_rtos.a(timers.o)
 .bss.__malloc_sbrk_start
                0x0000000020015f88        0x4 /usr/lib/gcc/arm-none-eabi/5.2.0/../../../../arm-none-eabi/lib/armv7e-m/libc_nano.a(lib_a-nano-mallocr.o)
                0x0000000020015f88                __malloc_sbrk_start
 .bss.__malloc_free_list
                0x0000000020015f8c        0x4 /usr/lib/gcc/arm-none-eabi/5.2.0/../../../../arm-none-eabi/lib/armv7e-m/libc_nano.a(lib_a-nano-mallocr.o)
                0x0000000020015f8c                __malloc_free_list
 *(COMMON)
 COMMON         0x0000000020015f90     0xcc08 obj/Debug/camera_app.o
                0x0000000020015f90                g_header_length
                0x0000000020015f94                g_image
                0x0000000020022b94                g_frame_size_in_bytes
 COMMON         0x0000000020022b98        0x6 obj/Debug/httpserverapp.o
                0x0000000020022b98                g_Buffer
                0x0000000020022b9c                g_uConnection
 *fill*         0x0000000020022b9e        0x2 
 COMMON         0x0000000020022ba0       0x2d obj/Debug/network_if.o
                0x0000000020022ba0                g_usConnectIndex
                0x0000000020022ba4                g_ucConnectionBSSID
                0x0000000020022bac                g_ucConnectionSSID
 *fill*         0x0000000020022bcd       0x33 
 COMMON         0x0000000020022c00      0x800 obj/Debug/udma_if.o
                0x0000000020022c00                gfpAppCallbackHndl
                0x0000000020022d00                iDone
                0x0000000020023000                gpCtlTbl
 COMMON         0x0000000020023400     0x15e8 ../../../netapps/http/server/gcc/lib/Debug/libwebserver.a(HttpCore.o)
                0x0000000020023400                g_WaitSyncObj
                0x0000000020023404                WS_KEY
                0x0000000020023420                g_state
 COMMON         0x00000000200249e8       0x78 ../../../netapps/http/server/gcc/lib/Debug/libwebserver.a(HttpDynamic.o)
                0x00000000200249e8                g_RestContent
 COMMON         0x0000000020024a60       0x2c ../../../netapps/http/server/gcc/lib/Debug/libwebserver.a(HttpStatic.o)
                0x0000000020024a60                g_cFileName
                0x0000000020024a88                glFileHandle
 COMMON         0x0000000020024a8c        0x4 ../../../netapps/http/server/gcc/lib/Debug/libwebserver.a(sha1.o)
                0x0000000020024a8c                g_bOutputReadyFlag
                0x0000000020024a8d                g_bInputReadyFlag
                0x0000000020024a8e                g_bContextReadyFlag
                0x0000000020024a8f                g_bParthashReadyFlag
 COMMON         0x0000000020024a90       0x20 ../../../netapps/http/server/gcc/lib/Debug/libwebserver.a(WebSockHandler.o)
                0x0000000020024a90                Mask
                0x0000000020024a94                MaskKey
                0x0000000020024a98                GlobRecvBuf
                0x0000000020024aa0                GlobPayloadLen
                0x0000000020024aa8                GlobRecvLen
 COMMON         0x0000000020024ab0        0x2 ../../../simplelink/gcc/lib/os/Debug/libsimplelink.a(driver.o)
                0x0000000020024ab0                g_bDeviceRestartIsRequired
                0x0000000020024ab1                RxIrqCnt
 *fill*         0x0000000020024ab2        0x2 
 COMMON         0x0000000020024ab4       0x58 ../../../simplelink/gcc/lib/os/Debug/libsimplelink.a(cc_pal.o)
                0x0000000020024ab4                g_cDummy
                0x0000000020024ab8                DMAMsgQ
                0x0000000020024abc                g_ucDinDout
 COMMON         0x0000000020024b0c       0x50 ../../../oslib/gcc/free_rtos/Debug/free_rtos.a(queue.o)
                0x0000000020024b0c                xQueueRegistry
 COMMON         0x0000000020024b5c        0x4 /usr/lib/gcc/arm-none-eabi/5.2.0/../../../../arm-none-eabi/lib/armv7e-m/libc_nano.a(lib_a-reent.o)
                0x0000000020024b5c                errno
                0x0000000020024b60                _ebss = .

.heap           0x0000000020024b60    0x1b4a0
                0x0000000020024b60                _heap = .
                0x000000002003ff30                . = (((((((. + 0x40000) - SIZEOF (.bss)) - SIZEOF (.data)) - SIZEOF (.ARM)) - SIZEOF (.text)) - SIZEOF (.bootloader)) - 0x400)
 *fill*         0x0000000020024b60    0x1b3d0 
                0x0000000020040000                . = ALIGN (0x400)
 *fill*         0x000000002003ff30       0xd0 
                0x0000000020040000                _eheap = .
LOAD obj/Debug/camera_app.o
LOAD obj/Debug/i2cconfig.o
LOAD obj/Debug/mt9d111.o
LOAD obj/Debug/main.o
LOAD obj/Debug/httpserverapp.o
LOAD obj/Debug/pinmux.o
LOAD obj/Debug/uart_if.o
LOAD obj/Debug/network_if.o
LOAD obj/Debug/udma_if.o
LOAD obj/Debug/startup_gcc.o
LOAD ../../../netapps/http/server/gcc/lib/Debug/libwebserver.a
LOAD ../../../simplelink/gcc/lib/os/Debug/libsimplelink.a
LOAD ../../../oslib/gcc/free_rtos/Debug/free_rtos.a
LOAD ../../../driverlib/gcc/lib/Debug/libdriver.a
LOAD /usr/lib/gcc/arm-none-eabi/5.2.0/../../../../arm-none-eabi/lib/armv7e-m/libm.a
LOAD /usr/lib/gcc/arm-none-eabi/5.2.0/../../../../arm-none-eabi/lib/armv7e-m/libc_nano.a
LOAD /usr/lib/gcc/arm-none-eabi/5.2.0/armv7e-m/libgcc.a
LOAD /usr/lib/gcc/arm-none-eabi/5.2.0/../../../../arm-none-eabi/lib/armv7e-m/libnosys.a
OUTPUT(bin/Debug/websock_camera.elf elf32-littlearm)

.debug_info     0x0000000000000000    0x1dfce
 .debug_info    0x0000000000000000      0x6db obj/Debug/camera_app.o
 .debug_info    0x00000000000006db      0x143 obj/Debug/i2cconfig.o
 .debug_info    0x000000000000081e      0x346 obj/Debug/mt9d111.o
 .debug_info    0x0000000000000b64       0xec obj/Debug/main.o
 .debug_info    0x0000000000000c50      0x27a obj/Debug/httpserverapp.o
 .debug_info    0x0000000000000eca       0x45 obj/Debug/pinmux.o
 .debug_info    0x0000000000000f0f      0x2ac obj/Debug/uart_if.o
 .debug_info    0x00000000000011bb     0x1191 obj/Debug/network_if.o
 .debug_info    0x000000000000234c      0x377 obj/Debug/udma_if.o
 .debug_info    0x00000000000026c3      0x20f obj/Debug/startup_gcc.o
 .debug_info    0x00000000000028d2      0xeaa ../../../netapps/http/server/gcc/lib/Debug/libwebserver.a(HttpCore.o)
 .debug_info    0x000000000000377c       0x87 ../../../netapps/http/server/gcc/lib/Debug/libwebserver.a(HttpDebug.o)
 .debug_info    0x0000000000003803      0x275 ../../../netapps/http/server/gcc/lib/Debug/libwebserver.a(HttpDynamic.o)
 .debug_info    0x0000000000003a78      0x3ac ../../../netapps/http/server/gcc/lib/Debug/libwebserver.a(HttpSocket.o)
 .debug_info    0x0000000000003e24      0x2b9 ../../../netapps/http/server/gcc/lib/Debug/libwebserver.a(HttpStatic.o)
 .debug_info    0x00000000000040dd      0x390 ../../../netapps/http/server/gcc/lib/Debug/libwebserver.a(HttpString.o)
 .debug_info    0x000000000000446d      0x19c ../../../netapps/http/server/gcc/lib/Debug/libwebserver.a(sha1.o)
 .debug_info    0x0000000000004609      0x463 ../../../netapps/http/server/gcc/lib/Debug/libwebserver.a(WebSockHandler.o)
 .debug_info    0x0000000000004a6c       0xfb ../../../netapps/http/server/gcc/lib/Debug/libwebserver.a(base64.o)
 .debug_info    0x0000000000004b67      0xf4e ../../../simplelink/gcc/lib/os/Debug/libsimplelink.a(device.o)
 .debug_info    0x0000000000005ab5     0x1bd5 ../../../simplelink/gcc/lib/os/Debug/libsimplelink.a(driver.o)
 .debug_info    0x000000000000768a     0x1943 ../../../simplelink/gcc/lib/os/Debug/libsimplelink.a(netapp.o)
 .debug_info    0x0000000000008fcd      0x3ec ../../../simplelink/gcc/lib/os/Debug/libsimplelink.a(netcfg.o)
 .debug_info    0x00000000000093b9      0x9af ../../../simplelink/gcc/lib/os/Debug/libsimplelink.a(fs.o)
 .debug_info    0x0000000000009d68     0x1a88 ../../../simplelink/gcc/lib/os/Debug/libsimplelink.a(socket.o)
 .debug_info    0x000000000000b7f0     0x1aaa ../../../simplelink/gcc/lib/os/Debug/libsimplelink.a(wlan.o)
 .debug_info    0x000000000000d29a      0x6db ../../../simplelink/gcc/lib/os/Debug/libsimplelink.a(cc_pal.o)
 .debug_info    0x000000000000d975      0x8d9 ../../../oslib/gcc/free_rtos/Debug/free_rtos.a(osi_freertos.o)
 .debug_info    0x000000000000e24e      0xd88 ../../../oslib/gcc/free_rtos/Debug/free_rtos.a(queue.o)
 .debug_info    0x000000000000efd6     0x1790 ../../../oslib/gcc/free_rtos/Debug/free_rtos.a(tasks.o)
 .debug_info    0x0000000000010766      0x317 ../../../oslib/gcc/free_rtos/Debug/free_rtos.a(port.o)
 .debug_info    0x0000000000010a7d      0x9f1 ../../../oslib/gcc/free_rtos/Debug/free_rtos.a(timers.o)
 .debug_info    0x000000000001146e       0xed ../../../oslib/gcc/free_rtos/Debug/free_rtos.a(heap_3.o)
 .debug_info    0x000000000001155b      0x29d ../../../oslib/gcc/free_rtos/Debug/free_rtos.a(list.o)
 .debug_info    0x00000000000117f8      0x3e2 ../../../driverlib/gcc/lib/Debug/libdriver.a(camera.o)
 .debug_info    0x0000000000011bda      0xba8 ../../../driverlib/gcc/lib/Debug/libdriver.a(i2c.o)
 .debug_info    0x0000000000012782      0x383 ../../../driverlib/gcc/lib/Debug/libdriver.a(interrupt.o)
 .debug_info    0x0000000000012b05      0x3eb ../../../driverlib/gcc/lib/Debug/libdriver.a(pin.o)
 .debug_info    0x0000000000012ef0      0xa3d ../../../driverlib/gcc/lib/Debug/libdriver.a(prcm.o)
 .debug_info    0x000000000001392d      0x597 ../../../driverlib/gcc/lib/Debug/libdriver.a(shamd5.o)
 .debug_info    0x0000000000013ec4      0x9be ../../../driverlib/gcc/lib/Debug/libdriver.a(spi.o)
 .debug_info    0x0000000000014882      0x5c1 ../../../driverlib/gcc/lib/Debug/libdriver.a(timer.o)
 .debug_info    0x0000000000014e43      0x82e ../../../driverlib/gcc/lib/Debug/libdriver.a(uart.o)
 .debug_info    0x0000000000015671      0x53f ../../../driverlib/gcc/lib/Debug/libdriver.a(udma.o)
 .debug_info    0x0000000000015bb0       0x50 ../../../driverlib/gcc/lib/Debug/libdriver.a(utils.o)
 .debug_info    0x0000000000015c00       0xfe ../../../driverlib/gcc/lib/Debug/libdriver.a(cpu.o)
 .debug_info    0x0000000000015cfe      0x7c5 /usr/lib/gcc/arm-none-eabi/5.2.0/../../../../arm-none-eabi/lib/armv7e-m/libc_nano.a(lib_a-atoi.o)
 .debug_info    0x00000000000164c3      0x7b2 /usr/lib/gcc/arm-none-eabi/5.2.0/../../../../arm-none-eabi/lib/armv7e-m/libc_nano.a(lib_a-malloc.o)
 .debug_info    0x0000000000016c75       0xff /usr/lib/gcc/arm-none-eabi/5.2.0/../../../../arm-none-eabi/lib/armv7e-m/libc_nano.a(lib_a-memchr.o)
 .debug_info    0x0000000000016d74       0xf8 /usr/lib/gcc/arm-none-eabi/5.2.0/../../../../arm-none-eabi/lib/armv7e-m/libc_nano.a(lib_a-memcmp.o)
 .debug_info    0x0000000000016e6c      0x115 /usr/lib/gcc/arm-none-eabi/5.2.0/../../../../arm-none-eabi/lib/armv7e-m/libc_nano.a(lib_a-memcpy.o)
 .debug_info    0x0000000000016f81      0x109 /usr/lib/gcc/arm-none-eabi/5.2.0/../../../../arm-none-eabi/lib/armv7e-m/libc_nano.a(lib_a-memmove.o)
 .debug_info    0x000000000001708a       0xda /usr/lib/gcc/arm-none-eabi/5.2.0/../../../../arm-none-eabi/lib/armv7e-m/libc_nano.a(lib_a-memset.o)
 .debug_info    0x0000000000017164      0x821 /usr/lib/gcc/arm-none-eabi/5.2.0/../../../../arm-none-eabi/lib/armv7e-m/libc_nano.a(lib_a-nano-freer.o)
 .debug_info    0x0000000000017985      0x8ec /usr/lib/gcc/arm-none-eabi/5.2.0/../../../../arm-none-eabi/lib/armv7e-m/libc_nano.a(lib_a-nano-mallocr.o)
 .debug_info    0x0000000000018271      0x786 /usr/lib/gcc/arm-none-eabi/5.2.0/../../../../arm-none-eabi/lib/armv7e-m/libc_nano.a(lib_a-realloc.o)
 .debug_info    0x00000000000189f7      0x7a1 /usr/lib/gcc/arm-none-eabi/5.2.0/../../../../arm-none-eabi/lib/armv7e-m/libc_nano.a(lib_a-sbrkr.o)
 .debug_info    0x0000000000019198       0xc4 /usr/lib/gcc/arm-none-eabi/5.2.0/../../../../arm-none-eabi/lib/armv7e-m/libc_nano.a(lib_a-strcmp.o)
 .debug_info    0x000000000001925c       0xc4 /usr/lib/gcc/arm-none-eabi/5.2.0/../../../../arm-none-eabi/lib/armv7e-m/libc_nano.a(lib_a-strcpy.o)
 .debug_info    0x0000000000019320       0xd4 /usr/lib/gcc/arm-none-eabi/5.2.0/../../../../arm-none-eabi/lib/armv7e-m/libc_nano.a(lib_a-strlen.o)
 .debug_info    0x00000000000193f4       0xf5 /usr/lib/gcc/arm-none-eabi/5.2.0/../../../../arm-none-eabi/lib/armv7e-m/libc_nano.a(lib_a-strncat.o)
 .debug_info    0x00000000000194e9      0x864 /usr/lib/gcc/arm-none-eabi/5.2.0/../../../../arm-none-eabi/lib/armv7e-m/libc_nano.a(lib_a-strtol.o)
 .debug_info    0x0000000000019d4d      0x892 /usr/lib/gcc/arm-none-eabi/5.2.0/../../../../arm-none-eabi/lib/armv7e-m/libc_nano.a(lib_a-vsnprintf.o)
 .debug_info    0x000000000001a5df       0x6f /usr/lib/gcc/arm-none-eabi/5.2.0/../../../../arm-none-eabi/lib/armv7e-m/libc_nano.a(lib_a-ctype_.o)
 .debug_info    0x000000000001a64e      0x7da /usr/lib/gcc/arm-none-eabi/5.2.0/../../../../arm-none-eabi/lib/armv7e-m/libc_nano.a(lib_a-impure.o)
 .debug_info    0x000000000001ae28      0x878 /usr/lib/gcc/arm-none-eabi/5.2.0/../../../../arm-none-eabi/lib/armv7e-m/libc_nano.a(lib_a-nano-reallocr.o)
 .debug_info    0x000000000001b6a0      0xd40 /usr/lib/gcc/arm-none-eabi/5.2.0/../../../../arm-none-eabi/lib/armv7e-m/libc_nano.a(lib_a-nano-svfprintf.o)
 .debug_info    0x000000000001c3e0      0xb33 /usr/lib/gcc/arm-none-eabi/5.2.0/../../../../arm-none-eabi/lib/armv7e-m/libc_nano.a(lib_a-nano-vfprintf_i.o)
 .debug_info    0x000000000001cf13      0x8fb /usr/lib/gcc/arm-none-eabi/5.2.0/../../../../arm-none-eabi/lib/armv7e-m/libc_nano.a(lib_a-reent.o)
 .debug_info    0x000000000001d80e      0x7c0 /usr/lib/gcc/arm-none-eabi/5.2.0/../../../../arm-none-eabi/lib/armv7e-m/libc_nano.a(lib_a-nano-msizer.o)

.debug_abbrev   0x0000000000000000     0x5baa
 .debug_abbrev  0x0000000000000000      0x17d obj/Debug/camera_app.o
 .debug_abbrev  0x000000000000017d       0x9f obj/Debug/i2cconfig.o
 .debug_abbrev  0x000000000000021c      0x110 obj/Debug/mt9d111.o
 .debug_abbrev  0x000000000000032c       0xb5 obj/Debug/main.o
 .debug_abbrev  0x00000000000003e1      0x127 obj/Debug/httpserverapp.o
 .debug_abbrev  0x0000000000000508       0x37 obj/Debug/pinmux.o
 .debug_abbrev  0x000000000000053f      0x147 obj/Debug/uart_if.o
 .debug_abbrev  0x0000000000000686      0x2f7 obj/Debug/network_if.o
 .debug_abbrev  0x000000000000097d      0x140 obj/Debug/udma_if.o
 .debug_abbrev  0x0000000000000abd      0x10b obj/Debug/startup_gcc.o
 .debug_abbrev  0x0000000000000bc8      0x242 ../../../netapps/http/server/gcc/lib/Debug/libwebserver.a(HttpCore.o)
 .debug_abbrev  0x0000000000000e0a       0x63 ../../../netapps/http/server/gcc/lib/Debug/libwebserver.a(HttpDebug.o)
 .debug_abbrev  0x0000000000000e6d       0xfd ../../../netapps/http/server/gcc/lib/Debug/libwebserver.a(HttpDynamic.o)
 .debug_abbrev  0x0000000000000f6a       0xe0 ../../../netapps/http/server/gcc/lib/Debug/libwebserver.a(HttpSocket.o)
 .debug_abbrev  0x000000000000104a       0xed ../../../netapps/http/server/gcc/lib/Debug/libwebserver.a(HttpStatic.o)
 .debug_abbrev  0x0000000000001137      0x114 ../../../netapps/http/server/gcc/lib/Debug/libwebserver.a(HttpString.o)
 .debug_abbrev  0x000000000000124b       0xac ../../../netapps/http/server/gcc/lib/Debug/libwebserver.a(sha1.o)
 .debug_abbrev  0x00000000000012f7      0x14e ../../../netapps/http/server/gcc/lib/Debug/libwebserver.a(WebSockHandler.o)
 .debug_abbrev  0x0000000000001445       0x8d ../../../netapps/http/server/gcc/lib/Debug/libwebserver.a(base64.o)
 .debug_abbrev  0x00000000000014d2      0x25e ../../../simplelink/gcc/lib/os/Debug/libsimplelink.a(device.o)
 .debug_abbrev  0x0000000000001730      0x28e ../../../simplelink/gcc/lib/os/Debug/libsimplelink.a(driver.o)
 .debug_abbrev  0x00000000000019be      0x29d ../../../simplelink/gcc/lib/os/Debug/libsimplelink.a(netapp.o)
 .debug_abbrev  0x0000000000001c5b      0x142 ../../../simplelink/gcc/lib/os/Debug/libsimplelink.a(netcfg.o)
 .debug_abbrev  0x0000000000001d9d      0x21a ../../../simplelink/gcc/lib/os/Debug/libsimplelink.a(fs.o)
 .debug_abbrev  0x0000000000001fb7      0x2d4 ../../../simplelink/gcc/lib/os/Debug/libsimplelink.a(socket.o)
 .debug_abbrev  0x000000000000228b      0x252 ../../../simplelink/gcc/lib/os/Debug/libsimplelink.a(wlan.o)
 .debug_abbrev  0x00000000000024dd      0x1bd ../../../simplelink/gcc/lib/os/Debug/libsimplelink.a(cc_pal.o)
 .debug_abbrev  0x000000000000269a      0x207 ../../../oslib/gcc/free_rtos/Debug/free_rtos.a(osi_freertos.o)
 .debug_abbrev  0x00000000000028a1      0x18f ../../../oslib/gcc/free_rtos/Debug/free_rtos.a(queue.o)
 .debug_abbrev  0x0000000000002a30      0x2a3 ../../../oslib/gcc/free_rtos/Debug/free_rtos.a(tasks.o)
 .debug_abbrev  0x0000000000002cd3      0x1a4 ../../../oslib/gcc/free_rtos/Debug/free_rtos.a(port.o)
 .debug_abbrev  0x0000000000002e77      0x1c5 ../../../oslib/gcc/free_rtos/Debug/free_rtos.a(timers.o)
 .debug_abbrev  0x000000000000303c       0xb9 ../../../oslib/gcc/free_rtos/Debug/free_rtos.a(heap_3.o)
 .debug_abbrev  0x00000000000030f5       0xbe ../../../oslib/gcc/free_rtos/Debug/free_rtos.a(list.o)
 .debug_abbrev  0x00000000000031b3       0xf1 ../../../driverlib/gcc/lib/Debug/libdriver.a(camera.o)
 .debug_abbrev  0x00000000000032a4      0x120 ../../../driverlib/gcc/lib/Debug/libdriver.a(i2c.o)
 .debug_abbrev  0x00000000000033c4      0x145 ../../../driverlib/gcc/lib/Debug/libdriver.a(interrupt.o)
 .debug_abbrev  0x0000000000003509       0xf4 ../../../driverlib/gcc/lib/Debug/libdriver.a(pin.o)
 .debug_abbrev  0x00000000000035fd      0x1cc ../../../driverlib/gcc/lib/Debug/libdriver.a(prcm.o)
 .debug_abbrev  0x00000000000037c9      0x155 ../../../driverlib/gcc/lib/Debug/libdriver.a(shamd5.o)
 .debug_abbrev  0x000000000000391e      0x131 ../../../driverlib/gcc/lib/Debug/libdriver.a(spi.o)
 .debug_abbrev  0x0000000000003a4f       0xde ../../../driverlib/gcc/lib/Debug/libdriver.a(timer.o)
 .debug_abbrev  0x0000000000003b2d      0x131 ../../../driverlib/gcc/lib/Debug/libdriver.a(uart.o)
 .debug_abbrev  0x0000000000003c5e      0x182 ../../../driverlib/gcc/lib/Debug/libdriver.a(udma.o)
 .debug_abbrev  0x0000000000003de0       0x48 ../../../driverlib/gcc/lib/Debug/libdriver.a(utils.o)
 .debug_abbrev  0x0000000000003e28       0xb4 ../../../driverlib/gcc/lib/Debug/libdriver.a(cpu.o)
 .debug_abbrev  0x0000000000003edc      0x15f /usr/lib/gcc/arm-none-eabi/5.2.0/../../../../arm-none-eabi/lib/armv7e-m/libc_nano.a(lib_a-atoi.o)
 .debug_abbrev  0x000000000000403b      0x18a /usr/lib/gcc/arm-none-eabi/5.2.0/../../../../arm-none-eabi/lib/armv7e-m/libc_nano.a(lib_a-malloc.o)
 .debug_abbrev  0x00000000000041c5       0xab /usr/lib/gcc/arm-none-eabi/5.2.0/../../../../arm-none-eabi/lib/armv7e-m/libc_nano.a(lib_a-memchr.o)
 .debug_abbrev  0x0000000000004270       0x7f /usr/lib/gcc/arm-none-eabi/5.2.0/../../../../arm-none-eabi/lib/armv7e-m/libc_nano.a(lib_a-memcmp.o)
 .debug_abbrev  0x00000000000042ef       0xab /usr/lib/gcc/arm-none-eabi/5.2.0/../../../../arm-none-eabi/lib/armv7e-m/libc_nano.a(lib_a-memcpy.o)
 .debug_abbrev  0x000000000000439a       0x9c /usr/lib/gcc/arm-none-eabi/5.2.0/../../../../arm-none-eabi/lib/armv7e-m/libc_nano.a(lib_a-memmove.o)
 .debug_abbrev  0x0000000000004436       0x8e /usr/lib/gcc/arm-none-eabi/5.2.0/../../../../arm-none-eabi/lib/armv7e-m/libc_nano.a(lib_a-memset.o)
 .debug_abbrev  0x00000000000044c4      0x1b6 /usr/lib/gcc/arm-none-eabi/5.2.0/../../../../arm-none-eabi/lib/armv7e-m/libc_nano.a(lib_a-nano-freer.o)
 .debug_abbrev  0x000000000000467a      0x24e /usr/lib/gcc/arm-none-eabi/5.2.0/../../../../arm-none-eabi/lib/armv7e-m/libc_nano.a(lib_a-nano-mallocr.o)
 .debug_abbrev  0x00000000000048c8      0x17f /usr/lib/gcc/arm-none-eabi/5.2.0/../../../../arm-none-eabi/lib/armv7e-m/libc_nano.a(lib_a-realloc.o)
 .debug_abbrev  0x0000000000004a47      0x1a0 /usr/lib/gcc/arm-none-eabi/5.2.0/../../../../arm-none-eabi/lib/armv7e-m/libc_nano.a(lib_a-sbrkr.o)
 .debug_abbrev  0x0000000000004be7       0x14 /usr/lib/gcc/arm-none-eabi/5.2.0/../../../../arm-none-eabi/lib/armv7e-m/libc_nano.a(lib_a-strcmp.o)
 .debug_abbrev  0x0000000000004bfb       0x72 /usr/lib/gcc/arm-none-eabi/5.2.0/../../../../arm-none-eabi/lib/armv7e-m/libc_nano.a(lib_a-strcpy.o)
 .debug_abbrev  0x0000000000004c6d       0x8c /usr/lib/gcc/arm-none-eabi/5.2.0/../../../../arm-none-eabi/lib/armv7e-m/libc_nano.a(lib_a-strlen.o)
 .debug_abbrev  0x0000000000004cf9       0x88 /usr/lib/gcc/arm-none-eabi/5.2.0/../../../../arm-none-eabi/lib/armv7e-m/libc_nano.a(lib_a-strncat.o)
 .debug_abbrev  0x0000000000004d81      0x1b3 /usr/lib/gcc/arm-none-eabi/5.2.0/../../../../arm-none-eabi/lib/armv7e-m/libc_nano.a(lib_a-strtol.o)
 .debug_abbrev  0x0000000000004f34      0x1bd /usr/lib/gcc/arm-none-eabi/5.2.0/../../../../arm-none-eabi/lib/armv7e-m/libc_nano.a(lib_a-vsnprintf.o)
 .debug_abbrev  0x00000000000050f1       0x4e /usr/lib/gcc/arm-none-eabi/5.2.0/../../../../arm-none-eabi/lib/armv7e-m/libc_nano.a(lib_a-ctype_.o)
 .debug_abbrev  0x000000000000513f      0x136 /usr/lib/gcc/arm-none-eabi/5.2.0/../../../../arm-none-eabi/lib/armv7e-m/libc_nano.a(lib_a-impure.o)
 .debug_abbrev  0x0000000000005275      0x1af /usr/lib/gcc/arm-none-eabi/5.2.0/../../../../arm-none-eabi/lib/armv7e-m/libc_nano.a(lib_a-nano-reallocr.o)
 .debug_abbrev  0x0000000000005424      0x23f /usr/lib/gcc/arm-none-eabi/5.2.0/../../../../arm-none-eabi/lib/armv7e-m/libc_nano.a(lib_a-nano-svfprintf.o)
 .debug_abbrev  0x0000000000005663      0x1f4 /usr/lib/gcc/arm-none-eabi/5.2.0/../../../../arm-none-eabi/lib/armv7e-m/libc_nano.a(lib_a-nano-vfprintf_i.o)
 .debug_abbrev  0x0000000000005857      0x1f2 /usr/lib/gcc/arm-none-eabi/5.2.0/../../../../arm-none-eabi/lib/armv7e-m/libc_nano.a(lib_a-reent.o)
 .debug_abbrev  0x0000000000005a49      0x161 /usr/lib/gcc/arm-none-eabi/5.2.0/../../../../arm-none-eabi/lib/armv7e-m/libc_nano.a(lib_a-nano-msizer.o)

.debug_aranges  0x0000000000000000     0x1e48
 .debug_aranges
                0x0000000000000000       0x90 obj/Debug/camera_app.o
 .debug_aranges
                0x0000000000000090       0x30 obj/Debug/i2cconfig.o
 .debug_aranges
                0x00000000000000c0       0x38 obj/Debug/mt9d111.o
 .debug_aranges
                0x00000000000000f8       0x30 obj/Debug/main.o
 .debug_aranges
                0x0000000000000128       0x40 obj/Debug/httpserverapp.o
 .debug_aranges
                0x0000000000000168       0x20 obj/Debug/pinmux.o
 .debug_aranges
                0x0000000000000188       0x50 obj/Debug/uart_if.o
 .debug_aranges
                0x00000000000001d8       0xc8 obj/Debug/network_if.o
 .debug_aranges
                0x00000000000002a0       0x68 obj/Debug/udma_if.o
 .debug_aranges
                0x0000000000000308       0x48 obj/Debug/startup_gcc.o
 .debug_aranges
                0x0000000000000350       0xf0 ../../../netapps/http/server/gcc/lib/Debug/libwebserver.a(HttpCore.o)
 .debug_aranges
                0x0000000000000440       0x28 ../../../netapps/http/server/gcc/lib/Debug/libwebserver.a(HttpDebug.o)
 .debug_aranges
                0x0000000000000468       0x30 ../../../netapps/http/server/gcc/lib/Debug/libwebserver.a(HttpDynamic.o)
 .debug_aranges
                0x0000000000000498       0x48 ../../../netapps/http/server/gcc/lib/Debug/libwebserver.a(HttpSocket.o)
 .debug_aranges
                0x00000000000004e0       0x28 ../../../netapps/http/server/gcc/lib/Debug/libwebserver.a(HttpStatic.o)
 .debug_aranges
                0x0000000000000508       0x50 ../../../netapps/http/server/gcc/lib/Debug/libwebserver.a(HttpString.o)
 .debug_aranges
                0x0000000000000558       0x30 ../../../netapps/http/server/gcc/lib/Debug/libwebserver.a(sha1.o)
 .debug_aranges
                0x0000000000000588       0x38 ../../../netapps/http/server/gcc/lib/Debug/libwebserver.a(WebSockHandler.o)
 .debug_aranges
                0x00000000000005c0       0x20 ../../../netapps/http/server/gcc/lib/Debug/libwebserver.a(base64.o)
 .debug_aranges
                0x00000000000005e0       0x70 ../../../simplelink/gcc/lib/os/Debug/libsimplelink.a(device.o)
 .debug_aranges
                0x0000000000000650      0x130 ../../../simplelink/gcc/lib/os/Debug/libsimplelink.a(driver.o)
 .debug_aranges
                0x0000000000000780       0xa8 ../../../simplelink/gcc/lib/os/Debug/libsimplelink.a(netapp.o)
 .debug_aranges
                0x0000000000000828       0x28 ../../../simplelink/gcc/lib/os/Debug/libsimplelink.a(netcfg.o)
 .debug_aranges
                0x0000000000000850       0x58 ../../../simplelink/gcc/lib/os/Debug/libsimplelink.a(fs.o)
 .debug_aranges
                0x00000000000008a8       0xe0 ../../../simplelink/gcc/lib/os/Debug/libsimplelink.a(socket.o)
 .debug_aranges
                0x0000000000000988       0xb0 ../../../simplelink/gcc/lib/os/Debug/libsimplelink.a(wlan.o)
 .debug_aranges
                0x0000000000000a38       0xc0 ../../../simplelink/gcc/lib/os/Debug/libsimplelink.a(cc_pal.o)
 .debug_aranges
                0x0000000000000af8      0x128 ../../../oslib/gcc/free_rtos/Debug/free_rtos.a(osi_freertos.o)
 .debug_aranges
                0x0000000000000c20      0x120 ../../../oslib/gcc/free_rtos/Debug/free_rtos.a(queue.o)
 .debug_aranges
                0x0000000000000d40      0x1e8 ../../../oslib/gcc/free_rtos/Debug/free_rtos.a(tasks.o)
 .debug_aranges
                0x0000000000000f28       0x90 ../../../oslib/gcc/free_rtos/Debug/free_rtos.a(port.o)
 .debug_aranges
                0x0000000000000fb8       0xb0 ../../../oslib/gcc/free_rtos/Debug/free_rtos.a(timers.o)
 .debug_aranges
                0x0000000000001068       0x28 ../../../oslib/gcc/free_rtos/Debug/free_rtos.a(heap_3.o)
 .debug_aranges
                0x0000000000001090       0x40 ../../../oslib/gcc/free_rtos/Debug/free_rtos.a(list.o)
 .debug_aranges
                0x00000000000010d0       0x98 ../../../driverlib/gcc/lib/Debug/libdriver.a(camera.o)
 .debug_aranges
                0x0000000000001168      0x1c8 ../../../driverlib/gcc/lib/Debug/libdriver.a(i2c.o)
 .debug_aranges
                0x0000000000001330       0x98 ../../../driverlib/gcc/lib/Debug/libdriver.a(interrupt.o)
 .debug_aranges
                0x00000000000013c8       0x90 ../../../driverlib/gcc/lib/Debug/libdriver.a(pin.o)
 .debug_aranges
                0x0000000000001458      0x1b8 ../../../driverlib/gcc/lib/Debug/libdriver.a(prcm.o)
 .debug_aranges
                0x0000000000001610       0xb0 ../../../driverlib/gcc/lib/Debug/libdriver.a(shamd5.o)
 .debug_aranges
                0x00000000000016c0      0x100 ../../../driverlib/gcc/lib/Debug/libdriver.a(spi.o)
 .debug_aranges
                0x00000000000017c0       0xd8 ../../../driverlib/gcc/lib/Debug/libdriver.a(timer.o)
 .debug_aranges
                0x0000000000001898      0x140 ../../../driverlib/gcc/lib/Debug/libdriver.a(uart.o)
 .debug_aranges
                0x00000000000019d8       0xd8 ../../../driverlib/gcc/lib/Debug/libdriver.a(udma.o)
 .debug_aranges
                0x0000000000001ab0       0x20 ../../../driverlib/gcc/lib/Debug/libdriver.a(utils.o)
 .debug_aranges
                0x0000000000001ad0       0x48 ../../../driverlib/gcc/lib/Debug/libdriver.a(cpu.o)
 .debug_aranges
                0x0000000000001b18       0x28 /usr/lib/gcc/arm-none-eabi/5.2.0/../../../../arm-none-eabi/lib/armv7e-m/libc_nano.a(lib_a-atoi.o)
 .debug_aranges
                0x0000000000001b40       0x28 /usr/lib/gcc/arm-none-eabi/5.2.0/../../../../arm-none-eabi/lib/armv7e-m/libc_nano.a(lib_a-malloc.o)
 .debug_aranges
                0x0000000000001b68       0x20 /usr/lib/gcc/arm-none-eabi/5.2.0/../../../../arm-none-eabi/lib/armv7e-m/libc_nano.a(lib_a-memchr.o)
 .debug_aranges
                0x0000000000001b88       0x20 /usr/lib/gcc/arm-none-eabi/5.2.0/../../../../arm-none-eabi/lib/armv7e-m/libc_nano.a(lib_a-memcmp.o)
 .debug_aranges
                0x0000000000001ba8       0x20 /usr/lib/gcc/arm-none-eabi/5.2.0/../../../../arm-none-eabi/lib/armv7e-m/libc_nano.a(lib_a-memcpy.o)
 .debug_aranges
                0x0000000000001bc8       0x20 /usr/lib/gcc/arm-none-eabi/5.2.0/../../../../arm-none-eabi/lib/armv7e-m/libc_nano.a(lib_a-memmove.o)
 .debug_aranges
                0x0000000000001be8       0x20 /usr/lib/gcc/arm-none-eabi/5.2.0/../../../../arm-none-eabi/lib/armv7e-m/libc_nano.a(lib_a-memset.o)
 .debug_aranges
                0x0000000000001c08       0x20 /usr/lib/gcc/arm-none-eabi/5.2.0/../../../../arm-none-eabi/lib/armv7e-m/libc_nano.a(lib_a-nano-freer.o)
 .debug_aranges
                0x0000000000001c28       0x20 /usr/lib/gcc/arm-none-eabi/5.2.0/../../../../arm-none-eabi/lib/armv7e-m/libc_nano.a(lib_a-nano-mallocr.o)
 .debug_aranges
                0x0000000000001c48       0x20 /usr/lib/gcc/arm-none-eabi/5.2.0/../../../../arm-none-eabi/lib/armv7e-m/libc_nano.a(lib_a-realloc.o)
 .debug_aranges
                0x0000000000001c68       0x20 /usr/lib/gcc/arm-none-eabi/5.2.0/../../../../arm-none-eabi/lib/armv7e-m/libc_nano.a(lib_a-sbrkr.o)
 .debug_aranges
                0x0000000000001c88       0x20 /usr/lib/gcc/arm-none-eabi/5.2.0/../../../../arm-none-eabi/lib/armv7e-m/libc_nano.a(lib_a-strcmp.o)
 .debug_aranges
                0x0000000000001ca8       0x20 /usr/lib/gcc/arm-none-eabi/5.2.0/../../../../arm-none-eabi/lib/armv7e-m/libc_nano.a(lib_a-strcpy.o)
 .debug_aranges
                0x0000000000001cc8       0x20 /usr/lib/gcc/arm-none-eabi/5.2.0/../../../../arm-none-eabi/lib/armv7e-m/libc_nano.a(lib_a-strlen.o)
 .debug_aranges
                0x0000000000001ce8       0x20 /usr/lib/gcc/arm-none-eabi/5.2.0/../../../../arm-none-eabi/lib/armv7e-m/libc_nano.a(lib_a-strncat.o)
 .debug_aranges
                0x0000000000001d08       0x28 /usr/lib/gcc/arm-none-eabi/5.2.0/../../../../arm-none-eabi/lib/armv7e-m/libc_nano.a(lib_a-strtol.o)
 .debug_aranges
                0x0000000000001d30       0x28 /usr/lib/gcc/arm-none-eabi/5.2.0/../../../../arm-none-eabi/lib/armv7e-m/libc_nano.a(lib_a-vsnprintf.o)
 .debug_aranges
                0x0000000000001d58       0x18 /usr/lib/gcc/arm-none-eabi/5.2.0/../../../../arm-none-eabi/lib/armv7e-m/libc_nano.a(lib_a-ctype_.o)
 .debug_aranges
                0x0000000000001d70       0x18 /usr/lib/gcc/arm-none-eabi/5.2.0/../../../../arm-none-eabi/lib/armv7e-m/libc_nano.a(lib_a-impure.o)
 .debug_aranges
                0x0000000000001d88       0x20 /usr/lib/gcc/arm-none-eabi/5.2.0/../../../../arm-none-eabi/lib/armv7e-m/libc_nano.a(lib_a-nano-reallocr.o)
 .debug_aranges
                0x0000000000001da8       0x30 /usr/lib/gcc/arm-none-eabi/5.2.0/../../../../arm-none-eabi/lib/armv7e-m/libc_nano.a(lib_a-nano-svfprintf.o)
 .debug_aranges
                0x0000000000001dd8       0x28 /usr/lib/gcc/arm-none-eabi/5.2.0/../../../../arm-none-eabi/lib/armv7e-m/libc_nano.a(lib_a-nano-vfprintf_i.o)
 .debug_aranges
                0x0000000000001e00       0x28 /usr/lib/gcc/arm-none-eabi/5.2.0/../../../../arm-none-eabi/lib/armv7e-m/libc_nano.a(lib_a-reent.o)
 .debug_aranges
                0x0000000000001e28       0x20 /usr/lib/gcc/arm-none-eabi/5.2.0/../../../../arm-none-eabi/lib/armv7e-m/libc_nano.a(lib_a-nano-msizer.o)

.debug_ranges   0x0000000000000000     0x1a90
 .debug_ranges  0x0000000000000000       0x80 obj/Debug/camera_app.o
 .debug_ranges  0x0000000000000080       0x20 obj/Debug/i2cconfig.o
 .debug_ranges  0x00000000000000a0       0x28 obj/Debug/mt9d111.o
 .debug_ranges  0x00000000000000c8       0x20 obj/Debug/main.o
 .debug_ranges  0x00000000000000e8       0x30 obj/Debug/httpserverapp.o
 .debug_ranges  0x0000000000000118       0x10 obj/Debug/pinmux.o
 .debug_ranges  0x0000000000000128       0x40 obj/Debug/uart_if.o
 .debug_ranges  0x0000000000000168       0xb8 obj/Debug/network_if.o
 .debug_ranges  0x0000000000000220       0x58 obj/Debug/udma_if.o
 .debug_ranges  0x0000000000000278       0x38 obj/Debug/startup_gcc.o
 .debug_ranges  0x00000000000002b0       0xe0 ../../../netapps/http/server/gcc/lib/Debug/libwebserver.a(HttpCore.o)
 .debug_ranges  0x0000000000000390       0x18 ../../../netapps/http/server/gcc/lib/Debug/libwebserver.a(HttpDebug.o)
 .debug_ranges  0x00000000000003a8       0x20 ../../../netapps/http/server/gcc/lib/Debug/libwebserver.a(HttpDynamic.o)
 .debug_ranges  0x00000000000003c8       0x38 ../../../netapps/http/server/gcc/lib/Debug/libwebserver.a(HttpSocket.o)
 .debug_ranges  0x0000000000000400       0x18 ../../../netapps/http/server/gcc/lib/Debug/libwebserver.a(HttpStatic.o)
 .debug_ranges  0x0000000000000418       0x40 ../../../netapps/http/server/gcc/lib/Debug/libwebserver.a(HttpString.o)
 .debug_ranges  0x0000000000000458       0x20 ../../../netapps/http/server/gcc/lib/Debug/libwebserver.a(sha1.o)
 .debug_ranges  0x0000000000000478       0x28 ../../../netapps/http/server/gcc/lib/Debug/libwebserver.a(WebSockHandler.o)
 .debug_ranges  0x00000000000004a0       0x10 ../../../netapps/http/server/gcc/lib/Debug/libwebserver.a(base64.o)
 .debug_ranges  0x00000000000004b0       0x60 ../../../simplelink/gcc/lib/os/Debug/libsimplelink.a(device.o)
 .debug_ranges  0x0000000000000510      0x138 ../../../simplelink/gcc/lib/os/Debug/libsimplelink.a(driver.o)
 .debug_ranges  0x0000000000000648       0x98 ../../../simplelink/gcc/lib/os/Debug/libsimplelink.a(netapp.o)
 .debug_ranges  0x00000000000006e0       0x18 ../../../simplelink/gcc/lib/os/Debug/libsimplelink.a(netcfg.o)
 .debug_ranges  0x00000000000006f8       0x48 ../../../simplelink/gcc/lib/os/Debug/libsimplelink.a(fs.o)
 .debug_ranges  0x0000000000000740       0xd0 ../../../simplelink/gcc/lib/os/Debug/libsimplelink.a(socket.o)
 .debug_ranges  0x0000000000000810       0xa0 ../../../simplelink/gcc/lib/os/Debug/libsimplelink.a(wlan.o)
 .debug_ranges  0x00000000000008b0       0xb0 ../../../simplelink/gcc/lib/os/Debug/libsimplelink.a(cc_pal.o)
 .debug_ranges  0x0000000000000960      0x118 ../../../oslib/gcc/free_rtos/Debug/free_rtos.a(osi_freertos.o)
 .debug_ranges  0x0000000000000a78      0x110 ../../../oslib/gcc/free_rtos/Debug/free_rtos.a(queue.o)
 .debug_ranges  0x0000000000000b88      0x1d8 ../../../oslib/gcc/free_rtos/Debug/free_rtos.a(tasks.o)
 .debug_ranges  0x0000000000000d60       0x80 ../../../oslib/gcc/free_rtos/Debug/free_rtos.a(port.o)
 .debug_ranges  0x0000000000000de0       0xa0 ../../../oslib/gcc/free_rtos/Debug/free_rtos.a(timers.o)
 .debug_ranges  0x0000000000000e80       0x18 ../../../oslib/gcc/free_rtos/Debug/free_rtos.a(heap_3.o)
 .debug_ranges  0x0000000000000e98       0x30 ../../../oslib/gcc/free_rtos/Debug/free_rtos.a(list.o)
 .debug_ranges  0x0000000000000ec8       0x88 ../../../driverlib/gcc/lib/Debug/libdriver.a(camera.o)
 .debug_ranges  0x0000000000000f50      0x1b8 ../../../driverlib/gcc/lib/Debug/libdriver.a(i2c.o)
 .debug_ranges  0x0000000000001108       0x88 ../../../driverlib/gcc/lib/Debug/libdriver.a(interrupt.o)
 .debug_ranges  0x0000000000001190       0x80 ../../../driverlib/gcc/lib/Debug/libdriver.a(pin.o)
 .debug_ranges  0x0000000000001210      0x1a8 ../../../driverlib/gcc/lib/Debug/libdriver.a(prcm.o)
 .debug_ranges  0x00000000000013b8       0xa0 ../../../driverlib/gcc/lib/Debug/libdriver.a(shamd5.o)
 .debug_ranges  0x0000000000001458       0xf0 ../../../driverlib/gcc/lib/Debug/libdriver.a(spi.o)
 .debug_ranges  0x0000000000001548       0xc8 ../../../driverlib/gcc/lib/Debug/libdriver.a(timer.o)
 .debug_ranges  0x0000000000001610      0x130 ../../../driverlib/gcc/lib/Debug/libdriver.a(uart.o)
 .debug_ranges  0x0000000000001740       0xc8 ../../../driverlib/gcc/lib/Debug/libdriver.a(udma.o)
 .debug_ranges  0x0000000000001808       0x10 ../../../driverlib/gcc/lib/Debug/libdriver.a(utils.o)
 .debug_ranges  0x0000000000001818       0x38 ../../../driverlib/gcc/lib/Debug/libdriver.a(cpu.o)
 .debug_ranges  0x0000000000001850       0x18 /usr/lib/gcc/arm-none-eabi/5.2.0/../../../../arm-none-eabi/lib/armv7e-m/libc_nano.a(lib_a-atoi.o)
 .debug_ranges  0x0000000000001868       0x18 /usr/lib/gcc/arm-none-eabi/5.2.0/../../../../arm-none-eabi/lib/armv7e-m/libc_nano.a(lib_a-malloc.o)
 .debug_ranges  0x0000000000001880       0x10 /usr/lib/gcc/arm-none-eabi/5.2.0/../../../../arm-none-eabi/lib/armv7e-m/libc_nano.a(lib_a-memchr.o)
 .debug_ranges  0x0000000000001890       0x10 /usr/lib/gcc/arm-none-eabi/5.2.0/../../../../arm-none-eabi/lib/armv7e-m/libc_nano.a(lib_a-memcmp.o)
 .debug_ranges  0x00000000000018a0       0x10 /usr/lib/gcc/arm-none-eabi/5.2.0/../../../../arm-none-eabi/lib/armv7e-m/libc_nano.a(lib_a-memcpy.o)
 .debug_ranges  0x00000000000018b0       0x10 /usr/lib/gcc/arm-none-eabi/5.2.0/../../../../arm-none-eabi/lib/armv7e-m/libc_nano.a(lib_a-memmove.o)
 .debug_ranges  0x00000000000018c0       0x10 /usr/lib/gcc/arm-none-eabi/5.2.0/../../../../arm-none-eabi/lib/armv7e-m/libc_nano.a(lib_a-memset.o)
 .debug_ranges  0x00000000000018d0       0x28 /usr/lib/gcc/arm-none-eabi/5.2.0/../../../../arm-none-eabi/lib/armv7e-m/libc_nano.a(lib_a-nano-freer.o)
 .debug_ranges  0x00000000000018f8       0x28 /usr/lib/gcc/arm-none-eabi/5.2.0/../../../../arm-none-eabi/lib/armv7e-m/libc_nano.a(lib_a-nano-mallocr.o)
 .debug_ranges  0x0000000000001920       0x10 /usr/lib/gcc/arm-none-eabi/5.2.0/../../../../arm-none-eabi/lib/armv7e-m/libc_nano.a(lib_a-realloc.o)
 .debug_ranges  0x0000000000001930       0x10 /usr/lib/gcc/arm-none-eabi/5.2.0/../../../../arm-none-eabi/lib/armv7e-m/libc_nano.a(lib_a-sbrkr.o)
 .debug_ranges  0x0000000000001940       0x10 /usr/lib/gcc/arm-none-eabi/5.2.0/../../../../arm-none-eabi/lib/armv7e-m/libc_nano.a(lib_a-strcpy.o)
 .debug_ranges  0x0000000000001950       0x10 /usr/lib/gcc/arm-none-eabi/5.2.0/../../../../arm-none-eabi/lib/armv7e-m/libc_nano.a(lib_a-strlen.o)
 .debug_ranges  0x0000000000001960       0x10 /usr/lib/gcc/arm-none-eabi/5.2.0/../../../../arm-none-eabi/lib/armv7e-m/libc_nano.a(lib_a-strncat.o)
 .debug_ranges  0x0000000000001970       0x18 /usr/lib/gcc/arm-none-eabi/5.2.0/../../../../arm-none-eabi/lib/armv7e-m/libc_nano.a(lib_a-strtol.o)
 .debug_ranges  0x0000000000001988       0x18 /usr/lib/gcc/arm-none-eabi/5.2.0/../../../../arm-none-eabi/lib/armv7e-m/libc_nano.a(lib_a-vsnprintf.o)
 .debug_ranges  0x00000000000019a0       0x10 /usr/lib/gcc/arm-none-eabi/5.2.0/../../../../arm-none-eabi/lib/armv7e-m/libc_nano.a(lib_a-nano-reallocr.o)
 .debug_ranges  0x00000000000019b0       0x50 /usr/lib/gcc/arm-none-eabi/5.2.0/../../../../arm-none-eabi/lib/armv7e-m/libc_nano.a(lib_a-nano-svfprintf.o)
 .debug_ranges  0x0000000000001a00       0x68 /usr/lib/gcc/arm-none-eabi/5.2.0/../../../../arm-none-eabi/lib/armv7e-m/libc_nano.a(lib_a-nano-vfprintf_i.o)
 .debug_ranges  0x0000000000001a68       0x18 /usr/lib/gcc/arm-none-eabi/5.2.0/../../../../arm-none-eabi/lib/armv7e-m/libc_nano.a(lib_a-reent.o)
 .debug_ranges  0x0000000000001a80       0x10 /usr/lib/gcc/arm-none-eabi/5.2.0/../../../../arm-none-eabi/lib/armv7e-m/libc_nano.a(lib_a-nano-msizer.o)

.debug_line     0x0000000000000000     0x9cfb
 .debug_line    0x0000000000000000      0x366 obj/Debug/camera_app.o
 .debug_line    0x0000000000000366       0xd6 obj/Debug/i2cconfig.o
 .debug_line    0x000000000000043c      0x12a obj/Debug/mt9d111.o
 .debug_line    0x0000000000000566       0x72 obj/Debug/main.o
 .debug_line    0x00000000000005d8      0x130 obj/Debug/httpserverapp.o
 .debug_line    0x0000000000000708       0x4d obj/Debug/pinmux.o
 .debug_line    0x0000000000000755      0x171 obj/Debug/uart_if.o
 .debug_line    0x00000000000008c6      0x4e1 obj/Debug/network_if.o
 .debug_line    0x0000000000000da7      0x14b obj/Debug/udma_if.o
 .debug_line    0x0000000000000ef2      0x131 obj/Debug/startup_gcc.o
 .debug_line    0x0000000000001023      0x5c4 ../../../netapps/http/server/gcc/lib/Debug/libwebserver.a(HttpCore.o)
 .debug_line    0x00000000000015e7       0x5a ../../../netapps/http/server/gcc/lib/Debug/libwebserver.a(HttpDebug.o)
 .debug_line    0x0000000000001641       0xd1 ../../../netapps/http/server/gcc/lib/Debug/libwebserver.a(HttpDynamic.o)
 .debug_line    0x0000000000001712      0x128 ../../../netapps/http/server/gcc/lib/Debug/libwebserver.a(HttpSocket.o)
 .debug_line    0x000000000000183a       0xf1 ../../../netapps/http/server/gcc/lib/Debug/libwebserver.a(HttpStatic.o)
 .debug_line    0x000000000000192b      0x13b ../../../netapps/http/server/gcc/lib/Debug/libwebserver.a(HttpString.o)
 .debug_line    0x0000000000001a66       0xdb ../../../netapps/http/server/gcc/lib/Debug/libwebserver.a(sha1.o)
 .debug_line    0x0000000000001b41      0x14a ../../../netapps/http/server/gcc/lib/Debug/libwebserver.a(WebSockHandler.o)
 .debug_line    0x0000000000001c8b       0x6e ../../../netapps/http/server/gcc/lib/Debug/libwebserver.a(base64.o)
 .debug_line    0x0000000000001cf9      0x2d9 ../../../simplelink/gcc/lib/os/Debug/libsimplelink.a(device.o)
 .debug_line    0x0000000000001fd2      0x90c ../../../simplelink/gcc/lib/os/Debug/libsimplelink.a(driver.o)
 .debug_line    0x00000000000028de      0x4a2 ../../../simplelink/gcc/lib/os/Debug/libsimplelink.a(netapp.o)
 .debug_line    0x0000000000002d80      0x100 ../../../simplelink/gcc/lib/os/Debug/libsimplelink.a(netcfg.o)
 .debug_line    0x0000000000002e80      0x2ba ../../../simplelink/gcc/lib/os/Debug/libsimplelink.a(fs.o)
 .debug_line    0x000000000000313a      0x5d0 ../../../simplelink/gcc/lib/os/Debug/libsimplelink.a(socket.o)
 .debug_line    0x000000000000370a      0x554 ../../../simplelink/gcc/lib/os/Debug/libsimplelink.a(wlan.o)
 .debug_line    0x0000000000003c5e      0x30b ../../../simplelink/gcc/lib/os/Debug/libsimplelink.a(cc_pal.o)
 .debug_line    0x0000000000003f69      0x423 ../../../oslib/gcc/free_rtos/Debug/free_rtos.a(osi_freertos.o)
 .debug_line    0x000000000000438c      0x786 ../../../oslib/gcc/free_rtos/Debug/free_rtos.a(queue.o)
 .debug_line    0x0000000000004b12      0xbe6 ../../../oslib/gcc/free_rtos/Debug/free_rtos.a(tasks.o)
 .debug_line    0x00000000000056f8      0x284 ../../../oslib/gcc/free_rtos/Debug/free_rtos.a(port.o)
 .debug_line    0x000000000000597c      0x3c6 ../../../oslib/gcc/free_rtos/Debug/free_rtos.a(timers.o)
 .debug_line    0x0000000000005d42       0xbd ../../../oslib/gcc/free_rtos/Debug/free_rtos.a(heap_3.o)
 .debug_line    0x0000000000005dff      0x1a7 ../../../oslib/gcc/free_rtos/Debug/free_rtos.a(list.o)
 .debug_line    0x0000000000005fa6      0x1a1 ../../../driverlib/gcc/lib/Debug/libdriver.a(camera.o)
 .debug_line    0x0000000000006147      0x520 ../../../driverlib/gcc/lib/Debug/libdriver.a(i2c.o)
 .debug_line    0x0000000000006667      0x210 ../../../driverlib/gcc/lib/Debug/libdriver.a(interrupt.o)
 .debug_line    0x0000000000006877      0x172 ../../../driverlib/gcc/lib/Debug/libdriver.a(pin.o)
 .debug_line    0x00000000000069e9      0x4f6 ../../../driverlib/gcc/lib/Debug/libdriver.a(prcm.o)
 .debug_line    0x0000000000006edf      0x38a ../../../driverlib/gcc/lib/Debug/libdriver.a(shamd5.o)
 .debug_line    0x0000000000007269      0x369 ../../../driverlib/gcc/lib/Debug/libdriver.a(spi.o)
 .debug_line    0x00000000000075d2      0x33d ../../../driverlib/gcc/lib/Debug/libdriver.a(timer.o)
 .debug_line    0x000000000000790f      0x37e ../../../driverlib/gcc/lib/Debug/libdriver.a(uart.o)
 .debug_line    0x0000000000007c8d      0x2aa ../../../driverlib/gcc/lib/Debug/libdriver.a(udma.o)
 .debug_line    0x0000000000007f37       0x3d ../../../driverlib/gcc/lib/Debug/libdriver.a(utils.o)
 .debug_line    0x0000000000007f74       0xa0 ../../../driverlib/gcc/lib/Debug/libdriver.a(cpu.o)
 .debug_line    0x0000000000008014      0x146 /usr/lib/gcc/arm-none-eabi/5.2.0/../../../../arm-none-eabi/lib/armv7e-m/libc_nano.a(lib_a-atoi.o)
 .debug_line    0x000000000000815a      0x148 /usr/lib/gcc/arm-none-eabi/5.2.0/../../../../arm-none-eabi/lib/armv7e-m/libc_nano.a(lib_a-malloc.o)
 .debug_line    0x00000000000082a2       0xdf /usr/lib/gcc/arm-none-eabi/5.2.0/../../../../arm-none-eabi/lib/armv7e-m/libc_nano.a(lib_a-memchr.o)
 .debug_line    0x0000000000008381       0xde /usr/lib/gcc/arm-none-eabi/5.2.0/../../../../arm-none-eabi/lib/armv7e-m/libc_nano.a(lib_a-memcmp.o)
 .debug_line    0x000000000000845f       0xdc /usr/lib/gcc/arm-none-eabi/5.2.0/../../../../arm-none-eabi/lib/armv7e-m/libc_nano.a(lib_a-memcpy.o)
 .debug_line    0x000000000000853b       0xe9 /usr/lib/gcc/arm-none-eabi/5.2.0/../../../../arm-none-eabi/lib/armv7e-m/libc_nano.a(lib_a-memmove.o)
 .debug_line    0x0000000000008624       0xdd /usr/lib/gcc/arm-none-eabi/5.2.0/../../../../arm-none-eabi/lib/armv7e-m/libc_nano.a(lib_a-memset.o)
 .debug_line    0x0000000000008701      0x13b /usr/lib/gcc/arm-none-eabi/5.2.0/../../../../arm-none-eabi/lib/armv7e-m/libc_nano.a(lib_a-nano-freer.o)
 .debug_line    0x000000000000883c      0x175 /usr/lib/gcc/arm-none-eabi/5.2.0/../../../../arm-none-eabi/lib/armv7e-m/libc_nano.a(lib_a-nano-mallocr.o)
 .debug_line    0x00000000000089b1      0x137 /usr/lib/gcc/arm-none-eabi/5.2.0/../../../../arm-none-eabi/lib/armv7e-m/libc_nano.a(lib_a-realloc.o)
 .debug_line    0x0000000000008ae8      0x140 /usr/lib/gcc/arm-none-eabi/5.2.0/../../../../arm-none-eabi/lib/armv7e-m/libc_nano.a(lib_a-sbrkr.o)
 .debug_line    0x0000000000008c28       0x75 /usr/lib/gcc/arm-none-eabi/5.2.0/../../../../arm-none-eabi/lib/armv7e-m/libc_nano.a(lib_a-strcmp.o)
 .debug_line    0x0000000000008c9d       0xab /usr/lib/gcc/arm-none-eabi/5.2.0/../../../../arm-none-eabi/lib/armv7e-m/libc_nano.a(lib_a-strcpy.o)
 .debug_line    0x0000000000008d48       0xe4 /usr/lib/gcc/arm-none-eabi/5.2.0/../../../../arm-none-eabi/lib/armv7e-m/libc_nano.a(lib_a-strlen.o)
 .debug_line    0x0000000000008e2c       0xe5 /usr/lib/gcc/arm-none-eabi/5.2.0/../../../../arm-none-eabi/lib/armv7e-m/libc_nano.a(lib_a-strncat.o)
 .debug_line    0x0000000000008f11      0x1c3 /usr/lib/gcc/arm-none-eabi/5.2.0/../../../../arm-none-eabi/lib/armv7e-m/libc_nano.a(lib_a-strtol.o)
 .debug_line    0x00000000000090d4      0x17d /usr/lib/gcc/arm-none-eabi/5.2.0/../../../../arm-none-eabi/lib/armv7e-m/libc_nano.a(lib_a-vsnprintf.o)
 .debug_line    0x0000000000009251       0x61 /usr/lib/gcc/arm-none-eabi/5.2.0/../../../../arm-none-eabi/lib/armv7e-m/libc_nano.a(lib_a-ctype_.o)
 .debug_line    0x00000000000092b2       0xe0 /usr/lib/gcc/arm-none-eabi/5.2.0/../../../../arm-none-eabi/lib/armv7e-m/libc_nano.a(lib_a-impure.o)
 .debug_line    0x0000000000009392      0x15c /usr/lib/gcc/arm-none-eabi/5.2.0/../../../../arm-none-eabi/lib/armv7e-m/libc_nano.a(lib_a-nano-reallocr.o)
 .debug_line    0x00000000000094ee      0x2ad /usr/lib/gcc/arm-none-eabi/5.2.0/../../../../arm-none-eabi/lib/armv7e-m/libc_nano.a(lib_a-nano-svfprintf.o)
 .debug_line    0x000000000000979b      0x2e9 /usr/lib/gcc/arm-none-eabi/5.2.0/../../../../arm-none-eabi/lib/armv7e-m/libc_nano.a(lib_a-nano-vfprintf_i.o)
 .debug_line    0x0000000000009a84      0x17b /usr/lib/gcc/arm-none-eabi/5.2.0/../../../../arm-none-eabi/lib/armv7e-m/libc_nano.a(lib_a-reent.o)
 .debug_line    0x0000000000009bff       0xfc /usr/lib/gcc/arm-none-eabi/5.2.0/../../../../arm-none-eabi/lib/armv7e-m/libc_nano.a(lib_a-nano-msizer.o)

.debug_str      0x0000000000000000     0xa5a0
 .debug_str     0x0000000000000000      0x41b obj/Debug/camera_app.o
                                        0x474 (size before relaxing)
 .debug_str     0x000000000000041b       0x5c obj/Debug/i2cconfig.o
                                        0x188 (size before relaxing)
 .debug_str     0x0000000000000477      0x120 obj/Debug/mt9d111.o
                                        0x285 (size before relaxing)
 .debug_str     0x0000000000000597       0x37 obj/Debug/main.o
                                        0x176 (size before relaxing)
 .debug_str     0x00000000000005ce      0x107 obj/Debug/httpserverapp.o
                                        0x2df (size before relaxing)
 .debug_str     0x00000000000006d5       0x19 obj/Debug/pinmux.o
                                         0xe1 (size before relaxing)
 .debug_str     0x00000000000006ee       0xd0 obj/Debug/uart_if.o
                                        0x23d (size before relaxing)
 .debug_str     0x00000000000007be      0xec7 obj/Debug/network_if.o
                                       0x113b (size before relaxing)
 .debug_str     0x0000000000001685      0x1d8 obj/Debug/udma_if.o
                                        0x329 (size before relaxing)
 .debug_str     0x000000000000185d       0xdb obj/Debug/startup_gcc.o
                                        0x23a (size before relaxing)
 .debug_str     0x0000000000001938      0x969 ../../../netapps/http/server/gcc/lib/Debug/libwebserver.a(HttpCore.o)
                                        0xadb (size before relaxing)
 .debug_str     0x00000000000022a1       0x39 ../../../netapps/http/server/gcc/lib/Debug/libwebserver.a(HttpDebug.o)
                                         0xe3 (size before relaxing)
 .debug_str     0x00000000000022da       0xa8 ../../../netapps/http/server/gcc/lib/Debug/libwebserver.a(HttpDynamic.o)
                                        0x27f (size before relaxing)
 .debug_str     0x0000000000002382      0x1de ../../../netapps/http/server/gcc/lib/Debug/libwebserver.a(HttpSocket.o)
                                        0x32e (size before relaxing)
 .debug_str     0x0000000000002560       0xf7 ../../../netapps/http/server/gcc/lib/Debug/libwebserver.a(HttpStatic.o)
                                        0x2fd (size before relaxing)
 .debug_str     0x0000000000002657       0xde ../../../netapps/http/server/gcc/lib/Debug/libwebserver.a(HttpString.o)
                                        0x26d (size before relaxing)
 .debug_str     0x0000000000002735       0xd4 ../../../netapps/http/server/gcc/lib/Debug/libwebserver.a(sha1.o)
                                        0x21f (size before relaxing)
 .debug_str     0x0000000000002809      0x1d3 ../../../netapps/http/server/gcc/lib/Debug/libwebserver.a(WebSockHandler.o)
                                        0x382 (size before relaxing)
 .debug_str     0x00000000000029dc       0x57 ../../../netapps/http/server/gcc/lib/Debug/libwebserver.a(base64.o)
                                        0x11d (size before relaxing)
 .debug_str     0x0000000000002a33      0x93d ../../../simplelink/gcc/lib/os/Debug/libsimplelink.a(device.o)
                                        0xe3f (size before relaxing)
 .debug_str     0x0000000000003370      0x7d5 ../../../simplelink/gcc/lib/os/Debug/libsimplelink.a(driver.o)
                                       0x1413 (size before relaxing)
 .debug_str     0x0000000000003b45      0x945 ../../../simplelink/gcc/lib/os/Debug/libsimplelink.a(netapp.o)
                                       0x1397 (size before relaxing)
 .debug_str     0x000000000000448a       0x9d ../../../simplelink/gcc/lib/os/Debug/libsimplelink.a(netcfg.o)
                                        0x4a9 (size before relaxing)
 .debug_str     0x0000000000004527      0x355 ../../../simplelink/gcc/lib/os/Debug/libsimplelink.a(fs.o)
                                        0x705 (size before relaxing)
 .debug_str     0x000000000000487c      0x58f ../../../simplelink/gcc/lib/os/Debug/libsimplelink.a(socket.o)
                                        0xecd (size before relaxing)
 .debug_str     0x0000000000004e0b      0xd0c ../../../simplelink/gcc/lib/os/Debug/libsimplelink.a(wlan.o)
                                       0x1102 (size before relaxing)
 .debug_str     0x0000000000005b17      0x302 ../../../simplelink/gcc/lib/os/Debug/libsimplelink.a(cc_pal.o)
                                        0x4ba (size before relaxing)
 .debug_str     0x0000000000005e19      0x3ea ../../../oslib/gcc/free_rtos/Debug/free_rtos.a(osi_freertos.o)
                                        0x63f (size before relaxing)
 .debug_str     0x0000000000006203      0x643 ../../../oslib/gcc/free_rtos/Debug/free_rtos.a(queue.o)
                                        0x824 (size before relaxing)
 .debug_str     0x0000000000006846      0xbe4 ../../../oslib/gcc/free_rtos/Debug/free_rtos.a(tasks.o)
                                        0xf31 (size before relaxing)
 .debug_str     0x000000000000742a      0x244 ../../../oslib/gcc/free_rtos/Debug/free_rtos.a(port.o)
                                        0x3ea (size before relaxing)
 .debug_str     0x000000000000766e      0x4c7 ../../../oslib/gcc/free_rtos/Debug/free_rtos.a(timers.o)
                                        0x76b (size before relaxing)
 .debug_str     0x0000000000007b35       0x5f ../../../oslib/gcc/free_rtos/Debug/free_rtos.a(heap_3.o)
                                        0x1b5 (size before relaxing)
 .debug_str     0x0000000000007b94       0xb6 ../../../oslib/gcc/free_rtos/Debug/free_rtos.a(list.o)
                                        0x2a5 (size before relaxing)
 .debug_str     0x0000000000007c4a      0x1ec ../../../driverlib/gcc/lib/Debug/libdriver.a(camera.o)
                                        0x282 (size before relaxing)
 .debug_str     0x0000000000007e36      0x4e3 ../../../driverlib/gcc/lib/Debug/libdriver.a(i2c.o)
                                        0x65a (size before relaxing)
 .debug_str     0x0000000000008319      0x161 ../../../driverlib/gcc/lib/Debug/libdriver.a(interrupt.o)
                                        0x296 (size before relaxing)
 .debug_str     0x000000000000847a      0x115 ../../../driverlib/gcc/lib/Debug/libdriver.a(pin.o)
                                        0x1fa (size before relaxing)
 .debug_str     0x000000000000858f      0x600 ../../../driverlib/gcc/lib/Debug/libdriver.a(prcm.o)
                                        0x71d (size before relaxing)
 .debug_str     0x0000000000008b8f      0x230 ../../../driverlib/gcc/lib/Debug/libdriver.a(shamd5.o)
                                        0x3a4 (size before relaxing)
 .debug_str     0x0000000000008dbf      0x2b0 ../../../driverlib/gcc/lib/Debug/libdriver.a(spi.o)
                                        0x41b (size before relaxing)
 .debug_str     0x000000000000906f      0x1b5 ../../../driverlib/gcc/lib/Debug/libdriver.a(timer.o)
                                        0x2af (size before relaxing)
 .debug_str     0x0000000000009224      0x2ca ../../../driverlib/gcc/lib/Debug/libdriver.a(uart.o)
                                        0x423 (size before relaxing)
 .debug_str     0x00000000000094ee      0x2bd ../../../driverlib/gcc/lib/Debug/libdriver.a(udma.o)
                                        0x3dd (size before relaxing)
 .debug_str     0x00000000000097ab       0x16 ../../../driverlib/gcc/lib/Debug/libdriver.a(utils.o)
                                         0xcb (size before relaxing)
 .debug_str     0x00000000000097c1       0x5c ../../../driverlib/gcc/lib/Debug/libdriver.a(cpu.o)
                                        0x109 (size before relaxing)
 .debug_str     0x000000000000981d      0x42d /usr/lib/gcc/arm-none-eabi/5.2.0/../../../../arm-none-eabi/lib/armv7e-m/libc_nano.a(lib_a-atoi.o)
                                        0x50a (size before relaxing)
 .debug_str     0x0000000000009c4a       0x53 /usr/lib/gcc/arm-none-eabi/5.2.0/../../../../arm-none-eabi/lib/armv7e-m/libc_nano.a(lib_a-malloc.o)
                                        0x52b (size before relaxing)
 .debug_str     0x0000000000009c9d       0x98 /usr/lib/gcc/arm-none-eabi/5.2.0/../../../../arm-none-eabi/lib/armv7e-m/libc_nano.a(lib_a-memchr.o)
                                        0x1be (size before relaxing)
 .debug_str     0x0000000000009d35       0x35 /usr/lib/gcc/arm-none-eabi/5.2.0/../../../../arm-none-eabi/lib/armv7e-m/libc_nano.a(lib_a-memcmp.o)
                                        0x1ae (size before relaxing)
 .debug_str     0x0000000000009d6a       0x49 /usr/lib/gcc/arm-none-eabi/5.2.0/../../../../arm-none-eabi/lib/armv7e-m/libc_nano.a(lib_a-memcpy.o)
                                        0x1c2 (size before relaxing)
 .debug_str     0x0000000000009db3       0x40 /usr/lib/gcc/arm-none-eabi/5.2.0/../../../../arm-none-eabi/lib/armv7e-m/libc_nano.a(lib_a-memmove.o)
                                        0x1c9 (size before relaxing)
 .debug_str     0x0000000000009df3       0x35 /usr/lib/gcc/arm-none-eabi/5.2.0/../../../../arm-none-eabi/lib/armv7e-m/libc_nano.a(lib_a-memset.o)
                                        0x1ae (size before relaxing)
 .debug_str     0x0000000000009e28       0x90 /usr/lib/gcc/arm-none-eabi/5.2.0/../../../../arm-none-eabi/lib/armv7e-m/libc_nano.a(lib_a-nano-freer.o)
                                        0x56f (size before relaxing)
 .debug_str     0x0000000000009eb8       0x46 /usr/lib/gcc/arm-none-eabi/5.2.0/../../../../arm-none-eabi/lib/armv7e-m/libc_nano.a(lib_a-nano-mallocr.o)
                                        0x59a (size before relaxing)
 .debug_str     0x0000000000009efe       0x3a /usr/lib/gcc/arm-none-eabi/5.2.0/../../../../arm-none-eabi/lib/armv7e-m/libc_nano.a(lib_a-realloc.o)
                                        0x51c (size before relaxing)
 .debug_str     0x0000000000009f38       0x8f /usr/lib/gcc/arm-none-eabi/5.2.0/../../../../arm-none-eabi/lib/armv7e-m/libc_nano.a(lib_a-sbrkr.o)
                                        0x50e (size before relaxing)
 .debug_str     0x0000000000009fc7       0x9c /usr/lib/gcc/arm-none-eabi/5.2.0/../../../../arm-none-eabi/lib/armv7e-m/libc_nano.a(lib_a-strcpy.o)
                                        0x1b4 (size before relaxing)
 .debug_str     0x000000000000a063       0x45 /usr/lib/gcc/arm-none-eabi/5.2.0/../../../../arm-none-eabi/lib/armv7e-m/libc_nano.a(lib_a-strlen.o)
                                        0x1c3 (size before relaxing)
 .debug_str     0x000000000000a0a8       0x37 /usr/lib/gcc/arm-none-eabi/5.2.0/../../../../arm-none-eabi/lib/armv7e-m/libc_nano.a(lib_a-strncat.o)
                                        0x1b0 (size before relaxing)
 .debug_str     0x000000000000a0df       0x5b /usr/lib/gcc/arm-none-eabi/5.2.0/../../../../arm-none-eabi/lib/armv7e-m/libc_nano.a(lib_a-strtol.o)
                                        0x53d (size before relaxing)
 .debug_str     0x000000000000a13a       0xad /usr/lib/gcc/arm-none-eabi/5.2.0/../../../../arm-none-eabi/lib/armv7e-m/libc_nano.a(lib_a-vsnprintf.o)
                                        0x556 (size before relaxing)
 .debug_str     0x000000000000a1e7       0x8e /usr/lib/gcc/arm-none-eabi/5.2.0/../../../../arm-none-eabi/lib/armv7e-m/libc_nano.a(lib_a-ctype_.o)
                                        0x124 (size before relaxing)
 .debug_str     0x000000000000a275       0x8b /usr/lib/gcc/arm-none-eabi/5.2.0/../../../../arm-none-eabi/lib/armv7e-m/libc_nano.a(lib_a-impure.o)
                                        0x556 (size before relaxing)
 .debug_str     0x000000000000a300       0x23 /usr/lib/gcc/arm-none-eabi/5.2.0/../../../../arm-none-eabi/lib/armv7e-m/libc_nano.a(lib_a-nano-reallocr.o)
                                        0x577 (size before relaxing)
 .debug_str     0x000000000000a323      0x188 /usr/lib/gcc/arm-none-eabi/5.2.0/../../../../arm-none-eabi/lib/armv7e-m/libc_nano.a(lib_a-nano-svfprintf.o)
                                        0x677 (size before relaxing)
 .debug_str     0x000000000000a4ab       0x8e /usr/lib/gcc/arm-none-eabi/5.2.0/../../../../arm-none-eabi/lib/armv7e-m/libc_nano.a(lib_a-nano-vfprintf_i.o)
                                        0x616 (size before relaxing)
 .debug_str     0x000000000000a539       0x58 /usr/lib/gcc/arm-none-eabi/5.2.0/../../../../arm-none-eabi/lib/armv7e-m/libc_nano.a(lib_a-reent.o)
                                        0x536 (size before relaxing)
 .debug_str     0x000000000000a591        0xf /usr/lib/gcc/arm-none-eabi/5.2.0/../../../../arm-none-eabi/lib/armv7e-m/libc_nano.a(lib_a-nano-msizer.o)
                                        0x555 (size before relaxing)

.comment        0x0000000000000000       0x42
 .comment       0x0000000000000000       0x21 obj/Debug/camera_app.o
                                         0x22 (size before relaxing)
 .comment       0x0000000000000000       0x22 obj/Debug/i2cconfig.o
 .comment       0x0000000000000000       0x22 obj/Debug/mt9d111.o
 .comment       0x0000000000000000       0x22 obj/Debug/main.o
 .comment       0x0000000000000000       0x22 obj/Debug/httpserverapp.o
 .comment       0x0000000000000000       0x22 obj/Debug/pinmux.o
 .comment       0x0000000000000000       0x22 obj/Debug/uart_if.o
 .comment       0x0000000000000000       0x22 obj/Debug/network_if.o
 .comment       0x0000000000000000       0x22 obj/Debug/udma_if.o
 .comment       0x0000000000000000       0x22 obj/Debug/startup_gcc.o
 .comment       0x0000000000000000       0x22 ../../../netapps/http/server/gcc/lib/Debug/libwebserver.a(HttpCore.o)
 .comment       0x0000000000000000       0x22 ../../../netapps/http/server/gcc/lib/Debug/libwebserver.a(HttpDebug.o)
 .comment       0x0000000000000000       0x22 ../../../netapps/http/server/gcc/lib/Debug/libwebserver.a(HttpDynamic.o)
 .comment       0x0000000000000000       0x22 ../../../netapps/http/server/gcc/lib/Debug/libwebserver.a(HttpSocket.o)
 .comment       0x0000000000000000       0x22 ../../../netapps/http/server/gcc/lib/Debug/libwebserver.a(HttpStatic.o)
 .comment       0x0000000000000000       0x22 ../../../netapps/http/server/gcc/lib/Debug/libwebserver.a(HttpString.o)
 .comment       0x0000000000000000       0x22 ../../../netapps/http/server/gcc/lib/Debug/libwebserver.a(sha1.o)
 .comment       0x0000000000000000       0x22 ../../../netapps/http/server/gcc/lib/Debug/libwebserver.a(WebSockHandler.o)
 .comment       0x0000000000000000       0x22 ../../../netapps/http/server/gcc/lib/Debug/libwebserver.a(base64.o)
 .comment       0x0000000000000000       0x22 ../../../simplelink/gcc/lib/os/Debug/libsimplelink.a(device.o)
 .comment       0x0000000000000000       0x22 ../../../simplelink/gcc/lib/os/Debug/libsimplelink.a(driver.o)
 .comment       0x0000000000000000       0x22 ../../../simplelink/gcc/lib/os/Debug/libsimplelink.a(netapp.o)
 .comment       0x0000000000000000       0x22 ../../../simplelink/gcc/lib/os/Debug/libsimplelink.a(netcfg.o)
 .comment       0x0000000000000000       0x22 ../../../simplelink/gcc/lib/os/Debug/libsimplelink.a(fs.o)
 .comment       0x0000000000000000       0x22 ../../../simplelink/gcc/lib/os/Debug/libsimplelink.a(socket.o)
 .comment       0x0000000000000000       0x22 ../../../simplelink/gcc/lib/os/Debug/libsimplelink.a(wlan.o)
 .comment       0x0000000000000000       0x22 ../../../simplelink/gcc/lib/os/Debug/libsimplelink.a(cc_pal.o)
 .comment       0x0000000000000000       0x22 ../../../oslib/gcc/free_rtos/Debug/free_rtos.a(osi_freertos.o)
 .comment       0x0000000000000000       0x22 ../../../oslib/gcc/free_rtos/Debug/free_rtos.a(queue.o)
 .comment       0x0000000000000000       0x22 ../../../oslib/gcc/free_rtos/Debug/free_rtos.a(tasks.o)
 .comment       0x0000000000000000       0x22 ../../../oslib/gcc/free_rtos/Debug/free_rtos.a(port.o)
 .comment       0x0000000000000000       0x22 ../../../oslib/gcc/free_rtos/Debug/free_rtos.a(timers.o)
 .comment       0x0000000000000000       0x22 ../../../oslib/gcc/free_rtos/Debug/free_rtos.a(heap_3.o)
 .comment       0x0000000000000000       0x22 ../../../oslib/gcc/free_rtos/Debug/free_rtos.a(list.o)
 .comment       0x0000000000000000       0x22 ../../../driverlib/gcc/lib/Debug/libdriver.a(camera.o)
 .comment       0x0000000000000000       0x22 ../../../driverlib/gcc/lib/Debug/libdriver.a(i2c.o)
 .comment       0x0000000000000000       0x22 ../../../driverlib/gcc/lib/Debug/libdriver.a(interrupt.o)
 .comment       0x0000000000000000       0x22 ../../../driverlib/gcc/lib/Debug/libdriver.a(pin.o)
 .comment       0x0000000000000000       0x22 ../../../driverlib/gcc/lib/Debug/libdriver.a(prcm.o)
 .comment       0x0000000000000000       0x22 ../../../driverlib/gcc/lib/Debug/libdriver.a(shamd5.o)
 .comment       0x0000000000000000       0x22 ../../../driverlib/gcc/lib/Debug/libdriver.a(spi.o)
 .comment       0x0000000000000000       0x22 ../../../driverlib/gcc/lib/Debug/libdriver.a(timer.o)
 .comment       0x0000000000000000       0x22 ../../../driverlib/gcc/lib/Debug/libdriver.a(uart.o)
 .comment       0x0000000000000000       0x22 ../../../driverlib/gcc/lib/Debug/libdriver.a(udma.o)
 .comment       0x0000000000000000       0x22 ../../../driverlib/gcc/lib/Debug/libdriver.a(utils.o)
 .comment       0x0000000000000000       0x22 ../../../driverlib/gcc/lib/Debug/libdriver.a(cpu.o)
 .comment       0x0000000000000021       0x21 /usr/lib/gcc/arm-none-eabi/5.2.0/../../../../arm-none-eabi/lib/armv7e-m/libc_nano.a(lib_a-atoi.o)
                                         0x22 (size before relaxing)
 .comment       0x0000000000000000       0x22 /usr/lib/gcc/arm-none-eabi/5.2.0/../../../../arm-none-eabi/lib/armv7e-m/libc_nano.a(lib_a-malloc.o)
 .comment       0x0000000000000000       0x22 /usr/lib/gcc/arm-none-eabi/5.2.0/../../../../arm-none-eabi/lib/armv7e-m/libc_nano.a(lib_a-memchr.o)
 .comment       0x0000000000000000       0x22 /usr/lib/gcc/arm-none-eabi/5.2.0/../../../../arm-none-eabi/lib/armv7e-m/libc_nano.a(lib_a-memcmp.o)
 .comment       0x0000000000000000       0x22 /usr/lib/gcc/arm-none-eabi/5.2.0/../../../../arm-none-eabi/lib/armv7e-m/libc_nano.a(lib_a-memcpy.o)
 .comment       0x0000000000000000       0x22 /usr/lib/gcc/arm-none-eabi/5.2.0/../../../../arm-none-eabi/lib/armv7e-m/libc_nano.a(lib_a-memmove.o)
 .comment       0x0000000000000000       0x22 /usr/lib/gcc/arm-none-eabi/5.2.0/../../../../arm-none-eabi/lib/armv7e-m/libc_nano.a(lib_a-memset.o)
 .comment       0x0000000000000000       0x22 /usr/lib/gcc/arm-none-eabi/5.2.0/../../../../arm-none-eabi/lib/armv7e-m/libc_nano.a(lib_a-nano-freer.o)
 .comment       0x0000000000000000       0x22 /usr/lib/gcc/arm-none-eabi/5.2.0/../../../../arm-none-eabi/lib/armv7e-m/libc_nano.a(lib_a-nano-mallocr.o)
 .comment       0x0000000000000000       0x22 /usr/lib/gcc/arm-none-eabi/5.2.0/../../../../arm-none-eabi/lib/armv7e-m/libc_nano.a(lib_a-realloc.o)
 .comment       0x0000000000000000       0x22 /usr/lib/gcc/arm-none-eabi/5.2.0/../../../../arm-none-eabi/lib/armv7e-m/libc_nano.a(lib_a-sbrkr.o)
 .comment       0x0000000000000000       0x22 /usr/lib/gcc/arm-none-eabi/5.2.0/../../../../arm-none-eabi/lib/armv7e-m/libc_nano.a(lib_a-strcpy.o)
 .comment       0x0000000000000000       0x22 /usr/lib/gcc/arm-none-eabi/5.2.0/../../../../arm-none-eabi/lib/armv7e-m/libc_nano.a(lib_a-strlen.o)
 .comment       0x0000000000000000       0x22 /usr/lib/gcc/arm-none-eabi/5.2.0/../../../../arm-none-eabi/lib/armv7e-m/libc_nano.a(lib_a-strncat.o)
 .comment       0x0000000000000000       0x22 /usr/lib/gcc/arm-none-eabi/5.2.0/../../../../arm-none-eabi/lib/armv7e-m/libc_nano.a(lib_a-strtol.o)
 .comment       0x0000000000000000       0x22 /usr/lib/gcc/arm-none-eabi/5.2.0/../../../../arm-none-eabi/lib/armv7e-m/libc_nano.a(lib_a-vsnprintf.o)
 .comment       0x0000000000000000       0x22 /usr/lib/gcc/arm-none-eabi/5.2.0/../../../../arm-none-eabi/lib/armv7e-m/libc_nano.a(lib_a-ctype_.o)
 .comment       0x0000000000000000       0x22 /usr/lib/gcc/arm-none-eabi/5.2.0/../../../../arm-none-eabi/lib/armv7e-m/libc_nano.a(lib_a-impure.o)
 .comment       0x0000000000000000       0x22 /usr/lib/gcc/arm-none-eabi/5.2.0/../../../../arm-none-eabi/lib/armv7e-m/libc_nano.a(lib_a-nano-reallocr.o)
 .comment       0x0000000000000000       0x22 /usr/lib/gcc/arm-none-eabi/5.2.0/../../../../arm-none-eabi/lib/armv7e-m/libc_nano.a(lib_a-nano-svfprintf.o)
 .comment       0x0000000000000000       0x22 /usr/lib/gcc/arm-none-eabi/5.2.0/../../../../arm-none-eabi/lib/armv7e-m/libc_nano.a(lib_a-nano-vfprintf_i.o)
 .comment       0x0000000000000000       0x22 /usr/lib/gcc/arm-none-eabi/5.2.0/../../../../arm-none-eabi/lib/armv7e-m/libc_nano.a(lib_a-reent.o)
 .comment       0x0000000000000000       0x22 /usr/lib/gcc/arm-none-eabi/5.2.0/../../../../arm-none-eabi/lib/armv7e-m/libc_nano.a(lib_a-nano-msizer.o)

.ARM.attributes
                0x0000000000000000       0x31
 .ARM.attributes
                0x0000000000000000       0x33 obj/Debug/camera_app.o
 .ARM.attributes
                0x0000000000000033       0x33 obj/Debug/i2cconfig.o
 .ARM.attributes
                0x0000000000000066       0x33 obj/Debug/mt9d111.o
 .ARM.attributes
                0x0000000000000099       0x33 obj/Debug/main.o
 .ARM.attributes
                0x00000000000000cc       0x33 obj/Debug/httpserverapp.o
 .ARM.attributes
                0x00000000000000ff       0x33 obj/Debug/pinmux.o
 .ARM.attributes
                0x0000000000000132       0x33 obj/Debug/uart_if.o
 .ARM.attributes
                0x0000000000000165       0x33 obj/Debug/network_if.o
 .ARM.attributes
                0x0000000000000198       0x33 obj/Debug/udma_if.o
 .ARM.attributes
                0x00000000000001cb       0x33 obj/Debug/startup_gcc.o
 .ARM.attributes
                0x00000000000001fe       0x33 ../../../netapps/http/server/gcc/lib/Debug/libwebserver.a(HttpCore.o)
 .ARM.attributes
                0x0000000000000231       0x33 ../../../netapps/http/server/gcc/lib/Debug/libwebserver.a(HttpDebug.o)
 .ARM.attributes
                0x0000000000000264       0x33 ../../../netapps/http/server/gcc/lib/Debug/libwebserver.a(HttpDynamic.o)
 .ARM.attributes
                0x0000000000000297       0x33 ../../../netapps/http/server/gcc/lib/Debug/libwebserver.a(HttpSocket.o)
 .ARM.attributes
                0x00000000000002ca       0x33 ../../../netapps/http/server/gcc/lib/Debug/libwebserver.a(HttpStatic.o)
 .ARM.attributes
                0x00000000000002fd       0x33 ../../../netapps/http/server/gcc/lib/Debug/libwebserver.a(HttpString.o)
 .ARM.attributes
                0x0000000000000330       0x33 ../../../netapps/http/server/gcc/lib/Debug/libwebserver.a(sha1.o)
 .ARM.attributes
                0x0000000000000363       0x33 ../../../netapps/http/server/gcc/lib/Debug/libwebserver.a(WebSockHandler.o)
 .ARM.attributes
                0x0000000000000396       0x33 ../../../netapps/http/server/gcc/lib/Debug/libwebserver.a(base64.o)
 .ARM.attributes
                0x00000000000003c9       0x33 ../../../simplelink/gcc/lib/os/Debug/libsimplelink.a(device.o)
 .ARM.attributes
                0x00000000000003fc       0x33 ../../../simplelink/gcc/lib/os/Debug/libsimplelink.a(driver.o)
 .ARM.attributes
                0x000000000000042f       0x33 ../../../simplelink/gcc/lib/os/Debug/libsimplelink.a(netapp.o)
 .ARM.attributes
                0x0000000000000462       0x33 ../../../simplelink/gcc/lib/os/Debug/libsimplelink.a(netcfg.o)
 .ARM.attributes
                0x0000000000000495       0x33 ../../../simplelink/gcc/lib/os/Debug/libsimplelink.a(fs.o)
 .ARM.attributes
                0x00000000000004c8       0x33 ../../../simplelink/gcc/lib/os/Debug/libsimplelink.a(socket.o)
 .ARM.attributes
                0x00000000000004fb       0x33 ../../../simplelink/gcc/lib/os/Debug/libsimplelink.a(wlan.o)
 .ARM.attributes
                0x000000000000052e       0x33 ../../../simplelink/gcc/lib/os/Debug/libsimplelink.a(cc_pal.o)
 .ARM.attributes
                0x0000000000000561       0x33 ../../../oslib/gcc/free_rtos/Debug/free_rtos.a(osi_freertos.o)
 .ARM.attributes
                0x0000000000000594       0x33 ../../../oslib/gcc/free_rtos/Debug/free_rtos.a(queue.o)
 .ARM.attributes
                0x00000000000005c7       0x33 ../../../oslib/gcc/free_rtos/Debug/free_rtos.a(tasks.o)
 .ARM.attributes
                0x00000000000005fa       0x33 ../../../oslib/gcc/free_rtos/Debug/free_rtos.a(port.o)
 .ARM.attributes
                0x000000000000062d       0x33 ../../../oslib/gcc/free_rtos/Debug/free_rtos.a(timers.o)
 .ARM.attributes
                0x0000000000000660       0x33 ../../../oslib/gcc/free_rtos/Debug/free_rtos.a(heap_3.o)
 .ARM.attributes
                0x0000000000000693       0x33 ../../../oslib/gcc/free_rtos/Debug/free_rtos.a(list.o)
 .ARM.attributes
                0x00000000000006c6       0x33 ../../../driverlib/gcc/lib/Debug/libdriver.a(camera.o)
 .ARM.attributes
                0x00000000000006f9       0x33 ../../../driverlib/gcc/lib/Debug/libdriver.a(i2c.o)
 .ARM.attributes
                0x000000000000072c       0x33 ../../../driverlib/gcc/lib/Debug/libdriver.a(interrupt.o)
 .ARM.attributes
                0x000000000000075f       0x33 ../../../driverlib/gcc/lib/Debug/libdriver.a(pin.o)
 .ARM.attributes
                0x0000000000000792       0x33 ../../../driverlib/gcc/lib/Debug/libdriver.a(prcm.o)
 .ARM.attributes
                0x00000000000007c5       0x33 ../../../driverlib/gcc/lib/Debug/libdriver.a(shamd5.o)
 .ARM.attributes
                0x00000000000007f8       0x33 ../../../driverlib/gcc/lib/Debug/libdriver.a(spi.o)
 .ARM.attributes
                0x000000000000082b       0x33 ../../../driverlib/gcc/lib/Debug/libdriver.a(timer.o)
 .ARM.attributes
                0x000000000000085e       0x33 ../../../driverlib/gcc/lib/Debug/libdriver.a(uart.o)
 .ARM.attributes
                0x0000000000000891       0x33 ../../../driverlib/gcc/lib/Debug/libdriver.a(udma.o)
 .ARM.attributes
                0x00000000000008c4       0x33 ../../../driverlib/gcc/lib/Debug/libdriver.a(utils.o)
 .ARM.attributes
                0x00000000000008f7       0x33 ../../../driverlib/gcc/lib/Debug/libdriver.a(cpu.o)
 .ARM.attributes
                0x000000000000092a       0x2e /usr/lib/gcc/arm-none-eabi/5.2.0/../../../../arm-none-eabi/lib/armv7e-m/libc_nano.a(lib_a-atoi.o)
 .ARM.attributes
                0x0000000000000958       0x2e /usr/lib/gcc/arm-none-eabi/5.2.0/../../../../arm-none-eabi/lib/armv7e-m/libc_nano.a(lib_a-malloc.o)
 .ARM.attributes
                0x0000000000000986       0x2e /usr/lib/gcc/arm-none-eabi/5.2.0/../../../../arm-none-eabi/lib/armv7e-m/libc_nano.a(lib_a-memchr.o)
 .ARM.attributes
                0x00000000000009b4       0x2e /usr/lib/gcc/arm-none-eabi/5.2.0/../../../../arm-none-eabi/lib/armv7e-m/libc_nano.a(lib_a-memcmp.o)
 .ARM.attributes
                0x00000000000009e2       0x2e /usr/lib/gcc/arm-none-eabi/5.2.0/../../../../arm-none-eabi/lib/armv7e-m/libc_nano.a(lib_a-memcpy.o)
 .ARM.attributes
                0x0000000000000a10       0x2e /usr/lib/gcc/arm-none-eabi/5.2.0/../../../../arm-none-eabi/lib/armv7e-m/libc_nano.a(lib_a-memmove.o)
 .ARM.attributes
                0x0000000000000a3e       0x2e /usr/lib/gcc/arm-none-eabi/5.2.0/../../../../arm-none-eabi/lib/armv7e-m/libc_nano.a(lib_a-memset.o)
 .ARM.attributes
                0x0000000000000a6c       0x2e /usr/lib/gcc/arm-none-eabi/5.2.0/../../../../arm-none-eabi/lib/armv7e-m/libc_nano.a(lib_a-nano-freer.o)
 .ARM.attributes
                0x0000000000000a9a       0x2e /usr/lib/gcc/arm-none-eabi/5.2.0/../../../../arm-none-eabi/lib/armv7e-m/libc_nano.a(lib_a-nano-mallocr.o)
 .ARM.attributes
                0x0000000000000ac8       0x2e /usr/lib/gcc/arm-none-eabi/5.2.0/../../../../arm-none-eabi/lib/armv7e-m/libc_nano.a(lib_a-realloc.o)
 .ARM.attributes
                0x0000000000000af6       0x2e /usr/lib/gcc/arm-none-eabi/5.2.0/../../../../arm-none-eabi/lib/armv7e-m/libc_nano.a(lib_a-sbrkr.o)
 .ARM.attributes
                0x0000000000000b24       0x1c /usr/lib/gcc/arm-none-eabi/5.2.0/../../../../arm-none-eabi/lib/armv7e-m/libc_nano.a(lib_a-strcmp.o)
 .ARM.attributes
                0x0000000000000b40       0x2e /usr/lib/gcc/arm-none-eabi/5.2.0/../../../../arm-none-eabi/lib/armv7e-m/libc_nano.a(lib_a-strcpy.o)
 .ARM.attributes
                0x0000000000000b6e       0x2e /usr/lib/gcc/arm-none-eabi/5.2.0/../../../../arm-none-eabi/lib/armv7e-m/libc_nano.a(lib_a-strlen.o)
 .ARM.attributes
                0x0000000000000b9c       0x2e /usr/lib/gcc/arm-none-eabi/5.2.0/../../../../arm-none-eabi/lib/armv7e-m/libc_nano.a(lib_a-strncat.o)
 .ARM.attributes
                0x0000000000000bca       0x2e /usr/lib/gcc/arm-none-eabi/5.2.0/../../../../arm-none-eabi/lib/armv7e-m/libc_nano.a(lib_a-strtol.o)
 .ARM.attributes
                0x0000000000000bf8       0x2e /usr/lib/gcc/arm-none-eabi/5.2.0/../../../../arm-none-eabi/lib/armv7e-m/libc_nano.a(lib_a-vsnprintf.o)
 .ARM.attributes
                0x0000000000000c26       0x2e /usr/lib/gcc/arm-none-eabi/5.2.0/../../../../arm-none-eabi/lib/armv7e-m/libc_nano.a(lib_a-ctype_.o)
 .ARM.attributes
                0x0000000000000c54       0x2e /usr/lib/gcc/arm-none-eabi/5.2.0/../../../../arm-none-eabi/lib/armv7e-m/libc_nano.a(lib_a-impure.o)
 .ARM.attributes
                0x0000000000000c82       0x2e /usr/lib/gcc/arm-none-eabi/5.2.0/../../../../arm-none-eabi/lib/armv7e-m/libc_nano.a(lib_a-nano-reallocr.o)
 .ARM.attributes
                0x0000000000000cb0       0x2e /usr/lib/gcc/arm-none-eabi/5.2.0/../../../../arm-none-eabi/lib/armv7e-m/libc_nano.a(lib_a-nano-svfprintf.o)
 .ARM.attributes
                0x0000000000000cde       0x2e /usr/lib/gcc/arm-none-eabi/5.2.0/../../../../arm-none-eabi/lib/armv7e-m/libc_nano.a(lib_a-nano-vfprintf_i.o)
 .ARM.attributes
                0x0000000000000d0c       0x2e /usr/lib/gcc/arm-none-eabi/5.2.0/../../../../arm-none-eabi/lib/armv7e-m/libc_nano.a(lib_a-reent.o)
 .ARM.attributes
                0x0000000000000d3a       0x2e /usr/lib/gcc/arm-none-eabi/5.2.0/../../../../arm-none-eabi/lib/armv7e-m/libc_nano.a(lib_a-nano-msizer.o)

.debug_frame    0x0000000000000000     0x6ff0
 .debug_frame   0x0000000000000000      0x244 obj/Debug/camera_app.o
 .debug_frame   0x0000000000000244       0x78 obj/Debug/i2cconfig.o
 .debug_frame   0x00000000000002bc       0xa4 obj/Debug/mt9d111.o
 .debug_frame   0x0000000000000360       0x74 obj/Debug/main.o
 .debug_frame   0x00000000000003d4       0xbc obj/Debug/httpserverapp.o
 .debug_frame   0x0000000000000490       0x2c obj/Debug/pinmux.o
 .debug_frame   0x00000000000004bc      0x12c obj/Debug/uart_if.o
 .debug_frame   0x00000000000005e8      0x320 obj/Debug/network_if.o
 .debug_frame   0x0000000000000908      0x168 obj/Debug/udma_if.o
 .debug_frame   0x0000000000000a70       0xbc obj/Debug/startup_gcc.o
 .debug_frame   0x0000000000000b2c      0x400 ../../../netapps/http/server/gcc/lib/Debug/libwebserver.a(HttpCore.o)
 .debug_frame   0x0000000000000f2c       0x58 ../../../netapps/http/server/gcc/lib/Debug/libwebserver.a(HttpDebug.o)
 .debug_frame   0x0000000000000f84       0x8c ../../../netapps/http/server/gcc/lib/Debug/libwebserver.a(HttpDynamic.o)
 .debug_frame   0x0000000000001010       0xf0 ../../../netapps/http/server/gcc/lib/Debug/libwebserver.a(HttpSocket.o)
 .debug_frame   0x0000000000001100       0x60 ../../../netapps/http/server/gcc/lib/Debug/libwebserver.a(HttpStatic.o)
 .debug_frame   0x0000000000001160      0x11c ../../../netapps/http/server/gcc/lib/Debug/libwebserver.a(HttpString.o)
 .debug_frame   0x000000000000127c       0x7c ../../../netapps/http/server/gcc/lib/Debug/libwebserver.a(sha1.o)
 .debug_frame   0x00000000000012f8       0xb4 ../../../netapps/http/server/gcc/lib/Debug/libwebserver.a(WebSockHandler.o)
 .debug_frame   0x00000000000013ac       0x38 ../../../netapps/http/server/gcc/lib/Debug/libwebserver.a(base64.o)
 .debug_frame   0x00000000000013e4      0x1a8 ../../../simplelink/gcc/lib/os/Debug/libsimplelink.a(device.o)
 .debug_frame   0x000000000000158c      0x514 ../../../simplelink/gcc/lib/os/Debug/libsimplelink.a(driver.o)
 .debug_frame   0x0000000000001aa0      0x2ac ../../../simplelink/gcc/lib/os/Debug/libsimplelink.a(netapp.o)
 .debug_frame   0x0000000000001d4c       0x58 ../../../simplelink/gcc/lib/os/Debug/libsimplelink.a(netcfg.o)
 .debug_frame   0x0000000000001da4      0x13c ../../../simplelink/gcc/lib/os/Debug/libsimplelink.a(fs.o)
 .debug_frame   0x0000000000001ee0      0x3b0 ../../../simplelink/gcc/lib/os/Debug/libsimplelink.a(socket.o)
 .debug_frame   0x0000000000002290      0x2a8 ../../../simplelink/gcc/lib/os/Debug/libsimplelink.a(wlan.o)
 .debug_frame   0x0000000000002538      0x2d0 ../../../simplelink/gcc/lib/os/Debug/libsimplelink.a(cc_pal.o)
 .debug_frame   0x0000000000002808      0x4ac ../../../oslib/gcc/free_rtos/Debug/free_rtos.a(osi_freertos.o)
 .debug_frame   0x0000000000002cb4      0x4c8 ../../../oslib/gcc/free_rtos/Debug/free_rtos.a(queue.o)
 .debug_frame   0x000000000000317c      0x840 ../../../oslib/gcc/free_rtos/Debug/free_rtos.a(tasks.o)
 .debug_frame   0x00000000000039bc      0x19c ../../../oslib/gcc/free_rtos/Debug/free_rtos.a(port.o)
 .debug_frame   0x0000000000003b58      0x2b8 ../../../oslib/gcc/free_rtos/Debug/free_rtos.a(timers.o)
 .debug_frame   0x0000000000003e10       0x58 ../../../oslib/gcc/free_rtos/Debug/free_rtos.a(heap_3.o)
 .debug_frame   0x0000000000003e68       0xd8 ../../../oslib/gcc/free_rtos/Debug/free_rtos.a(list.o)
 .debug_frame   0x0000000000003f40      0x288 ../../../driverlib/gcc/lib/Debug/libdriver.a(camera.o)
 .debug_frame   0x00000000000041c8      0x870 ../../../driverlib/gcc/lib/Debug/libdriver.a(i2c.o)
 .debug_frame   0x0000000000004a38      0x258 ../../../driverlib/gcc/lib/Debug/libdriver.a(interrupt.o)
 .debug_frame   0x0000000000004c90      0x244 ../../../driverlib/gcc/lib/Debug/libdriver.a(pin.o)
 .debug_frame   0x0000000000004ed4      0x790 ../../../driverlib/gcc/lib/Debug/libdriver.a(prcm.o)
 .debug_frame   0x0000000000005664      0x2f4 ../../../driverlib/gcc/lib/Debug/libdriver.a(shamd5.o)
 .debug_frame   0x0000000000005958      0x480 ../../../driverlib/gcc/lib/Debug/libdriver.a(spi.o)
 .debug_frame   0x0000000000005dd8      0x3c8 ../../../driverlib/gcc/lib/Debug/libdriver.a(timer.o)
 .debug_frame   0x00000000000061a0      0x5cc ../../../driverlib/gcc/lib/Debug/libdriver.a(uart.o)
 .debug_frame   0x000000000000676c      0x390 ../../../driverlib/gcc/lib/Debug/libdriver.a(udma.o)
 .debug_frame   0x0000000000006afc       0x20 ../../../driverlib/gcc/lib/Debug/libdriver.a(utils.o)
 .debug_frame   0x0000000000006b1c       0x70 ../../../driverlib/gcc/lib/Debug/libdriver.a(cpu.o)
 .debug_frame   0x0000000000006b8c       0x30 /usr/lib/gcc/arm-none-eabi/5.2.0/../../../../arm-none-eabi/lib/armv7e-m/libc_nano.a(lib_a-atoi.o)
 .debug_frame   0x0000000000006bbc       0x30 /usr/lib/gcc/arm-none-eabi/5.2.0/../../../../arm-none-eabi/lib/armv7e-m/libc_nano.a(lib_a-malloc.o)
 .debug_frame   0x0000000000006bec       0x28 /usr/lib/gcc/arm-none-eabi/5.2.0/../../../../arm-none-eabi/lib/armv7e-m/libc_nano.a(lib_a-memchr.o)
 .debug_frame   0x0000000000006c14       0x28 /usr/lib/gcc/arm-none-eabi/5.2.0/../../../../arm-none-eabi/lib/armv7e-m/libc_nano.a(lib_a-memcmp.o)
 .debug_frame   0x0000000000006c3c       0x28 /usr/lib/gcc/arm-none-eabi/5.2.0/../../../../arm-none-eabi/lib/armv7e-m/libc_nano.a(lib_a-memcpy.o)
 .debug_frame   0x0000000000006c64       0x28 /usr/lib/gcc/arm-none-eabi/5.2.0/../../../../arm-none-eabi/lib/armv7e-m/libc_nano.a(lib_a-memmove.o)
 .debug_frame   0x0000000000006c8c       0x20 /usr/lib/gcc/arm-none-eabi/5.2.0/../../../../arm-none-eabi/lib/armv7e-m/libc_nano.a(lib_a-memset.o)
 .debug_frame   0x0000000000006cac       0x2c /usr/lib/gcc/arm-none-eabi/5.2.0/../../../../arm-none-eabi/lib/armv7e-m/libc_nano.a(lib_a-nano-freer.o)
 .debug_frame   0x0000000000006cd8       0x2c /usr/lib/gcc/arm-none-eabi/5.2.0/../../../../arm-none-eabi/lib/armv7e-m/libc_nano.a(lib_a-nano-mallocr.o)
 .debug_frame   0x0000000000006d04       0x20 /usr/lib/gcc/arm-none-eabi/5.2.0/../../../../arm-none-eabi/lib/armv7e-m/libc_nano.a(lib_a-realloc.o)
 .debug_frame   0x0000000000006d24       0x2c /usr/lib/gcc/arm-none-eabi/5.2.0/../../../../arm-none-eabi/lib/armv7e-m/libc_nano.a(lib_a-sbrkr.o)
 .debug_frame   0x0000000000006d50       0x20 /usr/lib/gcc/arm-none-eabi/5.2.0/../../../../arm-none-eabi/lib/armv7e-m/libc_nano.a(lib_a-strcpy.o)
 .debug_frame   0x0000000000006d70       0x20 /usr/lib/gcc/arm-none-eabi/5.2.0/../../../../arm-none-eabi/lib/armv7e-m/libc_nano.a(lib_a-strlen.o)
 .debug_frame   0x0000000000006d90       0x2c /usr/lib/gcc/arm-none-eabi/5.2.0/../../../../arm-none-eabi/lib/armv7e-m/libc_nano.a(lib_a-strncat.o)
 .debug_frame   0x0000000000006dbc       0x44 /usr/lib/gcc/arm-none-eabi/5.2.0/../../../../arm-none-eabi/lib/armv7e-m/libc_nano.a(lib_a-strtol.o)
 .debug_frame   0x0000000000006e00       0x48 /usr/lib/gcc/arm-none-eabi/5.2.0/../../../../arm-none-eabi/lib/armv7e-m/libc_nano.a(lib_a-vsnprintf.o)
 .debug_frame   0x0000000000006e48       0x3c /usr/lib/gcc/arm-none-eabi/5.2.0/../../../../arm-none-eabi/lib/armv7e-m/libc_nano.a(lib_a-nano-reallocr.o)
 .debug_frame   0x0000000000006e84       0x90 /usr/lib/gcc/arm-none-eabi/5.2.0/../../../../arm-none-eabi/lib/armv7e-m/libc_nano.a(lib_a-nano-svfprintf.o)
 .debug_frame   0x0000000000006f14       0x60 /usr/lib/gcc/arm-none-eabi/5.2.0/../../../../arm-none-eabi/lib/armv7e-m/libc_nano.a(lib_a-nano-vfprintf_i.o)
 .debug_frame   0x0000000000006f74       0x5c /usr/lib/gcc/arm-none-eabi/5.2.0/../../../../arm-none-eabi/lib/armv7e-m/libc_nano.a(lib_a-reent.o)
 .debug_frame   0x0000000000006fd0       0x20 /usr/lib/gcc/arm-none-eabi/5.2.0/../../../../arm-none-eabi/lib/armv7e-m/libc_nano.a(lib_a-nano-msizer.o)

.debug_loc      0x0000000000000000     0x1c1a
 .debug_loc     0x0000000000000000       0x63 /usr/lib/gcc/arm-none-eabi/5.2.0/../../../../arm-none-eabi/lib/armv7e-m/libc_nano.a(lib_a-atoi.o)
 .debug_loc     0x0000000000000063       0x58 /usr/lib/gcc/arm-none-eabi/5.2.0/../../../../arm-none-eabi/lib/armv7e-m/libc_nano.a(lib_a-malloc.o)
 .debug_loc     0x00000000000000bb       0xaa /usr/lib/gcc/arm-none-eabi/5.2.0/../../../../arm-none-eabi/lib/armv7e-m/libc_nano.a(lib_a-memchr.o)
 .debug_loc     0x0000000000000165      0x12e /usr/lib/gcc/arm-none-eabi/5.2.0/../../../../arm-none-eabi/lib/armv7e-m/libc_nano.a(lib_a-memcmp.o)
 .debug_loc     0x0000000000000293       0x87 /usr/lib/gcc/arm-none-eabi/5.2.0/../../../../arm-none-eabi/lib/armv7e-m/libc_nano.a(lib_a-memcpy.o)
 .debug_loc     0x000000000000031a       0xde /usr/lib/gcc/arm-none-eabi/5.2.0/../../../../arm-none-eabi/lib/armv7e-m/libc_nano.a(lib_a-memmove.o)
 .debug_loc     0x00000000000003f8       0x57 /usr/lib/gcc/arm-none-eabi/5.2.0/../../../../arm-none-eabi/lib/armv7e-m/libc_nano.a(lib_a-memset.o)
 .debug_loc     0x000000000000044f      0x172 /usr/lib/gcc/arm-none-eabi/5.2.0/../../../../arm-none-eabi/lib/armv7e-m/libc_nano.a(lib_a-nano-freer.o)
 .debug_loc     0x00000000000005c1      0x311 /usr/lib/gcc/arm-none-eabi/5.2.0/../../../../arm-none-eabi/lib/armv7e-m/libc_nano.a(lib_a-nano-mallocr.o)
 .debug_loc     0x00000000000008d2       0x58 /usr/lib/gcc/arm-none-eabi/5.2.0/../../../../arm-none-eabi/lib/armv7e-m/libc_nano.a(lib_a-realloc.o)
 .debug_loc     0x000000000000092a       0x4d /usr/lib/gcc/arm-none-eabi/5.2.0/../../../../arm-none-eabi/lib/armv7e-m/libc_nano.a(lib_a-sbrkr.o)
 .debug_loc     0x0000000000000977       0x21 /usr/lib/gcc/arm-none-eabi/5.2.0/../../../../arm-none-eabi/lib/armv7e-m/libc_nano.a(lib_a-strcpy.o)
 .debug_loc     0x0000000000000998       0x21 /usr/lib/gcc/arm-none-eabi/5.2.0/../../../../arm-none-eabi/lib/armv7e-m/libc_nano.a(lib_a-strlen.o)
 .debug_loc     0x00000000000009b9       0x8f /usr/lib/gcc/arm-none-eabi/5.2.0/../../../../arm-none-eabi/lib/armv7e-m/libc_nano.a(lib_a-strncat.o)
 .debug_loc     0x0000000000000a48      0x32b /usr/lib/gcc/arm-none-eabi/5.2.0/../../../../arm-none-eabi/lib/armv7e-m/libc_nano.a(lib_a-strtol.o)
 .debug_loc     0x0000000000000d73      0x163 /usr/lib/gcc/arm-none-eabi/5.2.0/../../../../arm-none-eabi/lib/armv7e-m/libc_nano.a(lib_a-vsnprintf.o)
 .debug_loc     0x0000000000000ed6      0x11b /usr/lib/gcc/arm-none-eabi/5.2.0/../../../../arm-none-eabi/lib/armv7e-m/libc_nano.a(lib_a-nano-reallocr.o)
 .debug_loc     0x0000000000000ff1      0x54e /usr/lib/gcc/arm-none-eabi/5.2.0/../../../../arm-none-eabi/lib/armv7e-m/libc_nano.a(lib_a-nano-svfprintf.o)
 .debug_loc     0x000000000000153f      0x52c /usr/lib/gcc/arm-none-eabi/5.2.0/../../../../arm-none-eabi/lib/armv7e-m/libc_nano.a(lib_a-nano-vfprintf_i.o)
 .debug_loc     0x0000000000001a6b       0xfa /usr/lib/gcc/arm-none-eabi/5.2.0/../../../../arm-none-eabi/lib/armv7e-m/libc_nano.a(lib_a-reent.o)
 .debug_loc     0x0000000000001b65       0xb5 /usr/lib/gcc/arm-none-eabi/5.2.0/../../../../arm-none-eabi/lib/armv7e-m/libc_nano.a(lib_a-nano-msizer.o)
